ARM GAS  /tmp/ccT9RbBH.s 			page 1


   1              		.syntax unified
   2              		.cpu cortex-m4
   3              		.fpu softvfp
   4              		.eabi_attribute 20, 1
   5              		.eabi_attribute 21, 1
   6              		.eabi_attribute 23, 3
   7              		.eabi_attribute 24, 1
   8              		.eabi_attribute 25, 1
   9              		.eabi_attribute 26, 1
  10              		.eabi_attribute 30, 2
  11              		.eabi_attribute 34, 1
  12              		.eabi_attribute 18, 4
  13              		.thumb
  14              		.file	"chcore_v7m.c"
  15              		.text
  16              	.Ltext0:
  17              		.section	.gnu.lto_.jmpfuncs.477e7457bcea9c1e,"",%progbits
  18 0000 789C6362 		.ascii	"x\234cb`d`g\300\016\270\24043\030\263\000I\000\002\320"
  18      60646067 
  18      C00EB8A0 
  18      343318B3 
  18      00490002 
  19 0015 001F     		.ascii	"\000\037"
  20              		.text
  21              		.section	.gnu.lto_.inline.477e7457bcea9c1e,"",%progbits
  22 0000 789C6362 		.ascii	"x\234cb`d\340e\300\016l\24143\003\003\277\030#\003\223"
  22      6064E065 
  22      C00E6CA1 
  22      34330303 
  22      BF182303 
  23 0015 C8851E46 		.ascii	"\310\205\036F\006\266\005\362L\014L\334`aN\016\240("
  23      06B605F2 
  23      4C0C4CDC 
  23      60614E0E 
  23      A028
  24 0027 CF835888 		.ascii	"\317\203X\210 \013\003\0277\210?'\022\302g\344\002i"
  24      200B0317 
  24      37883F27 
  24      12C267E4 
  24      0269
  25 0039 0600E6A8 		.ascii	"\006\000\346\250\006\324"
  25      06D4
  26              		.text
  27              		.section	.gnu.lto_.pureconst.477e7457bcea9c1e,"",%progbits
  28 0000 789C6362 		.ascii	"x\234cb`d`f```g\200\000f\006+f+\026+\000\003/\000\306"
  28      60646066 
  28      60606067 
  28      80006606 
  28      2B662B16 
  29              		.text
  30              		.section	.gnu.lto__port_irq_epilogue.part.0.477e7457bcea9c1e,"",%progbits
  31 0000 789CA552 		.ascii	"x\234\245R\317k\023Q\020\236yow\023k\253=\211\012\325"
  31      CF6B1351 
  31      109E796F 
  31      77136BAB 
  31      3D890AD5 
  32 0014 5090FA23 		.ascii	"P\220\372#d{R/\202R\021=\004m\202\307Zd\335R1m\302f"
ARM GAS  /tmp/ccT9RbBH.s 			page 2


  32      647B522F 
  32      8252113D 
  32      046D82C7 
  32      5A64DD52 
  33 002c 2B2507BB 		.ascii	"+%\007\273M{(\202P<UEk\213\036\032\363\007\364VP\224"
  33      4D7B2882 
  33      503C5545 
  33      6B8B1E1A 
  33      F307F456 
  34 0042 624B4188 		.ascii	"bKA\210\027[\260\247\2504\026\017\275\024\2058\357\355"
  34      175BB0A7 
  34      A834160F 
  34      BD148538 
  34      EFED
  35 0054 6E7ED852 		.ascii	"n~\330R\252\276d\337\014o\346\373\276y\363\206\001\322"
  35      AABE64DF 
  35      0C6FE6FB 
  35      BE79F386 
  35      01D2
  36 0066 6FEBBA48 		.ascii	"o\353\272H\337'\005`\212,\006\000\265\361%r4d\3222\306"
  36      DF270560 
  36      8A2C0600 
  36      B5F12572 
  36      3464D232 
  37 007b C7DAC039 		.ascii	"\307\332\3009\256\210\275\235\243*N\207C\212\357\250"
  37      AE88BD9D 
  37      A32A4E87 
  37      438AEFA8 
  38 008b 88C221E6 		.ascii	"\210\302!\346!\215qE\305\241\353RDk\205)\307y8>\342"
  38      218D7145 
  38      C5A1EB52 
  38      446B8529 
  38      C779383E 
  39 00a0 CC376757 		.ascii	"\3147gW\313\345\243&\002\003\206\320\215P\234_\376\316"
  39      CBE5A326 
  39      020386D0 
  39      8D509C5F 
  39      FECE
  40 00b2 0E818908 		.ascii	"\016\201\211\010!\020\226\201R_S\005|\331\303r\006\247"
  40      21109681 
  40      525F5305 
  40      7CD9C372 
  40      06A7
  41 00c4 25767D6D 		.ascii	"%v}mn\221\357\002\373\343u\366\240\207\2458\001\177"
  41      6E91EF02 
  41      FBE375F6 
  41      A087A538 
  41      017F
  42 00d6 E5729E66 		.ascii	"\345r\236f\320\303\341\266\232o\262\276\246\312(M@W"
  42      D0C3E1B6 
  42      9A6FB2BE 
  42      A6CA284D 
  42      4057
  43 00e8 7299DD54 		.ascii	"r\231\335T[\203\224\212\245\311\034\376\013nv\347\373"
  43      5B83948A 
  43      A5C91CFE 
  43      0B6E76E7 
ARM GAS  /tmp/ccT9RbBH.s 			page 3


  43      FB
  44 00f9 E1465E9B 		.ascii	"\341F^\233c\316jy\010\240\021\241\013\237c+\265\266"
  44      63CE6A79 
  44      08A011A1 
  44      0B9F632B 
  44      B5B6
  45 010b 0BA7C972 		.ascii	"\013\247\311r\317*d_\222U\311\276 KK\205Q\307i\026\002"
  45      CF2A645F 
  45      9255C9BE 
  45      204B4B85 
  45      51C76916 
  46 0120 72750A2B 		.ascii	"ru\012+\236\256\0235\351\360\030iIg\001\206\261\370"
  46      9EAE1335 
  46      E9F01869 
  46      49670186 
  46      B1F8
  47 0132 75B9C545 		.ascii	"u\271\305E\240\253\340\301+gB\245\013gD\315\177,\"N"
  47      A0ABE0C1 
  47      2B6742A5 
  47      0B6744CD 
  47      7F2C224E 
  48 0146 70AA08E4 		.ascii	"p\252\010\344\006p\0042O\235\211\363\246\320\001\003"
  48      06700432 
  48      4F9D89F3 
  48      A6D00103 
  49 0156 A5FE3B59 		.ascii	"\245\376;Yq\016U\257~y\374\036\262\337\370\372\332\207"
  49      710E55AF 
  49      7E79FC1E 
  49      B2DFF8FA 
  49      DA87
  50 0168 02D1E729 		.ascii	"\002\321\347)d \223\347nr^&O\313d&\222G\356\363\302"
  50      642093E7 
  50      6E725E26 
  50      4FCB6426 
  50      9247EEF3 
  51 017d 4C8F9FCA 		.ascii	"L\217\237\312\351\324\355\027\365\322]X\256x\333\221"
  51      E9D4ED17 
  51      F5D25D58 
  51      AE78DB91 
  52 018d 70A978B6 		.ascii	"p\251x\26643\355\351\235\202\223&\006\370cx\204&\006"
  52      3433EDE9 
  52      9D829326 
  52      06F86378 
  52      842606
  53 01a0 9947C825 		.ascii	"\231G\310%\341~9.7\3046A@\3714{\300q\234 H\232\022\247"
  53      E17E392E 
  53      37C43641 
  53      40F9347B 
  53      C0719C20 
  54 01b8 29F16B51 		.ascii	")\361kQ$yUq\3138S\344\236\030-,L\036\336\361\261\015"
  54      24795571 
  54      CB3853E4 
  54      9E182D2C 
  54      4C1EDEF1 
  55 01ce 31BD0B90 		.ascii	"1\275\013\220\305\342\354\347\226\272'\360\250k\333"
  55      C5E2ECE7 
  55      96BA27F0 
ARM GAS  /tmp/ccT9RbBH.s 			page 4


  55      A86BDB
  56 01dd 8EF000EB 		.ascii	"\216\360\000\353\033\377\004\335\3167\370T\225\3103"
  56      1BFF04DD 
  56      CE37F854 
  56      95C833
  57 01ec ACBE09C0 		.ascii	"\254\276\011\300\"\360\365\237\037\013\212\177\0015"
  57      22F0F59F 
  57      1F0B8A7F 
  57      0135
  58 01fa 039B4ED0 		.ascii	"\003\233N\320\304\275\330\215\314\035\030\023\033\001"
  58      C4BDD88D 
  58      CC1D1813 
  58      1B01
  59 0208 DEC2E817 		.ascii	"\336\302\350\027\034\343\2254Qs}\3051q\363\2616N-\331"
  59      1CE39534 
  59      51737DC5 
  59      3171F3B1 
  59      364E2DD9 
  60 021c E48BAFFE 		.ascii	"\344\213\257\376\246\265\264\317\212\326z\332M\244\315"
  60      A6B5B4CF 
  60      8AD67ADA 
  60      4DA4CD
  61 022b E70335CC 		.ascii	"\347\0035\314J\225y\343\177\231\225:f\325\035\374%\300"
  61      4A9579E3 
  61      7F99953A 
  61      66D51DFC 
  61      25C0
  62 023d 95FC81FA 		.ascii	"\225\374\201\372\306v\0124\005E\3374\313L\017$\354p"
  62      C6760A34 
  62      0545DF34 
  62      CB4C0F24 
  62      EC70
  63 024f 24A2BBFF 		.ascii	"$\242\273\377dZ7\007m\275#\032\277\022\327o\367\033"
  63      645A3707 
  63      6DBD231A 
  63      BF12D76F 
  63      F71B
  64 0261 89815BA6 		.ascii	"\211\201[\246n$-\263\333\350\2734\320oDzA1\354\301\324"
  64      6E242DB3 
  64      DBE8BB34 
  64      D06F447A 
  64      4131ECC1 
  65 0276 895A8465 		.ascii	"\211Z\204e\353\251\244e\247\365\013\261hGtP7z%\342\356"
  65      EBA9A465 
  65      A7F50BB1 
  65      68477450 
  65      377A25E2 
  66 028b 99BE8801 		.ascii	"\231\276\210\001\232H\217\2647Ec\361\320\261\366p(\225"
  66      9A488FB4 
  66      374563F1 
  66      D0B1F670 
  66      2895
  67 029d 4E35003F 		.ascii	"N5\000?g\301>;\231\272\332s\315J\032q\373\246q\247)"
  67      67C13E3B 
  67      99BADA73 
  67      CD4A1A71 
  67      FBA671A7 
ARM GAS  /tmp/ccT9RbBH.s 			page 5


  68 02b2 1A8F8960 		.ascii	"\032\217\211`\230\262\032\200Y\300\323)\370\015\252"
  68      98B21A80 
  68      59C0D329 
  68      F80DAA
  69 02c1 104016   		.ascii	"\020@\026"
  70              		.text
  71              		.section	.gnu.lto_SVC_Handler.477e7457bcea9c1e,"",%progbits
  72 0000 789C8D52 		.ascii	"x\234\215RKh\023Q\024=\367\275$\245\245\225l\013ZC\301"
  72      4B681351 
  72      143DF7BD 
  72      24A5A595 
  72      6C0B5A43 
  73 0015 8510328A 		.ascii	"\205\0202\212\013\335\010JAt\021\264\011.%\304q$\305"
  73      0BDD084A 
  73      417411B4 
  73      092E25C4 
  73      7124C5
  74 0028 A4196626 		.ascii	"\244\031f&%\2720\323\324\205\010Bu!\215\242h\220\272"
  74      25BA30D3 
  74      D4850842 
  74      75218DA2 
  74      6890BA
  75 003b 115C94A2 		.ascii	"\021\\\224\242 \250`)b\240\0137.*\264h\011~w]\270\220"
  75      20A86029 
  75      62A00B37 
  75      2E2AB468 
  75      097E775D 
  76 0051 C4F7DEE4 		.ascii	"\304\367\336\344\3234%t~w\346\336{\316\273\347\314c"
  76      D3342574 
  76      7E77E6DE 
  76      7BCEBBE7 
  76      CC63
  77 0063 2071761F 		.ascii	" qv\037\303\342.q\340\247\210\304Alv\005\230\0161\""
  77      C3E22E71 
  77      E0A788C4 
  77      416C7605 
  77      980E3122 
  78 0077 F9222005 		.ascii	"\371\" \005F\205\363\012\311G\361\304u\357\316\276/"
  78      4685F30A 
  78      C947F1C4 
  78      75EFCEBE 
  78      2F
  79 0088 9E2EAED7 		.ascii	"\236.\256\327\353\373\015\002\003#$\010\325\277\013"
  79      EBFB0D02 
  79      03232408 
  79      D5BF0B
  80 0097 1B340C83 		.ascii	"\0334\014\203\010!\310\310\340\353\\\247\201\235q\233"
  80      0821C8C8 
  80      E0EB5CA7 
  80      819D719B 
  81 00a7 58CE7044 		.ascii	"X\316pDa\227\346\336\354\022\372!\330\300\372\030\216"
  81      6197E6DE 
  81      EC12FA21 
  81      D8C0FA18 
  81      8E
  82 00b8 296CADB2 		.ascii	")l\255\262\372\207\365\004W\277\277\330\373\345~\340"
  82      FA87F504 
ARM GAS  /tmp/ccT9RbBH.s 			page 6


  82      57BFBFD8 
  82      FBE57EE0 
  83 00c8 2D7BB75E 		.ascii	"-{\267^/\000\203\014\027\250L\243\340\215\350\023\361"
  83      2F00830C 
  83      17A84CA3 
  83      E08DE813 
  83      F1
  84 00d9 B188FD22 		.ascii	"\261\210\375\">\025Q\034~\334p\335 y\365D\303\264q\031"
  84      3E15511C 
  84      7EDC70DD 
  84      2079F544 
  84      C3B47119 
  85 00ed A52531B1 		.ascii	"\245%1\261\206|\341\025LS\355\327\352\276V\273\204{"
  85      867CE115 
  85      4C53EDD7 
  85      EABE56BB 
  85      847B
  86 00ff 1F826B9E 		.ascii	"\037\202k\236\374[\307\020\3504\027vA=\200\021\\{\350"
  86      FC5BC710 
  86      E8341776 
  86      413D8011 
  86      5C7BE8
  87 0112 CE9D3054 		.ascii	"\316\2350T\227N\3752\267\0149\3343\221\362\270T\372"
  87      974EFD32 
  87      B70C39DC 
  87      3391F2B8 
  87      54FA
  88 0124 238A3F78 		.ascii	"#\212?x\365\346\302\022y\234:1\225\367\232\347UsY53"
  88      F5E6C212 
  88      799C3A31 
  88      95F79AE7 
  88      55735935 
  89 0139 D93C738B 		.ascii	"\331<s\213o\224F\232\255\\d=WB\330\011\302\025\377o"
  89      6F94469A 
  89      AD5C643D 
  89      5742D809 
  89      C215FF6F 
  90 014d FEAF6435 		.ascii	"\376\257d5!>\225m\267v\3757\341\375u\345\375\346\347"
  90      213E956D 
  90      B776FD37 
  90      E1FD75E5 
  90      FDE6E7
  91 0160 DEBF4D70 		.ascii	"\336\277Mp\001\025\024\251\366z\255aR\333\332\347b\375"
  91      011514A9 
  91      F67AAD61 
  91      52DBDAE7 
  91      62FD
  92 0172 ED26C90D 		.ascii	"\355&\311\015z\233:]z@\236M\201&a\253\362\210\332\006"
  92      7A9B3A5D 
  92      7A409E4D 
  92      812661AB 
  92      F288DA06 
  93 0186 AA81A963 		.ascii	"\252\201\251c\215.\366\235\204\224I)\371z\357\316Z\270"
  93      8D2EF69D 
  93      84944929 
  93      F97AEFCE 
  93      5AB8
ARM GAS  /tmp/ccT9RbBH.s 			page 7


  94 0198 A71699F4 		.ascii	"\247\026\231\364RJP\245\264\314\267+z\251\024-v)\372"
  94      524A50A5 
  94      B4CCB72B 
  94      7AA9142D 
  94      7629FA
  95 01ab D443519B 		.ascii	"\324CQ\233\266U\376\326(\367\251\364\012\250\372jq\260"
  95      B655FED6 
  95      28F7A9F4 
  95      0AA8FA6A 
  95      71B0
  96 01bd 53CBB898 		.ascii	"S\313\270\230S\356@\211\010\350N\336\214\034>\030\211"
  96      53EE4089 
  96      08E84EDE 
  96      8C1C3E18 
  96      89
  97 01ce 68DE95B5 		.ascii	"h\336\225\2655\313\321\314\254\345\330\332\311Xt,\232"
  97      35CBD1CC 
  97      ACE5D8DA 
  97      C958742C 
  97      9A
  98 01df D7F4949E 		.ascii	"\327\364\224\236\265\214\304\324\321LD\207O\002\002"
  98      B58CC4D4 
  98      D14C4487 
  98      4F0202
  99 01ee 9661E7D2 		.ascii	"\226a\347\322Nx+\312\310;\332X4~&\256ML\352\351\334"
  99      4E782BCA 
  99      C83BDA58 
  99      347E26AE 
  99      4D4CEAE9 
 100 0203 25435328 		.ascii	"%CS(=s*7\251GR\030\212\306\342\241\003\207\302!\323"
 100      3D732A37 
 100      A9475218 
 100      8AC6E2A1 
 100      0387C221 
 101 0218 3607C08F 		.ascii	"6\007\300\217[\330\343d\315\263\227\317YY=\356$\365"
 101      5BD8E364 
 101      CDB397CF 
 101      59593DEE 
 101      24F5
 102 022a 2B43D178 		.ascii	"+C\321xL\026\303\242k\000\314\002\267M\370\247\222\351"
 102      4C16C3A2 
 102      6B00CC02 
 102      B74DF8A7 
 102      92E9
 103 023c 9CB1DBF1 		.ascii	"\234\261\333\361R\010J\222\213I\3330\255\011I\204\276"
 103      52084A92 
 103      8B49DB30 
 103      AD094984 
 103      BE
 104 024d 8C91C95A 		.ascii	"\214\221\311ZW\361\037|\267\372\246"
 104      57F11F7C 
 104      B7FAA6
 105              		.text
 106              		.section	.gnu.lto__port_irq_epilogue.477e7457bcea9c1e,"",%progbits
 107 0000 789C9D52 		.ascii	"x\234\235RMh\023A\024\376\336\314nZ\025\245\247\212"
 107      4D681341 
 107      14FEDECC 
ARM GAS  /tmp/ccT9RbBH.s 			page 8


 107      6E5A15A5 
 107      A78A
 108 0012 97BA1404 		.ascii	"\227\272\024\004\305\220\355-\005/JA\364\220\203\011"
 108      C590ED2D 
 108      052F4A41 
 108      F4908309 
 109 0022 5E8435D4 		.ascii	"^\2045\324u \205\246\011\233\244D/\231&\271\210\010"
 109      752085A6 
 109      099BA444 
 109      2F9926B9 
 109      8808
 110 0034 C5932D94 		.ascii	"\305\223-\224Z\245R\203\036\304\223PP\024=\244\322S"
 110      5AA55283 
 110      1EC49350 
 110      50143DA4 
 110      D253
 111 0046 4E9E0AA5 		.ascii	"N\236\012\245z\327^z\3208\263\233\264\211\241\241\370"
 111      7AD75E7A 
 111      D038B39B 
 111      B489A1A1 
 111      F8
 112 0057 F6E70DEF 		.ascii	"\366\347\015\357\275\371\346\233\367=\006RO\257]R_\231"
 112      BDF9E69B 
 112      F73D0652 
 112      4FAF5D52 
 112      5F99
 113 0069 032F95A7 		.ascii	"\003/\225\247\020\210\315o\002s\026c\2741\014y\336X"
 113      1088CD6F 
 113      02731663 
 113      BC310C79 
 113      DE58
 114 007b 8F428E71 		.ascii	"\217B\216q2u\230\214\300\317Y&\221^(\304\022\343\206"
 114      3275988C 
 114      C0CF5926 
 114      915E28C4 
 114      12E386
 115 008e 49A59B3E 		.ascii	"I\245\233>6\033\305\212\224\217\347?\225\257\225\267"
 115      361BC58A 
 115      948FE73F 
 115      95AF95B7 
 116 009e 9ACDB342 		.ascii	"\232\315\263BG\223\204\372\357\355\223g \210`A{\006"
 116      479384FA 
 116      EFED9367 
 116      20886041 
 116      7B06
 117 00b0 A39BC521 		.ascii	"\243\233\305!\373\326\314\276\273\032\313\177h\367U"
 117      FBD6CCBE 
 117      BB1ACB7F 
 117      68F755
 118 00bf E83DFBB0 		.ascii	"\350=\373\260\325,\001\247\031\034zJ\243\340\312\257"
 118      D52C01A7 
 118      191C7A4A 
 118      A3E0CAAF 
 119 00cf 28AFCC44 		.ascii	"(\257\314DU\312!\215\345\333\015\3555\363\270B\323\013"
 119      55CA218D 
 119      E5DB0DED 
 119      35F3B842 
ARM GAS  /tmp/ccT9RbBH.s 			page 9


 119      D30B
 120 00e1 FE058C5A 		.ascii	"\376\005\214ZE-\347\3203\025\351\341V\221mn\234!L\032"
 120      452DE7D0 
 120      3315E9E1 
 120      56916D6E 
 120      9C214C1A 
 121 00f5 B2F6F0D7 		.ascii	"\262\366\360\327\016\353\313P\007\271J\002\033(\323"
 121      0EEBCB50 
 121      07B94A02 
 121      1B28D3
 122 0104 CF470BDB 		.ascii	"\317G\013\333\343]\207\221C\253\212\250C\317\273\216"
 122      E35D8791 
 122      43AB8AA8 
 122      43CFBB8E 
 123 0114 D4523D50 		.ascii	"\324R=P\033\025G\377\007\214`\221\226\344\223\313\202"
 123      1B1547FF 
 123      078C6091 
 123      96E493CB 
 123      82
 124 0125 8C2ED8FD 		.ascii	"\214.\330\375\364R+\035\300\324\361\361\226nzp\027\227"
 124      F4522B1D 
 124      C0D4F1F1 
 124      966E7A70 
 124      1797
 125 0137 D845D464 		.ascii	"\330E\324d\225\004\205\370\"\026\224\037\360y\017B~"
 125      950485F8 
 125      2216941F 
 125      F0790F42 
 125      7E
 126 0148 ABC85308 		.ascii	"\253\310S\010\326\201\335>\230\222:*\357\370\232\331"
 126      D681DD3E 
 126      98923A2A 
 126      EFF89AD9 
 127 0158 06E10A47 		.ascii	"\006\341\012GW\002\212?\360\031\325\037\224\332O\006"
 127      57028A3F 
 127      F019D51F 
 127      94DA4F06 
 128 0168 994E8B2B 		.ascii	"\231N\213+\216h\014\363\257\340\324n\352}\354\311AA"
 128      8E680CF3 
 128      AFE0D46E 
 128      EA7DECC9 
 128      4141
 129 017a C7284914 		.ascii	"\307(I\024\224\013:\336.WW[\217\376\227\"\016\275P\315"
 129      940B3ADE 
 129      2E57575B 
 129      8FFE9722 
 129      0EBD50CD 
 130 018e F725D93B 		.ascii	"\367%\331;\222$\350'\311[_\2227\207I\342PM-\016pZ\032"
 130      9224E827 
 130      C95B5F92 
 130      378749E2 
 130      504D2D0E 
 131 01a5 38F49A46 		.ascii	"8\364\232F:.o\006\003\266\011\252o\354\260\026x\017"
 131      3A2E6F06 
 131      03B609AA 
 131      6FECB016 
 131      780F
ARM GAS  /tmp/ccT9RbBH.s 			page 10


 132 01b7 F5130CAB 		.ascii	"\365\023\014\253\344O\323\356\362w\352\313\374\3376"
 132      E44FD3EE 
 132      F277EACB 
 132      FCDF36
 133 01c6 40CF33F9 		.ascii	"@\3173\371\247h\002\027\"\021;x39\333\313\333\331\214"
 133      A7680217 
 133      22113B78 
 133      3339DBCB 
 133      DBD98C
 134 01d9 97CFD957 		.ascii	"\227\317\331W\342\261\211X\321vSn\306\023\311\331h:"
 134      E2B18958 
 134      D176536E 
 134      C613C9D9 
 134      683A
 135 01eb E2C29C9D 		.ascii	"\342\302\234\235\234.\210\243\326\247\020\356\254\024"
 135      9C2E88A3 
 135      D6A710EE 
 135      AC14
 136 01f9 C5BC3D11 		.ascii	"\305\274=\021K\\O\330S3\356t\341\256\260\375J7}\265"
 136      4B5C4FD8 
 136      5333EE74 
 136      E1AEB0FD 
 136      4A377DB5 
 137 020d 30E3AAE2 		.ascii	"0\343\252\342\241X\"n\335\231\314\211\2547\025\266\316"
 137      A158226E 
 137      DD99CC89 
 137      AC3715B6 
 137      CE
 138 021e 8D817918 		.ascii	"\215\201y\030H\213t\306\273\007\303\315\027\263\177"
 138      488B74C6 
 138      BB07C3CD 
 138      17B37F
 139 022d 015808E1 		.ascii	"\001X\010\341_"
 139      5F
 140              		.text
 141              		.section	.gnu.lto_.cgraph.477e7457bcea9c1e,"",%progbits
 142 0000 789C3DCA 		.ascii	"x\234=\312\253\021\2000\024D\321\335\227\244\016\034"
 142      AB118030 
 142      1444D1DD 
 142      97A40E1C 
 143 0010 85D1C806 		.ascii	"\205\321\310\006\303D\322\000\010\034u\340\251\004\303"
 143      C344D200 
 143      081C75E0 
 143      A904C3
 144 001f CFA09821 		.ascii	"\317\240\230!\300ug\346\032\010\007\240\302\233]\024"
 144      C07567E6 
 144      1A0807A0 
 144      C29B5D14 
 145 002f D0CE90BA 		.ascii	"\320\316\220\272D\036\024\037\305\232<)\373`+\345\362"
 145      441E141F 
 145      C59A3C29 
 145      FB602BE5 
 145      F2
 146 0040 D727DA46 		.ascii	"\327'\332F\371_\334\251\220\307H\207\200\251Y\012\347"
 146      F95FDCA9 
 146      90C74887 
 146      80A9590A 
ARM GAS  /tmp/ccT9RbBH.s 			page 11


 146      E7
 147 0051 81612C71 		.ascii	"\201a,q\003\177\275 2"
 147      037FBD20 
 147      32
 148              		.text
 149              		.section	.gnu.lto_.vars.477e7457bcea9c1e,"",%progbits
 150 0000 789C6362 		.ascii	"x\234cb`d`f`\000\222P\000\000\000r\000\010"
 150      60646066 
 150      60009250 
 150      00000072 
 150      0008
 151              		.text
 152              		.section	.gnu.lto_.refs.477e7457bcea9c1e,"",%progbits
 153 0000 789C6362 		.ascii	"x\234cb`d`f``\340`\200\000&\006\026F\026&\006\006\000"
 153      60646066 
 153      6060E060 
 153      80002606 
 153      16461626 
 154 0017 015D001C 		.ascii	"\001]\000\034"
 155              		.text
 156              		.section	.gnu.lto_.statics.477e7457bcea9c1e,"",%progbits
 157 0000 789C6362 		.ascii	"x\234cb`d`b\300\016@\342\214\020&\000\000\375\000\011"
 157      60646062 
 157      C00E40E2 
 157      8C102600 
 157      00FD0009 
 158              		.text
 159              		.section	.gnu.lto_.decls.477e7457bcea9c1e,"",%progbits
 160 0000 789CAD57 		.ascii	"x\234\255W}lSU\024\277\367\265\333\272l\231\200\216"
 160      7D6C5355 
 160      14BFF7B5 
 160      DBBA6C99 
 160      808E
 161 0012 6C9164E5 		.ascii	"l\221d\345\017\214\220\260\216A\002\177\010at`\367\307"
 161      0F8C90B0 
 161      8E41027F 
 161      08617460 
 161      F7C7
 162 0024 746981C4 		.ascii	"ti\201\304?j\031o\205\326tk\367\372\246c\177\2751\371"
 162      3F6A196F 
 162      85D6746B 
 162      F7FAA663 
 162      7FBD31F9 
 163 0038 5001AB19 		.ascii	"P\001\253\031Q\003\301\016\331\344#\033\037\0113 \301"
 163      5103C10E 
 163      D9E4231B 
 163      1F093320 
 163      C1
 164 0049 25226A82 		.ascii	"%\"j\202\004\222\361%\013L2\211!\304\010A\305\3102\317"
 164      0492F125 
 164      0B4C3289 
 164      21C40841 
 164      C5C832CF 
 165 005d BD7DEFBE 		.ascii	"\275}\357\276\217\366\365\265\2137=\247\367\265\347"
 165      8FF6F5B5 
 165      8B373DA7 
 165      F7B5E7
ARM GAS  /tmp/ccT9RbBH.s 			page 12


 166 006c FECEEF9C 		.ascii	"\376\316\357\234{\356\271-\2070\"\243\011\336\246`\224"
 166      7BEEB92D 
 166      873022A3 
 166      09DEA660 
 166      94
 167 007d CD46E82D 		.ascii	"\315F\350-\016!;|\266\034\251\243\020$\011\322\017r"
 167      0E213B7C 
 167      B61CA9A3 
 167      102409D2 
 167      0F72
 168 008f 18E428C8 		.ascii	"\030\344(\310 \310\011\224>\210]\031\310\260\374^\012"
 168      20C80994 
 168      3E885D19 
 168      C8B0FC5E 
 168      0A
 169 00a0 7206E414 		.ascii	"r\006\344\024H\021\310\025\220\363 gAV\200\\\003\271"
 169      4811C815 
 169      90F32067 
 169      4156805C 
 169      03B9
 170 00b2 017212E4 		.ascii	"\001r\022\344&\010\270G\227A.\201\024\310x\212/\305"
 170      2608B847 
 170      97412E81 
 170      14C8788A 
 170      2FC5
 171 00c4 BF71103E 		.ascii	"\277q\020>\016\031_\353sX\366G|\334\222m\261lo\034\203"
 171      0E195FEB 
 171      7358F647 
 171      7CDC926D 
 171      B16C6F1C 
 172 00d9 F23A2DC6 		.ascii	"\362:-\306\260f\355m\2201\220\027\001`\016H\237\354"
 172      B066ED6D 
 172      90319017 
 172      01600E48 
 172      9FEC
 173 00eb 83E04DC8 		.ascii	"\203\340M\310\274\007e\276\306Q\205\016H#\343\211\236"
 173      BC0765BE 
 173      C651850E 
 173      4823E389 
 173      9E
 174 00fc AD9EA753 		.ascii	"\255\236\247SSE\263\321^\011Fr\273$a\321\217\227\227"
 174      5345B3D1 
 174      5E094672 
 174      BB2461D1 
 174      8F9797
 175 010f A34AE4C7 		.ascii	"\243J\344\307e\305\0109\351\254\2648\265\003\010\346"
 175      65C50839 
 175      E9ACB438 
 175      B50308E6 
 176 011f 7D78B63C 		.ascii	"}x\266<[kKaq\210\303h\001:\"\321\201\325\240`\314AC"
 176      5B6B4B61 
 176      7188C368 
 176      013A22D1 
 176      81D5A060 
 177 0136 47BF59A2 		.ascii	"G\277Y\242x}\011\365KRB\032\331ZA\235\020\220$\256\322"
 177      787D09F5 
 177      4B52421A 
ARM GAS  /tmp/ccT9RbBH.s 			page 13


 177      D95A419D 
 177      109024AE 
 178 014b 11F3E383 		.ascii	"\021\363\343\203\23032\035O$z\222y3\035\310\300\264"
 178      9833321D 
 178      4F247A92 
 178      79331DC8 
 178      C0B4
 179 015d 11C3E317 		.ascii	"\021\303\343\027x\001\032\332s\355F\205\336\361\227"
 179      78011ADA 
 179      73ED4685 
 179      DEF197
 180 016c D91CA7E0 		.ascii	"\331\034\247\3408\264\033+\010co\352\227\037I_\236\204"
 180      38B41B2B 
 180      08636FEA 
 180      971F495F 
 180      9E84
 181 017e 0C4BBAE5 		.ascii	"\014K\272\345}l\371\320\203\3436]^$]^\216\246\345\345"
 181      7D6CF9D0 
 181      83E3365D 
 181      5E245D5E 
 181      8EA6E5E5 
 182 0192 5816FC1D 		.ascii	"X\026\374\0353\024\007\203\314\301hU\026\370\3014\370"
 182      33140783 
 182      CCC16855 
 182      16F8C134 
 182      F8
 183 01a3 A19CD3EE 		.ascii	"\241\234\323\356@;$i\2534\276M\352\306\355\210m\200"
 183      403B2469 
 183      AB34BE4D 
 183      EAC6ED88 
 183      6D80
 184 01b5 836D00D9 		.ascii	"\203m\000\331\373y\350\220\\\017~|\012;\200\331\010"
 184      FB79E890 
 184      5C0F7E7C 
 184      0A3B80D9 
 184      08
 185 01c6 269F6394 		.ascii	"&\237c\224>R\026dT\252s6\305(\313\036\237\314\260\307"
 185      3E521664 
 185      54AA7336 
 185      C528CB1E 
 185      9FCCB0C7 
 186 01da 17590A0E 		.ascii	"\027Y\012\016\036xto\247M\357\352\264>\316b\264\223"
 186      1E78746F 
 186      A74DEFEA 
 186      B43ECE62 
 186      B493
 187 01ec 04039179 		.ascii	"\004\003\221y~(3\363D\203I\244\202\031\306\305\340\243"
 187      7E2833F3 
 187      448349A4 
 187      8219C6C5 
 187      E0A3
 188 01fe 9B537C3C 		.ascii	"\233S|<8t\365\242K\001/*\326;\203\347\224U\0129\365"
 188      3874F5A2 
 188      4B012F2A 
 188      D63B83E7 
 188      94550A39 
 189 0213 B53223FD 		.ascii	"\2652#\375\3559\204J\320\373*\203Y\350#\2224\247\226"
ARM GAS  /tmp/ccT9RbBH.s 			page 14


 189      ED39844A 
 189      D0FB2A83 
 189      59E82392 
 189      34A796
 190 0226 8BC43132 		.ascii	"\213\30412N\032\340\004u~\026\317\222\301\265\271&\237"
 190      4E1AE004 
 190      757E16CF 
 190      92C1B5B9 
 190      269F
 191 0238 2256E393 		.ascii	"\"V\343\223\227u5.\017\307\\\224\004\227\244v\012u\336"
 191      9775352E 
 191      0FC75C94 
 191      0497A476 
 191      0A75DE
 192 024b B31C286D 		.ascii	"\263\034(m\012\316\343\022`\361\007K\301\375\343\373"
 192      0ACEE312 
 192      60F1074B 
 192      C1FDE3FB 
 193 025b BEAF5242 		.ascii	"\276\257RB^Q\242O\001<+)\240\344?\267)\344\207\366L"
 193      5E51A24F 
 193      013C2B29 
 193      A0E43FB7 
 193      29E487F6 
 194 0270 5D9E9FD9 		.ascii	"]\236\237\331\2332G\254*\312\324\314j\330+\\\0162\320"
 194      9B3247AC 
 194      2ACAD4CC 
 194      6AD82B5C 
 194      0E32D0
 195 0283 0BAFE483 		.ascii	"\013\257\344\203\3504E\354g\210\227,\020\0359r<\314"
 195      E83445EC 
 195      6788972C 
 195      101D3972 
 195      3CCC
 196 0295 1047F342 		.ascii	"\020G\363B4\347x\214!\216Y \316\310\221\343q\2068\221"
 196      34E7788C 
 196      218E5920 
 196      CEC891E3 
 196      71863891 
 197 02a9 17A239C7 		.ascii	"\027\2429\307a\206\370\320\002\261\"G\216g\030\342\223"
 197      6186F8D0 
 197      02B12247 
 197      8E6718E2 
 197      93
 198 02ba BC109DBA 		.ascii	"\274\020\235\2723`\336R\316`V\3013Q\202\266=R\366\355"
 198      3360DE52 
 198      CE6056C1 
 198      335182B6 
 198      3D52F6ED 
 199 02ce 72A718EF 		.ascii	"r\247\030\357\227**r\351zWi\2438o3\357z\304B\341\"\317"
 199      972A2A72 
 199      E97A5769 
 199      A3386F33 
 199      EF7AC442 
 200 02e5 D9744AD3 		.ascii	"\331tJ\323\366*\230\017\233\274\362\012\236Ig\224\223"
 200      F62A980F 
 200      9BBCF20A 
 200      9E496794 
ARM GAS  /tmp/ccT9RbBH.s 			page 15


 200      93
 201 02f6 C44E2F98 		.ascii	"\304N/\230\230\3075\252\361VZ\254\235)\015Q\011w\204"
 201      98C735AA 
 201      F1565AAC 
 201      9D290D51 
 201      097784
 202 0309 849BE2A1 		.ascii	"\204\233\342\241\300\3150\030\373\361\265iP\270nJAI"
 202      C0CD3018 
 202      FBF1B569 
 202      50B86E4A 
 202      4149
 203 031b 90A11D91 		.ascii	"\220\241\035\221\366n\016wC\335)\303\272\201\254\353"
 203      F66E0E77 
 203      43DD29C3 
 203      BA81ACEB 
 204 032b 6E9AECB0 		.ascii	"n\232\354\260>\344el]\221\274\356\3264B\376\3314\344"
 204      3EE4656C 
 204      5D91BCEE 
 204      D63442FE 
 204      D934E4
 205 033e 42990245 		.ascii	"B\231\002E\353\261\270\201\374\370+</\307\013%\323\035"
 205      EBB1B881 
 205      FCF82B3C 
 205      2FC70B25 
 205      D31D
 206 0350 32AED6E9 		.ascii	"2\256\326\351.V\250r;\037\203\243\304\241omJ;\177|\356"
 206      2E56A872 
 206      3B1F83A3 
 206      C4A16F6D 
 206      4A3B7F7C 
 207 0365 EE1DF9D2 		.ascii	"\356\035\371\322\314\005\212\220\273\233\361.\272\253"
 207      CC058A90 
 207      BB9BF12E 
 207      BAAB
 208 0373 B98B2E3C 		.ascii	"\271\213.<\335\224\341\014\224\223\363\335\333C\317"
 208      DD94E10C 
 208      9493F3DD 
 208      DB43CF
 209 0382 37CBC3C8 		.ascii	"7\313\303\310\377\224\007\016\375Ec\"4F\237\016\340"
 209      FF94070E 
 209      FD456322 
 209      34469F0E 
 209      E0
 210 0393 695E35EF 		.ascii	"i^5\357\366\310\355\3476=\320\317\030\346X\3474\257"
 210      F6C8EDE7 
 210      363DD0CF 
 210      18E658E7 
 210      34AF
 211 03a5 1A0362B7 		.ascii	"\032\003b\267]A\234\260@4\275j\014\210\333\031\342\303"
 211      5D419CB0 
 211      4034BD6A 
 211      0C88DB19 
 211      E2C3
 212 03b7 BC10CD39 		.ascii	"\274\020\3159\356b\210O,\020M\257\032\003b\202!>\313"
 212      EE62884F 
 212      2C104DAF 
 212      1A036282 
ARM GAS  /tmp/ccT9RbBH.s 			page 16


 212      213ECB
 213 03ca 0B51CBB1 		.ascii	"\013Q\313\261\033*\270\2420\275K\367\320.\375\251\246"
 213      1B2AB8A2 
 213      30BD4BF7 
 213      D02EFDA9 
 213      A6
 214 03db 8A32B469 		.ascii	"\2122\264iZ\375\232\246nn\356\307\217h\321a}\321\251"
 214      5AFD9AA6 
 214      6E6EEEC7 
 214      8F68D161 
 214      7DD1A9
 215 03ee 1D5B69D8 		.ascii	"\035[i\330\034\352\265\253\277\013OO\312\215U1UF\016"
 215      1CEAB5AB 
 215      BF0B4F4F 
 215      CA8D5531 
 215      55460E
 216 0401 480A910D 		.ascii	"H\012\221\015\214H)]j\350W\2175\375\312h\352\307O\246"
 216      8C48295D 
 216      6AE8578F 
 216      35FDCA68 
 216      EAC74FA6 
 217 0415 D1AFFE34 		.ascii	"\321\257\3764\355W%\272\010\024;\210y?\333\311\307\347"
 217      ED5725BA 
 217      08143B88 
 217      793FDBC9 
 217      C7E7
 218 0427 4EDE999F 		.ascii	"N\336\231\237\231\217\345-o(\217$\003\275\264%{y8s,"
 218      998FE52D 
 218      6F288F24 
 218      03BDB425 
 218      7B793873 
 219 043c E1018638 		.ascii	"\341\001\2068j\201\370r\216\034\2171\304\261\274\020"
 219      6A81F872 
 219      8E1C8F31 
 219      C4B1BC10 
 220 044c CD399E50 		.ascii	"\3159\236P[\201\005bM\216\034O\253\255 /Ds\216_\253"
 220      5B810562 
 220      4D8E1C4F 
 220      ABAD202F 
 220      44738E5F 
 221 0461 ADC00271 		.ascii	"\255\300\002qY\216\034G\324V\220\027\242\206c/i\005"
 221      598E1C47 
 221      D4569017 
 221      A286632F 
 221      6905
 222 0473 9E42ED2F 		.ascii	"\236B\355/\030\321\217\357i\216\307JC\3173\230\016g"
 222      18D18FEF 
 222      698EC74A 
 222      43CF3398 
 222      0E67
 223 0485 31F5E31D 		.ascii	"1\365\343\035\334Lyv]{\2245\217\034\372\216Eq\241+3"
 223      DC4C7976 
 223      5D7B9435 
 223      8F1CFA8E 
 223      4571A12B 
 224 049a 92325F69 		.ascii	"\2222_i\226\227^%/\367h^~T\317@W\366\274xrD\374I=\003"
 224      96975E25 
ARM GAS  /tmp/ccT9RbBH.s 			page 17


 224      2FF7685E 
 224      7E54CF40 
 224      57F6BC78 
 225 04b4 79219A67 		.ascii	"y!\232gZJ\317\264\204\015\255\333`;\234\315\326\217"
 225      5A4ACFB4 
 225      840DADDB 
 225      603B9CCD 
 225      D68F
 226 04c6 3FE4F2EF 		.ascii	"?\344\362\357Z\011\316\254ki\377\375\253v\220\212\253"
 226      5A09CEAC 
 226      6B69FFFD 
 226      AB76908A 
 226      AB
 227 04d7 EAE1ED32 		.ascii	"\352\341\3552a\243\314\233L\263k\231\213\244\212\370"
 227      61A3CC9B 
 227      4CB36B99 
 227      8BA48AF8 
 228 04e7 82552ED2 		.ascii	"\202U.\322l\375\270w\032\271\330k\232\013\273.\027{"
 228      6CFDB877 
 228      1AB9D86B 
 228      9A0BBB2E 
 228      177B
 229 04f9 D55C5C57 		.ascii	"\325\\\\W\333N\227\011\033e\276\301,\027\364B%\225F"
 229      DB4E9709 
 229      1B65BEC1 
 229      2C17F442 
 229      259546
 230 050c 3873E8B6 		.ascii	"8s\350\266\332w\254 cf\245fh\023\277\252\215\307\242"
 230      DA77AC20 
 230      6366A566 
 230      6813BFAA 
 230      8DC7A2
 231 051f 7877E24C 		.ascii	"xw\342L,\323\207\366\207\253\037\217\303%_\356\307\277"
 231      2CD387F6 
 231      87AB1F8F 
 231      C3255FEE 
 231      C7BF
 232 0531 E0B9F030 		.ascii	"\340\271\3600A\365}\252\177\243\372\001\325\017\251"
 232      41F57DAA 
 232      7FA3FA01 
 232      D50FA9
 233 0540 FE9DEABF 		.ascii	"\376\235\352\277\251\376\207\352\177\251\236\244z\212"
 233      A9FE87EA 
 233      7FA99EA4 
 233      7A8A
 234 054e EA6E8EE8 		.ascii	"\352n\216\350\036\252\267Q\375\036\325\037P\275\233"
 234      1EAAB751 
 234      FD1ED51F 
 234      50BD9B
 235 055d EA8FA9FE 		.ascii	"\352\217\251\376\204\352\317@\313\303\360o\206\374@"
 235      84EACF40 
 235      CBC3F06F 
 235      86FC40
 236 056c 37DFEF7D 		.ascii	"7\337\357}\234\331\277\240\276\254\377\202\366\253\353"
 236      9CD9BFA0 
 236      BEACFF82 
 236      F6ABEB
ARM GAS  /tmp/ccT9RbBH.s 			page 18


 237 057b 50652016 		.ascii	"Pe \026\025\304@Xh\017\004c\341HtsG\260:\326,\210\325"
 237      15C44058 
 237      680F0463 
 237      E1487473 
 237      47B03AD6 
 238 0592 3585AFBE 		.ascii	"5\205\257\276\266\316\351F\363\253\253]\251W4\356\022"
 238      B6CEE946 
 238      F3ABAB5D 
 238      A95734EE 
 238      12
 239 05a3 4417318F 		.ascii	"D\0271\217\273\352\274\215\356\306N\027\037\342\243"
 239      BBEABC8D 
 239      EEC64E17 
 239      1FE2A3
 240 05b2 4230F0F6 		.ascii	"B0\360\366\322\326j\036\225\247\240\342\357\204E>\024"
 240      D2D66A1E 
 240      95A7A0E2 
 240      EF84453E 
 240      14
 241 05c3 D824445B 		.ascii	"\330$D[\003\341\270\220\353\372\020z>\265>\330\031\026"
 241      03E1B890 
 241      EBFA107A 
 241      3EB53ED8 
 241      1916
 242 05d5 D9EA12DF 		.ascii	"\331\352\022\337zw\300\323\334\326\022\011\012\263\322"
 242      7A77C0D3 
 242      DCD61209 
 242      0AB3D2
 243 05e4 A9160456 		.ascii	"\251\026\004VE\243\221J>\344\343C\015\361&!\030l\215"
 243      45A3914A 
 243      3EE4E343 
 243      0DF12621 
 243      186C8D
 244 05f7 89E1689B 		.ascii	"\211\341h\2337\330\336\021\026\202-N\203\363p\033\037"
 244      37D8DE11 
 244      16822D4E 
 244      83F3701B 
 244      1F
 245 0608 E9680982 		.ascii	"\351h\011\202\3378\037j\001\237\216\216p\233\270\270"
 245      DF381F6A 
 245      019F8E8E 
 245      709BB8B8 
 246 0618 3620BEE1 		.ascii	"6 \276\341\352\210\013\256H\224o\216\2706\206\333\310"
 246      EA880BAE 
 246      48946F8E 
 246      B83686DB 
 246      C8
 247 0629 924878A3 		.ascii	"\222Hx\243k3\317\273\232\205\326\205m\321\266\340\302"
 247      6B33CFBB 
 247      9A85D685 
 247      6DD1B6E0 
 247      C2
 248 063a 60F3C6B0 		.ascii	"`\363\306\260kI\365\322\352Z\027\303\205\227\376{\305"
 248      6B49F5D2 
 248      EA5A17C3 
 248      8597FE7B 
 248      C5
ARM GAS  /tmp/ccT9RbBH.s 			page 19


 249 064b 455C6C01 		.ascii	"E\\l\001hpQ\"G%\362b\247C\010n\006\363\2008\317:+\260"
 249      68705122 
 249      4725F262 
 249      A743086E 
 249      06F38038 
 250 0663 94136A38 		.ascii	"\224\023j8a\021'\324r\302b\233\260\250\2660\"\004\304"
 250      611127D4 
 250      72C2629B 
 250      B0A8B630 
 250      2204C4
 251 0676 500B17E3 		.ascii	"P\013\027\343\355\235\261\270`\347C\315\202\303\347"
 251      ED9DB1B8 
 251      60E743CD 
 251      82C3E7
 252 0685 5E1558BB 		.ascii	"^\025X\273%\026\324%\032\334\271\334\215\276\006\237"
 252      2516D425 
 252      1ADCB9DC 
 252      8DBE069F 
 253 0695 1A324934 		.ascii	"\0322I4\337\272\004`\013\334M\353\032\352\355\015n\237"
 253      DFBA0460 
 253      0BDC4DEB 
 253      1AEAED0D 
 253      6E9F
 254 06a7 D7BE7EED 		.ascii	"\327\276~\355\353\336\202\272\006\257\333k\363\201\270"
 254      EBDE82BA 
 254      06AFDB6B 
 254      F381B8
 255 06b6 DDDE2292 		.ascii	"\335\336\"\222\222e\001\321\346\3634\025\370<\304\310"
 255      926501D1 
 255      E6F33415 
 255      F83CC4C8 
 256 06c6 BD069487 		.ascii	"\275\006\224\207\250zP\005\215\215k\352\274\366UD\325"
 256      A87A5005 
 256      8D8D6BEA 
 256      BCF65544 
 256      D5
 257 06d7 C1B3AD69 		.ascii	"\301\263\255i\215\327V\017RW\357\265\303w^{\203\257"
 257      8DD7560F 
 257      5257EFB5 
 257      C3775E7B 
 257      83AF
 258 06e9 CE5BEC5D 		.ascii	"\316[\354]\355[\355]\277\272\276\006\334\325\271\275"
 258      ED5BED5D 
 258      BFBABE06 
 258      DCD5B9BD 
 259 06f9 FF016053 		.ascii	"\377\001`SL\023"
 259      4C13
 260              		.text
 261              		.section	.gnu.lto_.symtab.477e7457bcea9c1e,"",%progbits
 262 0000 5356435F 		.ascii	"SVC_Handler\000\000\000\000\000\000\000\000\000\000"
 262      48616E64 
 262      6C657200 
 262      00000000 
 262      00000000 
 263 0015 0000AA00 		.ascii	"\000\000\252\000\000\000_port_irq_epilogue\000\000\000"
 263      00005F70 
 263      6F72745F 
ARM GAS  /tmp/ccT9RbBH.s 			page 20


 263      6972715F 
 263      6570696C 
 264 0030 00000000 		.ascii	"\000\000\000\000\000\000\000\000\000\255\000\000\000"
 264      00000000 
 264      00AD0000 
 264      00
 265 003d 5F706F72 		.ascii	"_port_switch_from_isr\000\000\002\000\000\000\000\000"
 265      745F7377 
 265      69746368 
 265      5F66726F 
 265      6D5F6973 
 266 005a 00000000 		.ascii	"\000\000\000\000\245\000\000\000_port_exit_from_isr"
 266      A5000000 
 266      5F706F72 
 266      745F6578 
 266      69745F66 
 267 0075 00000200 		.ascii	"\000\000\002\000\000\000\000\000\000\000\000\000\250"
 267      00000000 
 267      00000000 
 267      A8
 268 0082 00000063 		.ascii	"\000\000\000chSchIsPreemptionRequired\000\000\002\000"
 268      68536368 
 268      49735072 
 268      65656D70 
 268      74696F6E 
 269 00a2 00000000 		.ascii	"\000\000\000\000\000\000\000\000\260\000\000\000"
 269      00000000 
 269      B0000000 
 270              		.text
 271              		.section	.gnu.lto_.opts,"",%progbits
 272 0000 272D6D63 		.ascii	"'-mcpu=cortex-m4''-mno-thumb-interwork''-mthumb''-g"
 272      70753D63 
 272      6F727465 
 272      782D6D34 
 272      27272D6D 
 273 0033 67646227 		.ascii	"gdb''-O2''-fomit-frame-pointer''-falign-functions=1"
 273      272D4F32 
 273      27272D66 
 273      6F6D6974 
 273      2D667261 
 274 0066 3627272D 		.ascii	"6''-ffunction-sections''-fdata-sections''-fno-commo"
 274      6666756E 
 274      6374696F 
 274      6E2D7365 
 274      6374696F 
 275 0099 6E27272D 		.ascii	"n''-flto'\000"
 275      666C746F 
 275      2700
 276              		.text
 277              		.cfi_sections	.debug_frame
 278              		.section	.text.SVC_Handler,"ax",%progbits
 279              		.align	2
 280              		.p2align 4,,15
 281              		.global	SVC_Handler
 282              		.thumb
 283              		.thumb_func
 284              		.type	SVC_Handler, %function
ARM GAS  /tmp/ccT9RbBH.s 			page 21


 285              	SVC_Handler:
 286              	.LFB241:
 287              		.file 1 "../../../os/rt/ports/ARMCMx/chcore_v7m.c"
 288              		.loc 1 62 0
 289              		.cfi_startproc
 290              		@ args = 0, pretend = 0, frame = 0
 291              		@ frame_needed = 0, uses_anonymous_args = 0
 292              		@ link register save eliminated.
 293              	.LBB51:
 294              	.LBB52:
 295              		.file 2 "../../../os/ext/CMSIS/include/core_cmFunc.h"
 296              		.loc 2 430 0
 297              	@ 430 "../../../os/ext/CMSIS/include/core_cmFunc.h" 1
 298 0000 EFF30983 		MRS r3, psp
 299              	
 300              	@ 0 "" 2
 301              	.LVL0:
 302              		.thumb
 303              	.LBE52:
 304              	.LBE51:
 305              		.loc 1 76 0
 306 0004 2033     		adds	r3, r3, #32
 307              	.LVL1:
 308              	.LBB53:
 309              	.LBB54:
 310              		.loc 2 443 0
 311              	@ 443 "../../../os/ext/CMSIS/include/core_cmFunc.h" 1
 312 0006 83F30988 		MSR psp, r3
 313              	
 314              	@ 0 "" 2
 315              	.LVL2:
 316              		.thumb
 317              	.LBE54:
 318              	.LBE53:
 319              	.LBB55:
 320              	.LBB56:
 321              	.LBB57:
 322              	.LBB58:
 323              		.loc 2 548 0
 324 000a 0023     		movs	r3, #0
 325              	.LVL3:
 326              	@ 548 "../../../os/ext/CMSIS/include/core_cmFunc.h" 1
 327 000c 83F31188 		MSR basepri, r3
 328              	@ 0 "" 2
 329              		.thumb
 330 0010 7047     		bx	lr
 331              	.LBE58:
 332              	.LBE57:
 333              	.LBE56:
 334              	.LBE55:
 335              		.cfi_endproc
 336              	.LFE241:
 337              		.size	SVC_Handler, .-SVC_Handler
 338 0012 00BFAFF3 		.section	.text._port_irq_epilogue,"ax",%progbits
 338      0080AFF3 
 338      0080AFF3 
 338      0080
ARM GAS  /tmp/ccT9RbBH.s 			page 22


 339              		.align	2
 340              		.p2align 4,,15
 341              		.global	_port_irq_epilogue
 342              		.thumb
 343              		.thumb_func
 344              		.type	_port_irq_epilogue, %function
 345              	_port_irq_epilogue:
 346              	.LFB242:
 347              		.loc 1 122 0
 348              		.cfi_startproc
 349              		@ args = 0, pretend = 0, frame = 0
 350              		@ frame_needed = 0, uses_anonymous_args = 0
 351              	.LVL4:
 352 0000 10B5     		push	{r4, lr}
 353              	.LCFI0:
 354              		.cfi_def_cfa_offset 8
 355              		.cfi_offset 4, -8
 356              		.cfi_offset 14, -4
 357              	.LBB83:
 358              	.LBB84:
 359              	.LBB85:
 360              	.LBB86:
 361              		.loc 2 548 0
 362 0002 2023     		movs	r3, #32
 363              	@ 548 "../../../os/ext/CMSIS/include/core_cmFunc.h" 1
 364 0004 83F31188 		MSR basepri, r3
 365              	@ 0 "" 2
 366              		.thumb
 367              	.LBE86:
 368              	.LBE85:
 369              	.LBE84:
 370              	.LBE83:
 371              		.loc 1 125 0
 372 0008 4FF46D43 		mov	r3, #60672
 373 000c CEF20003 		movt	r3, 57344
 374 0010 5B68     		ldr	r3, [r3, #4]
 375 0012 13F40063 		ands	r3, r3, #2048
 376 0016 02D1     		bne	.L7
 377              	.LVL5:
 378              	.LBB87:
 379              	.LBB88:
 380              	.LBB89:
 381              	.LBB90:
 382              		.loc 2 548 0
 383              	@ 548 "../../../os/ext/CMSIS/include/core_cmFunc.h" 1
 384 0018 83F31188 		MSR basepri, r3
 385              	@ 0 "" 2
 386              		.thumb
 387 001c 10BD     		pop	{r4, pc}
 388              	.LVL6:
 389              	.L7:
 390              	.LBE90:
 391              	.LBE89:
 392              	.LBE88:
 393              	.LBE87:
 394              	.LBB91:
 395              	.LBB92:
ARM GAS  /tmp/ccT9RbBH.s 			page 23


 396              	.LBB93:
 397              	.LBB94:
 398              		.loc 2 430 0
 399              	@ 430 "../../../os/ext/CMSIS/include/core_cmFunc.h" 1
 400 001e EFF30984 		MRS r4, psp
 401              	
 402              	@ 0 "" 2
 403              	.LVL7:
 404              		.thumb
 405              	.LBE94:
 406              	.LBE93:
 407              		.loc 1 141 0
 408 0022 4FF08073 		mov	r3, #16777216
 409 0026 44F8043C 		str	r3, [r4, #-4]
 410              	.LVL8:
 411              		.loc 1 138 0
 412 002a A4F12003 		sub	r3, r4, #32
 413              	.LVL9:
 414              	.LBB95:
 415              	.LBB96:
 416              		.loc 2 443 0
 417              	@ 443 "../../../os/ext/CMSIS/include/core_cmFunc.h" 1
 418 002e 83F30988 		MSR psp, r3
 419              	
 420              	@ 0 "" 2
 421              		.thumb
 422              	.LBE96:
 423              	.LBE95:
 424              		.loc 1 151 0
 425 0032 FFF7FEFF 		bl	chSchIsPreemptionRequired
 426              	.LVL10:
 427 0036 18B1     		cbz	r0, .L4
 428              		.loc 1 153 0
 429 0038 034B     		ldr	r3, .L8
 430 003a 44F8083C 		str	r3, [r4, #-8]
 431 003e 10BD     		pop	{r4, pc}
 432              	.L4:
 433              		.loc 1 158 0
 434 0040 024B     		ldr	r3, .L8+4
 435 0042 44F8083C 		str	r3, [r4, #-8]
 436 0046 10BD     		pop	{r4, pc}
 437              	.L9:
 438              		.align	2
 439              	.L8:
 440 0048 00000000 		.word	_port_switch_from_isr
 441 004c 00000000 		.word	_port_exit_from_isr
 442              	.LBE92:
 443              	.LBE91:
 444              		.cfi_endproc
 445              	.LFE242:
 446              		.size	_port_irq_epilogue, .-_port_irq_epilogue
 447              		.text
 448              	.Letext0:
 449              		.file 3 "/usr/local/bin/../lib/gcc/arm-none-eabi/4.7.2/../../../../arm-none-eabi/include/stdint.h"
 450              		.file 4 "../../../os/rt/ports/ARMCMx/compilers/GCC/chtypes.h"
 451              		.file 5 "../../../os/rt/include/chsystypes.h"
 452              		.file 6 "../../../os/rt/include/chschd.h"
ARM GAS  /tmp/ccT9RbBH.s 			page 24


 453              		.file 7 "../../../os/ext/CMSIS/include/core_cm4.h"
 454              		.file 8 "../../../os/rt/ports/ARMCMx/chcore.h"
 455              		.file 9 "../../../os/rt/ports/ARMCMx/chcore_v7m.h"
 456              		.file 10 "../../../os/rt/include/chtm.h"
 457              		.file 11 "../../../os/rt/include/chsem.h"
 458              		.file 12 "../../../os/rt/include/chmtx.h"
 459              		.section	.debug_info,"",%progbits
 460              	.Ldebug_info0:
 461 0000 130B0000 		.4byte	0xb13
 462 0004 0200     		.2byte	0x2
 463 0006 00000000 		.4byte	.Ldebug_abbrev0
 464 000a 04       		.byte	0x4
 465 000b 01       		.uleb128 0x1
 466 000c 43010000 		.4byte	.LASF128
 467 0010 01       		.byte	0x1
 468 0011 7F050000 		.4byte	.LASF129
 469 0015 A2040000 		.4byte	.LASF130
 470 0019 00000000 		.4byte	.Ldebug_ranges0+0
 471 001d 00000000 		.4byte	0
 472 0021 00000000 		.4byte	0
 473 0025 00000000 		.4byte	.Ldebug_line0
 474 0029 02       		.uleb128 0x2
 475 002a 04       		.byte	0x4
 476 002b 05       		.byte	0x5
 477 002c 696E7400 		.ascii	"int\000"
 478 0030 03       		.uleb128 0x3
 479 0031 04       		.byte	0x4
 480 0032 07       		.byte	0x7
 481 0033 82000000 		.4byte	.LASF0
 482 0037 03       		.uleb128 0x3
 483 0038 01       		.byte	0x1
 484 0039 06       		.byte	0x6
 485 003a 1B050000 		.4byte	.LASF1
 486 003e 04       		.uleb128 0x4
 487 003f 83020000 		.4byte	.LASF5
 488 0043 03       		.byte	0x3
 489 0044 2A       		.byte	0x2a
 490 0045 49000000 		.4byte	0x49
 491 0049 03       		.uleb128 0x3
 492 004a 01       		.byte	0x1
 493 004b 08       		.byte	0x8
 494 004c 55040000 		.4byte	.LASF2
 495 0050 03       		.uleb128 0x3
 496 0051 02       		.byte	0x2
 497 0052 05       		.byte	0x5
 498 0053 53030000 		.4byte	.LASF3
 499 0057 03       		.uleb128 0x3
 500 0058 02       		.byte	0x2
 501 0059 07       		.byte	0x7
 502 005a 27050000 		.4byte	.LASF4
 503 005e 04       		.uleb128 0x4
 504 005f 30040000 		.4byte	.LASF6
 505 0063 03       		.byte	0x3
 506 0064 4F       		.byte	0x4f
 507 0065 69000000 		.4byte	0x69
 508 0069 03       		.uleb128 0x3
 509 006a 04       		.byte	0x4
ARM GAS  /tmp/ccT9RbBH.s 			page 25


 510 006b 05       		.byte	0x5
 511 006c 7F030000 		.4byte	.LASF7
 512 0070 04       		.uleb128 0x4
 513 0071 22010000 		.4byte	.LASF8
 514 0075 03       		.byte	0x3
 515 0076 50       		.byte	0x50
 516 0077 7B000000 		.4byte	0x7b
 517 007b 03       		.uleb128 0x3
 518 007c 04       		.byte	0x4
 519 007d 07       		.byte	0x7
 520 007e 11040000 		.4byte	.LASF9
 521 0082 03       		.uleb128 0x3
 522 0083 08       		.byte	0x8
 523 0084 05       		.byte	0x5
 524 0085 B6020000 		.4byte	.LASF10
 525 0089 04       		.uleb128 0x4
 526 008a C0030000 		.4byte	.LASF11
 527 008e 03       		.byte	0x3
 528 008f 78       		.byte	0x78
 529 0090 94000000 		.4byte	0x94
 530 0094 03       		.uleb128 0x3
 531 0095 08       		.byte	0x8
 532 0096 07       		.byte	0x7
 533 0097 83010000 		.4byte	.LASF12
 534 009b 04       		.uleb128 0x4
 535 009c 2A030000 		.4byte	.LASF13
 536 00a0 04       		.byte	0x4
 537 00a1 39       		.byte	0x39
 538 00a2 70000000 		.4byte	0x70
 539 00a6 04       		.uleb128 0x4
 540 00a7 17030000 		.4byte	.LASF14
 541 00ab 04       		.byte	0x4
 542 00ac 3C       		.byte	0x3c
 543 00ad 3E000000 		.4byte	0x3e
 544 00b1 04       		.uleb128 0x4
 545 00b2 64020000 		.4byte	.LASF15
 546 00b6 04       		.byte	0x4
 547 00b7 3D       		.byte	0x3d
 548 00b8 3E000000 		.4byte	0x3e
 549 00bc 04       		.uleb128 0x4
 550 00bd 09040000 		.4byte	.LASF16
 551 00c1 04       		.byte	0x4
 552 00c2 3E       		.byte	0x3e
 553 00c3 3E000000 		.4byte	0x3e
 554 00c7 04       		.uleb128 0x4
 555 00c8 63010000 		.4byte	.LASF17
 556 00cc 04       		.byte	0x4
 557 00cd 40       		.byte	0x40
 558 00ce 70000000 		.4byte	0x70
 559 00d2 04       		.uleb128 0x4
 560 00d3 D4020000 		.4byte	.LASF18
 561 00d7 04       		.byte	0x4
 562 00d8 41       		.byte	0x41
 563 00d9 5E000000 		.4byte	0x5e
 564 00dd 04       		.uleb128 0x4
 565 00de 30010000 		.4byte	.LASF19
 566 00e2 04       		.byte	0x4
ARM GAS  /tmp/ccT9RbBH.s 			page 26


 567 00e3 43       		.byte	0x43
 568 00e4 70000000 		.4byte	0x70
 569 00e8 04       		.uleb128 0x4
 570 00e9 B4010000 		.4byte	.LASF20
 571 00ed 04       		.byte	0x4
 572 00ee 45       		.byte	0x45
 573 00ef 5E000000 		.4byte	0x5e
 574 00f3 04       		.uleb128 0x4
 575 00f4 5D000000 		.4byte	.LASF21
 576 00f8 05       		.byte	0x5
 577 00f9 33       		.byte	0x33
 578 00fa 70000000 		.4byte	0x70
 579 00fe 04       		.uleb128 0x4
 580 00ff DF010000 		.4byte	.LASF22
 581 0103 05       		.byte	0x5
 582 0104 3F       		.byte	0x3f
 583 0105 09010000 		.4byte	0x109
 584 0109 05       		.uleb128 0x5
 585 010a 9D020000 		.4byte	.LASF42
 586 010e 44       		.byte	0x44
 587 010f 06       		.byte	0x6
 588 0110 C2       		.byte	0xc2
 589 0111 1A020000 		.4byte	0x21a
 590 0115 06       		.uleb128 0x6
 591 0116 B9030000 		.4byte	.LASF23
 592 011a 06       		.byte	0x6
 593 011b C3       		.byte	0xc3
 594 011c 25020000 		.4byte	0x225
 595 0120 02       		.byte	0x2
 596 0121 23       		.byte	0x23
 597 0122 00       		.uleb128 0
 598 0123 06       		.uleb128 0x6
 599 0124 F9030000 		.4byte	.LASF24
 600 0128 06       		.byte	0x6
 601 0129 C5       		.byte	0xc5
 602 012a 25020000 		.4byte	0x225
 603 012e 02       		.byte	0x2
 604 012f 23       		.byte	0x23
 605 0130 04       		.uleb128 0x4
 606 0131 06       		.uleb128 0x6
 607 0132 56000000 		.4byte	.LASF25
 608 0136 06       		.byte	0x6
 609 0137 C7       		.byte	0xc7
 610 0138 C7000000 		.4byte	0xc7
 611 013c 02       		.byte	0x2
 612 013d 23       		.byte	0x23
 613 013e 08       		.uleb128 0x8
 614 013f 06       		.uleb128 0x6
 615 0140 C9030000 		.4byte	.LASF26
 616 0144 06       		.byte	0x6
 617 0145 C8       		.byte	0xc8
 618 0146 47060000 		.4byte	0x647
 619 014a 02       		.byte	0x2
 620 014b 23       		.byte	0x23
 621 014c 0C       		.uleb128 0xc
 622 014d 06       		.uleb128 0x6
 623 014e BA010000 		.4byte	.LASF27
ARM GAS  /tmp/ccT9RbBH.s 			page 27


 624 0152 06       		.byte	0x6
 625 0153 CA       		.byte	0xca
 626 0154 25020000 		.4byte	0x225
 627 0158 02       		.byte	0x2
 628 0159 23       		.byte	0x23
 629 015a 10       		.uleb128 0x10
 630 015b 06       		.uleb128 0x6
 631 015c 73020000 		.4byte	.LASF28
 632 0160 06       		.byte	0x6
 633 0161 CB       		.byte	0xcb
 634 0162 25020000 		.4byte	0x225
 635 0166 02       		.byte	0x2
 636 0167 23       		.byte	0x23
 637 0168 14       		.uleb128 0x14
 638 0169 06       		.uleb128 0x6
 639 016a 2B020000 		.4byte	.LASF29
 640 016e 06       		.byte	0x6
 641 016f D2       		.byte	0xd2
 642 0170 5E080000 		.4byte	0x85e
 643 0174 02       		.byte	0x2
 644 0175 23       		.byte	0x23
 645 0176 18       		.uleb128 0x18
 646 0177 06       		.uleb128 0x6
 647 0178 7B020000 		.4byte	.LASF30
 648 017c 06       		.byte	0x6
 649 017d DD       		.byte	0xdd
 650 017e B1000000 		.4byte	0xb1
 651 0182 02       		.byte	0x2
 652 0183 23       		.byte	0x23
 653 0184 1C       		.uleb128 0x1c
 654 0185 06       		.uleb128 0x6
 655 0186 E7020000 		.4byte	.LASF31
 656 018a 06       		.byte	0x6
 657 018b E1       		.byte	0xe1
 658 018c A6000000 		.4byte	0xa6
 659 0190 02       		.byte	0x2
 660 0191 23       		.byte	0x23
 661 0192 1D       		.uleb128 0x1d
 662 0193 06       		.uleb128 0x6
 663 0194 79040000 		.4byte	.LASF32
 664 0198 06       		.byte	0x6
 665 0199 E6       		.byte	0xe6
 666 019a BC000000 		.4byte	0xbc
 667 019e 02       		.byte	0x2
 668 019f 23       		.byte	0x23
 669 01a0 1E       		.uleb128 0x1e
 670 01a1 07       		.uleb128 0x7
 671 01a2 705F7500 		.ascii	"p_u\000"
 672 01a6 06       		.byte	0x6
 673 01a7 3101     		.2byte	0x131
 674 01a9 8F070000 		.4byte	0x78f
 675 01ad 02       		.byte	0x2
 676 01ae 23       		.byte	0x23
 677 01af 20       		.uleb128 0x20
 678 01b0 08       		.uleb128 0x8
 679 01b1 20000000 		.4byte	.LASF33
 680 01b5 06       		.byte	0x6
ARM GAS  /tmp/ccT9RbBH.s 			page 28


 681 01b6 3601     		.2byte	0x136
 682 01b8 2B020000 		.4byte	0x22b
 683 01bc 02       		.byte	0x2
 684 01bd 23       		.byte	0x23
 685 01be 24       		.uleb128 0x24
 686 01bf 08       		.uleb128 0x8
 687 01c0 77000000 		.4byte	.LASF34
 688 01c4 06       		.byte	0x6
 689 01c5 3C01     		.2byte	0x13c
 690 01c7 51020000 		.4byte	0x251
 691 01cb 02       		.byte	0x2
 692 01cc 23       		.byte	0x23
 693 01cd 28       		.uleb128 0x28
 694 01ce 08       		.uleb128 0x8
 695 01cf 11030000 		.4byte	.LASF35
 696 01d3 06       		.byte	0x6
 697 01d4 4001     		.2byte	0x140
 698 01d6 D2000000 		.4byte	0xd2
 699 01da 02       		.byte	0x2
 700 01db 23       		.byte	0x23
 701 01dc 30       		.uleb128 0x30
 702 01dd 08       		.uleb128 0x8
 703 01de 6C030000 		.4byte	.LASF36
 704 01e2 06       		.byte	0x6
 705 01e3 4601     		.2byte	0x146
 706 01e5 DD000000 		.4byte	0xdd
 707 01e9 02       		.byte	0x2
 708 01ea 23       		.byte	0x23
 709 01eb 34       		.uleb128 0x34
 710 01ec 08       		.uleb128 0x8
 711 01ed 93020000 		.4byte	.LASF37
 712 01f1 06       		.byte	0x6
 713 01f2 4D01     		.2byte	0x14d
 714 01f4 58080000 		.4byte	0x858
 715 01f8 02       		.byte	0x2
 716 01f9 23       		.byte	0x23
 717 01fa 38       		.uleb128 0x38
 718 01fb 08       		.uleb128 0x8
 719 01fc 42030000 		.4byte	.LASF38
 720 0200 06       		.byte	0x6
 721 0201 5101     		.2byte	0x151
 722 0203 C7000000 		.4byte	0xc7
 723 0207 02       		.byte	0x2
 724 0208 23       		.byte	0x23
 725 0209 3C       		.uleb128 0x3c
 726 020a 08       		.uleb128 0x8
 727 020b 8B020000 		.4byte	.LASF39
 728 020f 06       		.byte	0x6
 729 0210 5801     		.2byte	0x158
 730 0212 15030000 		.4byte	0x315
 731 0216 02       		.byte	0x2
 732 0217 23       		.byte	0x23
 733 0218 40       		.uleb128 0x40
 734 0219 00       		.byte	0
 735 021a 04       		.uleb128 0x4
 736 021b 40020000 		.4byte	.LASF40
 737 021f 05       		.byte	0x5
ARM GAS  /tmp/ccT9RbBH.s 			page 29


 738 0220 44       		.byte	0x44
 739 0221 25020000 		.4byte	0x225
 740 0225 09       		.uleb128 0x9
 741 0226 04       		.byte	0x4
 742 0227 FE000000 		.4byte	0xfe
 743 022b 04       		.uleb128 0x4
 744 022c 8F000000 		.4byte	.LASF41
 745 0230 05       		.byte	0x5
 746 0231 49       		.byte	0x49
 747 0232 36020000 		.4byte	0x236
 748 0236 05       		.uleb128 0x5
 749 0237 00000000 		.4byte	.LASF43
 750 023b 04       		.byte	0x4
 751 023c 06       		.byte	0x6
 752 023d B0       		.byte	0xb0
 753 023e 51020000 		.4byte	0x251
 754 0242 06       		.uleb128 0x6
 755 0243 B9030000 		.4byte	.LASF23
 756 0247 06       		.byte	0x6
 757 0248 B1       		.byte	0xb1
 758 0249 25020000 		.4byte	0x225
 759 024d 02       		.byte	0x2
 760 024e 23       		.byte	0x23
 761 024f 00       		.uleb128 0
 762 0250 00       		.byte	0
 763 0251 04       		.uleb128 0x4
 764 0252 10000000 		.4byte	.LASF44
 765 0256 05       		.byte	0x5
 766 0257 50       		.byte	0x50
 767 0258 5C020000 		.4byte	0x25c
 768 025c 05       		.uleb128 0x5
 769 025d F2000000 		.4byte	.LASF45
 770 0261 08       		.byte	0x8
 771 0262 06       		.byte	0x6
 772 0263 B7       		.byte	0xb7
 773 0264 85020000 		.4byte	0x285
 774 0268 06       		.uleb128 0x6
 775 0269 B9030000 		.4byte	.LASF23
 776 026d 06       		.byte	0x6
 777 026e B8       		.byte	0xb8
 778 026f 25020000 		.4byte	0x225
 779 0273 02       		.byte	0x2
 780 0274 23       		.byte	0x23
 781 0275 00       		.uleb128 0
 782 0276 06       		.uleb128 0x6
 783 0277 F9030000 		.4byte	.LASF24
 784 027b 06       		.byte	0x6
 785 027c B9       		.byte	0xb9
 786 027d 25020000 		.4byte	0x225
 787 0281 02       		.byte	0x2
 788 0282 23       		.byte	0x23
 789 0283 04       		.uleb128 0x4
 790 0284 00       		.byte	0
 791 0285 04       		.uleb128 0x4
 792 0286 23040000 		.4byte	.LASF46
 793 028a 05       		.byte	0x5
 794 028b 57       		.byte	0x57
ARM GAS  /tmp/ccT9RbBH.s 			page 30


 795 028c 90020000 		.4byte	0x290
 796 0290 0A       		.uleb128 0xa
 797 0291 CE000000 		.4byte	.LASF47
 798 0295 1C       		.byte	0x1c
 799 0296 06       		.byte	0x6
 800 0297 9001     		.2byte	0x190
 801 0299 F8020000 		.4byte	0x2f8
 802 029d 08       		.uleb128 0x8
 803 029e C4020000 		.4byte	.LASF48
 804 02a2 06       		.byte	0x6
 805 02a3 9101     		.2byte	0x191
 806 02a5 51020000 		.4byte	0x251
 807 02a9 02       		.byte	0x2
 808 02aa 23       		.byte	0x23
 809 02ab 00       		.uleb128 0
 810 02ac 08       		.uleb128 0x8
 811 02ad 3C010000 		.4byte	.LASF49
 812 02b1 06       		.byte	0x6
 813 02b2 9201     		.2byte	0x192
 814 02b4 C7000000 		.4byte	0xc7
 815 02b8 02       		.byte	0x2
 816 02b9 23       		.byte	0x23
 817 02ba 08       		.uleb128 0x8
 818 02bb 08       		.uleb128 0x8
 819 02bc 3A050000 		.4byte	.LASF50
 820 02c0 06       		.byte	0x6
 821 02c1 9401     		.2byte	0x194
 822 02c3 47060000 		.4byte	0x647
 823 02c7 02       		.byte	0x2
 824 02c8 23       		.byte	0x23
 825 02c9 0C       		.uleb128 0xc
 826 02ca 08       		.uleb128 0x8
 827 02cb CC020000 		.4byte	.LASF51
 828 02cf 06       		.byte	0x6
 829 02d0 9701     		.2byte	0x197
 830 02d2 25020000 		.4byte	0x225
 831 02d6 02       		.byte	0x2
 832 02d7 23       		.byte	0x23
 833 02d8 10       		.uleb128 0x10
 834 02d9 08       		.uleb128 0x8
 835 02da FF020000 		.4byte	.LASF52
 836 02de 06       		.byte	0x6
 837 02df 9801     		.2byte	0x198
 838 02e1 25020000 		.4byte	0x225
 839 02e5 02       		.byte	0x2
 840 02e6 23       		.byte	0x23
 841 02e7 14       		.uleb128 0x14
 842 02e8 08       		.uleb128 0x8
 843 02e9 5D030000 		.4byte	.LASF53
 844 02ed 06       		.byte	0x6
 845 02ee 9B01     		.2byte	0x19b
 846 02f0 25020000 		.4byte	0x225
 847 02f4 02       		.byte	0x2
 848 02f5 23       		.byte	0x23
 849 02f6 18       		.uleb128 0x18
 850 02f7 00       		.byte	0
 851 02f8 04       		.uleb128 0x4
ARM GAS  /tmp/ccT9RbBH.s 			page 31


 852 02f9 03010000 		.4byte	.LASF54
 853 02fd 05       		.byte	0x5
 854 02fe 5C       		.byte	0x5c
 855 02ff 03030000 		.4byte	0x303
 856 0303 09       		.uleb128 0x9
 857 0304 04       		.byte	0x4
 858 0305 09030000 		.4byte	0x309
 859 0309 0B       		.uleb128 0xb
 860 030a 01       		.byte	0x1
 861 030b 15030000 		.4byte	0x315
 862 030f 0C       		.uleb128 0xc
 863 0310 15030000 		.4byte	0x315
 864 0314 00       		.byte	0
 865 0315 0D       		.uleb128 0xd
 866 0316 04       		.byte	0x4
 867 0317 04       		.uleb128 0x4
 868 0318 EF020000 		.4byte	.LASF55
 869 031c 05       		.byte	0x5
 870 031d 61       		.byte	0x61
 871 031e 22030000 		.4byte	0x322
 872 0322 0A       		.uleb128 0xa
 873 0323 6B010000 		.4byte	.LASF56
 874 0327 14       		.byte	0x14
 875 0328 06       		.byte	0x6
 876 0329 6B01     		.2byte	0x16b
 877 032b 7B030000 		.4byte	0x37b
 878 032f 08       		.uleb128 0x8
 879 0330 9A040000 		.4byte	.LASF57
 880 0334 06       		.byte	0x6
 881 0335 6C01     		.2byte	0x16c
 882 0337 70080000 		.4byte	0x870
 883 033b 02       		.byte	0x2
 884 033c 23       		.byte	0x23
 885 033d 00       		.uleb128 0
 886 033e 08       		.uleb128 0x8
 887 033f 5F050000 		.4byte	.LASF58
 888 0343 06       		.byte	0x6
 889 0344 6D01     		.2byte	0x16d
 890 0346 70080000 		.4byte	0x870
 891 034a 02       		.byte	0x2
 892 034b 23       		.byte	0x23
 893 034c 04       		.uleb128 0x4
 894 034d 08       		.uleb128 0x8
 895 034e 37020000 		.4byte	.LASF59
 896 0352 06       		.byte	0x6
 897 0353 6E01     		.2byte	0x16e
 898 0355 F3000000 		.4byte	0xf3
 899 0359 02       		.byte	0x2
 900 035a 23       		.byte	0x23
 901 035b 08       		.uleb128 0x8
 902 035c 08       		.uleb128 0x8
 903 035d 4B050000 		.4byte	.LASF60
 904 0361 06       		.byte	0x6
 905 0362 6F01     		.2byte	0x16f
 906 0364 F8020000 		.4byte	0x2f8
 907 0368 02       		.byte	0x2
 908 0369 23       		.byte	0x23
ARM GAS  /tmp/ccT9RbBH.s 			page 32


 909 036a 0C       		.uleb128 0xc
 910 036b 08       		.uleb128 0x8
 911 036c 4F010000 		.4byte	.LASF61
 912 0370 06       		.byte	0x6
 913 0371 7101     		.2byte	0x171
 914 0373 15030000 		.4byte	0x315
 915 0377 02       		.byte	0x2
 916 0378 23       		.byte	0x23
 917 0379 10       		.uleb128 0x10
 918 037a 00       		.byte	0
 919 037b 04       		.uleb128 0x4
 920 037c 63040000 		.4byte	.LASF62
 921 0380 05       		.byte	0x5
 922 0381 66       		.byte	0x66
 923 0382 86030000 		.4byte	0x386
 924 0386 0A       		.uleb128 0xa
 925 0387 C8010000 		.4byte	.LASF63
 926 038b 10       		.byte	0x10
 927 038c 06       		.byte	0x6
 928 038d 7B01     		.2byte	0x17b
 929 038f D0030000 		.4byte	0x3d0
 930 0393 08       		.uleb128 0x8
 931 0394 9A040000 		.4byte	.LASF57
 932 0398 06       		.byte	0x6
 933 0399 7C01     		.2byte	0x17c
 934 039b 70080000 		.4byte	0x870
 935 039f 02       		.byte	0x2
 936 03a0 23       		.byte	0x23
 937 03a1 00       		.uleb128 0
 938 03a2 08       		.uleb128 0x8
 939 03a3 5F050000 		.4byte	.LASF58
 940 03a7 06       		.byte	0x6
 941 03a8 7E01     		.2byte	0x17e
 942 03aa 70080000 		.4byte	0x870
 943 03ae 02       		.byte	0x2
 944 03af 23       		.byte	0x23
 945 03b0 04       		.uleb128 0x4
 946 03b1 08       		.uleb128 0x8
 947 03b2 37020000 		.4byte	.LASF59
 948 03b6 06       		.byte	0x6
 949 03b7 8001     		.2byte	0x180
 950 03b9 F3000000 		.4byte	0xf3
 951 03bd 02       		.byte	0x2
 952 03be 23       		.byte	0x23
 953 03bf 08       		.uleb128 0x8
 954 03c0 08       		.uleb128 0x8
 955 03c1 53020000 		.4byte	.LASF64
 956 03c5 06       		.byte	0x6
 957 03c6 8801     		.2byte	0x188
 958 03c8 F3000000 		.4byte	0xf3
 959 03cc 02       		.byte	0x2
 960 03cd 23       		.byte	0x23
 961 03ce 0C       		.uleb128 0xc
 962 03cf 00       		.byte	0
 963 03d0 04       		.uleb128 0x4
 964 03d1 A7020000 		.4byte	.LASF65
 965 03d5 05       		.byte	0x5
ARM GAS  /tmp/ccT9RbBH.s 			page 33


 966 03d6 6B       		.byte	0x6b
 967 03d7 DB030000 		.4byte	0x3db
 968 03db 0A       		.uleb128 0xa
 969 03dc 12010000 		.4byte	.LASF66
 970 03e0 04       		.byte	0x4
 971 03e1 06       		.byte	0x6
 972 03e2 A201     		.2byte	0x1a2
 973 03e4 F8030000 		.4byte	0x3f8
 974 03e8 08       		.uleb128 0x8
 975 03e9 07030000 		.4byte	.LASF67
 976 03ed 06       		.byte	0x6
 977 03ee AA01     		.2byte	0x1aa
 978 03f0 76080000 		.4byte	0x876
 979 03f4 02       		.byte	0x2
 980 03f5 23       		.byte	0x23
 981 03f6 00       		.uleb128 0
 982 03f7 00       		.byte	0
 983 03f8 04       		.uleb128 0x4
 984 03f9 FB040000 		.4byte	.LASF68
 985 03fd 05       		.byte	0x5
 986 03fe 70       		.byte	0x70
 987 03ff 03040000 		.4byte	0x403
 988 0403 0E       		.uleb128 0xe
 989 0404 A1030000 		.4byte	.LASF69
 990 0408 5001     		.2byte	0x150
 991 040a 06       		.byte	0x6
 992 040b C201     		.2byte	0x1c2
 993 040d 6B040000 		.4byte	0x46b
 994 0411 08       		.uleb128 0x8
 995 0412 CF030000 		.4byte	.LASF70
 996 0416 06       		.byte	0x6
 997 0417 C601     		.2byte	0x1c6
 998 0419 85020000 		.4byte	0x285
 999 041d 02       		.byte	0x2
 1000 041e 23       		.byte	0x23
 1001 041f 00       		.uleb128 0
 1002 0420 08       		.uleb128 0x8
 1003 0421 B4000000 		.4byte	.LASF71
 1004 0425 06       		.byte	0x6
 1005 0426 CA01     		.2byte	0x1ca
 1006 0428 7B030000 		.4byte	0x37b
 1007 042c 02       		.byte	0x2
 1008 042d 23       		.byte	0x23
 1009 042e 1C       		.uleb128 0x1c
 1010 042f 07       		.uleb128 0x7
 1011 0430 64626700 		.ascii	"dbg\000"
 1012 0434 06       		.byte	0x6
 1013 0435 CE01     		.2byte	0x1ce
 1014 0437 D0030000 		.4byte	0x3d0
 1015 043b 02       		.byte	0x2
 1016 043c 23       		.byte	0x23
 1017 043d 2C       		.uleb128 0x2c
 1018 043e 08       		.uleb128 0x8
 1019 043f 1F030000 		.4byte	.LASF72
 1020 0443 06       		.byte	0x6
 1021 0444 D201     		.2byte	0x1d2
 1022 0446 FE000000 		.4byte	0xfe
ARM GAS  /tmp/ccT9RbBH.s 			page 34


 1023 044a 02       		.byte	0x2
 1024 044b 23       		.byte	0x23
 1025 044c 30       		.uleb128 0x30
 1026 044d 07       		.uleb128 0x7
 1027 044e 746D00   		.ascii	"tm\000"
 1028 0451 06       		.byte	0x6
 1029 0452 D701     		.2byte	0x1d7
 1030 0454 84070000 		.4byte	0x784
 1031 0458 02       		.byte	0x2
 1032 0459 23       		.byte	0x23
 1033 045a 74       		.uleb128 0x74
 1034 045b 08       		.uleb128 0x8
 1035 045c DC000000 		.4byte	.LASF73
 1036 0460 06       		.byte	0x6
 1037 0461 E301     		.2byte	0x1e3
 1038 0463 7B080000 		.4byte	0x87b
 1039 0467 02       		.byte	0x2
 1040 0468 23       		.byte	0x23
 1041 0469 78       		.uleb128 0x78
 1042 046a 00       		.byte	0
 1043 046b 03       		.uleb128 0x3
 1044 046c 04       		.byte	0x4
 1045 046d 07       		.byte	0x7
 1046 046e 00040000 		.4byte	.LASF74
 1047 0472 0F       		.uleb128 0xf
 1048 0473 70000000 		.4byte	0x70
 1049 0477 10       		.uleb128 0x10
 1050 0478 8C       		.byte	0x8c
 1051 0479 07       		.byte	0x7
 1052 047a C001     		.2byte	0x1c0
 1053 047c BD050000 		.4byte	0x5bd
 1054 0480 08       		.uleb128 0x8
 1055 0481 F6010000 		.4byte	.LASF75
 1056 0485 07       		.byte	0x7
 1057 0486 C201     		.2byte	0x1c2
 1058 0488 BD050000 		.4byte	0x5bd
 1059 048c 02       		.byte	0x2
 1060 048d 23       		.byte	0x23
 1061 048e 00       		.uleb128 0
 1062 048f 08       		.uleb128 0x8
 1063 0490 5F020000 		.4byte	.LASF76
 1064 0494 07       		.byte	0x7
 1065 0495 C301     		.2byte	0x1c3
 1066 0497 72040000 		.4byte	0x472
 1067 049b 02       		.byte	0x2
 1068 049c 23       		.byte	0x23
 1069 049d 04       		.uleb128 0x4
 1070 049e 08       		.uleb128 0x8
 1071 049f EF030000 		.4byte	.LASF77
 1072 04a3 07       		.byte	0x7
 1073 04a4 C401     		.2byte	0x1c4
 1074 04a6 72040000 		.4byte	0x472
 1075 04aa 02       		.byte	0x2
 1076 04ab 23       		.byte	0x23
 1077 04ac 08       		.uleb128 0x8
 1078 04ad 08       		.uleb128 0x8
 1079 04ae 6D020000 		.4byte	.LASF78
ARM GAS  /tmp/ccT9RbBH.s 			page 35


 1080 04b2 07       		.byte	0x7
 1081 04b3 C501     		.2byte	0x1c5
 1082 04b5 72040000 		.4byte	0x472
 1083 04b9 02       		.byte	0x2
 1084 04ba 23       		.byte	0x23
 1085 04bb 0C       		.uleb128 0xc
 1086 04bc 07       		.uleb128 0x7
 1087 04bd 53435200 		.ascii	"SCR\000"
 1088 04c1 07       		.byte	0x7
 1089 04c2 C601     		.2byte	0x1c6
 1090 04c4 72040000 		.4byte	0x472
 1091 04c8 02       		.byte	0x2
 1092 04c9 23       		.byte	0x23
 1093 04ca 10       		.uleb128 0x10
 1094 04cb 07       		.uleb128 0x7
 1095 04cc 43435200 		.ascii	"CCR\000"
 1096 04d0 07       		.byte	0x7
 1097 04d1 C701     		.2byte	0x1c7
 1098 04d3 72040000 		.4byte	0x472
 1099 04d7 02       		.byte	0x2
 1100 04d8 23       		.byte	0x23
 1101 04d9 14       		.uleb128 0x14
 1102 04da 07       		.uleb128 0x7
 1103 04db 53485000 		.ascii	"SHP\000"
 1104 04df 07       		.byte	0x7
 1105 04e0 C801     		.2byte	0x1c8
 1106 04e2 D2050000 		.4byte	0x5d2
 1107 04e6 02       		.byte	0x2
 1108 04e7 23       		.byte	0x23
 1109 04e8 18       		.uleb128 0x18
 1110 04e9 08       		.uleb128 0x8
 1111 04ea 4D030000 		.4byte	.LASF79
 1112 04ee 07       		.byte	0x7
 1113 04ef C901     		.2byte	0x1c9
 1114 04f1 72040000 		.4byte	0x472
 1115 04f5 02       		.byte	0x2
 1116 04f6 23       		.byte	0x23
 1117 04f7 24       		.uleb128 0x24
 1118 04f8 08       		.uleb128 0x8
 1119 04f9 DA020000 		.4byte	.LASF80
 1120 04fd 07       		.byte	0x7
 1121 04fe CA01     		.2byte	0x1ca
 1122 0500 72040000 		.4byte	0x472
 1123 0504 02       		.byte	0x2
 1124 0505 23       		.byte	0x23
 1125 0506 28       		.uleb128 0x28
 1126 0507 08       		.uleb128 0x8
 1127 0508 32020000 		.4byte	.LASF81
 1128 050c 07       		.byte	0x7
 1129 050d CB01     		.2byte	0x1cb
 1130 050f 72040000 		.4byte	0x472
 1131 0513 02       		.byte	0x2
 1132 0514 23       		.byte	0x23
 1133 0515 2C       		.uleb128 0x2c
 1134 0516 08       		.uleb128 0x8
 1135 0517 9E000000 		.4byte	.LASF82
 1136 051b 07       		.byte	0x7
ARM GAS  /tmp/ccT9RbBH.s 			page 36


 1137 051c CC01     		.2byte	0x1cc
 1138 051e 72040000 		.4byte	0x472
 1139 0522 02       		.byte	0x2
 1140 0523 23       		.byte	0x23
 1141 0524 30       		.uleb128 0x30
 1142 0525 08       		.uleb128 0x8
 1143 0526 32030000 		.4byte	.LASF83
 1144 052a 07       		.byte	0x7
 1145 052b CD01     		.2byte	0x1cd
 1146 052d 72040000 		.4byte	0x472
 1147 0531 02       		.byte	0x2
 1148 0532 23       		.byte	0x23
 1149 0533 34       		.uleb128 0x34
 1150 0534 08       		.uleb128 0x8
 1151 0535 EA030000 		.4byte	.LASF84
 1152 0539 07       		.byte	0x7
 1153 053a CE01     		.2byte	0x1ce
 1154 053c 72040000 		.4byte	0x472
 1155 0540 02       		.byte	0x2
 1156 0541 23       		.byte	0x23
 1157 0542 38       		.uleb128 0x38
 1158 0543 08       		.uleb128 0x8
 1159 0544 1A020000 		.4byte	.LASF85
 1160 0548 07       		.byte	0x7
 1161 0549 CF01     		.2byte	0x1cf
 1162 054b 72040000 		.4byte	0x472
 1163 054f 02       		.byte	0x2
 1164 0550 23       		.byte	0x23
 1165 0551 3C       		.uleb128 0x3c
 1166 0552 07       		.uleb128 0x7
 1167 0553 50465200 		.ascii	"PFR\000"
 1168 0557 07       		.byte	0x7
 1169 0558 D001     		.2byte	0x1d0
 1170 055a E7050000 		.4byte	0x5e7
 1171 055e 02       		.byte	0x2
 1172 055f 23       		.byte	0x23
 1173 0560 40       		.uleb128 0x40
 1174 0561 07       		.uleb128 0x7
 1175 0562 44465200 		.ascii	"DFR\000"
 1176 0566 07       		.byte	0x7
 1177 0567 D101     		.2byte	0x1d1
 1178 0569 BD050000 		.4byte	0x5bd
 1179 056d 02       		.byte	0x2
 1180 056e 23       		.byte	0x23
 1181 056f 48       		.uleb128 0x48
 1182 0570 07       		.uleb128 0x7
 1183 0571 41445200 		.ascii	"ADR\000"
 1184 0575 07       		.byte	0x7
 1185 0576 D201     		.2byte	0x1d2
 1186 0578 BD050000 		.4byte	0x5bd
 1187 057c 02       		.byte	0x2
 1188 057d 23       		.byte	0x23
 1189 057e 4C       		.uleb128 0x4c
 1190 057f 08       		.uleb128 0x8
 1191 0580 2B010000 		.4byte	.LASF86
 1192 0584 07       		.byte	0x7
 1193 0585 D301     		.2byte	0x1d3
ARM GAS  /tmp/ccT9RbBH.s 			page 37


 1194 0587 01060000 		.4byte	0x601
 1195 058b 02       		.byte	0x2
 1196 058c 23       		.byte	0x23
 1197 058d 50       		.uleb128 0x50
 1198 058e 08       		.uleb128 0x8
 1199 058f 71050000 		.4byte	.LASF87
 1200 0593 07       		.byte	0x7
 1201 0594 D401     		.2byte	0x1d4
 1202 0596 1B060000 		.4byte	0x61b
 1203 059a 02       		.byte	0x2
 1204 059b 23       		.byte	0x23
 1205 059c 60       		.uleb128 0x60
 1206 059d 08       		.uleb128 0x8
 1207 059e 67050000 		.4byte	.LASF88
 1208 05a2 07       		.byte	0x7
 1209 05a3 D501     		.2byte	0x1d5
 1210 05a5 0B060000 		.4byte	0x60b
 1211 05a9 02       		.byte	0x2
 1212 05aa 23       		.byte	0x23
 1213 05ab 74       		.uleb128 0x74
 1214 05ac 08       		.uleb128 0x8
 1215 05ad 2A000000 		.4byte	.LASF89
 1216 05b1 07       		.byte	0x7
 1217 05b2 D601     		.2byte	0x1d6
 1218 05b4 72040000 		.4byte	0x472
 1219 05b8 03       		.byte	0x3
 1220 05b9 23       		.byte	0x23
 1221 05ba 8801     		.uleb128 0x88
 1222 05bc 00       		.byte	0
 1223 05bd 11       		.uleb128 0x11
 1224 05be 72040000 		.4byte	0x472
 1225 05c2 12       		.uleb128 0x12
 1226 05c3 3E000000 		.4byte	0x3e
 1227 05c7 D2050000 		.4byte	0x5d2
 1228 05cb 13       		.uleb128 0x13
 1229 05cc 6B040000 		.4byte	0x46b
 1230 05d0 0B       		.byte	0xb
 1231 05d1 00       		.byte	0
 1232 05d2 0F       		.uleb128 0xf
 1233 05d3 C2050000 		.4byte	0x5c2
 1234 05d7 12       		.uleb128 0x12
 1235 05d8 70000000 		.4byte	0x70
 1236 05dc E7050000 		.4byte	0x5e7
 1237 05e0 13       		.uleb128 0x13
 1238 05e1 6B040000 		.4byte	0x46b
 1239 05e5 01       		.byte	0x1
 1240 05e6 00       		.byte	0
 1241 05e7 11       		.uleb128 0x11
 1242 05e8 EC050000 		.4byte	0x5ec
 1243 05ec 0F       		.uleb128 0xf
 1244 05ed D7050000 		.4byte	0x5d7
 1245 05f1 12       		.uleb128 0x12
 1246 05f2 70000000 		.4byte	0x70
 1247 05f6 01060000 		.4byte	0x601
 1248 05fa 13       		.uleb128 0x13
 1249 05fb 6B040000 		.4byte	0x46b
 1250 05ff 03       		.byte	0x3
ARM GAS  /tmp/ccT9RbBH.s 			page 38


 1251 0600 00       		.byte	0
 1252 0601 11       		.uleb128 0x11
 1253 0602 06060000 		.4byte	0x606
 1254 0606 0F       		.uleb128 0xf
 1255 0607 F1050000 		.4byte	0x5f1
 1256 060b 12       		.uleb128 0x12
 1257 060c 70000000 		.4byte	0x70
 1258 0610 1B060000 		.4byte	0x61b
 1259 0614 13       		.uleb128 0x13
 1260 0615 6B040000 		.4byte	0x46b
 1261 0619 04       		.byte	0x4
 1262 061a 00       		.byte	0
 1263 061b 11       		.uleb128 0x11
 1264 061c 20060000 		.4byte	0x620
 1265 0620 0F       		.uleb128 0xf
 1266 0621 0B060000 		.4byte	0x60b
 1267 0625 14       		.uleb128 0x14
 1268 0626 E1030000 		.4byte	.LASF90
 1269 062a 07       		.byte	0x7
 1270 062b D701     		.2byte	0x1d7
 1271 062d 77040000 		.4byte	0x477
 1272 0631 04       		.uleb128 0x4
 1273 0632 4D000000 		.4byte	.LASF91
 1274 0636 08       		.byte	0x8
 1275 0637 65       		.byte	0x65
 1276 0638 15030000 		.4byte	0x315
 1277 063c 04       		.uleb128 0x4
 1278 063d 40050000 		.4byte	.LASF92
 1279 0641 08       		.byte	0x8
 1280 0642 6D       		.byte	0x6d
 1281 0643 89000000 		.4byte	0x89
 1282 0647 05       		.uleb128 0x5
 1283 0648 DF020000 		.4byte	.LASF93
 1284 064c 04       		.byte	0x4
 1285 064d 08       		.byte	0x8
 1286 064e 89       		.byte	0x89
 1287 064f 62060000 		.4byte	0x662
 1288 0653 15       		.uleb128 0x15
 1289 0654 72313300 		.ascii	"r13\000"
 1290 0658 08       		.byte	0x8
 1291 0659 8A       		.byte	0x8a
 1292 065a EF060000 		.4byte	0x6ef
 1293 065e 02       		.byte	0x2
 1294 065f 23       		.byte	0x23
 1295 0660 00       		.uleb128 0
 1296 0661 00       		.byte	0
 1297 0662 05       		.uleb128 0x5
 1298 0663 88030000 		.4byte	.LASF94
 1299 0667 24       		.byte	0x24
 1300 0668 09       		.byte	0x9
 1301 0669 FD       		.byte	0xfd
 1302 066a EF060000 		.4byte	0x6ef
 1303 066e 07       		.uleb128 0x7
 1304 066f 723400   		.ascii	"r4\000"
 1305 0672 09       		.byte	0x9
 1306 0673 1001     		.2byte	0x110
 1307 0675 31060000 		.4byte	0x631
ARM GAS  /tmp/ccT9RbBH.s 			page 39


 1308 0679 02       		.byte	0x2
 1309 067a 23       		.byte	0x23
 1310 067b 00       		.uleb128 0
 1311 067c 07       		.uleb128 0x7
 1312 067d 723500   		.ascii	"r5\000"
 1313 0680 09       		.byte	0x9
 1314 0681 1101     		.2byte	0x111
 1315 0683 31060000 		.4byte	0x631
 1316 0687 02       		.byte	0x2
 1317 0688 23       		.byte	0x23
 1318 0689 04       		.uleb128 0x4
 1319 068a 07       		.uleb128 0x7
 1320 068b 723600   		.ascii	"r6\000"
 1321 068e 09       		.byte	0x9
 1322 068f 1201     		.2byte	0x112
 1323 0691 31060000 		.4byte	0x631
 1324 0695 02       		.byte	0x2
 1325 0696 23       		.byte	0x23
 1326 0697 08       		.uleb128 0x8
 1327 0698 07       		.uleb128 0x7
 1328 0699 723700   		.ascii	"r7\000"
 1329 069c 09       		.byte	0x9
 1330 069d 1301     		.2byte	0x113
 1331 069f 31060000 		.4byte	0x631
 1332 06a3 02       		.byte	0x2
 1333 06a4 23       		.byte	0x23
 1334 06a5 0C       		.uleb128 0xc
 1335 06a6 07       		.uleb128 0x7
 1336 06a7 723800   		.ascii	"r8\000"
 1337 06aa 09       		.byte	0x9
 1338 06ab 1401     		.2byte	0x114
 1339 06ad 31060000 		.4byte	0x631
 1340 06b1 02       		.byte	0x2
 1341 06b2 23       		.byte	0x23
 1342 06b3 10       		.uleb128 0x10
 1343 06b4 07       		.uleb128 0x7
 1344 06b5 723900   		.ascii	"r9\000"
 1345 06b8 09       		.byte	0x9
 1346 06b9 1501     		.2byte	0x115
 1347 06bb 31060000 		.4byte	0x631
 1348 06bf 02       		.byte	0x2
 1349 06c0 23       		.byte	0x23
 1350 06c1 14       		.uleb128 0x14
 1351 06c2 07       		.uleb128 0x7
 1352 06c3 72313000 		.ascii	"r10\000"
 1353 06c7 09       		.byte	0x9
 1354 06c8 1601     		.2byte	0x116
 1355 06ca 31060000 		.4byte	0x631
 1356 06ce 02       		.byte	0x2
 1357 06cf 23       		.byte	0x23
 1358 06d0 18       		.uleb128 0x18
 1359 06d1 07       		.uleb128 0x7
 1360 06d2 72313100 		.ascii	"r11\000"
 1361 06d6 09       		.byte	0x9
 1362 06d7 1701     		.2byte	0x117
 1363 06d9 31060000 		.4byte	0x631
 1364 06dd 02       		.byte	0x2
ARM GAS  /tmp/ccT9RbBH.s 			page 40


 1365 06de 23       		.byte	0x23
 1366 06df 1C       		.uleb128 0x1c
 1367 06e0 07       		.uleb128 0x7
 1368 06e1 6C7200   		.ascii	"lr\000"
 1369 06e4 09       		.byte	0x9
 1370 06e5 1801     		.2byte	0x118
 1371 06e7 31060000 		.4byte	0x631
 1372 06eb 02       		.byte	0x2
 1373 06ec 23       		.byte	0x23
 1374 06ed 20       		.uleb128 0x20
 1375 06ee 00       		.byte	0
 1376 06ef 09       		.uleb128 0x9
 1377 06f0 04       		.byte	0x4
 1378 06f1 62060000 		.4byte	0x662
 1379 06f5 05       		.uleb128 0x5
 1380 06f6 D5030000 		.4byte	.LASF95
 1381 06fa 20       		.byte	0x20
 1382 06fb 09       		.byte	0x9
 1383 06fc DE       		.byte	0xde
 1384 06fd 6D070000 		.4byte	0x76d
 1385 0701 15       		.uleb128 0x15
 1386 0702 723000   		.ascii	"r0\000"
 1387 0705 09       		.byte	0x9
 1388 0706 DF       		.byte	0xdf
 1389 0707 31060000 		.4byte	0x631
 1390 070b 02       		.byte	0x2
 1391 070c 23       		.byte	0x23
 1392 070d 00       		.uleb128 0
 1393 070e 15       		.uleb128 0x15
 1394 070f 723100   		.ascii	"r1\000"
 1395 0712 09       		.byte	0x9
 1396 0713 E0       		.byte	0xe0
 1397 0714 31060000 		.4byte	0x631
 1398 0718 02       		.byte	0x2
 1399 0719 23       		.byte	0x23
 1400 071a 04       		.uleb128 0x4
 1401 071b 15       		.uleb128 0x15
 1402 071c 723200   		.ascii	"r2\000"
 1403 071f 09       		.byte	0x9
 1404 0720 E1       		.byte	0xe1
 1405 0721 31060000 		.4byte	0x631
 1406 0725 02       		.byte	0x2
 1407 0726 23       		.byte	0x23
 1408 0727 08       		.uleb128 0x8
 1409 0728 15       		.uleb128 0x15
 1410 0729 723300   		.ascii	"r3\000"
 1411 072c 09       		.byte	0x9
 1412 072d E2       		.byte	0xe2
 1413 072e 31060000 		.4byte	0x631
 1414 0732 02       		.byte	0x2
 1415 0733 23       		.byte	0x23
 1416 0734 0C       		.uleb128 0xc
 1417 0735 15       		.uleb128 0x15
 1418 0736 72313200 		.ascii	"r12\000"
 1419 073a 09       		.byte	0x9
 1420 073b E3       		.byte	0xe3
 1421 073c 31060000 		.4byte	0x631
ARM GAS  /tmp/ccT9RbBH.s 			page 41


 1422 0740 02       		.byte	0x2
 1423 0741 23       		.byte	0x23
 1424 0742 10       		.uleb128 0x10
 1425 0743 06       		.uleb128 0x6
 1426 0744 93040000 		.4byte	.LASF96
 1427 0748 09       		.byte	0x9
 1428 0749 E4       		.byte	0xe4
 1429 074a 31060000 		.4byte	0x631
 1430 074e 02       		.byte	0x2
 1431 074f 23       		.byte	0x23
 1432 0750 14       		.uleb128 0x14
 1433 0751 15       		.uleb128 0x15
 1434 0752 706300   		.ascii	"pc\000"
 1435 0755 09       		.byte	0x9
 1436 0756 E5       		.byte	0xe5
 1437 0757 31060000 		.4byte	0x631
 1438 075b 02       		.byte	0x2
 1439 075c 23       		.byte	0x23
 1440 075d 18       		.uleb128 0x18
 1441 075e 06       		.uleb128 0x6
 1442 075f F4030000 		.4byte	.LASF97
 1443 0763 09       		.byte	0x9
 1444 0764 E6       		.byte	0xe6
 1445 0765 31060000 		.4byte	0x631
 1446 0769 02       		.byte	0x2
 1447 076a 23       		.byte	0x23
 1448 076b 1C       		.uleb128 0x1c
 1449 076c 00       		.byte	0
 1450 076d 16       		.uleb128 0x16
 1451 076e 04       		.byte	0x4
 1452 076f 0A       		.byte	0xa
 1453 0770 38       		.byte	0x38
 1454 0771 84070000 		.4byte	0x784
 1455 0775 06       		.uleb128 0x6
 1456 0776 EF010000 		.4byte	.LASF98
 1457 077a 0A       		.byte	0xa
 1458 077b 3C       		.byte	0x3c
 1459 077c 9B000000 		.4byte	0x9b
 1460 0780 02       		.byte	0x2
 1461 0781 23       		.byte	0x23
 1462 0782 00       		.uleb128 0
 1463 0783 00       		.byte	0
 1464 0784 04       		.uleb128 0x4
 1465 0785 37000000 		.4byte	.LASF99
 1466 0789 0A       		.byte	0xa
 1467 078a 3D       		.byte	0x3d
 1468 078b 6D070000 		.4byte	0x76d
 1469 078f 17       		.uleb128 0x17
 1470 0790 04       		.byte	0x4
 1471 0791 06       		.byte	0x6
 1472 0792 FA       		.byte	0xfa
 1473 0793 EC070000 		.4byte	0x7ec
 1474 0797 18       		.uleb128 0x18
 1475 0798 E8010000 		.4byte	.LASF100
 1476 079c 06       		.byte	0x6
 1477 079d 0101     		.2byte	0x101
 1478 079f D2000000 		.4byte	0xd2
ARM GAS  /tmp/ccT9RbBH.s 			page 42


 1479 07a3 18       		.uleb128 0x18
 1480 07a4 76050000 		.4byte	.LASF101
 1481 07a8 06       		.byte	0x6
 1482 07a9 0801     		.2byte	0x108
 1483 07ab D2000000 		.4byte	0xd2
 1484 07af 18       		.uleb128 0x18
 1485 07b0 A3000000 		.4byte	.LASF102
 1486 07b4 06       		.byte	0x6
 1487 07b5 0F01     		.2byte	0x10f
 1488 07b7 15030000 		.4byte	0x315
 1489 07bb 18       		.uleb128 0x18
 1490 07bc 0E050000 		.4byte	.LASF103
 1491 07c0 06       		.byte	0x6
 1492 07c1 1601     		.2byte	0x116
 1493 07c3 EC070000 		.4byte	0x7ec
 1494 07c7 18       		.uleb128 0x18
 1495 07c8 07050000 		.4byte	.LASF104
 1496 07cc 06       		.byte	0x6
 1497 07cd 1E01     		.2byte	0x11e
 1498 07cf 1B080000 		.4byte	0x81b
 1499 07d3 18       		.uleb128 0x18
 1500 07d4 30000000 		.4byte	.LASF105
 1501 07d8 06       		.byte	0x6
 1502 07d9 2701     		.2byte	0x127
 1503 07db 58080000 		.4byte	0x858
 1504 07df 18       		.uleb128 0x18
 1505 07e0 EB000000 		.4byte	.LASF106
 1506 07e4 06       		.byte	0x6
 1507 07e5 2F01     		.2byte	0x12f
 1508 07e7 DD000000 		.4byte	0xdd
 1509 07eb 00       		.byte	0
 1510 07ec 09       		.uleb128 0x9
 1511 07ed 04       		.byte	0x4
 1512 07ee 1A020000 		.4byte	0x21a
 1513 07f2 05       		.uleb128 0x5
 1514 07f3 56010000 		.4byte	.LASF107
 1515 07f7 0C       		.byte	0xc
 1516 07f8 0B       		.byte	0xb
 1517 07f9 34       		.byte	0x34
 1518 07fa 1B080000 		.4byte	0x81b
 1519 07fe 06       		.uleb128 0x6
 1520 07ff 6F000000 		.4byte	.LASF108
 1521 0803 0B       		.byte	0xb
 1522 0804 35       		.byte	0x35
 1523 0805 51020000 		.4byte	0x251
 1524 0809 02       		.byte	0x2
 1525 080a 23       		.byte	0x23
 1526 080b 00       		.uleb128 0
 1527 080c 06       		.uleb128 0x6
 1528 080d 0C010000 		.4byte	.LASF109
 1529 0811 0B       		.byte	0xb
 1530 0812 37       		.byte	0x37
 1531 0813 E8000000 		.4byte	0xe8
 1532 0817 02       		.byte	0x2
 1533 0818 23       		.byte	0x23
 1534 0819 08       		.uleb128 0x8
 1535 081a 00       		.byte	0
ARM GAS  /tmp/ccT9RbBH.s 			page 43


 1536 081b 09       		.uleb128 0x9
 1537 081c 04       		.byte	0x4
 1538 081d F2070000 		.4byte	0x7f2
 1539 0821 05       		.uleb128 0x5
 1540 0822 11020000 		.4byte	.LASF110
 1541 0826 10       		.byte	0x10
 1542 0827 0C       		.byte	0xc
 1543 0828 39       		.byte	0x39
 1544 0829 58080000 		.4byte	0x858
 1545 082d 06       		.uleb128 0x6
 1546 082e 77030000 		.4byte	.LASF111
 1547 0832 0C       		.byte	0xc
 1548 0833 3A       		.byte	0x3a
 1549 0834 51020000 		.4byte	0x251
 1550 0838 02       		.byte	0x2
 1551 0839 23       		.byte	0x23
 1552 083a 00       		.uleb128 0
 1553 083b 06       		.uleb128 0x6
 1554 083c 67000000 		.4byte	.LASF112
 1555 0840 0C       		.byte	0xc
 1556 0841 3C       		.byte	0x3c
 1557 0842 25020000 		.4byte	0x225
 1558 0846 02       		.byte	0x2
 1559 0847 23       		.byte	0x23
 1560 0848 08       		.uleb128 0x8
 1561 0849 06       		.uleb128 0x6
 1562 084a 14050000 		.4byte	.LASF113
 1563 084e 0C       		.byte	0xc
 1564 084f 3E       		.byte	0x3e
 1565 0850 96080000 		.4byte	0x896
 1566 0854 02       		.byte	0x2
 1567 0855 23       		.byte	0x23
 1568 0856 0C       		.uleb128 0xc
 1569 0857 00       		.byte	0
 1570 0858 09       		.uleb128 0x9
 1571 0859 04       		.byte	0x4
 1572 085a 21080000 		.4byte	0x821
 1573 085e 09       		.uleb128 0x9
 1574 085f 04       		.byte	0x4
 1575 0860 64080000 		.4byte	0x864
 1576 0864 11       		.uleb128 0x11
 1577 0865 69080000 		.4byte	0x869
 1578 0869 03       		.uleb128 0x3
 1579 086a 01       		.byte	0x1
 1580 086b 08       		.byte	0x8
 1581 086c 48000000 		.4byte	.LASF114
 1582 0870 09       		.uleb128 0x9
 1583 0871 04       		.byte	0x4
 1584 0872 17030000 		.4byte	0x317
 1585 0876 0F       		.uleb128 0xf
 1586 0877 5E080000 		.4byte	0x85e
 1587 087b 12       		.uleb128 0x12
 1588 087c 3C060000 		.4byte	0x63c
 1589 0880 8B080000 		.4byte	0x88b
 1590 0884 13       		.uleb128 0x13
 1591 0885 6B040000 		.4byte	0x46b
 1592 0889 1A       		.byte	0x1a
ARM GAS  /tmp/ccT9RbBH.s 			page 44


 1593 088a 00       		.byte	0
 1594 088b 04       		.uleb128 0x4
 1595 088c 38040000 		.4byte	.LASF115
 1596 0890 0C       		.byte	0xc
 1597 0891 34       		.byte	0x34
 1598 0892 21080000 		.4byte	0x821
 1599 0896 09       		.uleb128 0x9
 1600 0897 04       		.byte	0x4
 1601 0898 8B080000 		.4byte	0x88b
 1602 089c 19       		.uleb128 0x19
 1603 089d AB030000 		.4byte	.LASF118
 1604 08a1 02       		.byte	0x2
 1605 08a2 2202     		.2byte	0x222
 1606 08a4 01       		.byte	0x1
 1607 08a5 03       		.byte	0x3
 1608 08a6 B7080000 		.4byte	0x8b7
 1609 08aa 1A       		.uleb128 0x1a
 1610 08ab C2010000 		.4byte	.LASF120
 1611 08af 02       		.byte	0x2
 1612 08b0 2202     		.2byte	0x222
 1613 08b2 70000000 		.4byte	0x70
 1614 08b6 00       		.byte	0
 1615 08b7 1B       		.uleb128 0x1b
 1616 08b8 AA000000 		.4byte	.LASF116
 1617 08bc 09       		.byte	0x9
 1618 08bd C801     		.2byte	0x1c8
 1619 08bf 01       		.byte	0x1
 1620 08c0 03       		.byte	0x3
 1621 08c1 1B       		.uleb128 0x1b
 1622 08c2 53050000 		.4byte	.LASF117
 1623 08c6 09       		.byte	0x9
 1624 08c7 E001     		.2byte	0x1e0
 1625 08c9 01       		.byte	0x1
 1626 08ca 03       		.byte	0x3
 1627 08cb 1C       		.uleb128 0x1c
 1628 08cc A8050000 		.4byte	.LASF131
 1629 08d0 02       		.byte	0x2
 1630 08d1 AA01     		.2byte	0x1aa
 1631 08d3 01       		.byte	0x1
 1632 08d4 70000000 		.4byte	0x70
 1633 08d8 03       		.byte	0x3
 1634 08d9 EA080000 		.4byte	0x8ea
 1635 08dd 1D       		.uleb128 0x1d
 1636 08de 7C010000 		.4byte	.LASF124
 1637 08e2 02       		.byte	0x2
 1638 08e3 AC01     		.2byte	0x1ac
 1639 08e5 70000000 		.4byte	0x70
 1640 08e9 00       		.byte	0
 1641 08ea 19       		.uleb128 0x19
 1642 08eb 38030000 		.4byte	.LASF119
 1643 08ef 02       		.byte	0x2
 1644 08f0 B901     		.2byte	0x1b9
 1645 08f2 01       		.byte	0x1
 1646 08f3 03       		.byte	0x3
 1647 08f4 05090000 		.4byte	0x905
 1648 08f8 1A       		.uleb128 0x1a
 1649 08f9 02020000 		.4byte	.LASF121
ARM GAS  /tmp/ccT9RbBH.s 			page 45


 1650 08fd 02       		.byte	0x2
 1651 08fe B901     		.2byte	0x1b9
 1652 0900 70000000 		.4byte	0x70
 1653 0904 00       		.byte	0
 1654 0905 1B       		.uleb128 0x1b
 1655 0906 40040000 		.4byte	.LASF122
 1656 090a 09       		.byte	0x9
 1657 090b FA01     		.2byte	0x1fa
 1658 090d 01       		.byte	0x1
 1659 090e 03       		.byte	0x3
 1660 090f 1B       		.uleb128 0x1b
 1661 0910 BB000000 		.4byte	.LASF123
 1662 0914 09       		.byte	0x9
 1663 0915 EF01     		.2byte	0x1ef
 1664 0917 01       		.byte	0x1
 1665 0918 03       		.byte	0x3
 1666 0919 1E       		.uleb128 0x1e
 1667 091a 01       		.byte	0x1
 1668 091b 80040000 		.4byte	.LASF132
 1669 091f 01       		.byte	0x1
 1670 0920 7A       		.byte	0x7a
 1671 0921 01       		.byte	0x1
 1672 0922 01       		.byte	0x1
 1673 0923 35090000 		.4byte	0x935
 1674 0927 1F       		.uleb128 0x1f
 1675 0928 20       		.uleb128 0x20
 1676 0929 67030000 		.4byte	.LASF125
 1677 092d 01       		.byte	0x1
 1678 092e 7E       		.byte	0x7e
 1679 092f 35090000 		.4byte	0x935
 1680 0933 00       		.byte	0
 1681 0934 00       		.byte	0
 1682 0935 09       		.uleb128 0x9
 1683 0936 04       		.byte	0x4
 1684 0937 F5060000 		.4byte	0x6f5
 1685 093b 21       		.uleb128 0x21
 1686 093c 01       		.byte	0x1
 1687 093d 1F020000 		.4byte	.LASF133
 1688 0941 01       		.byte	0x1
 1689 0942 3E       		.byte	0x3e
 1690 0943 01       		.byte	0x1
 1691 0944 00000000 		.4byte	.LFB241
 1692 0948 12000000 		.4byte	.LFE241
 1693 094c 02       		.byte	0x2
 1694 094d 7D       		.byte	0x7d
 1695 094e 00       		.sleb128 0
 1696 094f 01       		.byte	0x1
 1697 0950 E0090000 		.4byte	0x9e0
 1698 0954 22       		.uleb128 0x22
 1699 0955 67030000 		.4byte	.LASF125
 1700 0959 01       		.byte	0x1
 1701 095a 40       		.byte	0x40
 1702 095b 35090000 		.4byte	0x935
 1703 095f 00000000 		.4byte	.LLST0
 1704 0963 23       		.uleb128 0x23
 1705 0964 CB080000 		.4byte	0x8cb
 1706 0968 00000000 		.4byte	.LBB51
ARM GAS  /tmp/ccT9RbBH.s 			page 46


 1707 096c 04000000 		.4byte	.LBE51
 1708 0970 01       		.byte	0x1
 1709 0971 48       		.byte	0x48
 1710 0972 8A090000 		.4byte	0x98a
 1711 0976 24       		.uleb128 0x24
 1712 0977 00000000 		.4byte	.LBB52
 1713 097b 04000000 		.4byte	.LBE52
 1714 097f 25       		.uleb128 0x25
 1715 0980 DD080000 		.4byte	0x8dd
 1716 0984 20000000 		.4byte	.LLST1
 1717 0988 00       		.byte	0
 1718 0989 00       		.byte	0
 1719 098a 23       		.uleb128 0x23
 1720 098b EA080000 		.4byte	0x8ea
 1721 098f 06000000 		.4byte	.LBB53
 1722 0993 0A000000 		.4byte	.LBE53
 1723 0997 01       		.byte	0x1
 1724 0998 4F       		.byte	0x4f
 1725 0999 A7090000 		.4byte	0x9a7
 1726 099d 26       		.uleb128 0x26
 1727 099e F8080000 		.4byte	0x8f8
 1728 09a2 00000000 		.4byte	.LLST0
 1729 09a6 00       		.byte	0
 1730 09a7 27       		.uleb128 0x27
 1731 09a8 05090000 		.4byte	0x905
 1732 09ac 0A000000 		.4byte	.LBB55
 1733 09b0 12000000 		.4byte	.LBE55
 1734 09b4 01       		.byte	0x1
 1735 09b5 52       		.byte	0x52
 1736 09b6 28       		.uleb128 0x28
 1737 09b7 C1080000 		.4byte	0x8c1
 1738 09bb 0A000000 		.4byte	.LBB56
 1739 09bf 12000000 		.4byte	.LBE56
 1740 09c3 09       		.byte	0x9
 1741 09c4 FC01     		.2byte	0x1fc
 1742 09c6 28       		.uleb128 0x28
 1743 09c7 9C080000 		.4byte	0x89c
 1744 09cb 0A000000 		.4byte	.LBB57
 1745 09cf 12000000 		.4byte	.LBE57
 1746 09d3 09       		.byte	0x9
 1747 09d4 E301     		.2byte	0x1e3
 1748 09d6 29       		.uleb128 0x29
 1749 09d7 AA080000 		.4byte	0x8aa
 1750 09db 00       		.byte	0
 1751 09dc 00       		.byte	0
 1752 09dd 00       		.byte	0
 1753 09de 00       		.byte	0
 1754 09df 00       		.byte	0
 1755 09e0 2A       		.uleb128 0x2a
 1756 09e1 19090000 		.4byte	0x919
 1757 09e5 00000000 		.4byte	.LFB242
 1758 09e9 50000000 		.4byte	.LFE242
 1759 09ed 40000000 		.4byte	.LLST3
 1760 09f1 01       		.byte	0x1
 1761 09f2 E00A0000 		.4byte	0xae0
 1762 09f6 23       		.uleb128 0x23
 1763 09f7 0F090000 		.4byte	0x90f
ARM GAS  /tmp/ccT9RbBH.s 			page 47


 1764 09fb 02000000 		.4byte	.LBB83
 1765 09ff 08000000 		.4byte	.LBE83
 1766 0a03 01       		.byte	0x1
 1767 0a04 7C       		.byte	0x7c
 1768 0a05 320A0000 		.4byte	0xa32
 1769 0a09 28       		.uleb128 0x28
 1770 0a0a B7080000 		.4byte	0x8b7
 1771 0a0e 02000000 		.4byte	.LBB84
 1772 0a12 08000000 		.4byte	.LBE84
 1773 0a16 09       		.byte	0x9
 1774 0a17 F101     		.2byte	0x1f1
 1775 0a19 28       		.uleb128 0x28
 1776 0a1a 9C080000 		.4byte	0x89c
 1777 0a1e 02000000 		.4byte	.LBB85
 1778 0a22 08000000 		.4byte	.LBE85
 1779 0a26 09       		.byte	0x9
 1780 0a27 D001     		.2byte	0x1d0
 1781 0a29 29       		.uleb128 0x29
 1782 0a2a AA080000 		.4byte	0x8aa
 1783 0a2e 20       		.byte	0x20
 1784 0a2f 00       		.byte	0
 1785 0a30 00       		.byte	0
 1786 0a31 00       		.byte	0
 1787 0a32 23       		.uleb128 0x23
 1788 0a33 05090000 		.4byte	0x905
 1789 0a37 18000000 		.4byte	.LBB87
 1790 0a3b 1E000000 		.4byte	.LBE87
 1791 0a3f 01       		.byte	0x1
 1792 0a40 A5       		.byte	0xa5
 1793 0a41 710A0000 		.4byte	0xa71
 1794 0a45 28       		.uleb128 0x28
 1795 0a46 C1080000 		.4byte	0x8c1
 1796 0a4a 18000000 		.4byte	.LBB88
 1797 0a4e 1E000000 		.4byte	.LBE88
 1798 0a52 09       		.byte	0x9
 1799 0a53 FC01     		.2byte	0x1fc
 1800 0a55 28       		.uleb128 0x28
 1801 0a56 9C080000 		.4byte	0x89c
 1802 0a5a 18000000 		.4byte	.LBB89
 1803 0a5e 1E000000 		.4byte	.LBE89
 1804 0a62 09       		.byte	0x9
 1805 0a63 E301     		.2byte	0x1e3
 1806 0a65 26       		.uleb128 0x26
 1807 0a66 AA080000 		.4byte	0x8aa
 1808 0a6a 60000000 		.4byte	.LLST4
 1809 0a6e 00       		.byte	0
 1810 0a6f 00       		.byte	0
 1811 0a70 00       		.byte	0
 1812 0a71 27       		.uleb128 0x27
 1813 0a72 19090000 		.4byte	0x919
 1814 0a76 1E000000 		.4byte	.LBB91
 1815 0a7a 50000000 		.4byte	.LBE91
 1816 0a7e 01       		.byte	0x1
 1817 0a7f 7A       		.byte	0x7a
 1818 0a80 24       		.uleb128 0x24
 1819 0a81 1E000000 		.4byte	.LBB92
 1820 0a85 50000000 		.4byte	.LBE92
ARM GAS  /tmp/ccT9RbBH.s 			page 48


 1821 0a89 25       		.uleb128 0x25
 1822 0a8a 28090000 		.4byte	0x928
 1823 0a8e 74000000 		.4byte	.LLST5
 1824 0a92 23       		.uleb128 0x23
 1825 0a93 CB080000 		.4byte	0x8cb
 1826 0a97 1E000000 		.4byte	.LBB93
 1827 0a9b 22000000 		.4byte	.LBE93
 1828 0a9f 01       		.byte	0x1
 1829 0aa0 86       		.byte	0x86
 1830 0aa1 B70A0000 		.4byte	0xab7
 1831 0aa5 24       		.uleb128 0x24
 1832 0aa6 1E000000 		.4byte	.LBB94
 1833 0aaa 22000000 		.4byte	.LBE94
 1834 0aae 2B       		.uleb128 0x2b
 1835 0aaf DD080000 		.4byte	0x8dd
 1836 0ab3 01       		.byte	0x1
 1837 0ab4 54       		.byte	0x54
 1838 0ab5 00       		.byte	0
 1839 0ab6 00       		.byte	0
 1840 0ab7 23       		.uleb128 0x23
 1841 0ab8 EA080000 		.4byte	0x8ea
 1842 0abc 2E000000 		.4byte	.LBB95
 1843 0ac0 32000000 		.4byte	.LBE95
 1844 0ac4 01       		.byte	0x1
 1845 0ac5 93       		.byte	0x93
 1846 0ac6 D40A0000 		.4byte	0xad4
 1847 0aca 26       		.uleb128 0x26
 1848 0acb F8080000 		.4byte	0x8f8
 1849 0acf A1000000 		.4byte	.LLST6
 1850 0ad3 00       		.byte	0
 1851 0ad4 2C       		.uleb128 0x2c
 1852 0ad5 36000000 		.4byte	.LVL10
 1853 0ad9 000B0000 		.4byte	0xb00
 1854 0add 00       		.byte	0
 1855 0ade 00       		.byte	0
 1856 0adf 00       		.byte	0
 1857 0ae0 2D       		.uleb128 0x2d
 1858 0ae1 94030000 		.4byte	.LASF126
 1859 0ae5 07       		.byte	0x7
 1860 0ae6 FA06     		.2byte	0x6fa
 1861 0ae8 EE0A0000 		.4byte	0xaee
 1862 0aec 01       		.byte	0x1
 1863 0aed 01       		.byte	0x1
 1864 0aee 0F       		.uleb128 0xf
 1865 0aef 5E000000 		.4byte	0x5e
 1866 0af3 2E       		.uleb128 0x2e
 1867 0af4 636800   		.ascii	"ch\000"
 1868 0af7 06       		.byte	0x6
 1869 0af8 0902     		.2byte	0x209
 1870 0afa F8030000 		.4byte	0x3f8
 1871 0afe 01       		.byte	0x1
 1872 0aff 01       		.byte	0x1
 1873 0b00 2F       		.uleb128 0x2f
 1874 0b01 01       		.byte	0x1
 1875 0b02 9A010000 		.4byte	.LASF134
 1876 0b06 06       		.byte	0x6
 1877 0b07 1802     		.2byte	0x218
ARM GAS  /tmp/ccT9RbBH.s 			page 49


 1878 0b09 01       		.byte	0x1
 1879 0b0a 0F0B0000 		.4byte	0xb0f
 1880 0b0e 01       		.byte	0x1
 1881 0b0f 03       		.uleb128 0x3
 1882 0b10 01       		.byte	0x1
 1883 0b11 02       		.byte	0x2
 1884 0b12 FC010000 		.4byte	.LASF127
 1885 0b16 00       		.byte	0
 1886              		.section	.debug_abbrev,"",%progbits
 1887              	.Ldebug_abbrev0:
 1888 0000 01       		.uleb128 0x1
 1889 0001 11       		.uleb128 0x11
 1890 0002 01       		.byte	0x1
 1891 0003 25       		.uleb128 0x25
 1892 0004 0E       		.uleb128 0xe
 1893 0005 13       		.uleb128 0x13
 1894 0006 0B       		.uleb128 0xb
 1895 0007 03       		.uleb128 0x3
 1896 0008 0E       		.uleb128 0xe
 1897 0009 1B       		.uleb128 0x1b
 1898 000a 0E       		.uleb128 0xe
 1899 000b 55       		.uleb128 0x55
 1900 000c 06       		.uleb128 0x6
 1901 000d 11       		.uleb128 0x11
 1902 000e 01       		.uleb128 0x1
 1903 000f 52       		.uleb128 0x52
 1904 0010 01       		.uleb128 0x1
 1905 0011 10       		.uleb128 0x10
 1906 0012 06       		.uleb128 0x6
 1907 0013 00       		.byte	0
 1908 0014 00       		.byte	0
 1909 0015 02       		.uleb128 0x2
 1910 0016 24       		.uleb128 0x24
 1911 0017 00       		.byte	0
 1912 0018 0B       		.uleb128 0xb
 1913 0019 0B       		.uleb128 0xb
 1914 001a 3E       		.uleb128 0x3e
 1915 001b 0B       		.uleb128 0xb
 1916 001c 03       		.uleb128 0x3
 1917 001d 08       		.uleb128 0x8
 1918 001e 00       		.byte	0
 1919 001f 00       		.byte	0
 1920 0020 03       		.uleb128 0x3
 1921 0021 24       		.uleb128 0x24
 1922 0022 00       		.byte	0
 1923 0023 0B       		.uleb128 0xb
 1924 0024 0B       		.uleb128 0xb
 1925 0025 3E       		.uleb128 0x3e
 1926 0026 0B       		.uleb128 0xb
 1927 0027 03       		.uleb128 0x3
 1928 0028 0E       		.uleb128 0xe
 1929 0029 00       		.byte	0
 1930 002a 00       		.byte	0
 1931 002b 04       		.uleb128 0x4
 1932 002c 16       		.uleb128 0x16
 1933 002d 00       		.byte	0
 1934 002e 03       		.uleb128 0x3
ARM GAS  /tmp/ccT9RbBH.s 			page 50


 1935 002f 0E       		.uleb128 0xe
 1936 0030 3A       		.uleb128 0x3a
 1937 0031 0B       		.uleb128 0xb
 1938 0032 3B       		.uleb128 0x3b
 1939 0033 0B       		.uleb128 0xb
 1940 0034 49       		.uleb128 0x49
 1941 0035 13       		.uleb128 0x13
 1942 0036 00       		.byte	0
 1943 0037 00       		.byte	0
 1944 0038 05       		.uleb128 0x5
 1945 0039 13       		.uleb128 0x13
 1946 003a 01       		.byte	0x1
 1947 003b 03       		.uleb128 0x3
 1948 003c 0E       		.uleb128 0xe
 1949 003d 0B       		.uleb128 0xb
 1950 003e 0B       		.uleb128 0xb
 1951 003f 3A       		.uleb128 0x3a
 1952 0040 0B       		.uleb128 0xb
 1953 0041 3B       		.uleb128 0x3b
 1954 0042 0B       		.uleb128 0xb
 1955 0043 01       		.uleb128 0x1
 1956 0044 13       		.uleb128 0x13
 1957 0045 00       		.byte	0
 1958 0046 00       		.byte	0
 1959 0047 06       		.uleb128 0x6
 1960 0048 0D       		.uleb128 0xd
 1961 0049 00       		.byte	0
 1962 004a 03       		.uleb128 0x3
 1963 004b 0E       		.uleb128 0xe
 1964 004c 3A       		.uleb128 0x3a
 1965 004d 0B       		.uleb128 0xb
 1966 004e 3B       		.uleb128 0x3b
 1967 004f 0B       		.uleb128 0xb
 1968 0050 49       		.uleb128 0x49
 1969 0051 13       		.uleb128 0x13
 1970 0052 38       		.uleb128 0x38
 1971 0053 0A       		.uleb128 0xa
 1972 0054 00       		.byte	0
 1973 0055 00       		.byte	0
 1974 0056 07       		.uleb128 0x7
 1975 0057 0D       		.uleb128 0xd
 1976 0058 00       		.byte	0
 1977 0059 03       		.uleb128 0x3
 1978 005a 08       		.uleb128 0x8
 1979 005b 3A       		.uleb128 0x3a
 1980 005c 0B       		.uleb128 0xb
 1981 005d 3B       		.uleb128 0x3b
 1982 005e 05       		.uleb128 0x5
 1983 005f 49       		.uleb128 0x49
 1984 0060 13       		.uleb128 0x13
 1985 0061 38       		.uleb128 0x38
 1986 0062 0A       		.uleb128 0xa
 1987 0063 00       		.byte	0
 1988 0064 00       		.byte	0
 1989 0065 08       		.uleb128 0x8
 1990 0066 0D       		.uleb128 0xd
 1991 0067 00       		.byte	0
ARM GAS  /tmp/ccT9RbBH.s 			page 51


 1992 0068 03       		.uleb128 0x3
 1993 0069 0E       		.uleb128 0xe
 1994 006a 3A       		.uleb128 0x3a
 1995 006b 0B       		.uleb128 0xb
 1996 006c 3B       		.uleb128 0x3b
 1997 006d 05       		.uleb128 0x5
 1998 006e 49       		.uleb128 0x49
 1999 006f 13       		.uleb128 0x13
 2000 0070 38       		.uleb128 0x38
 2001 0071 0A       		.uleb128 0xa
 2002 0072 00       		.byte	0
 2003 0073 00       		.byte	0
 2004 0074 09       		.uleb128 0x9
 2005 0075 0F       		.uleb128 0xf
 2006 0076 00       		.byte	0
 2007 0077 0B       		.uleb128 0xb
 2008 0078 0B       		.uleb128 0xb
 2009 0079 49       		.uleb128 0x49
 2010 007a 13       		.uleb128 0x13
 2011 007b 00       		.byte	0
 2012 007c 00       		.byte	0
 2013 007d 0A       		.uleb128 0xa
 2014 007e 13       		.uleb128 0x13
 2015 007f 01       		.byte	0x1
 2016 0080 03       		.uleb128 0x3
 2017 0081 0E       		.uleb128 0xe
 2018 0082 0B       		.uleb128 0xb
 2019 0083 0B       		.uleb128 0xb
 2020 0084 3A       		.uleb128 0x3a
 2021 0085 0B       		.uleb128 0xb
 2022 0086 3B       		.uleb128 0x3b
 2023 0087 05       		.uleb128 0x5
 2024 0088 01       		.uleb128 0x1
 2025 0089 13       		.uleb128 0x13
 2026 008a 00       		.byte	0
 2027 008b 00       		.byte	0
 2028 008c 0B       		.uleb128 0xb
 2029 008d 15       		.uleb128 0x15
 2030 008e 01       		.byte	0x1
 2031 008f 27       		.uleb128 0x27
 2032 0090 0C       		.uleb128 0xc
 2033 0091 01       		.uleb128 0x1
 2034 0092 13       		.uleb128 0x13
 2035 0093 00       		.byte	0
 2036 0094 00       		.byte	0
 2037 0095 0C       		.uleb128 0xc
 2038 0096 05       		.uleb128 0x5
 2039 0097 00       		.byte	0
 2040 0098 49       		.uleb128 0x49
 2041 0099 13       		.uleb128 0x13
 2042 009a 00       		.byte	0
 2043 009b 00       		.byte	0
 2044 009c 0D       		.uleb128 0xd
 2045 009d 0F       		.uleb128 0xf
 2046 009e 00       		.byte	0
 2047 009f 0B       		.uleb128 0xb
 2048 00a0 0B       		.uleb128 0xb
ARM GAS  /tmp/ccT9RbBH.s 			page 52


 2049 00a1 00       		.byte	0
 2050 00a2 00       		.byte	0
 2051 00a3 0E       		.uleb128 0xe
 2052 00a4 13       		.uleb128 0x13
 2053 00a5 01       		.byte	0x1
 2054 00a6 03       		.uleb128 0x3
 2055 00a7 0E       		.uleb128 0xe
 2056 00a8 0B       		.uleb128 0xb
 2057 00a9 05       		.uleb128 0x5
 2058 00aa 3A       		.uleb128 0x3a
 2059 00ab 0B       		.uleb128 0xb
 2060 00ac 3B       		.uleb128 0x3b
 2061 00ad 05       		.uleb128 0x5
 2062 00ae 01       		.uleb128 0x1
 2063 00af 13       		.uleb128 0x13
 2064 00b0 00       		.byte	0
 2065 00b1 00       		.byte	0
 2066 00b2 0F       		.uleb128 0xf
 2067 00b3 35       		.uleb128 0x35
 2068 00b4 00       		.byte	0
 2069 00b5 49       		.uleb128 0x49
 2070 00b6 13       		.uleb128 0x13
 2071 00b7 00       		.byte	0
 2072 00b8 00       		.byte	0
 2073 00b9 10       		.uleb128 0x10
 2074 00ba 13       		.uleb128 0x13
 2075 00bb 01       		.byte	0x1
 2076 00bc 0B       		.uleb128 0xb
 2077 00bd 0B       		.uleb128 0xb
 2078 00be 3A       		.uleb128 0x3a
 2079 00bf 0B       		.uleb128 0xb
 2080 00c0 3B       		.uleb128 0x3b
 2081 00c1 05       		.uleb128 0x5
 2082 00c2 01       		.uleb128 0x1
 2083 00c3 13       		.uleb128 0x13
 2084 00c4 00       		.byte	0
 2085 00c5 00       		.byte	0
 2086 00c6 11       		.uleb128 0x11
 2087 00c7 26       		.uleb128 0x26
 2088 00c8 00       		.byte	0
 2089 00c9 49       		.uleb128 0x49
 2090 00ca 13       		.uleb128 0x13
 2091 00cb 00       		.byte	0
 2092 00cc 00       		.byte	0
 2093 00cd 12       		.uleb128 0x12
 2094 00ce 01       		.uleb128 0x1
 2095 00cf 01       		.byte	0x1
 2096 00d0 49       		.uleb128 0x49
 2097 00d1 13       		.uleb128 0x13
 2098 00d2 01       		.uleb128 0x1
 2099 00d3 13       		.uleb128 0x13
 2100 00d4 00       		.byte	0
 2101 00d5 00       		.byte	0
 2102 00d6 13       		.uleb128 0x13
 2103 00d7 21       		.uleb128 0x21
 2104 00d8 00       		.byte	0
 2105 00d9 49       		.uleb128 0x49
ARM GAS  /tmp/ccT9RbBH.s 			page 53


 2106 00da 13       		.uleb128 0x13
 2107 00db 2F       		.uleb128 0x2f
 2108 00dc 0B       		.uleb128 0xb
 2109 00dd 00       		.byte	0
 2110 00de 00       		.byte	0
 2111 00df 14       		.uleb128 0x14
 2112 00e0 16       		.uleb128 0x16
 2113 00e1 00       		.byte	0
 2114 00e2 03       		.uleb128 0x3
 2115 00e3 0E       		.uleb128 0xe
 2116 00e4 3A       		.uleb128 0x3a
 2117 00e5 0B       		.uleb128 0xb
 2118 00e6 3B       		.uleb128 0x3b
 2119 00e7 05       		.uleb128 0x5
 2120 00e8 49       		.uleb128 0x49
 2121 00e9 13       		.uleb128 0x13
 2122 00ea 00       		.byte	0
 2123 00eb 00       		.byte	0
 2124 00ec 15       		.uleb128 0x15
 2125 00ed 0D       		.uleb128 0xd
 2126 00ee 00       		.byte	0
 2127 00ef 03       		.uleb128 0x3
 2128 00f0 08       		.uleb128 0x8
 2129 00f1 3A       		.uleb128 0x3a
 2130 00f2 0B       		.uleb128 0xb
 2131 00f3 3B       		.uleb128 0x3b
 2132 00f4 0B       		.uleb128 0xb
 2133 00f5 49       		.uleb128 0x49
 2134 00f6 13       		.uleb128 0x13
 2135 00f7 38       		.uleb128 0x38
 2136 00f8 0A       		.uleb128 0xa
 2137 00f9 00       		.byte	0
 2138 00fa 00       		.byte	0
 2139 00fb 16       		.uleb128 0x16
 2140 00fc 13       		.uleb128 0x13
 2141 00fd 01       		.byte	0x1
 2142 00fe 0B       		.uleb128 0xb
 2143 00ff 0B       		.uleb128 0xb
 2144 0100 3A       		.uleb128 0x3a
 2145 0101 0B       		.uleb128 0xb
 2146 0102 3B       		.uleb128 0x3b
 2147 0103 0B       		.uleb128 0xb
 2148 0104 01       		.uleb128 0x1
 2149 0105 13       		.uleb128 0x13
 2150 0106 00       		.byte	0
 2151 0107 00       		.byte	0
 2152 0108 17       		.uleb128 0x17
 2153 0109 17       		.uleb128 0x17
 2154 010a 01       		.byte	0x1
 2155 010b 0B       		.uleb128 0xb
 2156 010c 0B       		.uleb128 0xb
 2157 010d 3A       		.uleb128 0x3a
 2158 010e 0B       		.uleb128 0xb
 2159 010f 3B       		.uleb128 0x3b
 2160 0110 0B       		.uleb128 0xb
 2161 0111 01       		.uleb128 0x1
 2162 0112 13       		.uleb128 0x13
ARM GAS  /tmp/ccT9RbBH.s 			page 54


 2163 0113 00       		.byte	0
 2164 0114 00       		.byte	0
 2165 0115 18       		.uleb128 0x18
 2166 0116 0D       		.uleb128 0xd
 2167 0117 00       		.byte	0
 2168 0118 03       		.uleb128 0x3
 2169 0119 0E       		.uleb128 0xe
 2170 011a 3A       		.uleb128 0x3a
 2171 011b 0B       		.uleb128 0xb
 2172 011c 3B       		.uleb128 0x3b
 2173 011d 05       		.uleb128 0x5
 2174 011e 49       		.uleb128 0x49
 2175 011f 13       		.uleb128 0x13
 2176 0120 00       		.byte	0
 2177 0121 00       		.byte	0
 2178 0122 19       		.uleb128 0x19
 2179 0123 2E       		.uleb128 0x2e
 2180 0124 01       		.byte	0x1
 2181 0125 03       		.uleb128 0x3
 2182 0126 0E       		.uleb128 0xe
 2183 0127 3A       		.uleb128 0x3a
 2184 0128 0B       		.uleb128 0xb
 2185 0129 3B       		.uleb128 0x3b
 2186 012a 05       		.uleb128 0x5
 2187 012b 27       		.uleb128 0x27
 2188 012c 0C       		.uleb128 0xc
 2189 012d 20       		.uleb128 0x20
 2190 012e 0B       		.uleb128 0xb
 2191 012f 01       		.uleb128 0x1
 2192 0130 13       		.uleb128 0x13
 2193 0131 00       		.byte	0
 2194 0132 00       		.byte	0
 2195 0133 1A       		.uleb128 0x1a
 2196 0134 05       		.uleb128 0x5
 2197 0135 00       		.byte	0
 2198 0136 03       		.uleb128 0x3
 2199 0137 0E       		.uleb128 0xe
 2200 0138 3A       		.uleb128 0x3a
 2201 0139 0B       		.uleb128 0xb
 2202 013a 3B       		.uleb128 0x3b
 2203 013b 05       		.uleb128 0x5
 2204 013c 49       		.uleb128 0x49
 2205 013d 13       		.uleb128 0x13
 2206 013e 00       		.byte	0
 2207 013f 00       		.byte	0
 2208 0140 1B       		.uleb128 0x1b
 2209 0141 2E       		.uleb128 0x2e
 2210 0142 00       		.byte	0
 2211 0143 03       		.uleb128 0x3
 2212 0144 0E       		.uleb128 0xe
 2213 0145 3A       		.uleb128 0x3a
 2214 0146 0B       		.uleb128 0xb
 2215 0147 3B       		.uleb128 0x3b
 2216 0148 05       		.uleb128 0x5
 2217 0149 27       		.uleb128 0x27
 2218 014a 0C       		.uleb128 0xc
 2219 014b 20       		.uleb128 0x20
ARM GAS  /tmp/ccT9RbBH.s 			page 55


 2220 014c 0B       		.uleb128 0xb
 2221 014d 00       		.byte	0
 2222 014e 00       		.byte	0
 2223 014f 1C       		.uleb128 0x1c
 2224 0150 2E       		.uleb128 0x2e
 2225 0151 01       		.byte	0x1
 2226 0152 03       		.uleb128 0x3
 2227 0153 0E       		.uleb128 0xe
 2228 0154 3A       		.uleb128 0x3a
 2229 0155 0B       		.uleb128 0xb
 2230 0156 3B       		.uleb128 0x3b
 2231 0157 05       		.uleb128 0x5
 2232 0158 27       		.uleb128 0x27
 2233 0159 0C       		.uleb128 0xc
 2234 015a 49       		.uleb128 0x49
 2235 015b 13       		.uleb128 0x13
 2236 015c 20       		.uleb128 0x20
 2237 015d 0B       		.uleb128 0xb
 2238 015e 01       		.uleb128 0x1
 2239 015f 13       		.uleb128 0x13
 2240 0160 00       		.byte	0
 2241 0161 00       		.byte	0
 2242 0162 1D       		.uleb128 0x1d
 2243 0163 34       		.uleb128 0x34
 2244 0164 00       		.byte	0
 2245 0165 03       		.uleb128 0x3
 2246 0166 0E       		.uleb128 0xe
 2247 0167 3A       		.uleb128 0x3a
 2248 0168 0B       		.uleb128 0xb
 2249 0169 3B       		.uleb128 0x3b
 2250 016a 05       		.uleb128 0x5
 2251 016b 49       		.uleb128 0x49
 2252 016c 13       		.uleb128 0x13
 2253 016d 00       		.byte	0
 2254 016e 00       		.byte	0
 2255 016f 1E       		.uleb128 0x1e
 2256 0170 2E       		.uleb128 0x2e
 2257 0171 01       		.byte	0x1
 2258 0172 3F       		.uleb128 0x3f
 2259 0173 0C       		.uleb128 0xc
 2260 0174 03       		.uleb128 0x3
 2261 0175 0E       		.uleb128 0xe
 2262 0176 3A       		.uleb128 0x3a
 2263 0177 0B       		.uleb128 0xb
 2264 0178 3B       		.uleb128 0x3b
 2265 0179 0B       		.uleb128 0xb
 2266 017a 27       		.uleb128 0x27
 2267 017b 0C       		.uleb128 0xc
 2268 017c 20       		.uleb128 0x20
 2269 017d 0B       		.uleb128 0xb
 2270 017e 01       		.uleb128 0x1
 2271 017f 13       		.uleb128 0x13
 2272 0180 00       		.byte	0
 2273 0181 00       		.byte	0
 2274 0182 1F       		.uleb128 0x1f
 2275 0183 0B       		.uleb128 0xb
 2276 0184 01       		.byte	0x1
ARM GAS  /tmp/ccT9RbBH.s 			page 56


 2277 0185 00       		.byte	0
 2278 0186 00       		.byte	0
 2279 0187 20       		.uleb128 0x20
 2280 0188 34       		.uleb128 0x34
 2281 0189 00       		.byte	0
 2282 018a 03       		.uleb128 0x3
 2283 018b 0E       		.uleb128 0xe
 2284 018c 3A       		.uleb128 0x3a
 2285 018d 0B       		.uleb128 0xb
 2286 018e 3B       		.uleb128 0x3b
 2287 018f 0B       		.uleb128 0xb
 2288 0190 49       		.uleb128 0x49
 2289 0191 13       		.uleb128 0x13
 2290 0192 00       		.byte	0
 2291 0193 00       		.byte	0
 2292 0194 21       		.uleb128 0x21
 2293 0195 2E       		.uleb128 0x2e
 2294 0196 01       		.byte	0x1
 2295 0197 3F       		.uleb128 0x3f
 2296 0198 0C       		.uleb128 0xc
 2297 0199 03       		.uleb128 0x3
 2298 019a 0E       		.uleb128 0xe
 2299 019b 3A       		.uleb128 0x3a
 2300 019c 0B       		.uleb128 0xb
 2301 019d 3B       		.uleb128 0x3b
 2302 019e 0B       		.uleb128 0xb
 2303 019f 27       		.uleb128 0x27
 2304 01a0 0C       		.uleb128 0xc
 2305 01a1 11       		.uleb128 0x11
 2306 01a2 01       		.uleb128 0x1
 2307 01a3 12       		.uleb128 0x12
 2308 01a4 01       		.uleb128 0x1
 2309 01a5 40       		.uleb128 0x40
 2310 01a6 0A       		.uleb128 0xa
 2311 01a7 9742     		.uleb128 0x2117
 2312 01a9 0C       		.uleb128 0xc
 2313 01aa 01       		.uleb128 0x1
 2314 01ab 13       		.uleb128 0x13
 2315 01ac 00       		.byte	0
 2316 01ad 00       		.byte	0
 2317 01ae 22       		.uleb128 0x22
 2318 01af 34       		.uleb128 0x34
 2319 01b0 00       		.byte	0
 2320 01b1 03       		.uleb128 0x3
 2321 01b2 0E       		.uleb128 0xe
 2322 01b3 3A       		.uleb128 0x3a
 2323 01b4 0B       		.uleb128 0xb
 2324 01b5 3B       		.uleb128 0x3b
 2325 01b6 0B       		.uleb128 0xb
 2326 01b7 49       		.uleb128 0x49
 2327 01b8 13       		.uleb128 0x13
 2328 01b9 02       		.uleb128 0x2
 2329 01ba 06       		.uleb128 0x6
 2330 01bb 00       		.byte	0
 2331 01bc 00       		.byte	0
 2332 01bd 23       		.uleb128 0x23
 2333 01be 1D       		.uleb128 0x1d
ARM GAS  /tmp/ccT9RbBH.s 			page 57


 2334 01bf 01       		.byte	0x1
 2335 01c0 31       		.uleb128 0x31
 2336 01c1 13       		.uleb128 0x13
 2337 01c2 11       		.uleb128 0x11
 2338 01c3 01       		.uleb128 0x1
 2339 01c4 12       		.uleb128 0x12
 2340 01c5 01       		.uleb128 0x1
 2341 01c6 58       		.uleb128 0x58
 2342 01c7 0B       		.uleb128 0xb
 2343 01c8 59       		.uleb128 0x59
 2344 01c9 0B       		.uleb128 0xb
 2345 01ca 01       		.uleb128 0x1
 2346 01cb 13       		.uleb128 0x13
 2347 01cc 00       		.byte	0
 2348 01cd 00       		.byte	0
 2349 01ce 24       		.uleb128 0x24
 2350 01cf 0B       		.uleb128 0xb
 2351 01d0 01       		.byte	0x1
 2352 01d1 11       		.uleb128 0x11
 2353 01d2 01       		.uleb128 0x1
 2354 01d3 12       		.uleb128 0x12
 2355 01d4 01       		.uleb128 0x1
 2356 01d5 00       		.byte	0
 2357 01d6 00       		.byte	0
 2358 01d7 25       		.uleb128 0x25
 2359 01d8 34       		.uleb128 0x34
 2360 01d9 00       		.byte	0
 2361 01da 31       		.uleb128 0x31
 2362 01db 13       		.uleb128 0x13
 2363 01dc 02       		.uleb128 0x2
 2364 01dd 06       		.uleb128 0x6
 2365 01de 00       		.byte	0
 2366 01df 00       		.byte	0
 2367 01e0 26       		.uleb128 0x26
 2368 01e1 05       		.uleb128 0x5
 2369 01e2 00       		.byte	0
 2370 01e3 31       		.uleb128 0x31
 2371 01e4 13       		.uleb128 0x13
 2372 01e5 02       		.uleb128 0x2
 2373 01e6 06       		.uleb128 0x6
 2374 01e7 00       		.byte	0
 2375 01e8 00       		.byte	0
 2376 01e9 27       		.uleb128 0x27
 2377 01ea 1D       		.uleb128 0x1d
 2378 01eb 01       		.byte	0x1
 2379 01ec 31       		.uleb128 0x31
 2380 01ed 13       		.uleb128 0x13
 2381 01ee 11       		.uleb128 0x11
 2382 01ef 01       		.uleb128 0x1
 2383 01f0 12       		.uleb128 0x12
 2384 01f1 01       		.uleb128 0x1
 2385 01f2 58       		.uleb128 0x58
 2386 01f3 0B       		.uleb128 0xb
 2387 01f4 59       		.uleb128 0x59
 2388 01f5 0B       		.uleb128 0xb
 2389 01f6 00       		.byte	0
 2390 01f7 00       		.byte	0
ARM GAS  /tmp/ccT9RbBH.s 			page 58


 2391 01f8 28       		.uleb128 0x28
 2392 01f9 1D       		.uleb128 0x1d
 2393 01fa 01       		.byte	0x1
 2394 01fb 31       		.uleb128 0x31
 2395 01fc 13       		.uleb128 0x13
 2396 01fd 11       		.uleb128 0x11
 2397 01fe 01       		.uleb128 0x1
 2398 01ff 12       		.uleb128 0x12
 2399 0200 01       		.uleb128 0x1
 2400 0201 58       		.uleb128 0x58
 2401 0202 0B       		.uleb128 0xb
 2402 0203 59       		.uleb128 0x59
 2403 0204 05       		.uleb128 0x5
 2404 0205 00       		.byte	0
 2405 0206 00       		.byte	0
 2406 0207 29       		.uleb128 0x29
 2407 0208 05       		.uleb128 0x5
 2408 0209 00       		.byte	0
 2409 020a 31       		.uleb128 0x31
 2410 020b 13       		.uleb128 0x13
 2411 020c 1C       		.uleb128 0x1c
 2412 020d 0B       		.uleb128 0xb
 2413 020e 00       		.byte	0
 2414 020f 00       		.byte	0
 2415 0210 2A       		.uleb128 0x2a
 2416 0211 2E       		.uleb128 0x2e
 2417 0212 01       		.byte	0x1
 2418 0213 31       		.uleb128 0x31
 2419 0214 13       		.uleb128 0x13
 2420 0215 11       		.uleb128 0x11
 2421 0216 01       		.uleb128 0x1
 2422 0217 12       		.uleb128 0x12
 2423 0218 01       		.uleb128 0x1
 2424 0219 40       		.uleb128 0x40
 2425 021a 06       		.uleb128 0x6
 2426 021b 9742     		.uleb128 0x2117
 2427 021d 0C       		.uleb128 0xc
 2428 021e 01       		.uleb128 0x1
 2429 021f 13       		.uleb128 0x13
 2430 0220 00       		.byte	0
 2431 0221 00       		.byte	0
 2432 0222 2B       		.uleb128 0x2b
 2433 0223 34       		.uleb128 0x34
 2434 0224 00       		.byte	0
 2435 0225 31       		.uleb128 0x31
 2436 0226 13       		.uleb128 0x13
 2437 0227 02       		.uleb128 0x2
 2438 0228 0A       		.uleb128 0xa
 2439 0229 00       		.byte	0
 2440 022a 00       		.byte	0
 2441 022b 2C       		.uleb128 0x2c
 2442 022c 898201   		.uleb128 0x4109
 2443 022f 00       		.byte	0
 2444 0230 11       		.uleb128 0x11
 2445 0231 01       		.uleb128 0x1
 2446 0232 31       		.uleb128 0x31
 2447 0233 13       		.uleb128 0x13
ARM GAS  /tmp/ccT9RbBH.s 			page 59


 2448 0234 00       		.byte	0
 2449 0235 00       		.byte	0
 2450 0236 2D       		.uleb128 0x2d
 2451 0237 34       		.uleb128 0x34
 2452 0238 00       		.byte	0
 2453 0239 03       		.uleb128 0x3
 2454 023a 0E       		.uleb128 0xe
 2455 023b 3A       		.uleb128 0x3a
 2456 023c 0B       		.uleb128 0xb
 2457 023d 3B       		.uleb128 0x3b
 2458 023e 05       		.uleb128 0x5
 2459 023f 49       		.uleb128 0x49
 2460 0240 13       		.uleb128 0x13
 2461 0241 3F       		.uleb128 0x3f
 2462 0242 0C       		.uleb128 0xc
 2463 0243 3C       		.uleb128 0x3c
 2464 0244 0C       		.uleb128 0xc
 2465 0245 00       		.byte	0
 2466 0246 00       		.byte	0
 2467 0247 2E       		.uleb128 0x2e
 2468 0248 34       		.uleb128 0x34
 2469 0249 00       		.byte	0
 2470 024a 03       		.uleb128 0x3
 2471 024b 08       		.uleb128 0x8
 2472 024c 3A       		.uleb128 0x3a
 2473 024d 0B       		.uleb128 0xb
 2474 024e 3B       		.uleb128 0x3b
 2475 024f 05       		.uleb128 0x5
 2476 0250 49       		.uleb128 0x49
 2477 0251 13       		.uleb128 0x13
 2478 0252 3F       		.uleb128 0x3f
 2479 0253 0C       		.uleb128 0xc
 2480 0254 3C       		.uleb128 0x3c
 2481 0255 0C       		.uleb128 0xc
 2482 0256 00       		.byte	0
 2483 0257 00       		.byte	0
 2484 0258 2F       		.uleb128 0x2f
 2485 0259 2E       		.uleb128 0x2e
 2486 025a 00       		.byte	0
 2487 025b 3F       		.uleb128 0x3f
 2488 025c 0C       		.uleb128 0xc
 2489 025d 03       		.uleb128 0x3
 2490 025e 0E       		.uleb128 0xe
 2491 025f 3A       		.uleb128 0x3a
 2492 0260 0B       		.uleb128 0xb
 2493 0261 3B       		.uleb128 0x3b
 2494 0262 05       		.uleb128 0x5
 2495 0263 27       		.uleb128 0x27
 2496 0264 0C       		.uleb128 0xc
 2497 0265 49       		.uleb128 0x49
 2498 0266 13       		.uleb128 0x13
 2499 0267 3C       		.uleb128 0x3c
 2500 0268 0C       		.uleb128 0xc
 2501 0269 00       		.byte	0
 2502 026a 00       		.byte	0
 2503 026b 00       		.byte	0
 2504              		.section	.debug_loc,"",%progbits
ARM GAS  /tmp/ccT9RbBH.s 			page 60


 2505              	.Ldebug_loc0:
 2506              	.LLST0:
 2507 0000 04000000 		.4byte	.LVL0
 2508 0004 06000000 		.4byte	.LVL1
 2509 0008 0300     		.2byte	0x3
 2510 000a 73       		.byte	0x73
 2511 000b 20       		.sleb128 32
 2512 000c 9F       		.byte	0x9f
 2513 000d 06000000 		.4byte	.LVL1
 2514 0011 0C000000 		.4byte	.LVL3
 2515 0015 0100     		.2byte	0x1
 2516 0017 53       		.byte	0x53
 2517 0018 00000000 		.4byte	0
 2518 001c 00000000 		.4byte	0
 2519              	.LLST1:
 2520 0020 04000000 		.4byte	.LVL0
 2521 0024 06000000 		.4byte	.LVL1
 2522 0028 0100     		.2byte	0x1
 2523 002a 53       		.byte	0x53
 2524 002b 06000000 		.4byte	.LVL1
 2525 002f 0C000000 		.4byte	.LVL3
 2526 0033 0300     		.2byte	0x3
 2527 0035 73       		.byte	0x73
 2528 0036 60       		.sleb128 -32
 2529 0037 9F       		.byte	0x9f
 2530 0038 00000000 		.4byte	0
 2531 003c 00000000 		.4byte	0
 2532              	.LLST3:
 2533 0040 00000000 		.4byte	.LFB242
 2534 0044 02000000 		.4byte	.LCFI0
 2535 0048 0200     		.2byte	0x2
 2536 004a 7D       		.byte	0x7d
 2537 004b 00       		.sleb128 0
 2538 004c 02000000 		.4byte	.LCFI0
 2539 0050 50000000 		.4byte	.LFE242
 2540 0054 0200     		.2byte	0x2
 2541 0056 7D       		.byte	0x7d
 2542 0057 08       		.sleb128 8
 2543 0058 00000000 		.4byte	0
 2544 005c 00000000 		.4byte	0
 2545              	.LLST4:
 2546 0060 18000000 		.4byte	.LVL5
 2547 0064 1E000000 		.4byte	.LVL6
 2548 0068 0200     		.2byte	0x2
 2549 006a 30       		.byte	0x30
 2550 006b 9F       		.byte	0x9f
 2551 006c 00000000 		.4byte	0
 2552 0070 00000000 		.4byte	0
 2553              	.LLST5:
 2554 0074 22000000 		.4byte	.LVL7
 2555 0078 2E000000 		.4byte	.LVL9
 2556 007c 0300     		.2byte	0x3
 2557 007e 74       		.byte	0x74
 2558 007f 60       		.sleb128 -32
 2559 0080 9F       		.byte	0x9f
 2560 0081 2E000000 		.4byte	.LVL9
 2561 0085 35000000 		.4byte	.LVL10-1
ARM GAS  /tmp/ccT9RbBH.s 			page 61


 2562 0089 0100     		.2byte	0x1
 2563 008b 53       		.byte	0x53
 2564 008c 35000000 		.4byte	.LVL10-1
 2565 0090 50000000 		.4byte	.LFE242
 2566 0094 0300     		.2byte	0x3
 2567 0096 74       		.byte	0x74
 2568 0097 60       		.sleb128 -32
 2569 0098 9F       		.byte	0x9f
 2570 0099 00000000 		.4byte	0
 2571 009d 00000000 		.4byte	0
 2572              	.LLST6:
 2573 00a1 2A000000 		.4byte	.LVL8
 2574 00a5 2E000000 		.4byte	.LVL9
 2575 00a9 0300     		.2byte	0x3
 2576 00ab 74       		.byte	0x74
 2577 00ac 60       		.sleb128 -32
 2578 00ad 9F       		.byte	0x9f
 2579 00ae 2E000000 		.4byte	.LVL9
 2580 00b2 35000000 		.4byte	.LVL10-1
 2581 00b6 0100     		.2byte	0x1
 2582 00b8 53       		.byte	0x53
 2583 00b9 35000000 		.4byte	.LVL10-1
 2584 00bd 50000000 		.4byte	.LFE242
 2585 00c1 0300     		.2byte	0x3
 2586 00c3 74       		.byte	0x74
 2587 00c4 60       		.sleb128 -32
 2588 00c5 9F       		.byte	0x9f
 2589 00c6 00000000 		.4byte	0
 2590 00ca 00000000 		.4byte	0
 2591              		.section	.debug_aranges,"",%progbits
 2592 0000 24000000 		.4byte	0x24
 2593 0004 0200     		.2byte	0x2
 2594 0006 00000000 		.4byte	.Ldebug_info0
 2595 000a 04       		.byte	0x4
 2596 000b 00       		.byte	0
 2597 000c 0000     		.2byte	0
 2598 000e 0000     		.2byte	0
 2599 0010 00000000 		.4byte	.LFB241
 2600 0014 12000000 		.4byte	.LFE241-.LFB241
 2601 0018 00000000 		.4byte	.LFB242
 2602 001c 50000000 		.4byte	.LFE242-.LFB242
 2603 0020 00000000 		.4byte	0
 2604 0024 00000000 		.4byte	0
 2605              		.section	.debug_ranges,"",%progbits
 2606              	.Ldebug_ranges0:
 2607 0000 00000000 		.4byte	.LFB241
 2608 0004 12000000 		.4byte	.LFE241
 2609 0008 00000000 		.4byte	.LFB242
 2610 000c 50000000 		.4byte	.LFE242
 2611 0010 00000000 		.4byte	0
 2612 0014 00000000 		.4byte	0
 2613              		.section	.debug_line,"",%progbits
 2614              	.Ldebug_line0:
 2615 0000 E4010000 		.section	.debug_str,"MS",%progbits,1
 2615      02007E01 
 2615      00000201 
 2615      FB0E0D00 
ARM GAS  /tmp/ccT9RbBH.s 			page 62


 2615      01010101 
 2616              	.LASF43:
 2617 0000 63685F74 		.ascii	"ch_threads_list\000"
 2617      68726561 
 2617      64735F6C 
 2617      69737400 
 2618              	.LASF44:
 2619 0010 74687265 		.ascii	"threads_queue_t\000"
 2619      6164735F 
 2619      71756575 
 2619      655F7400 
 2620              	.LASF33:
 2621 0020 705F7761 		.ascii	"p_waiting\000"
 2621      6974696E 
 2621      6700
 2622              	.LASF89:
 2623 002a 43504143 		.ascii	"CPACR\000"
 2623      5200
 2624              	.LASF105:
 2625 0030 77746D74 		.ascii	"wtmtxp\000"
 2625      787000
 2626              	.LASF99:
 2627 0037 746D5F63 		.ascii	"tm_calibration_t\000"
 2627      616C6962 
 2627      72617469 
 2627      6F6E5F74 
 2627      00
 2628              	.LASF114:
 2629 0048 63686172 		.ascii	"char\000"
 2629      00
 2630              	.LASF91:
 2631 004d 72656761 		.ascii	"regarm_t\000"
 2631      726D5F74 
 2631      00
 2632              	.LASF25:
 2633 0056 705F7072 		.ascii	"p_prio\000"
 2633      696F00
 2634              	.LASF21:
 2635 005d 73797374 		.ascii	"systime_t\000"
 2635      696D655F 
 2635      7400
 2636              	.LASF112:
 2637 0067 6D5F6F77 		.ascii	"m_owner\000"
 2637      6E657200 
 2638              	.LASF108:
 2639 006f 735F7175 		.ascii	"s_queue\000"
 2639      65756500 
 2640              	.LASF34:
 2641 0077 705F6D73 		.ascii	"p_msgqueue\000"
 2641      67717565 
 2641      756500
 2642              	.LASF0:
 2643 0082 756E7369 		.ascii	"unsigned int\000"
 2643      676E6564 
 2643      20696E74 
 2643      00
 2644              	.LASF41:
ARM GAS  /tmp/ccT9RbBH.s 			page 63


 2645 008f 74687265 		.ascii	"threads_list_t\000"
 2645      6164735F 
 2645      6C697374 
 2645      5F7400
 2646              	.LASF82:
 2647 009e 44465352 		.ascii	"DFSR\000"
 2647      00
 2648              	.LASF102:
 2649 00a3 77746F62 		.ascii	"wtobjp\000"
 2649      6A7000
 2650              	.LASF116:
 2651 00aa 706F7274 		.ascii	"port_lock\000"
 2651      5F6C6F63 
 2651      6B00
 2652              	.LASF71:
 2653 00b4 76746C69 		.ascii	"vtlist\000"
 2653      737400
 2654              	.LASF123:
 2655 00bb 706F7274 		.ascii	"port_lock_from_isr\000"
 2655      5F6C6F63 
 2655      6B5F6672 
 2655      6F6D5F69 
 2655      737200
 2656              	.LASF47:
 2657 00ce 63685F72 		.ascii	"ch_ready_list\000"
 2657      65616479 
 2657      5F6C6973 
 2657      7400
 2658              	.LASF73:
 2659 00dc 69646C65 		.ascii	"idle_thread_wa\000"
 2659      5F746872 
 2659      6561645F 
 2659      776100
 2660              	.LASF106:
 2661 00eb 65776D61 		.ascii	"ewmask\000"
 2661      736B00
 2662              	.LASF45:
 2663 00f2 63685F74 		.ascii	"ch_threads_queue\000"
 2663      68726561 
 2663      64735F71 
 2663      75657565 
 2663      00
 2664              	.LASF54:
 2665 0103 76746675 		.ascii	"vtfunc_t\000"
 2665      6E635F74 
 2665      00
 2666              	.LASF109:
 2667 010c 735F636E 		.ascii	"s_cnt\000"
 2667      7400
 2668              	.LASF66:
 2669 0112 63685F73 		.ascii	"ch_system_debug\000"
 2669      79737465 
 2669      6D5F6465 
 2669      62756700 
 2670              	.LASF8:
 2671 0122 75696E74 		.ascii	"uint32_t\000"
 2671      33325F74 
ARM GAS  /tmp/ccT9RbBH.s 			page 64


 2671      00
 2672              	.LASF86:
 2673 012b 4D4D4652 		.ascii	"MMFR\000"
 2673      00
 2674              	.LASF19:
 2675 0130 6576656E 		.ascii	"eventmask_t\000"
 2675      746D6173 
 2675      6B5F7400 
 2676              	.LASF49:
 2677 013c 725F7072 		.ascii	"r_prio\000"
 2677      696F00
 2678              	.LASF128:
 2679 0143 474E5520 		.ascii	"GNU C 4.7.2\000"
 2679      4320342E 
 2679      372E3200 
 2680              	.LASF61:
 2681 014f 76745F70 		.ascii	"vt_par\000"
 2681      617200
 2682              	.LASF107:
 2683 0156 63685F73 		.ascii	"ch_semaphore\000"
 2683      656D6170 
 2683      686F7265 
 2683      00
 2684              	.LASF17:
 2685 0163 74707269 		.ascii	"tprio_t\000"
 2685      6F5F7400 
 2686              	.LASF56:
 2687 016b 63685F76 		.ascii	"ch_virtual_timer\000"
 2687      69727475 
 2687      616C5F74 
 2687      696D6572 
 2687      00
 2688              	.LASF124:
 2689 017c 72657375 		.ascii	"result\000"
 2689      6C7400
 2690              	.LASF12:
 2691 0183 6C6F6E67 		.ascii	"long long unsigned int\000"
 2691      206C6F6E 
 2691      6720756E 
 2691      7369676E 
 2691      65642069 
 2692              	.LASF134:
 2693 019a 63685363 		.ascii	"chSchIsPreemptionRequired\000"
 2693      68497350 
 2693      7265656D 
 2693      7074696F 
 2693      6E526571 
 2694              	.LASF20:
 2695 01b4 636E745F 		.ascii	"cnt_t\000"
 2695      7400
 2696              	.LASF27:
 2697 01ba 705F6E65 		.ascii	"p_newer\000"
 2697      77657200 
 2698              	.LASF120:
 2699 01c2 76616C75 		.ascii	"value\000"
 2699      6500
 2700              	.LASF63:
ARM GAS  /tmp/ccT9RbBH.s 			page 65


 2701 01c8 63685F76 		.ascii	"ch_virtual_timers_list\000"
 2701      69727475 
 2701      616C5F74 
 2701      696D6572 
 2701      735F6C69 
 2702              	.LASF22:
 2703 01df 74687265 		.ascii	"thread_t\000"
 2703      61645F74 
 2703      00
 2704              	.LASF100:
 2705 01e8 7264796D 		.ascii	"rdymsg\000"
 2705      736700
 2706              	.LASF98:
 2707 01ef 6F666673 		.ascii	"offset\000"
 2707      657400
 2708              	.LASF75:
 2709 01f6 43505549 		.ascii	"CPUID\000"
 2709      4400
 2710              	.LASF127:
 2711 01fc 5F426F6F 		.ascii	"_Bool\000"
 2711      6C00
 2712              	.LASF121:
 2713 0202 746F704F 		.ascii	"topOfProcStack\000"
 2713      6650726F 
 2713      63537461 
 2713      636B00
 2714              	.LASF110:
 2715 0211 63685F6D 		.ascii	"ch_mutex\000"
 2715      75746578 
 2715      00
 2716              	.LASF85:
 2717 021a 41465352 		.ascii	"AFSR\000"
 2717      00
 2718              	.LASF133:
 2719 021f 5356435F 		.ascii	"SVC_Handler\000"
 2719      48616E64 
 2719      6C657200 
 2720              	.LASF29:
 2721 022b 705F6E61 		.ascii	"p_name\000"
 2721      6D6500
 2722              	.LASF81:
 2723 0232 48465352 		.ascii	"HFSR\000"
 2723      00
 2724              	.LASF59:
 2725 0237 76745F64 		.ascii	"vt_delta\000"
 2725      656C7461 
 2725      00
 2726              	.LASF40:
 2727 0240 74687265 		.ascii	"thread_reference_t\000"
 2727      61645F72 
 2727      65666572 
 2727      656E6365 
 2727      5F7400
 2728              	.LASF64:
 2729 0253 76745F6C 		.ascii	"vt_lasttime\000"
 2729      61737474 
 2729      696D6500 
ARM GAS  /tmp/ccT9RbBH.s 			page 66


 2730              	.LASF76:
 2731 025f 49435352 		.ascii	"ICSR\000"
 2731      00
 2732              	.LASF15:
 2733 0264 74737461 		.ascii	"tstate_t\000"
 2733      74655F74 
 2733      00
 2734              	.LASF78:
 2735 026d 41495243 		.ascii	"AIRCR\000"
 2735      5200
 2736              	.LASF28:
 2737 0273 705F6F6C 		.ascii	"p_older\000"
 2737      64657200 
 2738              	.LASF30:
 2739 027b 705F7374 		.ascii	"p_state\000"
 2739      61746500 
 2740              	.LASF5:
 2741 0283 75696E74 		.ascii	"uint8_t\000"
 2741      385F7400 
 2742              	.LASF39:
 2743 028b 705F6D70 		.ascii	"p_mpool\000"
 2743      6F6F6C00 
 2744              	.LASF37:
 2745 0293 705F6D74 		.ascii	"p_mtxlist\000"
 2745      786C6973 
 2745      7400
 2746              	.LASF42:
 2747 029d 63685F74 		.ascii	"ch_thread\000"
 2747      68726561 
 2747      6400
 2748              	.LASF65:
 2749 02a7 73797374 		.ascii	"system_debug_t\000"
 2749      656D5F64 
 2749      65627567 
 2749      5F7400
 2750              	.LASF10:
 2751 02b6 6C6F6E67 		.ascii	"long long int\000"
 2751      206C6F6E 
 2751      6720696E 
 2751      7400
 2752              	.LASF48:
 2753 02c4 725F7175 		.ascii	"r_queue\000"
 2753      65756500 
 2754              	.LASF51:
 2755 02cc 725F6E65 		.ascii	"r_newer\000"
 2755      77657200 
 2756              	.LASF18:
 2757 02d4 6D73675F 		.ascii	"msg_t\000"
 2757      7400
 2758              	.LASF80:
 2759 02da 43465352 		.ascii	"CFSR\000"
 2759      00
 2760              	.LASF93:
 2761 02df 636F6E74 		.ascii	"context\000"
 2761      65787400 
 2762              	.LASF31:
 2763 02e7 705F666C 		.ascii	"p_flags\000"
ARM GAS  /tmp/ccT9RbBH.s 			page 67


 2763      61677300 
 2764              	.LASF55:
 2765 02ef 76697274 		.ascii	"virtual_timer_t\000"
 2765      75616C5F 
 2765      74696D65 
 2765      725F7400 
 2766              	.LASF52:
 2767 02ff 725F6F6C 		.ascii	"r_older\000"
 2767      64657200 
 2768              	.LASF67:
 2769 0307 70616E69 		.ascii	"panic_msg\000"
 2769      635F6D73 
 2769      6700
 2770              	.LASF35:
 2771 0311 705F6D73 		.ascii	"p_msg\000"
 2771      6700
 2772              	.LASF14:
 2773 0317 746D6F64 		.ascii	"tmode_t\000"
 2773      655F7400 
 2774              	.LASF72:
 2775 031f 6D61696E 		.ascii	"mainthread\000"
 2775      74687265 
 2775      616400
 2776              	.LASF13:
 2777 032a 7274636E 		.ascii	"rtcnt_t\000"
 2777      745F7400 
 2778              	.LASF83:
 2779 0332 4D4D4641 		.ascii	"MMFAR\000"
 2779      5200
 2780              	.LASF119:
 2781 0338 5F5F7365 		.ascii	"__set_PSP\000"
 2781      745F5053 
 2781      5000
 2782              	.LASF38:
 2783 0342 705F7265 		.ascii	"p_realprio\000"
 2783      616C7072 
 2783      696F00
 2784              	.LASF79:
 2785 034d 53484353 		.ascii	"SHCSR\000"
 2785      5200
 2786              	.LASF3:
 2787 0353 73686F72 		.ascii	"short int\000"
 2787      7420696E 
 2787      7400
 2788              	.LASF53:
 2789 035d 725F6375 		.ascii	"r_current\000"
 2789      7272656E 
 2789      7400
 2790              	.LASF125:
 2791 0367 63747870 		.ascii	"ctxp\000"
 2791      00
 2792              	.LASF36:
 2793 036c 705F6570 		.ascii	"p_epending\000"
 2793      656E6469 
 2793      6E6700
 2794              	.LASF111:
 2795 0377 6D5F7175 		.ascii	"m_queue\000"
ARM GAS  /tmp/ccT9RbBH.s 			page 68


 2795      65756500 
 2796              	.LASF7:
 2797 037f 6C6F6E67 		.ascii	"long int\000"
 2797      20696E74 
 2797      00
 2798              	.LASF94:
 2799 0388 706F7274 		.ascii	"port_intctx\000"
 2799      5F696E74 
 2799      63747800 
 2800              	.LASF126:
 2801 0394 49544D5F 		.ascii	"ITM_RxBuffer\000"
 2801      52784275 
 2801      66666572 
 2801      00
 2802              	.LASF69:
 2803 03a1 63685F73 		.ascii	"ch_system\000"
 2803      79737465 
 2803      6D00
 2804              	.LASF118:
 2805 03ab 5F5F7365 		.ascii	"__set_BASEPRI\000"
 2805      745F4241 
 2805      53455052 
 2805      4900
 2806              	.LASF23:
 2807 03b9 705F6E65 		.ascii	"p_next\000"
 2807      787400
 2808              	.LASF11:
 2809 03c0 75696E74 		.ascii	"uint64_t\000"
 2809      36345F74 
 2809      00
 2810              	.LASF26:
 2811 03c9 705F6374 		.ascii	"p_ctx\000"
 2811      7800
 2812              	.LASF70:
 2813 03cf 726C6973 		.ascii	"rlist\000"
 2813      7400
 2814              	.LASF95:
 2815 03d5 706F7274 		.ascii	"port_extctx\000"
 2815      5F657874 
 2815      63747800 
 2816              	.LASF90:
 2817 03e1 5343425F 		.ascii	"SCB_Type\000"
 2817      54797065 
 2817      00
 2818              	.LASF84:
 2819 03ea 42464152 		.ascii	"BFAR\000"
 2819      00
 2820              	.LASF77:
 2821 03ef 56544F52 		.ascii	"VTOR\000"
 2821      00
 2822              	.LASF97:
 2823 03f4 78707372 		.ascii	"xpsr\000"
 2823      00
 2824              	.LASF24:
 2825 03f9 705F7072 		.ascii	"p_prev\000"
 2825      657600
 2826              	.LASF74:
ARM GAS  /tmp/ccT9RbBH.s 			page 69


 2827 0400 73697A65 		.ascii	"sizetype\000"
 2827      74797065 
 2827      00
 2828              	.LASF16:
 2829 0409 74726566 		.ascii	"trefs_t\000"
 2829      735F7400 
 2830              	.LASF9:
 2831 0411 6C6F6E67 		.ascii	"long unsigned int\000"
 2831      20756E73 
 2831      69676E65 
 2831      6420696E 
 2831      7400
 2832              	.LASF46:
 2833 0423 72656164 		.ascii	"ready_list_t\000"
 2833      795F6C69 
 2833      73745F74 
 2833      00
 2834              	.LASF6:
 2835 0430 696E7433 		.ascii	"int32_t\000"
 2835      325F7400 
 2836              	.LASF115:
 2837 0438 6D757465 		.ascii	"mutex_t\000"
 2837      785F7400 
 2838              	.LASF122:
 2839 0440 706F7274 		.ascii	"port_unlock_from_isr\000"
 2839      5F756E6C 
 2839      6F636B5F 
 2839      66726F6D 
 2839      5F697372 
 2840              	.LASF2:
 2841 0455 756E7369 		.ascii	"unsigned char\000"
 2841      676E6564 
 2841      20636861 
 2841      7200
 2842              	.LASF62:
 2843 0463 76697274 		.ascii	"virtual_timers_list_t\000"
 2843      75616C5F 
 2843      74696D65 
 2843      72735F6C 
 2843      6973745F 
 2844              	.LASF32:
 2845 0479 705F7265 		.ascii	"p_refs\000"
 2845      667300
 2846              	.LASF132:
 2847 0480 5F706F72 		.ascii	"_port_irq_epilogue\000"
 2847      745F6972 
 2847      715F6570 
 2847      696C6F67 
 2847      756500
 2848              	.LASF96:
 2849 0493 6C725F74 		.ascii	"lr_thd\000"
 2849      686400
 2850              	.LASF57:
 2851 049a 76745F6E 		.ascii	"vt_next\000"
 2851      65787400 
 2852              	.LASF130:
 2853 04a2 2F686F6D 		.ascii	"/home/sylvain/Documents/TelecomRobotics/ChibiOS_16."
ARM GAS  /tmp/ccT9RbBH.s 			page 70


 2853      652F7379 
 2853      6C766169 
 2853      6E2F446F 
 2853      63756D65 
 2854 04d5 312E372F 		.ascii	"1.7/demos/STM32/RT-STM32F302R8-NUCLEO\000"
 2854      64656D6F 
 2854      732F5354 
 2854      4D33322F 
 2854      52542D53 
 2855              	.LASF68:
 2856 04fb 63685F73 		.ascii	"ch_system_t\000"
 2856      79737465 
 2856      6D5F7400 
 2857              	.LASF104:
 2858 0507 77747365 		.ascii	"wtsemp\000"
 2858      6D7000
 2859              	.LASF103:
 2860 050e 77747472 		.ascii	"wttrp\000"
 2860      7000
 2861              	.LASF113:
 2862 0514 6D5F6E65 		.ascii	"m_next\000"
 2862      787400
 2863              	.LASF1:
 2864 051b 7369676E 		.ascii	"signed char\000"
 2864      65642063 
 2864      68617200 
 2865              	.LASF4:
 2866 0527 73686F72 		.ascii	"short unsigned int\000"
 2866      7420756E 
 2866      7369676E 
 2866      65642069 
 2866      6E7400
 2867              	.LASF50:
 2868 053a 725F6374 		.ascii	"r_ctx\000"
 2868      7800
 2869              	.LASF92:
 2870 0540 73746B61 		.ascii	"stkalign_t\000"
 2870      6C69676E 
 2870      5F7400
 2871              	.LASF60:
 2872 054b 76745F66 		.ascii	"vt_func\000"
 2872      756E6300 
 2873              	.LASF117:
 2874 0553 706F7274 		.ascii	"port_unlock\000"
 2874      5F756E6C 
 2874      6F636B00 
 2875              	.LASF58:
 2876 055f 76745F70 		.ascii	"vt_prev\000"
 2876      72657600 
 2877              	.LASF88:
 2878 0567 52455345 		.ascii	"RESERVED0\000"
 2878      52564544 
 2878      3000
 2879              	.LASF87:
 2880 0571 49534152 		.ascii	"ISAR\000"
 2880      00
 2881              	.LASF101:
ARM GAS  /tmp/ccT9RbBH.s 			page 71


 2882 0576 65786974 		.ascii	"exitcode\000"
 2882      636F6465 
 2882      00
 2883              	.LASF129:
 2884 057f 2E2E2F2E 		.ascii	"../../../os/rt/ports/ARMCMx/chcore_v7m.c\000"
 2884      2E2F2E2E 
 2884      2F6F732F 
 2884      72742F70 
 2884      6F727473 
 2885              	.LASF131:
 2886 05a8 5F5F6765 		.ascii	"__get_PSP\000"
 2886      745F5053 
 2886      5000
 2887              		.comm	__gnu_lto_v1,1,1
 2888              		.ident	"GCC: (GNU) 4.7.2"
ARM GAS  /tmp/ccT9RbBH.s 			page 72


DEFINED SYMBOLS
                            *ABS*:00000000 chcore_v7m.c
     /tmp/ccT9RbBH.s:279    .text.SVC_Handler:00000000 $t
     /tmp/ccT9RbBH.s:285    .text.SVC_Handler:00000000 SVC_Handler
     /tmp/ccT9RbBH.s:339    .text._port_irq_epilogue:00000000 $t
     /tmp/ccT9RbBH.s:345    .text._port_irq_epilogue:00000000 _port_irq_epilogue
     /tmp/ccT9RbBH.s:440    .text._port_irq_epilogue:00000048 $d
                            *COM*:00000001 __gnu_lto_v1
                     .debug_frame:00000010 $d

UNDEFINED SYMBOLS
chSchIsPreemptionRequired
_port_switch_from_isr
_port_exit_from_isr
