ARM GAS  /tmp/ccrKwi5M.s 			page 1


   1              		.syntax unified
   2              		.cpu cortex-m4
   3              		.fpu softvfp
   4              		.eabi_attribute 20, 1
   5              		.eabi_attribute 21, 1
   6              		.eabi_attribute 23, 3
   7              		.eabi_attribute 24, 1
   8              		.eabi_attribute 25, 1
   9              		.eabi_attribute 26, 1
  10              		.eabi_attribute 30, 2
  11              		.eabi_attribute 34, 1
  12              		.eabi_attribute 18, 4
  13              		.thumb
  14              		.file	"chdynamic.c"
  15              		.text
  16              	.Ltext0:
  17              		.section	.gnu.lto_.jmpfuncs.5fa7a5d011b96fc3,"",%progbits
  18 0000 789C6D8A 		.ascii	"x\234m\2121\016\2000\020\303\234\264\210\221\231\211"
  18      310E8030 
  18      10C39CB4 
  18      88919989 
  19 0010 BF55E207 		.ascii	"\277U\342\007\367\177qmY@\315\340\014\266\021;\353\265"
  19      F77F716D 
  19      5940CDE0 
  19      0CB6113B 
  19      EBB5
  20 0022 F7376490 		.ascii	"\3677d\220,e].\343\223[S\3254\221pG\351\250\341$1\315"
  20      2C655D2E 
  20      E3935B53 
  20      D5349170 
  20      47E9A8E1 
  21 0039 F1A9FFB9 		.ascii	"\361\251\377\271F\311\003$\316\006\205"
  21      46C90324 
  21      CE0685
  22              		.text
  23              		.section	.gnu.lto_.inline.5fa7a5d011b96fc3,"",%progbits
  24 0000 789C6362 		.ascii	"x\234cb`d\340e\300\016\226CiV\006\006^QF\006&\256\011"
  24      6064E065 
  24      C00E9643 
  24      69560606 
  24      5E514606 
  25 0017 7E0C5C07 		.ascii	"~\014\\\007\354\230\030\230y\030\030\230&\370M\360c"
  25      EC981898 
  25      79181898 
  25      26F84DF0 
  25      63
  26 0028 64E06007 		.ascii	"d\340`\007Jp\034\260c\340\370\240\307\304\300\304 \317"
  26      4A701CB0 
  26      63E0F8A0 
  26      C7C4C0C4 
  26      20CF
  27 003a 03E46BDE 		.ascii	"\003\344k\336\252b\340\375e\002\344s300N\360\203R\314"
  27      AA62E0FD 
  27      6502E473 
  27      3330304E 
  27      F08352CC 
  28 004e 0C62FA20 		.ascii	"\014b\372 c\376x3\260-\220\207\033\303\300.\000\264"
ARM GAS  /tmp/ccrKwi5M.s 			page 2


  28      63FE7833 
  28      B02D9087 
  28      1BC3C02E 
  28      00B4
  29 0060 03641C04 		.ascii	"\003d\034\004\262\360BMga\020\007\251\347]\225\304\300"
  29      B2F0424D 
  29      67611007 
  29      A9E75D95 
  29      C4C0
  30 0072 7E4B0DA7 		.ascii	"~K\015\247z\2200\320t\006\0001\256\035\365"
  30      7A9030D0 
  30      74060031 
  30      AE1DF5
  31              		.text
  32              		.section	.gnu.lto_.pureconst.5fa7a5d011b96fc3,"",%progbits
  33 0000 789C6362 		.ascii	"x\234cb`d`f``\340f\200\000V\006+F+&+f+\026+\000\007"
  33      60646066 
  33      6060E066 
  33      80005606 
  33      2B462B26 
  34 001b 890143   		.ascii	"\211\001C"
  35              		.text
  36              		.section	.gnu.lto_chThdRelease.part.0.5fa7a5d011b96fc3,"",%progbits
  37 0000 789CAD94 		.ascii	"x\234\255\224\315k\023Q\020\300g\336\356\266\321\210"
  37      CD6B1351 
  37      10C067DE 
  37      EEB6D188 
  38 0010 F4247A49 		.ascii	"\364$zIC\250\210m\311z\323\243R\220\366\220C\022\274"
  38      43A8886D 
  38      C97AD3A3 
  38      5290F690 
  38      4312BC
  39 0023 0835C6ED 		.ascii	"\0105\306\355\323\006\232\0176\037\264^\262\256\202"
  39      D3069A0F 
  39      361FB45E 
  39      B2AE82
  40 0032 8808C153 		.ascii	"\210\010\301Sj\322B\033\025\021\361\356IP\021\211\245"
  40      6AD2421B 
  40      1511F1EE 
  40      49501189 
  40      A5
  41 0043 FF803D14 		.ascii	"\377\200=\024\254\036\274\350A\304B!\316\333\335\304"
  41      AC1EBCE8 
  41      41C44221 
  41      CEDBDDC4 
  42 0053 66139B10 		.ascii	"f\023\233\020|\273\233y\373\336\374f\346\315L\226\001"
  42      7CBB9B79 
  42      FBDEFC66 
  42      E6CD4C96 
  42      01
  43 0064 D2D53926 		.ascii	"\322\3259&\350\271\247\000\254\223D\005P.m\322DFfI\206"
  43      E8B9A700 
  43      AC934405 
  43      502E6DD2 
  43      44466649 
  44 0079 9290B7FC 		.ascii	"\222\220\267\374\022\242\230\220\211\242\314$,^\262"
  44      12A29890 
ARM GAS  /tmp/ccrKwi5M.s 			page 3


  44      89A2CC24 
  44      2C5EB2
  45 0088 6C7903B0 		.ascii	"ly\003\260f\030\017\177\2741\217\233\333\215\306(\027"
  45      66180F7F 
  45      BC318F9B 
  45      DB8DC628 
  45      17
  46 0099 AB3184FA 		.ascii	"\2531\204\372\247\033'\200#\202\007\204dn\317\016f\032"
  46      A71B2780 
  46      23820784 
  46      646ECF0E 
  46      661A
  47 00ab 4D4C6210 		.ascii	"MLb\020@A\356TR}\220\245\267\346\264C\312\226\303\275"
  47      4041EE54 
  47      527D90A5 
  47      B7E6B443 
  47      CA96C3BD 
  48 00bf D5A76873 		.ascii	"\325\247hs~\207\223{p\212\305m\255\370\006\301\2407"
  48      7E87937B 
  48      708AC56D 
  48      ADF806C1 
  48      A037
  49 00d1 54DA070D 		.ascii	"T\332\007\015\3311V\277\366\021c'\327\207\263\316\012"
  49      D93156BF 
  49      F6116327 
  49      D787B3CE 
  49      0A
  50 00e2 FC96FA29 		.ascii	"\374\226\372)\200\233\372Y}\316\006\341\336U\013\203"
  50      809BFA59 
  50      7DCE06E1 
  50      DE550B83 
  51 00f2 607B95A3 		.ascii	"`{\225\243\007b\270\361l\35053\266\033\3051\250\211"
  51      0762B8F1 
  51      6CE83533 
  51      B61BC531 
  51      A889
  52 0104 3ADC36A6 		.ascii	":\3346\246\251\004\014NY\275\262U\371\325-\241\242H"
  52      A9040C4E 
  52      59BDB255 
  52      F9D52DA1 
  52      A248
  53 0116 5EC4597C 		.ascii	"^\304Y|\201c\300`\026\237`\000$\222\217I\312\216TH\326"
  53      8163C060 
  53      169F6000 
  53      24928F49 
  53      CA8E5448 
  54 012b 48D250E0 		.ascii	"H\322P\340\216a\214\220\376\032\275\307\234\020\302"
  54      8E618C90 
  54      FE1ABDC7 
  54      9C10C2
  55 013a 428A8E0F 		.ascii	"B\212\216\017\213\016\243\211\024!\373\326\344\003\010"
  55      8B0EA389 
  55      1421FBD6 
  55      E40308
  56 0149 E32FC9CB 		.ascii	"\343/\311\313U\241T\007\363\362\316\252\317^\321\220"
  56      55A15407 
  56      F3F2CEAA 
ARM GAS  /tmp/ccrKwi5M.s 			page 4


  56      CF5ED190 
  57 0159 4DC03845 		.ascii	"M\3008E =\202e\3448\3144\264bT\304q\350\271\362\367"
  57      203D8265 
  57      E438CC34 
  57      B46254C4 
  57      71E8B9F2 
  58 016e 88028426 		.ascii	"\210\002\204&&\365\302p\0376\343`\035\014\353\312\220"
  58      26F5C270 
  58      1F36E360 
  58      1D0CEBCA 
  58      90
  59 017f 759737F9 		.ascii	"u\2277\371\277x\223\273\036L\023yz\017\014\355\274B"
  59      BF7893BB 
  59      1E4C1379 
  59      7A0F0CED 
  59      BC42
  60 0191 BBB04DB9 		.ascii	"\273\260M\271\206\363/\243\352:\355\341a0.J\214\353"
  60      86F32FA3 
  60      EA3AEDE1 
  60      61302E4A 
  60      8CEB
  61 01a3 F777BFB0 		.ascii	"\367w\277\260\003\373_,z\254\331G0\361\333\203\345\317"
  61      03FB5F2C 
  61      7AACD947 
  61      30F1DB83 
  61      E5CF
  62 01b5 E7DC1E5F 		.ascii	"\347\334\036_\265y\024\237\301\273\224\021\212\322\372"
  62      B579149F 
  62      C1BB9411 
  62      8AD2FA
  63 01c4 01F04119 		.ascii	"\001\360A\031W\214\362y\216\207\332\014\266\266+\316"
  63      578CF279 
  63      8E87DA0C 
  63      B6B62BCE 
  64 01d4 F6E156DD 		.ascii	"\366\341V\335\352\337k\307\232\311T\254\304\310\377"
  64      EADF6BC7 
  64      9AC954AC 
  64      C4C8FF
  65 01e3 4E266BBA 		.ascii	"N&k\272\336\000\245\25443p\023v\015\017G/\306\350+\353"
  65      DE00A5AC 
  65      34337013 
  65      760D0F47 
  65      2FC6E82B 
  66 01f8 644E2196 		.ascii	"dN!\226\343\021[;\"\312&\032n\263\325p\315\021\026\005"
  66      E3115B3B 
  66      22CA261A 
  66      6EB3D570 
  66      CD111605 
  67 020c A22D6179 		.ascii	"\242-ay4\030T\355;\235U\365\234\232\3255U\233\237[J"
  67      341854ED 
  67      3B9D55F5 
  67      9C9AD535 
  67      559B9F5B 
  68 0221 C593092D 		.ascii	"\305\223\011-\250\201\254\363\353Y\226\313(\205\370"
  68      A881ACF3 
  68      EB5996CB 
  68      2885F8
ARM GAS  /tmp/ccrKwi5M.s 			page 5


  69 0230 429E9F76 		.ascii	"B\236\237vig\322z.\253^\210\204\246B\213\204ii\235\307"
  69      6967D27A 
  69      2EAB5E88 
  69      84A6428B 
  69      8469699D 
  70 0245 0A6793C1 		.ascii	"\012g\223\301y\230\334\257\311\027s\352T(:\023U\023"
  70      7998DCAF 
  70      C91773EA 
  70      54283A13 
  70      5513
  71 0257 296D213F 		.ascii	")m!?\307UKSK^\314\2474R\036\011E#\376k\361,\317\350"
  71      C7554B53 
  71      4B5ECCA7 
  71      34521E09 
  71      4523FE6B 
  72 026f 8949FFC9 		.ascii	"\211I\377\3113\300t\030N\362dZ_\202?\220w3\206"
  72      33C07418 
  72      4EF2645A 
  72      5F823F90 
  72      773386
  73              		.text
  74              		.section	.gnu.lto_chThdAddRef.5fa7a5d011b96fc3,"",%progbits
  75 0000 789C8D52 		.ascii	"x\234\215RMh\023A\024\376\336l\333\024\274\364h/m\010"
  75      4D681341 
  75      14FEDE6C 
  75      DB14BCF4 
  75      682F6D08 
  76 0014 ED412D59 		.ascii	"\355A-YozT*b\0179\230 \210\260\2268\035h\240\233\204"
  76      6F7A542A 
  76      620F3998 
  76      2088B096 
  76      381D68A0 
  77 002a CD0FED29 		.ascii	"\315\017\355)\353\326\223 \026\005I\224\202\365\377"
  77      EBD69320 
  77      16054994 
  77      82F5FF
  78 0039 2078917A 		.ascii	" x\221zTD<\254\320\263\307B\342U\004O\236\342\233\311"
  78      54443CAC 
  78      D0B3C742 
  78      E255044F 
  78      9EE29BC9 
  79 004d 9AA469B7 		.ascii	"\232\244i\2678\373\363\2067\337\367\315{\337\214\000"
  79      38FBF386 
  79      37DFF7CD 
  79      7BDF8C00 
  80 005d F173784C 		.ascii	"\361sxL\363w\311\002\2669\222\005\022[{\300\355\244"
  80      F377C902 
  80      B6399205 
  80      125B7BC0 
  80      EDA4
  81 006f 20D213A6 		.ascii	" \322\023\2464\0045\256\031\246Ha\307\367\037\374\372"
  81      340435AE 
  81      19A64861 
  81      C7F71FFC 
  81      FA
  82 0080 1C9C0CF6 		.ascii	"\034\234\014\366\273\335Y\245\263\313\204\360~\233\246"
  82      BBDD59A5 
ARM GAS  /tmp/ccrKwi5M.s 			page 6


  82      B3CB84F0 
  82      7E9BA6
  83 008f A1883009 		.ascii	"\241\2100\011\035\305\350F1\274/\255\372\261\264NsW"
  83      1DC5E846 
  83      31BC2FAD 
  83      FAB1B44E 
  83      7357
  84 00a1 745A131F 		.ascii	"tZ\023\037\305\247\375nc\016\317Yck\323\277\242\310"
  84      C5A7FD6E 
  84      630ECF59 
  84      636BD3BF 
  84      A2C8
  85 00b3 12489156 		.ascii	"\022H\221V\3504_\211\236D2\222\030\323DF\340\004\221"
  85      E8345F89 
  85      9E443292 
  85      18D34446 
  85      E00491
  86 00c6 43CF680E 		.ascii	"C\317h\016\002\016=\245\024,\216;\034y\214\343\216\357"
  86      020E3DA5 
  86      142C8E3B 
  86      1C798CE3 
  86      8EEF
  87 00d8 4F51C168 		.ascii	"OQ\301h\230qUG\335p\2265\364\304\372\012A=\\\004g\372"
  87      98715547 
  87      DD709635 
  87      F4C4FA0A 
  87      413D5C04 
  88 00ee 0BCE8C76 		.ascii	"\013\316\214v\245+\212\272\032\023\2307\222?\357\376"
  88      A52B8ABA 
  88      1A139837 
  88      923FEFFE 
  89 00fe FE71545D 		.ascii	"\376qT]\303\2563\234\027\201o\010h\367^\253}\376\300"
  89      C3AE339C 
  89      17816F08 
  89      68F75EAB 
  89      7DFEC0
  90 0111 665CFB6B 		.ascii	"f\\\373k\256\325\241\227\007\266\324G\030ps\\\243\371"
  90      AED5A197 
  90      07B6D447 
  90      1870735C 
  90      A3F9
  91 0123 01337848 		.ascii	"\0013xH\333~\363\2022\270\201l\177\371Q\264<a\004B\004"
  91      DB7EF382 
  91      32B8816C 
  91      7FF951B4 
  91      3C610442 
  92 0138 37C2665B 		.ascii	"7\302f[\364z\221$\316\340\264\242\204\365\030-R4)$\231"
  92      F47A9124 
  92      CEE0B4A2 
  92      84F5182D 
  92      52342924 
  93 014d 93B4A2FD 		.ascii	"\223\264\242\375n\016N$\304f\343\273\365\217g1U\003"
  93      6E0E4E24 
  93      C466E3BB 
  93      F58F6731 
  93      5503
  94 015f 13E6CC58 		.ascii	"\023\346\314Xu)\262'^\357\372\260\236\324\251\303\026"
ARM GAS  /tmp/ccrKwi5M.s 			page 7


  94      7529B227 
  94      5EEFFAB0 
  94      9ED4A9C3 
  94      16
  95 0170 C7381D63 		.ascii	"\3078\035c\267Co\330Y\343\367\237\377\362\033\307\371"
  95      B7436FD8 
  95      59E3F79F 
  95      FFF21BC7 
  95      F9
  96 0181 FDC1F8FD 		.ascii	"\375\301\370\375>\316o\207\336\362d\240\023\031\354"
  96      3ECE6F87 
  96      DEF264A0 
  96      1319EC
  97 0190 D03B9A31 		.ascii	"\320;\2321\211=P\370\244oP\377^\221\271N\032;\233N\333"
  97      893D50F8 
  97      A46F50FF 
  97      5E91B94E 
  97      1A3B9B4E 
  98 01a5 BDB754B1 		.ascii	"\275\267T\261\275\252]\361\244-WW6\212y\267 \323\022"
  98      BDAA5DF1 
  98      A42D5757 
  98      368A79B7 
  98      20D312
  99 01b8 A25A1EAF 		.ascii	"\242Z\036\257\347\327j\352\324\010\260\\\362\252\025"
  99      E7D76AEA 
  99      D408B05C 
  99      F2AA15
 100 01c7 FB6236B3 		.ascii	"\373b6\263\230Yg\206,yj\271~\316M\257ba\030\251\326"
 100      98596786 
 100      2C796AB9 
 100      7ECE4DAF 
 100      626118A9 
 101 01dc ABF66226 		.ascii	"\253\366b&\267\224\263\013E\271V[Q\266AJ\367r\255(\031"
 101      B794B30B 
 101      45B9565B 
 101      51B6414A 
 101      F772AD28 
 102 01f1 3C95C965 		.ascii	"<\225\311e\223\267\362\025U\366\012\013\311\371\263"
 102      93B7F215 
 102      55F60A0B 
 102      C9F9B3
 103 0200 101E12AE 		.ascii	"\020\036\022\256rK\336\006\376\002\201\207\3076"
 103      724BDE06 
 103      FE028187 
 103      C736
 104              		.text
 105              		.section	.gnu.lto_chThdRelease.5fa7a5d011b96fc3,"",%progbits
 106 0000 789CCD55 		.ascii	"x\234\315UMHTQ\024>\347\3367\357\315\214\375\270((!"
 106      4D485451 
 106      143EE7DE 
 106      37EFCD8C 
 106      FDB82828 
 107 0015 1DFCA15F 		.ascii	"\035\374\241_\034w\271,\202\320\205\013\225@\202I\355"
 107      1C77B92C 
 107      82D0850B 
 107      95408249 
 107      ED
ARM GAS  /tmp/ccrKwi5M.s 			page 8


 108 0026 F9A28146 		.ascii	"\371\242\201FeF%[\344s,\022*\220V\232#\370\323\217I"
 108      6546255B 
 108      E4732C12 
 108      2A90569A 
 108      23F8D38F 
 109 003b D422085A 		.ascii	"\324\"\010ZDQ&6\015\265(\242@B\260Z\324F(\242 \260s"
 109      44512636 
 109      0DB528A2 
 109      4042B05A 
 109      D44628A2 
 110 0052 EF7B6F9C 		.ascii	"\357{o\234\037\307DZtu\336\271s\357\371\276\357\234"
 110      1FC7445A 
 110      7475DEB9 
 110      73EFF9BE 
 110      EF9C
 111 0064 F3CE5106 		.ascii	"\363\316Q\006H?\331+H\23717\3008Y\364\000\262\201\227"
 111      483FD92B 
 111      489F3137 
 111      C03859F4 
 111      00B28197 
 112 0078 00BD3EC6 		.ascii	"\000\275>\306x\377N0wi\342Y\301\231\262\270U|\033\255"
 112      78FF4E30 
 112      7769E259 
 112      C199B2B8 
 112      557C1BAD 
 113 008c A46F0AD7 		.ascii	"\244o\012\327\316\027\200\351s\311\247j\355\321m\001"
 113      CE1780E9 
 113      73C9A76A 
 113      EDD16D01 
 114 009c 556B839A 		.ascii	"Uk\203\232s\340F\024\033\022\357a\\q\251\232\033{\216"
 114      73E04614 
 114      1B12EF61 
 114      5C71A99A 
 114      1B7B8E
 115 00af C848B462 		.ascii	"\310H\264b\0303\315+\213O\242\333\242\363KKE\2068mD"
 115      1833CD2B 
 115      8B4FA2DB 
 115      A2F34B4B 
 115      4586386D 
 116 00c4 883F5AC0 		.ascii	"\210?Z\300\355` \202\033\204e\231\201\347\300M\307\272"
 116      ED602082 
 116      1B846599 
 116      81E7C04D 
 116      C7BA
 117 00d6 D603FB1E 		.ascii	"\326\003\373\036\233b\353\301\375\216\235]\003l\340"
 117      9B62EBC1 
 117      FD8E9D5D 
 117      036CE0
 118 00e5 69B4CA86 		.ascii	"i\264\312\206q\011\233\033)\264`>\033\246\254\011\006"
 118      71099B1B 
 118      29B4603E 
 118      1BA6AC09 
 118      06
 119 00f6 6B006585 		.ascii	"k\000e\2058\367P]5\304\271\341\033,1\251>b\217\347\227"
 119      38F7505D 
 119      35C4B9E1 
 119      1B2C31A9 
ARM GAS  /tmp/ccrKwi5M.s 			page 9


 119      3E628FE7 
 120 010b 7A4A6142 		.ascii	"zJaB\010\367\231U\244\311\240\030%\303\360\017\\AYD"
 120      08F79955 
 120      A4C9A018 
 120      25C3F00F 
 120      5C415944 
 121 011f 558A18C0 		.ascii	"U\212\030\300\233X\012\014\0028\212\305\300\311\216"
 121      9B580A0C 
 121      02388AC5 
 121      C0C98E
 122 012e 9175911D 		.ascii	"\221u\221\035'\253\222\235 \353!{\215\254\227\354u\262"
 122      27AB929D 
 122      20EB217B 
 122      8DAC97EC 
 122      75B2
 123 0140 79B62D21 		.ascii	"y\266-!{\203,-\027\2343\315|f\247\0215\2354\024\006"
 123      7B832C2D 
 123      179C33CD 
 123      7C66A711 
 123      359D3414 
 124 0155 65328E8F 		.ascii	"e2\216\217\303\255\253f\022\224^r\325\012+Z\256\216"
 124      C3ADAB66 
 124      12945E72 
 124      D50A2B5A 
 124      AE8E
 125 0167 DCC486CF 		.ascii	"\334\304\206\317\000CK\301\026\"\341[t\222Ut\312\335"
 125      00434BC1 
 125      1622E15B 
 125      74925574 
 125      CADD
 126 0179 167631D8 		.ascii	"\026v1\330#)\307/~\373\304V\255\2758t\321%\300\013\210"
 126      2329C72F 
 126      7EFBC456 
 126      ADBD3874 
 126      D125C00B 
 127 018e E297CB43 		.ascii	"\342\227\313C\013\225ibT\245;\224e\000o\247I\212q\274"
 127      0B956962 
 127      54A53B94 
 127      65006FA7 
 127      498A71BC 
 128 01a2 4065A418 		.ascii	"@e\244\030\345\003\240\020\006q\304\034<`\240\232F\233"
 128      E503A010 
 128      0671C41C 
 128      3C60A09A 
 128      469B
 129 01b4 BC1EB6AF 		.ascii	"\274\036\266\2575I\020\207\350\321\370\354\002\263r"
 129      35491087 
 129      E8D1F8EC 
 129      02B372
 130 01c3 D191ED85 		.ascii	"\321\221\355\205=T1~\025\206\320@7\323Q\2769n\353\035"
 130      3D54317E 
 130      1586D040 
 130      37D351BE 
 130      396EEB1D 
 131 01d7 5BAE581C 		.ascii	"[\256X\034\372\372\371;\356\0009a\205\247\"\213J\264"
 131      FAFAF93B 
 131      EE003961 
ARM GAS  /tmp/ccrKwi5M.s 			page 10


 131      85A7228B 
 131      4AB4
 132 01e9 D5767D72 		.ascii	"\325v}r\0236\244\022\352\342\210j\234\210\035\267p\001"
 132      1336A412 
 132      EAE2886A 
 132      9C881DB7 
 132      7001
 133 01fb 9CA284E5 		.ascii	"\234\242\204\345\3613\230\376\214\337c\005I-\301\220"
 133      F13398FE 
 133      8CDF6305 
 133      492DC190 
 134 020b 5EBF3AE1 		.ascii	"^\277:\341\327\277\223\213|&=\216\243K\212{rg\223d\221"
 134      D7BF938B 
 134      7C263D8E 
 134      A34B8A7B 
 134      72679364 
 135 0220 12B35A12 		.ascii	"\022\263Z\022h)lNS\240W\366\323+\025hj\035OUJxsK\260"
 135      68296C4E 
 135      53A057F6 
 135      D32B1568 
 135      6A1D4F55 
 136 0239 94823DE0 		.ascii	"\224\202=\340\203\232H\265\204p\226\202\360{\016J\203"
 136      839A48B5 
 136      84709682 
 136      F07B0E4A 
 136      83
 137 024a 43577209 		.ascii	"CWr\011.\366*\006\346\311\376h\022\001\276)\242]\362"
 137      2EF62A06 
 137      E6C9FE68 
 137      1201BE29 
 137      A25DF2
 138 025d 58C036C8 		.ascii	"X\3006\310\0327\011\352\304\216\354K&/\211\371MaJ\364"
 138      1A3709EA 
 138      C48EEC4B 
 138      262F89F9 
 138      4D614AF4 
 139 0271 D436AF39 		.ascii	"\3246\2579\237\0051pBK\302E2\364\267\304Q\367\310dx"
 139      9F053170 
 139      424BC245 
 139      32F4B7C4 
 139      51F7C864 
 140 0286 EE64F872 		.ascii	"\356d\370r2\321\243\340\300\274\177\203))\260\264\276"
 140      32D1A3E0 
 140      C0BC7F83 
 140      2929B0B4 
 140      BE
 141 0297 48C57856 		.ascii	"H\305xV\304\020{\206Z\336?Q\313[11\212Bva\306\244\347"
 141      C4107B86 
 141      5ADE3F51 
 141      CB5B3131 
 141      8A427661 
 142 02ae 1878B9B2 		.ascii	"\030x\271\262\247>\200w\251\266r\354\177\255i\354\305"
 142      A73E8077 
 142      A9B672EC 
 142      7FAD69EC 
 142      C5
 143 02bf CA39F6AF 		.ascii	"\3129\366\257\344\330'r\215}\000\357\321f\231\307\236"
ARM GAS  /tmp/ccrKwi5M.s 			page 11


 143      E4D82772 
 143      8D7D00EF 
 143      D16699C7 
 143      9E
 144 02d0 F300DE47 		.ascii	"\363\000\336G\353\355'@\211\177X\330\342\304~\006~\231"
 144      EBED2740 
 144      897F58D8 
 144      E2C47E06 
 144      7E99
 145 02e2 6E033762 		.ascii	"n\0037b#\332\335O\3653p\223\323&jV\233p\311\201\031"
 145      23DADD4F 
 145      F5337093 
 145      D3266A56 
 145      9B70C981 
 146 02f7 049B8980 		.ascii	"\004\233\211\200\245\020\344;\004\324\340_g@2\330\015"
 146      A510E43B 
 146      04D4E05F 
 146      674032D8 
 146      0D
 147 0308 FC7FD5F3 		.ascii	"\374\177\325\363\275\254\347\333u\327\323\312\322m\375"
 147      BDACE7DB 
 147      75D7D3CA 
 147      D26DFD
 148 0317 537899AC 		.ascii	"Sx\231\254\223\263jE\306t%PE\345\345~\353\267-\342\017"
 148      93B36A45 
 148      C6742550 
 148      45E5E57E 
 148      EBB72DE2 
 149 032c 77F82361 		.ascii	"w\370#a\335\257\237l\351nm\016\005\365r\035XG\273\022"
 149      DDAF9F6C 
 149      E96E6D0E 
 149      05F5721D 
 149      5847BB12 
 150 0340 364E445C 		.ascii	"6ND\\]\315\247:\215\335\031\336\355m\341\216\210\377"
 150      5DCDA73A 
 150      8DDD19DE 
 150      ED6DE18E 
 150      88FF
 151 0352 605DCDA1 		.ascii	"`]\315\241\232\323\004\323\333\302Fc\327\376P\371I\330"
 151      9AD304D3 
 151      DBC24663 
 151      D7FE50F9 
 151      49D8
 152 0364 97EA699C 		.ascii	"\227\352i\234\356\360\037\252\251\257\256\367\007[\365"
 152      EEF01FAA 
 152      A9AFAEF7 
 152      075BF5
 153 0373 539D2D86 		.ascii	"S\235-\206_z\352\241\303\235\255:9\347\327\324\327\371"
 153      5F7AEAA1 
 153      C39DAD3A 
 153      39E7D7D4 
 153      D7F9
 154 0385 8E37478C 		.ascii	"\2167G\214\366pp\237\257\254\002X\030\264\220\021j\013"
 154      F670709F 
 154      AFAC0258 
 154      18B49011 
 154      6A0B
ARM GAS  /tmp/ccrKwi5M.s 			page 12


 155 0397 77C31F4D 		.ascii	"w\303\037M\230\271\224"
 155      98B994
 156              		.text
 157              		.section	.gnu.lto_chThdCreateFromHeap.5fa7a5d011b96fc3,"",%progbits
 158 0000 789C8D53 		.ascii	"x\234\215SML\023A\024~of\333R\344\317\277D<@C\320\210"
 158      4D4C1341 
 158      147E6F66 
 158      DB52E4CF 
 158      BF443C40 
 159 0017 922E8926 		.ascii	"\222.\211&b\342\001Cb\364\320\203%&^jS\227Q\232P\272"
 159      62E20143 
 159      62F4D083 
 159      25265E6A 
 159      5397519A 
 160 002d D916040E 		.ascii	"\331\026\004\016\262\242G\023\321\223\230\220(\376\304"
 160      B2A24713 
 160      D1939890 
 160      28FEC4
 161 003c 586C040F 		.ascii	"Xl\004\017\032b\304\030$Z\011'c\014!H\242x\362\340Q"
 161      1A62C418 
 161      245A0927 
 161      630C2148 
 161      A278F2E0 
 162 0051 0D09BE9D 		.ascii	"\015\011\276\235\335b\013\245q\333\3317;\363\275o\336"
 162      DD620BA5 
 162      71DBD937 
 162      3BF3BD6F 
 162      DE
 163 0062 7CDF0C03 		.ascii	"|\337\014\003\244\337\306\347 \265\237\012\300\013\212"
 163      A4DFC6E7 
 163      20B59F0A 
 163      C00B8A
 164 0071 E8026443 		.ascii	"\350\002dCs\000\227}\214)\031\016\346>>\223\0010\233"
 164      7300977D 
 164      8C29190E 
 164      E63E3E93 
 164      01309B
 165 0084 382AF6B8 		.ascii	"8*\366\270\202hu\210j\200q\005\007NKNV\007wM\363\346"
 165      82687588 
 165      6A807105 
 165      074E4B4E 
 165      5607774D 
 166 009a D015F3C4 		.ascii	"\320\025\363\304\340\322\352j\255@`\300\020\302\010"
 166      E0D2EA6A 
 166      AD4060C0 
 166      10C208
 167 00a9 F32F97CB 		.ascii	"\363/\227\313\252A \202\017\254\310@\311/`C*g\260W\246"
 167      AA412082 
 167      0FACC840 
 167      C92F6043 
 167      2A67B057 
 168 00be FE48F514 		.ascii	"\376H\365\024\315\\HM\224}K\273\247\330\353\245\325"
 168      CD5C484D 
 168      947D4BBB 
 168      A7D8EBA5 
 168      D5
 169 00cf 817AB8E7 		.ascii	"\201z\270\347\320\010T\0304H\206\217\251?l#\205\222"
ARM GAS  /tmp/ccrKwi5M.s 			page 13


 169      D0085418 
 169      3448868F 
 169      A93F6C23 
 169      8592
 170 00e1 8B753150 		.ascii	"\213u1P%\366]e\201\305h\036r\321n\006\207$z!\365\252"
 170      25F65D65 
 170      81C5681E 
 170      72D16E06 
 170      87247A21 
 171 00f7 003375DC 		.ascii	"\0003u\334yx\017\203#\022\377\271\274 \332\223\207&"
 171      79780F83 
 171      2312FFB9 
 171      BC20DA93 
 171      8726
 172 0109 D18E4AF4 		.ascii	"\321\216J\364\257\302\265XM\201\235\010!\034\305:\022"
 172      AFC2B558 
 172      4D819D08 
 172      211CC53A 
 172      12
 173 011a 3884F7B1 		.ascii	"8\204\367\261\0368\305\207\024\025\032\277C\343n\372"
 173      1E38C587 
 173      14151ABF 
 173      43E36EFA 
 174 012a 7E44DF1E 		.ascii	"~D\337\036\212\217)\226P\034\243\350u\362\350q\301U"
 174      8A8F2996 
 174      501CA3E8 
 174      75F2E871 
 174      C155
 175 013c D3AC6236 		.ascii	"\323\254b6\336\036\015;\247\343\224\025-\217\203\264"
 175      DE1E0D3B 
 175      A7E39415 
 175      2D8F83B4 
 176 014c B0D5E1B3 		.ascii	"\260\325\341\263\340ZI\325\2040Mbh\250\364\303o\263"
 176      E05A49D5 
 176      84304D62 
 176      68A8F4C3 
 176      6FB3
 177 015e 44600986 		.ascii	"D`\011\206\021\355\034\015\231\206\\\240\027`\206\366"
 177      11ED1C0D 
 177      99865CA0 
 177      176086F6 
 178 016e 60236D6E 		.ascii	"`#mn\302\003\274\205\351\3578=\266{\215\242Zn&\367\011"
 178      C203BC85 
 178      E9EF383D 
 178      B67B8DA2 
 178      5A6E26F7 
 179 0183 22A7E40C 		.ascii	"\"\247\344\014p\"@\273:\247H\207\256\310\201)e\320\""
 179      702240BB 
 179      3AA74887 
 179      AEC88129 
 179      65D022
 180 0196 659BBC36 		.ascii	"e\233\2746\276\330X\364\310X\203\2454\011\360\001\006"
 180      BED858F4 
 180      C85883A5 
 180      3409F001 
 180      06
 181 01a7 71F4FAF0 		.ascii	"q\364\372\360\327\346\274\305H\251\011\251\310\323\274"
ARM GAS  /tmp/ccrKwi5M.s 			page 14


 181      D7E6BCC5 
 181      48A909A9 
 181      C8D3BC
 182 01b6 25ADAB33 		.ascii	"%\255\2533B\025\222 \362\005P\003i\0341o\265\010\334"
 182      42159220 
 182      F2055003 
 182      691C316F 
 182      B508DC
 183 01c9 9247BB36 		.ascii	"\222G\2736=\356L\227I\202Y\3305\277\370\200g\005\360"
 183      3DEE4C97 
 183      498259D8 
 183      35BFF880 
 183      6705F0
 184 01dc 3A1A9693 		.ascii	":\032\226\223\206,\253\241B\032j\350\326\320\243!\315"
 184      862CABA1 
 184      421A6AE8 
 184      D6D0A321 
 184      CD
 185 01ed 55E48B39 		.ascii	"U\344\2139*\305$\20530\330\274\362\344\222=~\000\366"
 185      2AC52485 
 185      3330D8BC 
 185      F2E4923D 
 185      7E00F6
 186 0200 0BACE4B7 		.ascii	"\013\254\344\267a\030\005V\221\013^\253\024\222\022"
 186      61180556 
 186      910B5EAB 
 186      149212
 187 020f CE503B8B 		.ascii	"\316P;\2139\333\336*\257?y9\235\276\224\225\324)c\033"
 187      39DBDE2A 
 187      AF3F7939 
 187      9DBE9495 
 187      D429631B 
 188 0223 95C1B365 		.ascii	"\225\301\263eH\206\355\362\274\355\220%\254\263c\023"
 188      4886EDF2 
 188      BCED9025 
 188      ACB36313 
 189 0233 5736B126 		.ascii	"W6\261&\204\317\310\005\351\315\215/\377\343\015\024"
 189      84CFC805 
 189      E9CD8D2F 
 189      FFE30D14 
 190 0243 F3E68DF4 		.ascii	"\363\346\215\364fj3oB\370\234:\377x\0343B8\21159'M\261"
 190      666A336F 
 190      42F89C3A 
 190      FF781C33 
 190      42388935 
 191 025b 8FF51C20 		.ascii	"\217\365\034 f\015\221\233\377\004\230U\217\315\277"
 191      660D919B 
 191      FF049855 
 191      8FCDBF
 192 026a 5FB6D4E4 		.ascii	"_\266\324\344\013\351\012\353J\240L\261\330\370\305"
 192      0BE90AEB 
 192      4AA04CB1 
 192      D8F8C5
 193 0279 845EEBF7 		.ascii	"\204^\353\367\253\366?\236P\215\244\23204U\353h\357"
 193      ABF63F9E 
 193      508DA49A 
 193      303455EB 
ARM GAS  /tmp/ccrKwi5M.s 			page 15


 193      68EF
 194 028b EB8AC4A2 		.ascii	"\353\212\304\242\232_\003\226\324]\035\"\242\353J\""
 194      9A5F0396 
 194      D45D1D22 
 194      A2EB4A22 
 195 029b DA2F14DD 		.ascii	"\332/\024\335\210\306\231~\236G\214\013\256\236Hg\267"
 195      88C6997E 
 195      9E478C0B 
 195      AE9E4867 
 195      B7
 196 02ac 685897AF 		.ascii	"hX\227\257\307\215dB=\026\014\264\006z\211H\213\033"
 196      C78D6442 
 196      3D160CB4 
 196      067A8948 
 196      8B1B
 197 02be 22DC7338 		.ascii	"\"\334s8\346\357\200\306\\\244\350M\252\255\201\266"
 197      E6EF80C6 
 197      5CA4E84D 
 197      AAAD81B6 
 198 02ce 936D6AB4 		.ascii	"\223mj\264K\353\354n\027\252Dj\261\343\335]\032\201"
 198      4BEBEC6E 
 198      17AA446A 
 198      B1E3DD5D 
 198      1A81
 199 02e0 AB026D41 		.ascii	"\253\002mA\337\271HB\320\202\215\276=M\300\014\360\304"
 199      DFB94842 
 199      D0828DBE 
 199      3D4DC00C 
 199      F0C4
 200 02f2 442C6EF4 		.ascii	"D,n\364\301_1*#]"
 200      C15F312A 
 200      235D
 201              		.text
 202              		.section	.gnu.lto_chThdCreateFromMemoryPool.5fa7a5d011b96fc3,"",%progbits
 203 0000 789C9553 		.ascii	"x\234\225S_HSQ\030\377\276s\356\335\234\245\331?\311"
 203      5F485351 
 203      18FFBE73 
 203      EEDD9CA5 
 203      D93FC9
 204 0013 1E748845 		.ascii	"\036t\210E\226lJA>\026B\024\261\207&A\004K\326\365\232"
 204      966C4A41 
 204      3E164214 
 204      B1872641 
 204      044BD6F5 
 205 0028 23E7C636 		.ascii	"#\347\3066M{\310\333\352!\010B\202 \203 \221\022\211"
 205      4D7BC8DB 
 205      EA210842 
 205      82208320 
 205      911289
 206 003b B07C0836 		.ascii	"\260|\0106\222\242Td\015\237\242\247\036\244\250^|*"
 206      92A25464 
 206      0D9FA2A7 
 206      1EA4A85E 
 206      7C2A
 207 004d 890CC1BE 		.ascii	"\211\014\301\276s\356\275\272\351&u\266{\277{\317\371"
 207      73EEBDBA 
 207      E92675B6 
ARM GAS  /tmp/ccrKwi5M.s 			page 16


 207      7BBF7BCF 
 207      F9
 208 005e 7EBFDF77 		.ascii	"~\277\337w\177\347;\014\220~\033\307a\272.\253\000\317"
 208      7FE73B0C 
 208      907E1BC7 
 208      61BA2EAB 
 208      00CF
 209 0070 29A20AC8 		.ascii	")\242\012\310\006\347\000\256\273\031S2\034\214\003"
 209      06E700AE 
 209      BB195332 
 209      1C8C03
 210 007f 7C260360 		.ascii	"|&\003`4rT\314y\005Q<\020\325\000\343\012\016\234\225"
 210      347254CC 
 210      7905513C 
 210      10D500E3 
 210      0A0E9C95 
 211 0093 9CBC1686 		.ascii	"\234\274\026\206\015\343\356\340\273\344\311\344\374"
 211      0DE3EEE0 
 211      BBE4C9E4 
 211      FC
 212 00a0 CA4A8D2E 		.ascii	"\312J\215.f\333\0202\331\321\312*\320\021\301\015\""
 212      66DB1032 
 212      D9D1CA2A 
 212      D011C10D 
 212      22
 213 00b1 3250F2D5 		.ascii	"2P\362\325-\334\015\303\306q\006\265(\240S\351\216\377"
 213      2DDC0DC3 
 213      C67106B5 
 213      28A053E9 
 213      8EFF
 214 00c3 432A0CF6 		.ascii	"C*\014\366Kd6\335\273)r9\365\203\177\232t\274fo\346"
 214      4B6436DD 
 214      BB297239 
 214      F5837F9A 
 214      74BC666F 
 215 00d8 5706EA60 		.ascii	"W\006\352`\304\242\321QeP/\031\026S\023|#\005\317\315"
 215      C4A2D151 
 215      65502F19 
 215      1653137C 
 215      2305CFCD 
 216 00ec 75306890 		.ascii	"u0h\220\271\267\232\012\210\321:\344f;\0314\311\354"
 216      B9B79A0A 
 216      88D13AE4 
 216      663B1934 
 216      C9EC
 217 00fe E5D42F56 		.ascii	"\345\324/V0\337\231\227O.\034\221\371\277\313\012fs"
 217      30DF9997 
 217      4F2E1C91 
 217      F9BFCB0A 
 217      6673
 218 0110 BA54A844 		.ascii	"\272T\250D\010\340\010\326\002\303\000>\306:\340\364"
 218      08E008D6 
 218      02C3003E 
 218      C63AE0F4 
 219 0120 3E4CEF2A 		.ascii	">L\357*\305G\024\0354?J\363N\212c\024K(>\245\350\262"
 219      C547141D 
 219      343F4AF3 
ARM GAS  /tmp/ccrKwi5M.s 			page 17


 219      4E8A6314 
 219      4B283EA5 
 220 0136 703454B8 		.ascii	"p4T\270i\030\025\334\304\231\263!\251,\307\031\021\305"
 220      691815DC 
 220      C499B321 
 220      A92CC719 
 220      11C5
 221 0148 7EFB495B 		.ascii	"~\373I[<\360,(\013\351\352\000>#}\015\371UX2Jt,\301"
 221      3CF02C28 
 221      0BE9EA00 
 221      3E237D0D 
 221      F9555832 
 222 0160 364413A3 		.ascii	"6D\023\243!\323\321\0050\003\014\3144\223\233\222\001"
 222      21D3D105 
 222      30030CCC 
 222      34939B92 
 222      01
 223 0171 A661EA1B 		.ascii	"\246a\352\033.\246\367\256\342\253\344\307\344\016\277"
 223      2EA6F7AE 
 223      E2ABE4C7 
 223      E40EBF
 224 0180 78A7A6E3 		.ascii	"x\247\246\343D\200fuV\221\026\335&-P\312\240Y\026\377"
 224      44806675 
 224      569116DD 
 224      262D50CA 
 224      A05916FF 
 225 0194 E7F6CFAF 		.ascii	"\347\366\317\257\205|^\033b\262\224\026\001\336C\022"
 225      857C5E1B 
 225      62B29416 
 225      01DE4312 
 226 01a4 3FDF19FA 		.ascii	"?\337\031\372\322\234'FN\275\220\216\214\347I\2123t"
 226      D29C2746 
 226      4EBD908E 
 226      8CE7498A 
 226      3374
 227 01b6 8F2A2437 		.ascii	"\217*$7\344\015\240\032\236\340C\343\3761\035\267\344"
 227      E40DA01A 
 227      9EE043E3 
 227      FE311DB7 
 227      E4
 228 01c7 D1AE2E8F 		.ascii	"\321\256.\217Y\313[%A\006\222\347\305\251\260\035P\017"
 228      59CB5B25 
 228      410692E7 
 228      C5A9B01D 
 228      500F
 229 01d9 C1411DCB 		.ascii	"\301A\035\313\370\003\030B\035\313\031\331W%7\027`\326"
 229      F8031842 
 229      1DCB19D9 
 229      57253717 
 229      60D6
 230 01eb 49B70BC2 		.ascii	"I\267\013\302\325Y\263\204,\354\351\264q.\313\371m\344"
 230      D559B384 
 230      2CECE9B4 
 230      712ECBF9 
 230      6DE4
 231 01fd 3CB39DE7 		.ascii	"<\263\235\347\304\247\241CC\247\206\264V\221\277\013"
 231      C4A7A143 
ARM GAS  /tmp/ccrKwi5M.s 			page 18


 231      43A786B4 
 231      5691BF0B 
 232 020d 2372175C 		.ascii	"#r\027\\\262\206\346\205W\327\314y\251\277\335\322\337"
 232      B286E685 
 232      57D7CC79 
 232      A9BFDDD2 
 232      DF
 233 021e 41FA2EA1 		.ascii	"A\372.\241/\334:'\345q\315\257\235\362\223\010}z1\017"
 233      2FDC3A27 
 233      E571CDAF 
 233      9DF29308 
 233      7D7A310F 
 234 0232 CD8BA319 		.ascii	"\315\213\243\031\330M!\312W\227m\034\200U\377.\252\237"
 234      D84D21CA 
 234      57976D1C 
 234      8055FF2E 
 234      AA9F
 235 0244 DBF54BF0 		.ascii	"\333\365K\360n\331\341\225\262\366u\015P\244\017\212"
 235      6ED9E195 
 235      B2F6750D 
 235      50A40F8A 
 236 0254 34430027 		.ascii	"4C\000'HVv\303\322?u\003l\326\015\323\262\033\336\026"
 236      485676C3 
 236      D23F7503 
 236      6CD60DD3 
 236      B21BDE16 
 237 0268 EB8600BE 		.ascii	"\353\206\000\276\244\2075\036k\373\003\230\302\352\234"
 237      A487351E 
 237      6BFB0398 
 237      C2EA9C
 238 0277 DE56CC53 		.ascii	"\336V\314S4\007\210\366N\312\217\377\010h\033\3072\343"
 238      340788F6 
 238      4ECA8FFF 
 238      08681BC7 
 238      32E3
 239 0289 DF8591FC 		.ascii	"\337\205\221\374\303d\2718\201(!\202\255\306\343\361"
 239      C364B938 
 239      81282182 
 239      ADC6E3F1 
 240 0299 9AFF48DC 		.ascii	"\232\377H\334\033Kx\3431\315\253u\266\367w\007\303!"
 240      1B4B78E3 
 240      31CDAB75 
 240      B6F77707 
 240      C321
 241 02ab CDA301BF 		.ascii	"\315\243\001\277\022\217\262D\224\205\243J4\026\212"
 241      128FB244 
 241      9485A34A 
 241      34168A
 242 02ba B068070F 		.ascii	"\260h\007\017\306.\251\275\301\256\036\275~\0356\032"
 242      C62EA9BD 
 242      C1AE1EBD 
 242      7E1D361A 
 243 02ca 8925E2DE 		.ascii	"\211%\342\336\343~_\213\257\217H\264HLo\353=\032\366"
 243      E37E5F8B 
 243      AF8F48B4 
 243      484C6FEB 
 243      3D1AF6
ARM GAS  /tmp/ccrKwi5M.s 			page 19


 244 02dd 7442436E 		.ascii	"tBCn\246\336\227\360\266\370ZO\265zC\335ZWO\273\356"
 244      A6DE97F0 
 244      B6F85A4F 
 244      B57A43DD 
 244      5A574FBB 
 245 02f2 95995AF8 		.ascii	"\225\231Z\370DO\267F\311\025\276V\277\373b0\256\223"
 245      444FB746 
 245      C915BE56 
 245      BFFB6230 
 245      AE93
 246 0304 60837B5F 		.ascii	"`\203{_#\260\0308\303z8\022\353\207\277B\3508."
 246      23B01838 
 246      C37A3812 
 246      EB87BF42 
 246      E8382E
 247              		.text
 248              		.section	.gnu.lto_.cgraph.5fa7a5d011b96fc3,"",%progbits
 249 0000 789C45C8 		.ascii	"x\234E\310\273\015\302@\020\204\341\231\335\263\317"
 249      BB0DC240 
 249      1084E199 
 249      DDB3CF
 250 000f 76115002 		.ascii	"v\021P\002%\256%K\026\022\011\015@\342NpN\005\004\244"
 250      25AE254B 
 250      1612090D 
 250      40E24E70 
 250      4E0504A4 
 251 0023 48243C2D 		.ascii	"H$<-\361\022\007\206\363$\243\357\027\020\012`\203\337"
 251      F1120786 
 251      F324A3EF 
 251      17100A60 
 251      83DF
 252 0035 A41603E6 		.ascii	"\244\026\003\346k\230-\246\224\003\215\275\226AG\232"
 252      6B982DA6 
 252      94038DBD 
 252      9641479A 
 253 0045 0C3AD174 		.ascii	"\014:\321t\320\231\346\242\370\240%_\225%y\247\245\021"
 253      D099E6A2 
 253      F8A0255F 
 253      952579A7 
 253      A511
 254 0057 1DCD475C 		.ascii	"\035\315G\\iY\304\215\226G\\h\305\037\212\004M\275\037"
 254      6959C48D 
 254      96475C68 
 254      C51F8A04 
 254      4DBD1F
 255 006a ABA4A866 		.ascii	"\253\244\250f\023\025`\025NsT\333\027U34\273.\274GU"
 255      13156015 
 255      4E7354DB 
 255      17553334 
 255      BB2EBC47 
 256 007f 3F47EA8A 		.ascii	"?G\352\212\276\273\014\355\247;\2176t\274\001-KGa"
 256      BEBB0CED 
 256      A73B8F36 
 256      74BC012D 
 256      4B4761
 257              		.text
 258              		.section	.gnu.lto_.vars.5fa7a5d011b96fc3,"",%progbits
ARM GAS  /tmp/ccrKwi5M.s 			page 20


 259 0000 789C6362 		.ascii	"x\234cb`d`f`\000\222P\000\000\000r\000\010"
 259      60646066 
 259      60009250 
 259      00000072 
 259      0008
 260              		.text
 261              		.section	.gnu.lto_.refs.5fa7a5d011b96fc3,"",%progbits
 262 0000 789C6362 		.ascii	"x\234cb`d`f```b\200\001\000\000\204\000\011"
 262      60646066 
 262      60606062 
 262      80010000 
 262      840009
 263              		.text
 264              		.section	.gnu.lto_.statics.5fa7a5d011b96fc3,"",%progbits
 265 0000 789C6362 		.ascii	"x\234cb`d`b\300\016@\342\214\020&\000\000\375\000\011"
 265      60646062 
 265      C00E40E2 
 265      8C102600 
 265      00FD0009 
 266              		.text
 267              		.section	.gnu.lto_.decls.5fa7a5d011b96fc3,"",%progbits
 268 0000 789CB55B 		.ascii	"x\234\265[{p\024E\032\357\236Iv\263l\010\010%\027\275"
 268      7B701445 
 268      1AEF9E49 
 268      76B36C08 
 268      082517BD 
 269 0014 3B897772 		.ascii	";\211wr\245V\231\200r\002W\312iq\245xWxW\342\325i\325"
 269      A5569980 
 269      720257CA 
 269      6971A578 
 269      577857E2 
 270 002b 6DADCB66 		.ascii	"m\255\313f\310\346\314>\334\235\020\270\277\326\340"
 270      C8E6CC3E 
 270      DC9D10B8 
 270      BFD6E0
 271 003a 23875884 		.ascii	"#\207X\204\207\022\344\220\360\010*O\0019\001E\302\031"
 271      8712E490 
 271      F0082A4F 
 271      01390145 
 271      C219
 272 004c 0125208F 		.ascii	"\001% \217(\217\004\211\020Q#\362\014\024\217H\356\353"
 272      288F0489 
 272      105123F2 
 272      0C148F48 
 272      EEEB
 273 005e 9E999E9E 		.ascii	"\236\231\236\236\331\231}\205\233J\317\314\316\366\367"
 273      D9997D85 
 273      9B4ACFCC 
 273      CEF6F7
 274 006d FB9EFDF5 		.ascii	"\373\236\375\365\327=\033\001aD\216f\001\241\0368n\033"
 274      D73D1B01 
 274      61448E66 
 274      01A11E38 
 274      6E1B
 275 007f 81D0CD0E 		.ascii	"\201\320\315\016\204\340\017=\010\215|\353@\312\341"
 275      84E00F3D 
 275      088D7CEB 
ARM GAS  /tmp/ccrKwi5M.s 			page 21


 275      40CAE1
 276 008e 86560F6D 		.ascii	"\206V\017m\034<\034\017\355ih\213\2405B\373\004\332"
 276      1C3C1C0F 
 276      ED69688B 
 276      A03542FB 
 276      04DA
 277 00a0 0E68CDD0 		.ascii	"\016h\315\320Z\240\035\306(\341 \264}U\314\002h\371"
 277      5AA01DC6 
 277      28E120B4 
 277      7D55CC02 
 277      68F9
 278 00b2 D0CE421B 		.ascii	"\320\316B\033\015m\011\264\034hK\241\255\207v\024:\035"
 278      0D6D09B4 
 278      1C684BA1 
 278      AD877614 
 278      3A1D
 279 00c4 83F635B4 		.ascii	"\203\3665\264m\320Dxv\030\332Ah\217\252\237\011\336"
 279      6DD04478 
 279      7618DA41 
 279      688FAA9F 
 279      09DE
 280 00d6 78953FC1 		.ascii	"x\225?\301<n\342I\344t\231\370-1\341\237Uy\222>g\324"
 280      3C6EE249 
 280      E47499F8 
 280      2D31E19F 
 280      5579923E 
 281 00ec EB3815EF 		.ascii	"\3538\025\357\204\011\217\360\272\311\002\357\254\011"
 281      84098FF0 
 281      BAC902EF 
 281      AC09
 282 00fa 93E09D80 		.ascii	"\223\340\235\200\366\203jC\242\327\034x^\013\355{b3"
 282      F6836A43 
 282      A2D71C78 
 282      5E0BED7B 
 282      6233
 283 010c F89CABF2 		.ascii	"\370\234\253\362;\016\255\223\323MT\371\020{\326\253"
 283      3B0EAD93 
 283      D34D54F9 
 283      107BD6AB 
 284 011c B49D707F 		.ascii	"\264\235p\177\206\310\012\355\234I&\342\203\233U\033"
 284      86C80AED 
 284      9C4926E2 
 284      839B551B 
 285 012c F232FD1D 		.ascii	"\3622\375\035\236\227A{\027\356g\300\365<\264/\260Q"
 285      9E97417B 
 285      17EE67C0 
 285      F53CB42F 
 285      B051
 286 013e CE0BD076 		.ascii	"\316\013\320vcEN\315\006]X\361\367N\325\006\235\252"
 286      63454ECD 
 286      065D58F1 
 286      F74ED506 
 286      9DAA
 287 0150 0C4FAB7E 		.ascii	"\014O\253~mV\375l>H\034\374L\325K\223C\363\353RN\216"
 287      6D56FD6C 
 287      3E481CFC 
 287      4CD54B93 
ARM GAS  /tmp/ccrKwi5M.s 			page 22


 287      43F3EB52 
 288 0166 8BD08E98 		.ascii	"\213\320\216\230\344 r6\244!\017\261\315:\254\310Db"
 288      E4207236 
 288      A4210FB1 
 288      CD3AACC8 
 288      4462
 289 0178 2047E57B 		.ascii	" G\345{\230\223\213\320\\2\3117\030\275\031ol\257\235"
 289      98938BD0 
 289      5C32C937 
 289      18BD196F 
 289      6CAF9D
 290 018b 5A3DF672 		.ascii	"Z=\366rO\217s\020z-\016G\375K\3618\226=\370\301\233"
 290      4F8F7310 
 290      7A2D0E47 
 290      FD4BF138 
 290      963DF8C1 
 291 01a0 D12DC883 		.ascii	"\321-\310\203\013 P\212\350]\276KAFp\277\010\017\242"
 291      0B20508A 
 291      E85DBE4B 
 291      414670BF 
 291      080FA2
 292 01b3 772212C8 		.ascii	"w\"\022\310\305\215\246\305\343\325\204t\354\316\202"
 292      C58DA6C5 
 292      E3D58474 
 292      ECCE82
 293 01c2 016826C1 		.ascii	"\001h&\301)\332\011\352j\010\3659\014\342\017\320\177"
 293      29DA09EA 
 293      6A08F539 
 293      0CE20FD0 
 293      7F
 294 01d3 085A1A8F 		.ascii	"\010Z\032\217\327B'\354\301K\361\000\000\0210\272\033"
 294      D74227EC 
 294      C14BF100 
 294      001130BA 
 294      1B
 295 01e4 BD13A787 		.ascii	"\275\023\247\207*\245zq\243\345W\326\374R\271O\003Z"
 295      2AA57A71 
 295      A3E557D6 
 295      FC52B94F 
 295      035A
 296 01f6 4023307C 		.ascii	"@#0||\033P=\370-|\267\302+\256\360\"O\221\372|\331\364"
 296      7C1B503D 
 296      F82D7CB7 
 296      C22BAEF0 
 296      224F91FA 
 297 020d D7F61426 		.ascii	"\327\366\024&\372\013\015\270\035\325\2032\265S\343"
 297      FA0B0DB8 
 297      1DD58332 
 297      B553E3
 298 021c 631D1EBC 		.ascii	"c\035\036\274\004\273\001r\202\006\331\266\261\023["
 298      04BB0172 
 298      8206D9B6 
 298      B1135B
 299 022b 5B45BB57 		.ascii	"[E\273W\016\255\217zX@\226k\220\247Ff\002X\224\000\350"
 299      0EAD8F7A 
 299      5840966B 
 299      90A74666 
ARM GAS  /tmp/ccrKwi5M.s 			page 23


 299      02589400 
 300 0240 4235BAED 		.ascii	"B5\272\355\221\215\317x\203\277\213]\300?\202U;\034"
 300      918DCF78 
 300      83BF8B5D 
 300      C03F8255 
 300      3B1C
 301 0252 9F3173FB 		.ascii	"\2371s\373\203\012j\306P\353)\324*\254am\236\273o{\011"
 301      830A6AC6 
 301      50EB29D4 
 301      2AAC616D 
 301      9EBB6F7B 
 302 0267 5263C4A9 		.ascii	"Rc\304\251\353\257}Vz)\310\312\327\332\035I\261\375"
 302      EBAF7D56 
 302      7A29C8CA 
 302      D7DA1D49 
 302      B1FD
 303 0279 50E60402 		.ascii	"P\346\004\002\252\0254K.\233\276p\317\250\344\306\314"
 303      AA15344B 
 303      2E9BBE70 
 303      CFA8E4C6 
 303      CC
 304 028a B3F54E9C 		.ascii	"\263\365N\234\032S\015\260z\207\275\376\002\232K9n\264"
 304      1A530DB0 
 304      7A87BDFE 
 304      029A4B39 
 304      6EB4
 305 029c 8CB08D5C 		.ascii	"\214\260\215\\\204]oX\377\231U\204a\316{\251G\216\300"
 305      845D6F58 
 305      FF995584 
 305      61CE7BA9 
 305      478EC0
 306 02af B8DF41B9 		.ascii	"\270\337A\271\177B\271o\261\344\276\205\217\357U\327"
 306      7F42B96F 
 306      B1E4BE85 
 306      8FEF55D7 
 307 02bf FA593077 		.ascii	"\372Y0w\3311O2\342y\227o\243\321{M\300L\311\371;\006"
 307      D9314F32 
 307      E279976F 
 307      A3D17B4D 
 307      C04CC9F9 
 308 02d5 6B1E1BED 		.ascii	"k\036\033\3556z\020>k\036\244\262\277 j\262/[\265o\377"
 308      367A103E 
 308      6B1EA4B2 
 308      BF206AB2 
 308      2F5BB56F 
 309 02ea 5DBD1D49 		.ascii	"]\275\035I\212,/3\320\346?\366n(i\210\323\030bK\012"
 309      8A2C2F33 
 309      D0E63FF6 
 309      6E286988 
 309      D318624B 
 310 02ff 44FB7832 		.ascii	"D\373x2\"\276\312\020\3332B\264\227\261\226!v\244@\354"
 310      22BECA10 
 310      DB3242B4 
 310      97B19621 
 310      76A440EC 
 311 0313 9FA68CB3 		.ascii	"\237\246\214\263\031\342\251\214\020\355e|\235!v\245"
 311      19E2A98C 
ARM GAS  /tmp/ccrKwi5M.s 			page 24


 311      10ED657C 
 311      9D2176A5 
 312 0323 402C4C53 		.ascii	"@,LS\3067\030bwF\210\3662\276\311\020\233\376\224\034"
 312      C6371862 
 312      774688F6 
 312      32BEC910 
 312      9BFE941C 
 313 0337 B1C84AC6 		.ascii	"\261\310J\306\204\2302\317\224\037b6&\004\264H\3242"
 313      849832CF 
 313      941F6236 
 313      2604B448 
 313      D432
 314 0349 C7F5860D 		.ascii	"\307\365\206\015\237\225d\021\377\014\252A\324\323\336"
 314      9F956411 
 314      FF0CAA41 
 314      D4D3DE
 315 0358 DACCD29E 		.ascii	"\332\314\322\236\2251\224Ii\005\003m\331\224j\242K\035"
 315      95319449 
 315      6905036D 
 315      D9946AA2 
 315      4B1D
 316 036a 560AE67A 		.ascii	"V\012\346z\206\331\226B\312TaeHW\352\\\325\336\320X"
 316      86D99642 
 316      CA546165 
 316      4857EA5C 
 316      D5DED058 
 317 037e 58C7A5CB 		.ascii	"X\307\245\313<\206F\312\007=7\262\356\361\302B\273\336"
 317      3C8646CA 
 317      073D37B2 
 317      EEF1C242 
 317      BBDE
 318 0390 1EFC151E 		.ascii	"\036\374\025\036\002\347c\330\305$Q\357\331m\017&\306"
 318      02E763D8 
 318      C52451EF 
 318      D96D0F26 
 318      C6
 319 03a1 FF4024FD 		.ascii	"\377@$\375-\252\2754\250\355C\245\215\017\225F\335\025"
 319      2DAABD34 
 319      A8ED43A5 
 319      8D0F9546 
 319      DD15
 320 03b3 BFCB7AEC 		.ascii	"\277\313z\354\234\255\216\027:8\325SXJM\361'\350\254"
 320      9CAD8E17 
 320      3A38D553 
 320      584A4DF1 
 320      27E8AC
 321 03c6 BE43D42B 		.ascii	"\276C\324+\204k?\212\012l\306X')\326^Q\257\0206\374"
 321      846B3F8A 
 321      0A6CC658 
 321      2729D65E 
 321      51AF1036 
 322 03db 2468A6C2 		.ascii	"$h\246\302\246\012\001\033'|\335x\232\3552\353-\240"
 322      A60A011B 
 322      277CDD78 
 322      9AED32EB 
 322      2DA0
 323 03ed 43DC20B9 		.ascii	"C\334 \271\246\017\022\243\270id\214\354\354\370\003"
ARM GAS  /tmp/ccrKwi5M.s 			page 25


 323      A60F12A3 
 323      B869648C 
 323      ECECF803 
 324 03fd D5BD9DB3 		.ascii	"\325\275\235\263\343\025\315\216\212a2U\347;N\235\331"
 324      E315CD8E 
 324      8A613255 
 324      E73B4E9D 
 324      D9
 325 040e 9F67A4CE 		.ascii	"\237g\244\316\235\275W\347,U\347,\247\316O\275S\347"
 325      9DBD57E7 
 325      2C55E72C 
 325      A7CE4FBD 
 325      53E7
 326 0420 32A7CE82 		.ascii	"2\247\316\202\314\324\031\312\251\243Tn\003\321\254"
 326      CCD419CA 
 326      A9A3546E 
 326      03D1AC
 327 042f 54951B11 		.ascii	"T\225\033\021\353\"\036\210\022\353&\362T\253\233Z\266"
 327      EB221E88 
 327      12EB26F2 
 327      54AB9B5A 
 327      B6
 328 0440 16A0C4C3 		.ascii	"\026\240\304\303\311\261\242\226\213gP&_\246\226\353"
 328      C9B1A296 
 328      8B675026 
 328      5FA696EB 
 329 0450 E12C37DB 		.ascii	"\341,7\333Prg\202u\215b\275\230\243\017\250\255\333"
 329      50726782 
 329      758D62BD 
 329      98A30FA8 
 329      ADDB
 330 0462 EFD18CEE 		.ascii	"\357\321\214\35609\301at\002\371\232p\273L\212g\334"
 330      3039C161 
 330      7402F99A 
 330      70BB4C8A 
 330      67DC
 331 0474 A31D58FB 		.ascii	"\243\035X\373\216|p\242\033\001\001\025\017\225\220"
 331      8E7C70A2 
 331      1B010115 
 331      0F9590
 332 0483 18166275 		.ascii	"\030\026bu\177\212\314\217\014\316E\011\316\325L8\207"
 332      7F8ACC8F 
 332      0CCE4509 
 332      CED54C38 
 332      87
 333 0494 81363DD6 		.ascii	"\2016=\326\333\342q4\231\234\0260\300\356O{\273\262"
 333      DBE27134 
 333      999C1630 
 333      C0EE4F7B 
 333      BBB2
 334 04a6 334C4FA6 		.ascii	"3LO\246\322\232,rS\373\366E\201\310\264\224\371v\371"
 334      D29A2C72 
 334      53FBF645 
 334      81C8B494 
 334      F976F9
 335 04b9 A76B3B58 		.ascii	"\247k;X\262\\\202M\3055y\300U\327\3661\377\202\300\315"
 335      B25C824D 
ARM GAS  /tmp/ccrKwi5M.s 			page 26


 335      C53579C0 
 335      55D7F631 
 335      FF82C0CD 
 336 04cd 2BEF737E 		.ascii	"+\357s~9\272?\305\324\222\221\312V\253\227g\030T>\345"
 336      39BA3FC5 
 336      D49291CA 
 336      56AB9767 
 336      18543EE5 
 337 04e1 BE85727F 		.ascii	"\276\205r\177E\260Z\274\220\247\332 \354l\236\331z'"
 337      45B05ABC 
 337      90A7DA20 
 337      EC6C9ED9 
 337      7A27
 338 04f3 4A3C0435 		.ascii	"J<\0045(\342\372Z\315\300\357!C\311\303\333v\206@\266"
 338      28E2FA5A 
 338      CDC0EF21 
 338      43C9C3DB 
 338      768640B6 
 339 0507 193A75DB 		.ascii	"\031:u\333\376kC\263b mW\241\376!{$\001]\245\224\263"
 339      FE6B43B3 
 339      62206D57 
 339      A1FE217B 
 339      24015DA5 
 340 051d 2C259F25 		.ascii	",%\237%\360\333\012\307vY-\372\204\204\322\310\203W"
 340      F0DB0AC7 
 340      76592DFA 
 340      8484D2C8 
 340      8357
 341 052f 6241C56C 		.ascii	"bA\305lZsc\366\025<x5\303l\316\250\276,\262\220Y\215"
 341      5A7363F6 
 341      153C7835 
 341      C36CCEA8 
 341      BE2CB290 
 342 0545 1F5D690F 		.ascii	"\037]i\017\236#\014A\202\007\277\006\352x\360\353pf"
 342      9E230C41 
 342      8207BF06 
 342      EA78F0EB 
 342      7066
 343 0557 81F54AAE 		.ascii	"\201\365J\256\346\332\316\346\265\255\243\254\355\230"
 343      E6DACEE6 
 343      B5ADA3AC 
 343      ED98
 344 0565 EE80CF38 		.ascii	"\356\200\3178-\316\023H~\230\235\253\247\330\371Z\212"
 344      2DCE1348 
 344      7E989DAB 
 344      A7D8F95A 
 344      8A
 345 0576 5572A641 		.ascii	"Ur\246A\243l\223\332<N\307s\255\331\3545$X\335<X\247"
 345      A36C93DA 
 345      3C4EC773 
 345      ADD9EC35 
 345      2458DD3C 
 346 058c F1837561 		.ascii	"\361\203ua\256>X\177\372\277\017\32686\224\342\002Z"
 346      AE3E587F 
 346      FABF0FD6 
 346      383694E2 
 346      025A
ARM GAS  /tmp/ccrKwi5M.s 			page 27


 347 059e 46D9D75B 		.ascii	"F\331\327[\306|=\027\363\327\277\\\373\225U\314\213"
 347      C67C3D17 
 347      F3D7BF5C 
 347      FB9555CC 
 347      8B
 348 05af DC68D546 		.ascii	"\334h\325F\340\347\014\263\345\375\202l\203\304\270"
 348      E0E70CB3 
 348      E5FD826C 
 348      83C4B8
 349 05be C238C820 		.ascii	"\3028\310 ;\016\026d\341\223^\330\210\017\301w\250~"
 349      3B0E1664 
 349      E1935ED8 
 349      880FC177 
 349      A87E
 350 05d0 C7580876 		.ascii	"\307X\010v\374\247@\2137\305X\\\000\326sCj1\014)\021"
 350      FCA7408B 
 350      37C5585C 
 350      00D67343 
 350      6A310C29 
 351 05e5 74A143AA 		.ascii	"t\241C\252\201\236\337\322\007\226}\244\274\315G\312"
 351      819EDFD2 
 351      07967DA4 
 351      BCCD47CA 
 352 05f5 B7CC065D 		.ascii	"\267\314\006]\231\331\240(\315\270\\\310s;\315\305\345"
 352      99D9A028 
 352      CDB85CC8 
 352      733BCDC5 
 352      E5
 353 0606 C281BD0B 		.ascii	"\302\201\275\013\313\2147\035\327\320\241~\221\033\352"
 353      CB8C371D 
 353      D7D0A17E 
 353      911BEA
 354 0615 73F5A1BE 		.ascii	"s\365\241\276\336<\324\323\333D|\336\241+\264\365@6"
 354      DE3CD4D3 
 354      DB447CDE 
 354      A12BB4F5 
 354      4036
 355 0627 D50AB34D 		.ascii	"\325\012\263M\215C\253j\233\037O\216Sdk\231\2647#y\273"
 355      8D43AB6A 
 355      9B1F4F8E 
 355      53646B99 
 355      B4372379 
 356 063c 6CA0F137 		.ascii	"l\240\3617\335\301f\270y\353\233L3\\\322m\315\371\224"
 356      DDC166B8 
 356      79EB9B4C 
 356      335CD26D 
 356      CDF994
 357 064f 72A3E568 		.ascii	"r\243\345h\337h\230\341\366Y\316p\330v\206#\324\315"
 357      DF6898E1 
 357      F659CE70 
 357      D8768623 
 357      D4CD
 358 0661 ABB39AE1 		.ascii	"\253\263\232\341\022\017^D\017\336\014\203\007\344\373"
 358      120F5E44 
 358      0FDE0C83 
 358      07E4FB
 359 0670 809F8956 		.ascii	"\200\237\211V0\017t\3559\231\202\251\321\007E\006\037"
ARM GAS  /tmp/ccrKwi5M.s 			page 28


 359      300F74ED 
 359      399982A9 
 359      D1074506 
 359      1F
 360 0681 F0696B03 		.ascii	"\360ik\003\303\354\370s\362\254ug\012\257j\265l#Clz"
 360      C3ECF873 
 360      F2AC7567 
 360      0AAF6AB5 
 360      6C23436C 
 361 0696 2AB98C43 		.ascii	"*\271\214Cm\0215c+Cb\273\256wF\210E\026\210\013i)\272"
 361      6D113563 
 361      2B4362BB 
 361      AE774688 
 361      4516880B 
 362 06ad 8F219E3A 		.ascii	"\217!\236:\234\312}#SJ\251\274xh\325\307\307\221T\336"
 362      9CCA7D23 
 362      534AA9BC 
 362      7868D5C7 
 362      C79154DE 
 363 06c1 1999524E 		.ascii	"\031\231RNZ\305\237\324M\331\232J\314\207\322\2152\375"
 363      5AC59FD4 
 363      4DD99A4A 
 363      CC87D28D 
 363      32FD
 364 06d3 0D92072F 		.ascii	"\015\222\007/\307C\320\000\017^\201Ir^E\317k\350\371"
 364      C743D000 
 364      0F5E8149 
 364      725E45CF 
 364      6BE8F9
 365 06e6 7D7A3E48 		.ascii	"}z>H\317\207\351\271\225\236\217\323s'=\237\241\347"
 365      CF87E9B9 
 365      959E8FD3 
 365      73273D9F 
 365      A1E7
 366 06f8 2E7A7E8F 		.ascii	".z~\217\246\367-\364\274\225\236\267\321\363\307\364"
 366      A6F72DF4 
 366      BC959EB7 
 366      D1F3C7F4 
 367 0708 FC093DEF 		.ascii	"\374\011=\357H'\371\233\212\177\030\002O\212l\000\234"
 367      4827F99B 
 367      8A7F1802 
 367      4F8A6C00 
 367      9C
 368 0719 D67340D7 		.ascii	"\326s@\327\271\323\001\345\361\035hI<>\213\230M\233"
 368      B9D301E5 
 368      F11D6849 
 368      3C3E8B98 
 368      4D9B
 369 072b 37173BE9 		.ascii	"7\027;\351\234\201\007\243CN\033N\352\262\3437\250\201"
 369      9C8107A3 
 369      434E1B4E 
 369      EAB2E337 
 369      A881
 370 073d 8C87C6EA 		.ascii	"\214\207\306\352B\372\226\000\251d\001\203\301>\025"
 370      42FA9600 
 370      A9640183 
 370      C13E15
ARM GAS  /tmp/ccrKwi5M.s 			page 29


 371 074c 04DE82E4 		.ascii	"\004\336\202\344\345b};\341g\361r\221\240\332+\267G"
 371      E5627D3B 
 371      E167F172 
 371      91A0DA2B 
 371      B747
 372 075e 30BC5D54 		.ascii	"0\274]T\272\033Ulp\262i\266.d\255\240\007\357\022H\366"
 372      BA1B556C 
 372      70B269B6 
 372      2E64ADA0 
 372      07EF1248 
 373 0773 D92D0C46 		.ascii	"\331-\014Fu\2564\024\254\256\375\270z\254\266\320R\350"
 373      75AE3414 
 373      ACAEFDB8 
 373      7AACB6D0 
 373      52E8
 374 0785 368A7652 		.ascii	"6\212vR\322.{\223\250\374r\377L^\250\266\244Vy-S\271"
 374      D22E7B93 
 374      A8FC72FF 
 374      4C5EA8B6 
 374      A456792D 
 375 079b 6DFEADC9 		.ascii	"m\376\255\311U> \244\351\323\270\301\247\204\314\350"
 375      553E20A4 
 375      E9D3B8C1 
 375      A784CCE8 
 376 07ab D32F6F98 		.ascii	"\323/o\230O\217\010\251\337\030\327\234\340\366G\343"
 376      4F8F08A9 
 376      DF18D79C 
 376      E0F647E3 
 377 07bb FA8BAF22 		.ascii	"\372\213\257\"d\234\351\216\322\224\374\021\263\307"
 377      649CE98E 
 377      D294FC11 
 377      B3C7
 378 07c9 F9EE99C7 		.ascii	"\371\356\231\307\036P$"
 378      1E5024
 379 07d0 4C074A40 		.ascii	"L\007J@?R\322v\313\251\256\235\233\352\272\347M@\211"
 379      3F52D276 
 379      CBA9AE9D 
 379      9BEABAE7 
 379      4D4089
 380 07e3 87685730 		.ascii	"\207hW0\232\0142:\231=\2761\332#\343*\350[\232\362\257"
 380      9A0C323A 
 380      993DBE31 
 380      DA23E32A 
 380      E85B9AF2 
 381 07f8 301B2C6E 		.ascii	"0\033,nZ\367\303\225\\\315o\271\246*(\327X\005\345\262"
 381      5AF7C395 
 381      5CCD6FB9 
 381      A62A28D7 
 381      5805E5B2 
 382 080c 2A2857AF 		.ascii	"*(W\257\202\370hK\315\277\203N\020\215y\032\377K\315"
 382      82F8684B 
 382      CDBF834E 
 382      108D791A 
 382      FF4BCD
 383 081f B35AEF52 		.ascii	"\263Z\357R\210M{\037DS{;\234\022\014\211\314 \265\351"
 383      884D7B1F 
 383      44537B3B 
ARM GAS  /tmp/ccrKwi5M.s 			page 30


 383      9C120C89 
 383      CC20B5E9 
 384 0833 3B019DCB 		.ascii	";\001\235\313\323\374\006.\357\254\263\211\3604\026"
 384      D3FC062E 
 384      EFACB389 
 384      F03416
 385 0842 99F553E3 		.ascii	"\231\365S\3435\242\266g\330\3500D\213y\345\337M\231"
 385      35A2B667 
 385      D8E83044 
 385      8B79E5DF 
 385      4D99
 386 0854 9E11AC36 		.ascii	"\236\021\2546\016\311S-X\232\353n\263\010\026u\335\257"
 386      0EC9532D 
 386      589AEB6E 
 386      B3081675 
 386      DDAF
 387 0866 3054BDDC 		.ascii	"0T\275\334\370R\274\006?\277\366\027\351\354[\\\240"
 387      F852BC06 
 387      3FBFF617 
 387      E9EC5B5C 
 387      A0
 388 0877 7EAE71E9 		.ascii	"~\256q\351\357[?\330\241\332#\013\264K\3122\231\241"
 388      EF5B3FD8 
 388      A1DA230B 
 388      B44BCA32 
 388      99A1
 389 0889 6D9E7B6E 		.ascii	"m\236{n\307\003\232\271]\246\240q\031\203\306\305\202"
 389      C7039AB9 
 389      5DA6A071 
 389      1983C6C5 
 389      82
 390 089a C6A5068D 		.ascii	"\306\245\006\215\262JFYR\011\350\337.\315\262\347\273"
 390      B24A4659 
 390      5209E8DF 
 390      2ECDB2E7 
 390      BB
 391 08ab F71DFF4E 		.ascii	"\367\035\377N\264\226?\015w\362\373A\311\266q\350f\200"
 391      B4963F0D 
 391      77F2FB41 
 391      C9B671E8 
 391      6680
 392 08bd E5A8BFC6 		.ascii	"\345\250\277\306\215\372\266:\253\035`\341\366\2147"
 392      8DFAB63A 
 392      AB1D60E1 
 392      F68C37
 393 08cc 9BAF5BC6 		.ascii	"\233\257[\306\314u.f:\352\006\331\307\214\325;zb,{\206"
 393      CC752E66 
 393      3AEA06D9 
 393      C78CD53B 
 393      7A622C7B 
 394 08e1 CF8BDC22 		.ascii	"\317\213\334\"m1\265.\341v\252\256\367\273Kmt\274\277"
 394      6D31B52E 
 394      E176AAAE 
 394      F7BB4B6D 
 394      74BCBF
 395 08f4 C530BB0A 		.ascii	"\3050\273\012{\263HZIq\210\321\273\353n\353\255hJ*\\"
 395      7BB3485A 
ARM GAS  /tmp/ccrKwi5M.s 			page 31


 395      497188D1 
 395      BBEB6EEB 
 395      AD684A2A 
 396 0909 CD209BE6 		.ascii	"\315 \233\346\245\252+\215\230E&\341\326\263\260l\236"
 396      A5AA2B8D 
 396      984526E1 
 396      D6B3B06C 
 396      9E
 397 091a 37288B98 		.ascii	"7(\213\230d@\033\\Z\272jyC\027\311\032)\331/S\224\205"
 397      64401B5C 
 397      5ABA6A79 
 397      4317C91A 
 397      29D92F53 
 398 0930 88B2BFF0 		.ascii	"\210\262\277\360!\303\354\270\225\315o\306M\011\376"
 398      21C3ECB8 
 398      95CD6FC6 
 398      4D09FE
 399 093f 3EAD52B7 		.ascii	">\255R\267\235[P\035Wv#N\320R\3644=O\023\323(H\333\364"
 399      9D5B501D 
 399      5776234E 
 399      D052F434 
 399      3D4F13D3 
 400 0957 FD815C56 		.ascii	"\375\201\\V\304\020\317p5\315\273\230\373\230l\346L"
 400      C410CF70 
 400      35CDBB98 
 400      FB986CE6 
 400      4C
 401 0968 5A2AD58A 		.ascii	"Z*\325\212\246Ri\264;\303\271k\206Hb\371\277,\013v\266"
 401      A65269B4 
 401      3BC3B96B 
 401      864862F9 
 401      BF2C0B76 
 402 097d CDD2769B 		.ascii	"\315\322v\233M\303\215\360\262\227d\216h?w%|\307\213"
 402      4DC38DF0 
 402      B297648E 
 402      683F7725 
 402      7CC78B
 403 0990 4B2E7CBD 		.ascii	"K.|\275\356\322\353\365}\2537\251_\360\305\2352\372"
 403      EED2EBF5 
 403      7DAB37A9 
 403      5FF0C59D 
 403      32FA
 404 09a2 AAFB907E 		.ascii	"\252\373\220~\207\241J\373\316m-U\016OD\254\357\301"
 404      87A14AFB 
 404      CE6D2D55 
 404      0E4F44AC 
 404      EFC1
 405 09b4 2F8B824A 		.ascii	"/\213\202J\264\263\237mEH\035\305\323*k\265\032\306"
 405      B4B39F6D 
 405      45481DC5 
 405      D32A6BB5 
 405      1AC6
 406 09c6 B06DC547 		.ascii	"\260m\305G\202-5\365+O\255\030\370UF}\250\257--\351"
 406      822D35F5 
 406      2B4FAD18 
 406      F855467D 
 406      A8AF2D2D 
ARM GAS  /tmp/ccrKwi5M.s 			page 32


 407 09db 6AA0A52B 		.ascii	"j\240\245+\272ZFz\331^hbH5\360\254\352wB\335\262\"\224"
 407      BA5A467A 
 407      D95E6862 
 407      4835F0AC 
 407      EA7742DD 
 408 09f2 B4807F5D 		.ascii	"\264\200\177]\274Q\365\355b1\263_D>\303\020\362M\321"
 408      BC51F5ED 
 408      6231B35F 
 408      443EC310 
 408      F24DD1
 409 0a05 D9209271 		.ascii	"\331 \222q>\247\017\213\211\223\373O(\013a\313\337?"
 409      3EA70F8B 
 409      8993FB4F 
 409      280B61CB 
 409      DF3F
 410 0a17 1A81E8CA 		.ascii	"\032\201\350\312U\264\374\355\243\250\317pMu\023\023"
 410      55B4FCED 
 410      A3A8CF70 
 410      4D751313 
 411 0a27 4236495D 		.ascii	"B6I]\233\326\366\321\016*\360JK\336+y\336s\035\026\274"
 411      9BD6F6D1 
 411      0E2AF04A 
 411      4BDE2B79 
 411      DE731D16 
 412 0a3c 8D9B472B 		.ascii	"\215\233G+h\374\034`\210\315\251\3664\215#\337x\330"
 412      68FC1C60 
 412      88CDA9F6 
 412      348D23DF 
 412      78D8
 413 0a4e FB6C053F 		.ascii	"\373l\005?]\266Rn\304J\315\331Lm\0263\322\011\206\330"
 413      5DB6526E 
 413      C44ACDD9 
 413      4C6D1633 
 413      D20986D8 
 414 0a62 5297D58C 		.ascii	"R\227\325\214d\300T\012\356\363\014\263#\205\224\311"
 414      64C0540A 
 414      EEF30CB3 
 414      238594C9 
 415 0a72 5E3F7007 		.ascii	"^?p\007\037.0\307\2104\373/\027I\336_G\317\357\245\223"
 415      1F2E30C7 
 415      8834FB2F 
 415      1749DE5F 
 415      47CFEFA5 
 416 0a87 FD97EA96 		.ascii	"\375\227\352\226\314\261N\367\352HO\226\006\257\367"
 416      CCB14EF7 
 416      EA484F96 
 416      06AFF7
 417 0a96 E1D2E0B7 		.ascii	"\341\322\340\267Vip)\215\213:7\351\267H\204\214f\223"
 417      56697029 
 417      8D8B3A37 
 417      E9B74884 
 417      8C6693
 418 0aa9 5744732A 		.ascii	"WDs*\363\340\3714\015\022\242\232a\231%2\017^\300h\273"
 418      F3E0F934 
 418      0D12A29A 
 418      61992532 
 418      0F5EC068 
ARM GAS  /tmp/ccrKwi5M.s 			page 33


 419 0abe 375DB24F 		.ascii	"7]\262O\203V\251\314\203\0272\342\313\366YPIe\324\212"
 419      8356A9CC 
 419      831732E2 
 419      CBF65950 
 419      4965D48A 
 420 0ad2 56A98C50 		.ascii	"V\251\214PwmJ\236\3126%\246\262\366\332\332\251\365"
 420      776D4A9E 
 420      CA3625A6 
 420      B2F6DADA 
 420      A9F5
 421 0ae4 19FFB67B 		.ascii	"\031\377\266{\233y~\245VO\342\267\371n=U\255\273Z#\362"
 421      9B797EA5 
 421      564FE2B7 
 421      F96E3D55 
 421      ADBB5A23 
 422 0af9 62787053 		.ascii	"bxpS2\271\224\031V@\313\030\004,\354&\031\001\266\337"
 422      32B99419 
 422      5640CB18 
 422      042CEC26 
 422      1901B6DF 
 423 0b0d 28C5769A 		.ascii	"(\305v\232\025\243\333`\354\323e\032\256\306-\027&\326"
 423      15A3DB60 
 423      ECD3651A 
 423      AEC62D17 
 423      26D6
 424 0b1f B2E9470D 		.ascii	"\262\351G\015[\001\036\274+\003\261\222O\035\273-\012"
 424      5B011EBC 
 424      2B03B192 
 424      4F1DBB2D 
 424      0A
 425 0b30 9AF46AA8 		.ascii	"\232\364j\2504\006\325Gn\275\3129\277\344\260\3119\007"
 425      3406D547 
 425      6EBDCA39 
 425      BFE4B0C9 
 425      3907
 426 0b42 325022E9 		.ascii	"2P\"\351v\306\027f\035h\305bR\302 \330.\316\345\347"
 426      76C61766 
 426      1D68C562 
 426      52C220D8 
 426      2ECEE5E7 
 427 0b56 2ED49904 		.ascii	".\324\231\004;t\243\004;b\025\315\306\215\265\203\\"
 427      3B74A304 
 427      3B6215CD 
 427      C68DB583 
 427      5C
 428 0b67 FC9EAF32 		.ascii	"\374\236\2572\312\321f\224\343&TK97\002\347\347\224"
 428      CAD16694 
 428      E326544B 
 428      393702E7 
 428      E794
 429 0b79 1FF569AC 		.ascii	"\037\365i\254\3733\326\202J{T\274\211\336\031^f\323"
 429      FB33D682 
 429      4A7B54BC 
 429      89DE195E 
 429      66D3
 430 0b8b 2EF6E27E 		.ascii	".\366\342~%*\311Z\237\027\264;l\022!\236(\302H\326\331"
 430      252AC95A 
ARM GAS  /tmp/ccrKwi5M.s 			page 34


 430      9F17B43B 
 430      6C12219E 
 430      28C248D6 
 431 0ba0 A9C21DCB 		.ascii	"\251\302\035\313B\204v[\021\364\377w2\024\311\333\222"
 431      4284765B 
 431      11F4FF77 
 431      3214C9DB 
 431      92
 432 0bb1 16C95FEB 		.ascii	"\026\311_\353SC\021Z\250l#c\30362d\373\253O1\023\377"
 432      5343115A 
 432      A86C2363 
 432      C3363264 
 432      FBAB4F31 
 433 0bc7 0A2D8AEF 		.ascii	"\012-\212\357\335[\033\257.\254n\357\351\031lR\367("
 433      DD5B1BAF 
 433      2EAC6EEF 
 433      E9196C52 
 433      F728
 434 0bd9 A7AEB9F2 		.ascii	"\247\256\271\362Ib\231\304\"\351\233,,s\322\3262\374"
 434      496299C4 
 434      22E99B2C 
 434      2C73D2D6 
 434      32FC
 435 0beb 4F73F47E 		.ascii	"Os\364~\244\006\240\261E\266\222\273\353\012\354\244"
 435      A406A0B1 
 435      45B692BB 
 435      EB0AECA4 
 436 0bfb 11D02937 		.ascii	"\021\320)7Via\0164\333\227\374\263\215\275P\337\353"
 436      5669610E 
 436      34DB97FC 
 436      B38DBD50 
 436      DFEB
 437 0c0d F64DDF74 		.ascii	"\366M\337t\001\006\3237\225\351\314]=\370T\026\246\373"
 437      0106D337 
 437      95E9CC5D 
 437      3DF85416 
 437      A6FB
 438 0c1f D1D674F9 		.ascii	"\321\326t\371\006\323i\375H\316\020\265\255\354\356"
 438      06D369FD 
 438      48CE10B5 
 438      ADECEE
 439 0c2e 9FDB0923 		.ascii	"\237\333\011#\240\253\006\313YD\030\001\320\367\250"
 439      A0AB06CB 
 439      59441801 
 439      D0F7A8
 440 0c3d 6C3A342F 		.ascii	"l:4/\030\224\252K\213\276\273g\362\317\027I\343\377"
 440      1894AA4B 
 440      8BBEBB67 
 440      F2CF1749 
 440      E3FF
 441 0c4f BCEE1F13 		.ascii	"\274\356\037\023\335\356\244t\027l\351v&\245\353\262"
 441      DDEEA474 
 441      176CE976 
 441      26A5EBB2 
 442 0c5f A53B9294 		.ascii	"\245;\222\224\356b6q\264W\337y\2705U %\364\205)7\213"
 442      EE623671 
 442      B457DF79 
ARM GAS  /tmp/ccrKwi5M.s 			page 35


 442      B8355520 
 442      25F48529 
 443 0c75 48BA621B 		.ascii	"H\272b\033I\267\030\"\351\2129\222H\021\325\266\271"
 443      49B71822 
 443      E98A3992 
 443      4811D5B6 
 443      B9
 444 0c86 C0561C58 		.ascii	"\300V\034X\356\346\363\261\204\362\344@T\362\225ze\307"
 444      EEE6F3B1 
 444      84F2E440 
 444      54F2957A 
 444      65C7
 445 0c98 A38FFFB5 		.ascii	"\243\217\377\265h\014\272\243\270\270D\371\013\307J"
 445      680CBAA3 
 445      B8B844F9 
 445      0BC74A
 446 0ca7 A2724979 		.ascii	"\242rIy\310_QY*\225\370\003\261)1yJD\212\025\007\220"
 446      C85F5159 
 446      2A95F803 
 446      B1293179 
 446      4A448A15 
 447 0cbd CB1FF02A 		.ascii	"\313\037\360*tE\366\335\375\201R\350\352\210xC\322d"
 447      7445F6DD 
 447      FD8152E8 
 447      EA887843 
 447      D264
 448 0ccf 192E91A8 		.ascii	"\031.\221\2504\311)G\242\345a\257<\334D\026\011G\345"
 448      34C92947 
 448      A2E561AF 
 448      3CDC4416 
 448      0947E5
 449 0ce2 58C9C34F 		.ascii	"X\311\303O\214\0333nr\211?\034\214\224WH\321X\311\243"
 449      8C1B336E 
 449      72893F1C 
 449      8C945748 
 449      D158C9A3 
 450 0cf6 63C60092 		.ascii	"c\306\000\222\3065\257\262<$\337w\257W~\272\2442\026"
 450      C635AFB2 
 450      3C24DF77 
 450      AF577EBA 
 450      A43216
 451 0d09 2DA908FB 		.ascii	"-\251\010\373}\025%\023\312C\004\246\242|BI\231\337"
 451      7D152513 
 451      CA4304A6 
 451      A27C4249 
 451      99DF
 452 0d1b 5FE28B06 		.ascii	"_\342\213\006\357\011\205C\322=\222oBy\311\360\342\021"
 452      EF098543 
 452      D23D926F 
 452      4279C9F0 
 452      E211
 453 0d2d C5F79630 		.ascii	"\305\367\2260^\360g\374^\2236&\227\002\264\"-\021\320"
 453      5EF067FC 
 453      5E933626 
 453      9702B422 
 453      2D11D0
 454 0d40 E90F8764 		.ascii	"\351\017\207d\220zHR1\003\376pT\002\"7y\354\005\000"
ARM GAS  /tmp/ccrKwi5M.s 			page 36


 454      907A4852 
 454      3103FE70 
 454      54022237 
 454      79EC0500 
 455 0d54 BF3CF9AE 		.ascii	"\277<\371\256\324\024\336I#\202D\233\250T\006\322xe"
 455      D414DE49 
 455      2382449B 
 455      A85406D2 
 455      7865
 456 0d66 213A5C88 		.ascii	"!:\\\210\376V\210\336/DG\010\321\221Bt\224\030\0356"
 456      FE5688DE 
 456      2F444708 
 456      D1914274 
 456      94181D36 
 457 0d7a 14DA30A1 		.ascii	"\024\3320\241\"\012\227\373r#^@v\022CVIQ\270\206+J\245"
 457      220A97FB 
 457      72235E40 
 457      76124356 
 457      4951B886 
 458 0d91 688E3FE0 		.ascii	"h\216?\340\213\022\353\372\202R\236\034\223}\262\344"
 458      8B12EBFA 
 458      82529E1C 
 458      937DB2E4 
 459 0da1 959DC444 		.ascii	"\225\235\304D#\341\032\361\322'N9\030.\225\350\347\211"
 459      23E11AF1 
 459      D2274E39 
 459      182E95E8 
 459      E789
 460 0db3 15BEB298 		.ascii	"\025\276\262\230S\216J\023c^\342\016r\223\033\214\225"
 460      538E4A13 
 460      635EE20E 
 460      72931B8C 
 460      95
 461 0dc4 C197AA59 		.ascii	"\301\227\252Y\035\321\322)\360 O\232\\.\373\201\314"
 461      1DD1D229 
 461      F0204F9A 
 461      5C2EFB81 
 461      CC
 462 0dd5 51258727 		.ascii	"Q%\207'\374#2@\215\020 \220\242R\310\017p\271U\262\034"
 462      FC233240 
 462      8D102090 
 462      A252C80F 
 462      70B955B2 
 463 0dea 8DE44314 		.ascii	"\215\344C\024\304\244\240/\022\000\255\006\333\007\202"
 463      C4A4A02F 
 463      1200AD06 
 463      DB0782
 464 0df9 44D4EDA7 		.ascii	"D\324\355\247\240\304\274\317UJ\225\000\321\237\205"
 464      A0C4BCCF 
 464      554A9500 
 464      D19F85
 465 0e08 90FAC8A9 		.ascii	"\220\372\310\251^s\375!\0318\304\274p\005\011\200:\222"
 465      5E73FD21 
 465      1938C4BC 
 465      70050980 
 465      3A92
 466 0e1a 077D8395 		.ascii	"\007}\203\225\340\020{&Ay20q\006U\254\2407\\\025\002"
ARM GAS  /tmp/ccrKwi5M.s 			page 37


 466      E0107B26 
 466      41793230 
 466      710655AC 
 466      A0375C15 
 467 0e2f 5B512AD0 		.ascii	"[Q*\320,\250\004a\225\014\375\"ni\222\024\222\203\276"
 467      2CA80461 
 467      950CFD22 
 467      6E699214 
 467      9283BE
 468 0e42 D8B3F08D 		.ascii	"\330\263\360\215TEn\304\210\267\262@\023\247\242<\006"
 468      54456EC4 
 468      88B7B240 
 468      13A7A23C 
 468      06
 469 0e53 12F4E304 		.ascii	"\022\364\343\004$O\\\021o\225\257\\.\017\225\365\211"
 469      244F5C11 
 469      6F95AF5C 
 469      2E0F95F5 
 469      89
 470 0e64 78C14C8A 		.ascii	"x\301L\212\260\364\026\036H\021)\0041T\006\275\200\005"
 470      B0F4161E 
 470      48112904 
 470      315406BD 
 470      8005
 471 0e76 E9DF8798 		.ascii	"\351\337\207\230\330WA\303\011\036F\302\341\212\201"
 471      D85741C3 
 471      091E46C2 
 471      E18A81
 472 0e85 FEC09381 		.ascii	"\376\300\223\201\322'\244\012\311\027\223\212#\276\250"
 472      D227A40A 
 472      C917938A 
 472      23BEA8
 473 0e94 5C3CD4AC 		.ascii	"\\<\324\254R,\352\007uJ\247\200[\313\375\305~$\310\021"
 473      522CEA07 
 473      754AA780 
 473      5BCBFDC5 
 473      7E24C811 
 474 0ea8 37257BB8 		.ascii	"7%{\270\024('\346\363\020}\203R0\034\235\342\015H\276"
 474      142827E6 
 474      F3107D83 
 474      52301C9D 
 474      E20D48BE 
 475 0ebc 8857B61F 		.ascii	"\210W\266\037\212\344{\022\247\\wG\254\374\237\340\205"
 475      8AE47B12 
 475      A75C7747 
 475      ACFC9FE0 
 475      85
 476 0ecd DF673692 		.ascii	"\337g6\222\270\361R*M\004\310|\200,\223\344\211\225"
 476      B8F1522A 
 476      4D04C87C 
 476      802C93E4 
 476      8995
 477 0edf 21BF57FE 		.ascii	"!\277W\376\265\275w\244\240:V\372\004`\200\205'\225"
 477      B5BD77A4 
 477      A03A56FA 
 477      04608085 
 477      2795
ARM GAS  /tmp/ccrKwi5M.s 			page 38


 478 0ef1 4300BBA9 		.ascii	"C\000\273\251\330p\202\373>1\371Y_EyY\310+\323Q~\377"
 478      D87082FB 
 478      3E31F959 
 478      5F457959 
 478      C82BD351 
 479 0f07 700801FA 		.ascii	"p\010\001\372 \2078.\207t\305\2259Dh\034p\004\274\023"
 479      2087382E 
 479      8774C595 
 479      3944681C 
 479      7004BC13 
 480 0f1b A392941B 		.ascii	"\243\222\224\033 \246v\246d\256:\021\230+\366\037\003"
 480      20A676A6 
 480      64AE3A11 
 480      982BF61F 
 480      03
 481 0f2c 1F65E991 		.ascii	"\037e\351\221h88\026Ps\011t$\207\270I\210L\024}\321"
 481      68383816 
 481      50730974 
 481      2487B849 
 481      884C147D 
 482 0f41 32CDAAC4 		.ascii	"2\315\252\304c^\331>\037B7\322%\246d\000\350\253\250"
 482      635ED93E 
 482      1F4237D2 
 482      25A66400 
 482      E8ABA8
 483 0f54 E28C0468 		.ascii	"\342\214\004h\2609\203J\346+\200+\014#\311/{\211\370"
 483      B039834A 
 483      E62B802B 
 483      0C23C92F 
 483      7B89F8
 484 0f67 EE608459 		.ascii	"\356`\204Y\340\026\223<\343(\343\277\000\226\020\214"
 484      E016933C 
 484      E328E3BF 
 484      0096108C 
 485 0f77 F4F107C8 		.ascii	"\364\361\007\310\335#\240)\334\022Q\311-\370\177\274"
 485      DD23A029 
 485      DC1251C9 
 485      2DF87FBC 
 486 0f87 3FF037DF 		.ascii	"?\3607\337\263Red|>G\377\230[\351\364p\005x\323\255"
 486      B3526564 
 486      7C3E47FF 
 486      985BE9F4 
 486      700578D3 
 487 0f9c D0D2FB3C 		.ascii	"\320\322\373<"
 488 0fa0 AF975AC8 		.ascii	"\257\227Z\310\333W\273)\276\377\276\341\303\015\237"
 488      DB57BB29 
 488      BEFFBEE1 
 488      C30D9F
 489 0faf 46F19F46 		.ascii	"F\361\237F\014\373\037c\317o\305"
 489      0CFB1F63 
 489      CF6FC5
 490              		.text
 491              		.section	.gnu.lto_.symtab.5fa7a5d011b96fc3,"",%progbits
 492 0000 63685468 		.ascii	"chThdAddRef\000\000\000\000\000\000\000\000\000\000"
 492      64416464 
 492      52656600 
 492      00000000 
ARM GAS  /tmp/ccrKwi5M.s 			page 39


 492      00000000 
 493 0015 00004D01 		.ascii	"\000\000M\001\000\000chThdRelease\000\000\000\000\000"
 493      00006368 
 493      54686452 
 493      656C6561 
 493      73650000 
 494 002c 00000000 		.ascii	"\000\000\000\000\000\000\000S\001\000\000chThdCreat"
 494      00000053 
 494      01000063 
 494      68546864 
 494      43726561 
 495 0041 6546726F 		.ascii	"eFromHeap\000\000\000\000\000\000\000\000\000\000\000"
 495      6D486561 
 495      70000000 
 495      00000000 
 495      00000000 
 496 0055 00590100 		.ascii	"\000Y\001\000\000chThdCreateFromMemoryPool\000\000\000"
 496      00636854 
 496      68644372 
 496      65617465 
 496      46726F6D 
 497 0076 00000000 		.ascii	"\000\000\000\000\000\000\000\000\000\241\001\000\000"
 497      00000000 
 497      00A10100 
 497      00
 498 0083 6368506F 		.ascii	"chPoolFree\000\000\002\000\000\000\000\000\000\000\000"
 498      6F6C4672 
 498      65650000 
 498      02000000 
 498      00000000 
 499 0098 00C00100 		.ascii	"\000\300\001\000\000chHeapFree\000\000\002\000\000\000"
 499      00636848 
 499      65617046 
 499      72656500 
 499      00020000 
 500 00ad 00000000 		.ascii	"\000\000\000\000\000\000\305\001\000\000chSchWakeup"
 500      0000C501 
 500      00006368 
 500      53636857 
 500      616B6575 
 501 00c2 53000002 		.ascii	"S\000\000\002\000\000\000\000\000\000\000\000\000\307"
 501      00000000 
 501      00000000 
 501      00C7
 502 00d0 01000063 		.ascii	"\001\000\000chThdCreateI\000\000\002\000\000\000\000"
 502      68546864 
 502      43726561 
 502      74654900 
 502      00020000 
 503 00e6 00000000 		.ascii	"\000\000\000\000\000\314\001\000\000chHeapAlloc\000"
 503      00CC0100 
 503      00636848 
 503      65617041 
 503      6C6C6F63 
 504 00fb 00020000 		.ascii	"\000\002\000\000\000\000\000\000\000\000\000\324\001"
 504      00000000 
 504      000000D4 
ARM GAS  /tmp/ccrKwi5M.s 			page 40


 504      01
 505 0108 00006368 		.ascii	"\000\000chPoolAlloc\000\000\002\000\000\000\000\000"
 505      506F6F6C 
 505      416C6C6F 
 505      63000002 
 505      00000000 
 506 011d 00000000 		.ascii	"\000\000\000\000\331\001\000\000"
 506      D9010000 
 507              		.text
 508              		.section	.gnu.lto_.opts,"",%progbits
 509 0000 272D6D63 		.ascii	"'-mcpu=cortex-m4''-mno-thumb-interwork''-mthumb''-g"
 509      70753D63 
 509      6F727465 
 509      782D6D34 
 509      27272D6D 
 510 0033 67646227 		.ascii	"gdb''-O2''-fomit-frame-pointer''-falign-functions=1"
 510      272D4F32 
 510      27272D66 
 510      6F6D6974 
 510      2D667261 
 511 0066 3627272D 		.ascii	"6''-ffunction-sections''-fdata-sections''-fno-commo"
 511      6666756E 
 511      6374696F 
 511      6E2D7365 
 511      6374696F 
 512 0099 6E27272D 		.ascii	"n''-flto'\000"
 512      666C746F 
 512      2700
 513              		.text
 514              		.cfi_sections	.debug_frame
 515              		.section	.text.chThdAddRef,"ax",%progbits
 516              		.align	2
 517              		.p2align 4,,15
 518              		.global	chThdAddRef
 519              		.thumb
 520              		.thumb_func
 521              		.type	chThdAddRef, %function
 522              	chThdAddRef:
 523              	.LFB241:
 524              		.file 1 "../../../os/rt/src/chdynamic.c"
 525              		.loc 1 68 0
 526              		.cfi_startproc
 527              		@ args = 0, pretend = 0, frame = 0
 528              		@ frame_needed = 0, uses_anonymous_args = 0
 529              		@ link register save eliminated.
 530              	.LVL0:
 531              	.LBB83:
 532              	.LBB84:
 533              	.LBB85:
 534              	.LBB86:
 535              		.file 2 "../../../os/ext/CMSIS/include/core_cmFunc.h"
 536              		.loc 2 548 0
 537 0000 2022     		movs	r2, #32
 538              	@ 548 "../../../os/ext/CMSIS/include/core_cmFunc.h" 1
 539 0002 82F31188 		MSR basepri, r2
 540              	@ 0 "" 2
 541              		.thumb
ARM GAS  /tmp/ccrKwi5M.s 			page 41


 542              	.LBE86:
 543              	.LBE85:
 544              	.LBE84:
 545              	.LBE83:
 546              		.loc 1 72 0
 547 0006 827F     		ldrb	r2, [r0, #30]	@ zero_extendqisi2
 548 0008 0132     		adds	r2, r2, #1
 549 000a 8277     		strb	r2, [r0, #30]
 550              	.LVL1:
 551              	.LBB87:
 552              	.LBB88:
 553              	.LBB89:
 554              	.LBB90:
 555              	.LBB91:
 556              		.loc 2 548 0
 557 000c 0023     		movs	r3, #0
 558              	@ 548 "../../../os/ext/CMSIS/include/core_cmFunc.h" 1
 559 000e 83F31188 		MSR basepri, r3
 560              	@ 0 "" 2
 561              		.thumb
 562              	.LBE91:
 563              	.LBE90:
 564              	.LBE89:
 565              	.LBE88:
 566              	.LBE87:
 567              		.loc 1 76 0
 568 0012 7047     		bx	lr
 569              		.cfi_endproc
 570              	.LFE241:
 571              		.size	chThdAddRef, .-chThdAddRef
 572 0014 AFF30080 		.section	.text.chThdRelease,"ax",%progbits
 572      AFF30080 
 572      AFF30080 
 573              		.align	2
 574              		.p2align 4,,15
 575              		.global	chThdRelease
 576              		.thumb
 577              		.thumb_func
 578              		.type	chThdRelease, %function
 579              	chThdRelease:
 580              	.LFB242:
 581              		.loc 1 91 0
 582              		.cfi_startproc
 583              		@ args = 0, pretend = 0, frame = 0
 584              		@ frame_needed = 0, uses_anonymous_args = 0
 585              		@ link register save eliminated.
 586              	.LVL2:
 587 0000 10B4     		push	{r4}
 588              	.LCFI0:
 589              		.cfi_def_cfa_offset 4
 590              		.cfi_offset 4, -4
 591              		.loc 1 91 0
 592 0002 0146     		mov	r1, r0
 593              	.LBB127:
 594              	.LBB128:
 595              	.LBB129:
 596              	.LBB130:
ARM GAS  /tmp/ccrKwi5M.s 			page 42


 597              		.loc 2 548 0
 598 0004 2023     		movs	r3, #32
 599              	@ 548 "../../../os/ext/CMSIS/include/core_cmFunc.h" 1
 600 0006 83F31188 		MSR basepri, r3
 601              	@ 0 "" 2
 602              		.thumb
 603              	.LBE130:
 604              	.LBE129:
 605              	.LBE128:
 606              	.LBE127:
 607              		.loc 1 96 0
 608 000a 837F     		ldrb	r3, [r0, #30]	@ zero_extendqisi2
 609 000c 013B     		subs	r3, r3, #1
 610 000e DBB2     		uxtb	r3, r3
 611 0010 8377     		strb	r3, [r0, #30]
 612              	.LVL3:
 613              		.loc 1 102 0
 614 0012 13B9     		cbnz	r3, .L3
 615              		.loc 1 102 0 is_stmt 0 discriminator 1
 616 0014 027F     		ldrb	r2, [r0, #28]	@ zero_extendqisi2
 617 0016 0F2A     		cmp	r2, #15
 618 0018 04D0     		beq	.L7
 619              	.L3:
 620              	.LVL4:
 621              	.LBB131:
 622              	.LBB132:
 623              	.LBB133:
 624              	.LBB134:
 625              	.LBB135:
 626              		.loc 2 548 0 is_stmt 1
 627 001a 0023     		movs	r3, #0
 628              	.LVL5:
 629              	@ 548 "../../../os/ext/CMSIS/include/core_cmFunc.h" 1
 630 001c 83F31188 		MSR basepri, r3
 631              	@ 0 "" 2
 632              		.thumb
 633              	.LBE135:
 634              	.LBE134:
 635              	.LBE133:
 636              	.LBE132:
 637              	.LBE131:
 638              		.loc 1 129 0
 639 0020 10BC     		pop	{r4}
 640 0022 7047     		bx	lr
 641              	.LVL6:
 642              	.L7:
 643              		.loc 1 103 0
 644 0024 427F     		ldrb	r2, [r0, #29]	@ zero_extendqisi2
 645 0026 02F00302 		and	r2, r2, #3
 646 002a 012A     		cmp	r2, #1
 647 002c 0CD0     		beq	.L4
 648 002e 022A     		cmp	r2, #2
 649 0030 F3D1     		bne	.L3
 650              	.LVL7:
 651              	.LBB136:
 652              	.LBB137:
 653              		.loc 1 116 0
ARM GAS  /tmp/ccrKwi5M.s 			page 43


 654 0032 4269     		ldr	r2, [r0, #20]
 655 0034 0069     		ldr	r0, [r0, #16]
 656              	.LVL8:
 657 0036 1061     		str	r0, [r2, #16]
 658 0038 0869     		ldr	r0, [r1, #16]
 659 003a 4261     		str	r2, [r0, #20]
 660              	.LVL9:
 661              	.LBB138:
 662              	.LBB139:
 663              	.LBB140:
 664              	.LBB141:
 665              	.LBB142:
 666              		.loc 2 548 0
 667              	@ 548 "../../../os/ext/CMSIS/include/core_cmFunc.h" 1
 668 003c 83F31188 		MSR basepri, r3
 669              	@ 0 "" 2
 670              		.thumb
 671              	.LBE142:
 672              	.LBE141:
 673              	.LBE140:
 674              	.LBE139:
 675              	.LBE138:
 676              		.loc 1 119 0
 677 0040 086C     		ldr	r0, [r1, #64]
 678              	.LBE137:
 679              	.LBE136:
 680              		.loc 1 129 0
 681 0042 10BC     		pop	{r4}
 682              	.LBB144:
 683              	.LBB143:
 684              		.loc 1 119 0
 685 0044 FFF7FEBF 		b	chPoolFree
 686              	.LVL10:
 687              	.L4:
 688              	.LBE143:
 689              	.LBE144:
 690              		.loc 1 107 0
 691 0048 4269     		ldr	r2, [r0, #20]
 692 004a 0469     		ldr	r4, [r0, #16]
 693 004c 1461     		str	r4, [r2, #16]
 694 004e 0169     		ldr	r1, [r0, #16]
 695 0050 4A61     		str	r2, [r1, #20]
 696              	.LVL11:
 697              	.LBB145:
 698              	.LBB146:
 699              	.LBB147:
 700              	.LBB148:
 701              	.LBB149:
 702              		.loc 2 548 0
 703              	@ 548 "../../../os/ext/CMSIS/include/core_cmFunc.h" 1
 704 0052 83F31188 		MSR basepri, r3
 705              	@ 0 "" 2
 706              		.thumb
 707              	.LBE149:
 708              	.LBE148:
 709              	.LBE147:
 710              	.LBE146:
ARM GAS  /tmp/ccrKwi5M.s 			page 44


 711              	.LBE145:
 712              		.loc 1 129 0
 713 0056 10BC     		pop	{r4}
 714              		.loc 1 110 0
 715 0058 FFF7FEBF 		b	chHeapFree
 716              	.LVL12:
 717              		.cfi_endproc
 718              	.LFE242:
 719              		.size	chThdRelease, .-chThdRelease
 720 005c AFF30080 		.section	.text.chThdCreateFromHeap,"ax",%progbits
 721              		.align	2
 722              		.p2align 4,,15
 723              		.global	chThdCreateFromHeap
 724              		.thumb
 725              		.thumb_func
 726              		.type	chThdCreateFromHeap, %function
 727              	chThdCreateFromHeap:
 728              	.LFB243:
 729              		.loc 1 155 0
 730              		.cfi_startproc
 731              		@ args = 4, pretend = 0, frame = 0
 732              		@ frame_needed = 0, uses_anonymous_args = 0
 733              	.LVL13:
 734 0000 F0B5     		push	{r4, r5, r6, r7, lr}
 735              	.LCFI1:
 736              		.cfi_def_cfa_offset 20
 737              		.cfi_offset 4, -20
 738              		.cfi_offset 5, -16
 739              		.cfi_offset 6, -12
 740              		.cfi_offset 7, -8
 741              		.cfi_offset 14, -4
 742 0002 83B0     		sub	sp, sp, #12
 743              	.LCFI2:
 744              		.cfi_def_cfa_offset 32
 745              		.loc 1 155 0
 746 0004 0D46     		mov	r5, r1
 747 0006 1746     		mov	r7, r2
 748 0008 1E46     		mov	r6, r3
 749              		.loc 1 159 0
 750 000a FFF7FEFF 		bl	chHeapAlloc
 751              	.LVL14:
 752              		.loc 1 160 0
 753 000e 0446     		mov	r4, r0
 754 0010 90B1     		cbz	r0, .L9
 755              	.LVL15:
 756              	.LBB150:
 757              	.LBB151:
 758              	.LBB152:
 759              	.LBB153:
 760              		.loc 2 548 0
 761 0012 2023     		movs	r3, #32
 762              	@ 548 "../../../os/ext/CMSIS/include/core_cmFunc.h" 1
 763 0014 83F31188 		MSR basepri, r3
 764              	@ 0 "" 2
 765              		.thumb
 766              	.LBE153:
 767              	.LBE152:
ARM GAS  /tmp/ccrKwi5M.s 			page 45


 768              	.LBE151:
 769              	.LBE150:
 770              		.loc 1 174 0
 771 0018 089C     		ldr	r4, [sp, #32]
 772 001a 2946     		mov	r1, r5
 773 001c 3A46     		mov	r2, r7
 774 001e 3346     		mov	r3, r6
 775 0020 0094     		str	r4, [sp, #0]
 776 0022 FFF7FEFF 		bl	chThdCreateI
 777              	.LVL16:
 778              		.loc 1 175 0
 779 0026 0123     		movs	r3, #1
 780 0028 4377     		strb	r3, [r0, #29]
 781              		.loc 1 176 0
 782 002a 0021     		movs	r1, #0
 783              		.loc 1 174 0
 784 002c 0446     		mov	r4, r0
 785              	.LVL17:
 786              		.loc 1 176 0
 787 002e FFF7FEFF 		bl	chSchWakeupS
 788              	.LVL18:
 789              	.LBB154:
 790              	.LBB155:
 791              	.LBB156:
 792              	.LBB157:
 793              	.LBB158:
 794              		.loc 2 548 0
 795 0032 0023     		movs	r3, #0
 796              	@ 548 "../../../os/ext/CMSIS/include/core_cmFunc.h" 1
 797 0034 83F31188 		MSR basepri, r3
 798              	@ 0 "" 2
 799              	.LVL19:
 800              		.thumb
 801              	.L9:
 802              	.LBE158:
 803              	.LBE157:
 804              	.LBE156:
 805              	.LBE155:
 806              	.LBE154:
 807              		.loc 1 180 0
 808 0038 2046     		mov	r0, r4
 809 003a 03B0     		add	sp, sp, #12
 810 003c F0BD     		pop	{r4, r5, r6, r7, pc}
 811              		.cfi_endproc
 812              	.LFE243:
 813              		.size	chThdCreateFromHeap, .-chThdCreateFromHeap
 814 003e 00BF     		.section	.text.chThdCreateFromMemoryPool,"ax",%progbits
 815              		.align	2
 816              		.p2align 4,,15
 817              		.global	chThdCreateFromMemoryPool
 818              		.thumb
 819              		.thumb_func
 820              		.type	chThdCreateFromMemoryPool, %function
 821              	chThdCreateFromMemoryPool:
 822              	.LFB244:
 823              		.loc 1 207 0
 824              		.cfi_startproc
ARM GAS  /tmp/ccrKwi5M.s 			page 46


 825              		@ args = 0, pretend = 0, frame = 0
 826              		@ frame_needed = 0, uses_anonymous_args = 0
 827              	.LVL20:
 828 0000 F0B5     		push	{r4, r5, r6, r7, lr}
 829              	.LCFI3:
 830              		.cfi_def_cfa_offset 20
 831              		.cfi_offset 4, -20
 832              		.cfi_offset 5, -16
 833              		.cfi_offset 6, -12
 834              		.cfi_offset 7, -8
 835              		.cfi_offset 14, -4
 836 0002 83B0     		sub	sp, sp, #12
 837              	.LCFI4:
 838              		.cfi_def_cfa_offset 32
 839              		.loc 1 207 0
 840 0004 0546     		mov	r5, r0
 841 0006 0F46     		mov	r7, r1
 842 0008 1646     		mov	r6, r2
 843 000a 1C46     		mov	r4, r3
 844              		.loc 1 213 0
 845 000c FFF7FEFF 		bl	chPoolAlloc
 846              	.LVL21:
 847              		.loc 1 214 0
 848 0010 A8B1     		cbz	r0, .L13
 849              	.LVL22:
 850              	.LBB159:
 851              	.LBB160:
 852              	.LBB161:
 853              	.LBB162:
 854              		.loc 2 548 0
 855 0012 2023     		movs	r3, #32
 856              	@ 548 "../../../os/ext/CMSIS/include/core_cmFunc.h" 1
 857 0014 83F31188 		MSR basepri, r3
 858              	@ 0 "" 2
 859              		.thumb
 860              	.LBE162:
 861              	.LBE161:
 862              	.LBE160:
 863              	.LBE159:
 864              		.loc 1 228 0
 865 0018 6968     		ldr	r1, [r5, #4]
 866 001a 0094     		str	r4, [sp, #0]
 867 001c 3A46     		mov	r2, r7
 868 001e 3346     		mov	r3, r6
 869 0020 FFF7FEFF 		bl	chThdCreateI
 870              	.LVL23:
 871              		.loc 1 229 0
 872 0024 0223     		movs	r3, #2
 873 0026 4377     		strb	r3, [r0, #29]
 874              		.loc 1 230 0
 875 0028 0564     		str	r5, [r0, #64]
 876              		.loc 1 231 0
 877 002a 0021     		movs	r1, #0
 878              		.loc 1 228 0
 879 002c 0446     		mov	r4, r0
 880              	.LVL24:
 881              		.loc 1 231 0
ARM GAS  /tmp/ccrKwi5M.s 			page 47


 882 002e FFF7FEFF 		bl	chSchWakeupS
 883              	.LVL25:
 884              	.LBB163:
 885              	.LBB164:
 886              	.LBB165:
 887              	.LBB166:
 888              	.LBB167:
 889              		.loc 2 548 0
 890 0032 0023     		movs	r3, #0
 891              	@ 548 "../../../os/ext/CMSIS/include/core_cmFunc.h" 1
 892 0034 83F31188 		MSR basepri, r3
 893              	@ 0 "" 2
 894              	.LVL26:
 895              		.thumb
 896              	.L12:
 897              	.LBE167:
 898              	.LBE166:
 899              	.LBE165:
 900              	.LBE164:
 901              	.LBE163:
 902              		.loc 1 235 0
 903 0038 2046     		mov	r0, r4
 904 003a 03B0     		add	sp, sp, #12
 905 003c F0BD     		pop	{r4, r5, r6, r7, pc}
 906              	.LVL27:
 907              	.L13:
 908              		.loc 1 215 0
 909 003e 0446     		mov	r4, r0
 910              	.LVL28:
 911 0040 FAE7     		b	.L12
 912              		.cfi_endproc
 913              	.LFE244:
 914              		.size	chThdCreateFromMemoryPool, .-chThdCreateFromMemoryPool
 915 0042 00BFAFF3 		.text
 915      0080AFF3 
 915      0080AFF3 
 915      0080
 916              	.Letext0:
 917              		.file 3 "/usr/local/bin/../lib/gcc/arm-none-eabi/4.7.2/include/stddef.h"
 918              		.file 4 "/usr/local/bin/../lib/gcc/arm-none-eabi/4.7.2/../../../../arm-none-eabi/include/stdint.h"
 919              		.file 5 "../../../os/rt/ports/ARMCMx/compilers/GCC/chtypes.h"
 920              		.file 6 "../../../os/rt/include/chsystypes.h"
 921              		.file 7 "../../../os/rt/include/chschd.h"
 922              		.file 8 "../../../os/rt/ports/ARMCMx/chcore.h"
 923              		.file 9 "../../../os/rt/ports/ARMCMx/chcore_v7m.h"
 924              		.file 10 "../../../os/rt/include/chtm.h"
 925              		.file 11 "../../../os/rt/include/chsem.h"
 926              		.file 12 "../../../os/rt/include/chmtx.h"
 927              		.file 13 "../../../os/rt/include/chthreads.h"
 928              		.file 14 "../../../os/rt/include/chmemcore.h"
 929              		.file 15 "../../../os/rt/include/chheap.h"
 930              		.file 16 "../../../os/rt/include/chmempools.h"
 931              		.file 17 "../../../os/rt/include/chsys.h"
 932              		.file 18 "../../../os/ext/CMSIS/include/core_cm4.h"