ARM GAS  /tmp/ccV3l6aC.s 			page 1


   1              		.syntax unified
   2              		.cpu cortex-m4
   3              		.fpu softvfp
   4              		.eabi_attribute 20, 1
   5              		.eabi_attribute 21, 1
   6              		.eabi_attribute 23, 3
   7              		.eabi_attribute 24, 1
   8              		.eabi_attribute 25, 1
   9              		.eabi_attribute 26, 1
  10              		.eabi_attribute 30, 2
  11              		.eabi_attribute 34, 1
  12              		.eabi_attribute 18, 4
  13              		.thumb
  14              		.file	"chmempools.c"
  15              		.text
  16              	.Ltext0:
  17              		.section	.gnu.lto_.jmpfuncs.951f746ee2a16c03,"",%progbits
  18 0000 789C6362 		.ascii	"x\234cb`d`g\300\016$\2404\033\003;#;\023##C=\003\003"
  18      60646067 
  18      C00E24A0 
  18      341B033B 
  18      233B1323 
  19 0019 33846261 		.ascii	"3\204bafef\000\000\023a\001N"
  19      66656600 
  19      00136101 
  19      4E
  20              		.text
  21              		.section	.gnu.lto_.inline.951f746ee2a16c03,"",%progbits
  22 0000 789C6362 		.ascii	"x\234cb`d\340e\300\016\212\2414\033\020\2612201\357"
  22      6064E065 
  22      C00E8AA1 
  22      341B10B1 
  22      32323031 
  23 0015 1067E0BC 		.ascii	"\020g\340\274a\306\004\322\362\022H0\011\366\337\343"
  23      61C604D2 
  23      F2124830 
  23      09F6DFE3 
  24 0025 62E09CDB 		.ascii	"b\340\234\333\303\304\304\300\304 \310\005\024\341\233"
  24      C3C4C4C0 
  24      C420C805 
  24      14E19B
  25 0034 E6CCC035 		.ascii	"\346\314\3005\303\200\211\201U\220\201\201q\202\037"
  25      C3808981 
  25      55908181 
  25      71821F
  26 0043 3383300F 		.ascii	"3\2030\017PXh[\022\2120\013\232\201\254\014\034\354"
  26      5058685B 
  26      128A300B 
  26      9A81AC0C 
  26      1CEC
  27 0055 403EFB0D 		.ascii	"@>\373\0153\010\237\001\000\325\025\020e"
  27      33089F01 
  27      00D51510 
  27      65
  28              		.text
  29              		.section	.gnu.lto_.pureconst.951f746ee2a16c03,"",%progbits
  30 0000 789C6362 		.ascii	"x\234cb`d`f``\340e\200\0006\006)F+&)f+\026)V+\000\007"
ARM GAS  /tmp/ccV3l6aC.s 			page 2


  30      60646066 
  30      6060E065 
  30      80003606 
  30      29462B26 
  31 001d EA0125   		.ascii	"\352\001%"
  32              		.text
  33              		.section	.gnu.lto_chPoolObjectInit.951f746ee2a16c03,"",%progbits
  34 0000 789C7591 		.ascii	"x\234u\2211K\003A\020\205\337\233\275H\032\3016]\300"
  34      314B0341 
  34      1085DF9B 
  34      BD481AC1 
  34      365DC0
  35 0013 60612087 		.ascii	"`a \207\330\370\023\004\253\010\202M\2648\017\014\030"
  35      D8F81304 
  35      AB08824D 
  35      B4380F0C 
  35      18
  36 0024 2EDC8985 		.ascii	".\334\211\205\2059\243? X\231\263\021#\226\026\226i"
  36      8539A33F 
  36      205899B3 
  36      11239616 
  36      9669
  37 0036 B4B09020 		.ascii	"\264\260\220 \261\261\264\360\207\010:{g\344 fv\207"
  37      B1B1B4F0 
  37      87083A7B 
  37      67E42066 
  37      7687
  38 0048 37B0EF9B 		.ascii	"7\260\357\233aw\005\3245\035%\315\007=XU\245\001\245"
  38      617705D4 
  38      351D25CD 
  38      073D5855 
  38      A501A5
  39 005b 37064ECB 		.ascii	"7\006N\313B\332B\221\216\260\263\225\221\243\253\301"
  39      42DA4291 
  39      8EB0B395 
  39      91A3ABC1 
  40 006b 1BDF93B9 		.ascii	"\033\337\223\271Gy\372\374\356T0\210\343\213\336Y\274"
  40      4779FAFC 
  40      EE543088 
  40      E38BDE59 
  40      BC
  41 007c EE138245 		.ascii	"\356\023\202Eb\227\370\350\017\245\004\237D\031V\005"
  41      6297F8E8 
  41      0FA5049F 
  41      44195605 
  42 008c 8E8292F7 		.ascii	"\216\202\222\367\032\301R\352\275\234\237vja\220w;\202"
  42      1AC152EA 
  42      BD9C9F76 
  42      6A619077 
  42      3B82
  43 009e 6AEA7E59 		.ascii	"j\352~Y\371\327\355h\002E\262\301kV \2527\252F\365V"
  43      F9D7ED68 
  43      0245B2C1 
  43      6B5620AA 
  43      37AA46F5 
  44 00b3 55A380F3 		.ascii	"U\243\200\3638^`3\355\222F\335\252\275\336\246\366\261"
  44      385E6033 
ARM GAS  /tmp/ccV3l6aC.s 			page 3


  44      ED9246DD 
  44      AABDDEA6 
  44      F6B1
  45 00c5 8519A1BB 		.ascii	"\205\031\241\273\366\325?i\360\216\005T\261\354\263"
  45      F6D53F69 
  45      F08E0554 
  45      B1ECB3
  46 00d4 6012F4E9 		.ascii	"`\022\364\351sN<\262\224\016\001\2665w\370\367r\352"
  46      734E3CB2 
  46      940E01B6 
  46      3577F8F7 
  46      72EA
  47 00e6 CADE05DD 		.ascii	"\312\336\005\335\215\347d\310\034nf\343\277\274gg[\362"
  47      8DE764C8 
  47      1C6E66E3 
  47      BFBC6767 
  47      5BF2
  48 00f8 35B9CF93 		.ascii	"5\271\317\223\316lR&\244\001\306\260?\221q\223\250\333"
  48      CE6C5226 
  48      A401C6B0 
  48      3F917193 
  48      A8DB
  49 010a DE7A1DEB 		.ascii	"\336z\035\353+\327jn\266\203\310\015\017\335(\364\\"
  49      2BD76A6E 
  49      B683C80D 
  49      0FDD28F4 
  49      5C
  50 011b 6FBFE5B7 		.ascii	"o\277\345\267\332Ap\020\325<H\253\355D\315c\277\330"
  50      DA417010 
  50      D53C48AB 
  50      ED44CD63 
  50      BFD8
  51 012d 0E83A3E6 		.ascii	"\016\203\243\346\236\037\376\0003v_\275"
  51      9E1FFE00 
  51      33765FBD 
  52              		.text
  53              		.section	.gnu.lto_chPoolLoadArray.951f746ee2a16c03,"",%progbits
  54 0000 789C9555 		.ascii	"x\234\225U]HTA\024>g\346\336\3355\205\354\321\036l1"
  54      5D485441 
  54      143E67E6 
  54      DEDD3585 
  54      ECD11E6C 
  55 0015 0B33717D 		.ascii	"\0133q}+\210\240\020B\037|P\013B\270\211\336n\254\341"
  55      2B88A010 
  55      421F7C50 
  55      0B42B889 
  55      DE6EACE1 
  56 0029 BACBAE8A 		.ascii	"\272\313\256\212\275\344\266\372`\221`\321\203\212B"
  56      BDE4B6FA 
  56      609160D1 
  56      838A42
  57 0038 66D8BFB1 		.ascii	"f\330\277\261\006\005A\026\225\011f\022$\342[\202B "
  57      06054116 
  57      95096612 
  57      24E25B82 
  57      4220
  58 004a 3DF5D453 		.ascii	"=\365\324Svf\346\356\272?W\333f\367\3363\367\316w\276"
ARM GAS  /tmp/ccV3l6aC.s 			page 4


  58      7666E6EE 
  58      BA3F57DB 
  58      66F7DE33 
  58      F7CE77BE 
  59 005e 73E69B99 		.ascii	"s\346\233\231s\031 \375\262\333I\272N\270\001\276\222"
  59      731920FD 
  59      B2DB49BA 
  59      4EB801BE 
  59      92
  60 006f 4517201B 		.ascii	"E\027 \033Z\002\270\346e\250\251\016W\235\011\257\306"
  60      5A02B8E6 
  60      65A8A90E 
  60      579D09AF 
  60      C6
  61 0080 F8CD7980 		.ascii	"\370\315y\200h\231\336\357\206h\225\216(\336\023g/\343"
  61      6899DEEF 
  61      8668958E 
  61      28DE1367 
  61      2FE3
  62 0092 9A8EBDE7 		.ascii	"\232\216\275\347$;+\201\211h\364\366\320\207XMlmk\353"
  62      243B2B81 
  62      8968F4F6 
  62      D087584D 
  62      6C6D6BEB 
  63 00a6 8025DE36 		.ascii	"\200%\3366#,\254\256\027\024\201\205\010^\020\226\201"
  63      232CACAE 
  63      17148185 
  63      085E1096 
  63      81
  64 00b7 969E4796 		.ascii	"\226\236G\226\037\227~\213\3233\270\253\337\342\330"
  64      1F977E8B 
  64      D333B8AB 
  64      DFE2D8
  65 00c6 2FBE31EE 		.ascii	"/\2761\356z\313\336\255m\365\226\302\244 \351\213\326"
  65      7ACBDEAD 
  65      6DF596C2 
  65      A420E98B 
  65      D6
  66 00d7 58A83138 		.ascii	"X\25018\210\222b\354%\313\246`\251X\235\301a\211\375"
  66      889262EC 
  66      25CBA660 
  66      A9589DC1 
  66      6189FD
  67 00ea 9DEF108C 		.ascii	"\235\357\020\214\306!\025\355bP&\321\303{\035\321.\272"
  67      C62115ED 
  67      625026D1 
  67      C37B1DD1 
  67      2EBA
  68 00fc 34D88760 		.ascii	"4\330\207`\340},\005Fv\212,G\365\254\241z\326\311\336"
  68      E07D2C05 
  68      46768A2C 
  68      47F5ACA1 
  68      7AD6C9DE 
  69 0110 23EBA2F1 		.ascii	"#\353\242\361\273X\002n\033\357\261\361\005d'\350=5"
  69      BB58026E 
  69      1BEFB1F1 
  69      056427E8 
ARM GAS  /tmp/ccV3l6aC.s 			page 5


  69      3D35
  70 0122 1DFAA3D1 		.ascii	"\035\372\243\321Bl\223Qe\253\027\226\026\242\236\302"
  70      426C9351 
  70      65AB1796 
  70      16A29EC2 
  71 0132 92E50DA4 		.ascii	"\222\345\015\244\027\322\372\360O\3000\251&\245k\253"
  71      17D2FAF0 
  71      4FC030A9 
  71      26A56BAB 
  72 0142 A9193849 		.ascii	"\251\0318IPr\367\357*\247Is\205\0358H\245r\225\301?"
  72      5072F7EF 
  72      2AA74973 
  72      851D3848 
  72      A57295C1 
  73 0157 285051A8 		.ascii	"(PQ\250\254\231\201\217i\026\006>\222\367\207\"@\312"
  73      AC99818F 
  73      6916063E 
  73      92F78722 
  73      40CA
  74 0169 823BA488 		.ascii	"\202;\244\210\177F\277m8,\231S\232\006>\245nv\252\006"
  74      7F46BF6D 
  74      382C9953 
  74      9A063EA5 
  74      6E76AA06 
  75 017d 3E515CFF 		.ascii	">Q\\\377\225+\244\033E\236\321\262b\271\031\234\025"
  75      952BA41B 
  75      459ED1B2 
  75      62B9199C 
  75      15
  76 018e B2B0CDC1 		.ascii	"\262\260\315\301x\361\256\321\304K7\015\002|\206\030"
  76      78F1AED1 
  76      C44B370D 
  76      027C8618 
  77 019e CEDC1959 		.ascii	"\316\334\031Y?\236\031\360yZ@qd\343\264\262\264\306"
  77      3F9E19F0 
  77      795A4071 
  77      64E3B4B2 
  77      B4C6
  78 01b0 F206500C 		.ascii	"\362\006P\014\357q<:|\312BO\032arx\316\036\316\223\004"
  78      EF713C3A 
  78      7CCA424F 
  78      1A617278 
  78      CE1ECE93 
  79 01c5 4AA2B893 		.ascii	"J\242\270\223DI\271\331\302\365\007<W\265\035\251\222"
  79      4449B9D9 
  79      C2F5073C 
  79      57B51DA9 
  79      92
  80 01d6 6AB3DCD4 		.ascii	"j\263\334\324\336x6k\013\216Y\\\234\301\027\314a\227"
  80      DE78366B 
  80      0B8E595C 
  80      9CC117CC 
  80      6197
  81 01e8 25158BA7 		.ascii	"%\025\213\247)f\340,q\312@\013\020k\022\345\303\300"
  81      2966E02C 
  81      71CA400B 
  81      106B12E5 
ARM GAS  /tmp/ccV3l6aC.s 			page 6


  81      C3C0
  82 01fa 370431B1 		.ascii	"7\0041\261\340(\224\023?\037\205\021\264p\017\243Y\025"
  82      E0289413 
  82      3F1F8511 
  82      B4700FA3 
  82      5915
  83 020c C9930AB2 		.ascii	"\311\223\012\2620^\330\256\216\344Y;\240+\2774\247|"
  83      305ED8AE 
  83      8EE4593B 
  83      A02BBF34 
  83      A77C
  84 021e 7292E588 		.ascii	"r\222\345\210'\235\350\356\227S+P~\313\323W\035\034"
  84      279DE8EE 
  84      97532B50 
  84      7ECBD357 
  84      1D1C
  85 0230 9DA39DCF 		.ascii	"\235\243\235\317a\007\306s\331\201\006\276P\207{s\360"
  85      6107C673 
  85      D98106BE 
  85      50877B73 
  85      F0
  86 0241 D6F78A1C 		.ascii	"\326\367\212\034\366 \354\270\007I\256\005yP\347w\332"
  86      F620ECB8 
  86      0749AE05 
  86      7950E777 
  86      DA
  87 0252 8906BEA2 		.ascii	"\211\006\276\242\3166\217\275\365\014|\215\305\011\371"
  87      CE368FBD 
  87      F50C7C8D 
  87      C509F9
  88 0261 9AA8DE97 		.ascii	"\232\250\336\227\252\303n\242KJ\341r\222b5OjA\004\303"
  88      AAC36EA2 
  88      4B4AE172 
  88      9262354F 
  88      6A4104C3 
  89 0275 79B66FDF 		.ascii	"y\266o\337\015\336\223\360t\223:\344/\005\262k\207\252"
  89      0DDE93F0 
  89      74933AE4 
  89      2F05B26B 
  89      87AA
  90 0287 91A6884D 		.ascii	"\221\246\210M\330\001\276<\276?\201\366\230(\253\206"
  90      D801BE3C 
  90      BE3F81F6 
  90      9828AB86 
  91 0297 4B2A9CEA 		.ascii	"K*\234\3522%]<j*\015\024Y|\273\354R\231\030e\211\272"
  91      32255D3C 
  91      6A2A0D14 
  91      597CBBEC 
  91      52991865 
  92 02ad 978840DD 		.ascii	"\227\210@\3359\350\377\201?\307.%\"\330\364\333m\005"
  92      39E8FF81 
  92      3FC72E25 
  92      22D8F4DB 
  92      6D05
  93 02bf 283FCEE8 		.ascii	"(?\316\350\346\346\037\307\213W\200&\247\211G\217HL"
  93      E6E61FC7 
  93      8B578026 
ARM GAS  /tmp/ccV3l6aC.s 			page 7


  93      A789478F 
  93      484C
  94 02d1 C4D26579 		.ascii	"\304\322ey^\002\244\217TJ\365\003Q\302Q\214\011\361"
  94      5E02A48F 
  94      544AF503 
  94      51C2518C 
  94      09F1
  95 02e3 BC95953E 		.ascii	"\274\225\225>\365\017F|\341N_$l\372L\177\300\012\204"
  95      F50F467C 
  95      E14E5F24 
  95      6CFA4C7F 
  95      C00A84
  96 02f6 82C1F648 		.ascii	"\202\301\366H\245\011,\020\302\020vh\301\326\313\241"
  96      A5092C10 
  96      C2107668 
  96      C1D6CBA1 
  97 0306 D20C705B 		.ascii	"\322\014p[\207\331\336u\321Ju\360\203\336\335\322\336"
  97      87D9DE75 
  97      D14A75F0 
  97      83DEDDD2 
  97      DE
  98 0317 651DC980 		.ascii	"e\035\311\200\206\202\341\316\210\357tC]u]\017\341\315"
  98      8682E1CE 
  98      88EF7443 
  98      5D755D0F 
  98      E1CD
  99 0329 60D86AEE 		.ascii	"`\330j\356>\026 |E*\322\352\351\364U\3275\3266ns\013"
  99      3E16207C 
  99      452AD2EA 
  99      E9F455D7 
  99      35D6366E 
 100 033f A41938D3 		.ascii	"\244\0318\323\325a\022\270\260\256\261\301\333\332\022"
 100      D56112B8 
 100      B0AEB1C1 
 100      DBDA12
 101 034e B142E1B6 		.ascii	"\261B\341\266\012\357\241*`apS\360`\370\012\360\220"
 101      0AEFA12A 
 101      60617053 
 101      F060F80A 
 101      F090
 102 0360 3FF417F6 		.ascii	"?\364\027\366\326\222-"
 102      D6922D
 103              		.text
 104              		.section	.gnu.lto_chPoolAllocI.951f746ee2a16c03,"",%progbits
 105 0000 789C9552 		.ascii	"x\234\225R\277k\024Q\020\236\231\267\357\355\255A\275"
 105      BF6B1451 
 105      109E99B7 
 105      EFEDAD41 
 105      BD
 106 0011 4AD0C623 		.ascii	"J\320\306#\246\010\021\356\374\007\322+\251<\260\021"
 106      A60811EE 
 106      FC07D22B 
 106      A93CB011 
 107 0021 2E429615 		.ascii	".B\226\025\015\036w\344,\304\346\3263\205v\301\312$"
 107      0D1E77E4 
 107      2CC4E6D6 
 107      338576C1 
ARM GAS  /tmp/ccV3l6aC.s 			page 8


 107      CA24
 108 0033 84254664 		.ascii	"\204%Fd\323X\247R\301S$\034)\255\024RDL\225&I\223\346"
 108      D358A752 
 108      C153241C 
 108      29AD1452 
 108      444C9526 
 109 004a 32F3F6DE 		.ascii	"2\363\366\336\351\351E\314\376\340{;;\337\367\315\233"
 109      E9E945CC 
 109      FEE07B3B 
 109      3BDFF7CD 
 109      9B
 110 005b 7904C8F7 		.ascii	"y\004\310\367\337\327\024\277\337\025\300\004#\372\200"
 110      DFD714BF 
 110      DF15C004 
 110      23FA80
 111 006a B4B005F0 		.ascii	"\264\260\005\360\244@\244V&!\036\367\366\363\020_Sh"
 111      A440A456 
 111      26211EF7 
 111      F6F3105F 
 111      5368
 112 007c B2B0477A 		.ascii	"\262\260GzY\302\346P\302\332\205\015\242,\330\240I\312"
 112      59C2E650 
 112      C2DA850D 
 112      A22CD8A0 
 112      49CA
 113 008e D3069BB7 		.ascii	"\323\006\233\267\254\227\036\205\3258~\261\360\261u"
 113      AC971E85 
 113      D5387EB1 
 113      F0B175
 114 009d BDB5DDED 		.ascii	"\275\265\335\355^\216$z\007a\363\371\217\013\027!B\204"
 114      5E8E247A 
 114      0761F3F9 
 114      8F0B1721 
 114      4284
 115 00af 02081278 		.ascii	"\002\010\022x\203U\235\300\333\365O\307R\226\365-}|"
 115      83559DC0 
 115      DBF54FC7 
 115      5296F52D 
 115      7D7C
 116 00c1 3A9A6769 		.ascii	":\232gi;\351\036\376\017\357i\354x\232\340\012\012\265"
 116      3BE91EFE 
 116      0FEF69EC 
 116      789AE00A 
 116      0AB5
 117 00d3 93DCFD27 		.ascii	"\223\334\375'\263\235\274\243\316\272yO\037\266\273"
 117      B39DBCA3 
 117      CEBA794F 
 117      1FB6BB
 118 00e2 CD3158EB 		.ascii	"\3151X\353\311Dh\010\306\255B;yKC$8\003\316#T\3605\216"
 118      C9446808 
 118      C6AD423B 
 118      794B4324 
 118      3803CE23 
 119 00fa 026105DF 		.ascii	"\002a\005\337\340\030\250\336\267f\\e4\214\257\030s"
 119      E018A8DE 
 119      B7665C65 
 119      348CAF18 
ARM GAS  /tmp/ccV3l6aC.s 			page 9


 119      73
 120 010b 8C6B8C41 		.ascii	"\214k\214A\357\277\014\004\346\3438O\331\367}\353d\257"
 120      EFBF0C04 
 120      E6E3384F 
 120      D9F77DEB 
 120      64AF
 121 011d 9B8232C2 		.ascii	"\233\2022\3022;\311BmB\353\366A2S\301\0245\204\250\256"
 121      323BC942 
 121      6D42EBF6 
 121      413253C1 
 121      143584A8 
 122 0132 C2044F41 		.ascii	"\302\004OA-\301\"F\350S\210\266<\303\264/\334e\230\376"
 122      2DC12246 
 122      E85388B6 
 122      3CC3B42F 
 122      DC6598FE 
 123 0146 75B63E03 		.ascii	"u\266>\003=S\031/\363\011e\016\237`\376'\266\323K}A"
 123      3D53192F 
 123      F309650E 
 123      9F60FE27 
 123      B6D34B7D 
 124 015b A1EB81AE 		.ascii	"\241\353\201\256\224%oe\322Zw\322#t\251z\300;G=\262"
 124      94256F65 
 124      D25A77D2 
 124      2374A97A 
 124      C03B473D 
 125 0170 A34D637F 		.ascii	"\243Mc\177\311\314\033/u\306;\271\340G\277\327\033\272"
 125      C9CC1B2F 
 125      75C63BB9 
 125      E047BFD7 
 125      1BBA
 126 0182 22CA32F6 		.ascii	"\"\3122\366\375\274u\347\023\343\314\215\325\011\206"
 126      FDBC75E7 
 126      13E3CC8D 
 126      D50986
 127 0191 E964E6E4 		.ascii	"\351d\346\344\314\355\0167T\237(i\301\037\033d\257\344"
 127      CCED0E37 
 127      549F2869 
 127      C11F1B64 
 127      AFE4
 128 01a3 ACB590D3 		.ascii	"\254\265\220\323\345Rs\326\343\3140\217]\337\232pc6"
 128      E55273D6 
 128      E3CC308F 
 128      5DDF9A70 
 128      6336
 129 01b5 7CABD101 		.ascii	"|\253\321\001/\355{\004\241$\261@\204#\266\3610\330"
 129      2FED7B04 
 129      A124B140 
 129      8423B6F1 
 129      30D8
 130 01c7 F7C0F99A 		.ascii	"\367\300\371\232l\250\234\301\373v\177y\271\005\330"
 130      6CA89CC1 
 130      FB767F79 
 130      B905D8
 131 01d6 5E3FE7E4 		.ascii	"^?\347\344lO\276\002r\203\025\317\236\301\023\021\275"
 131      6C4FBE02 
 131      728315CF 
ARM GAS  /tmp/ccV3l6aC.s 			page 10


 131      9EC11311 
 131      BD
 132 01e7 93CECA11 		.ascii	"\223\316\312\021A+\"\373-\024\213\245\354\2515Js\017"
 132      412B22FB 
 132      2D148BA5 
 132      ECA9354A 
 132      730F
 133 01f9 4B8DB9B0 		.ascii	"K\215\271\260\024\336\253F\325z\255\366\240Q\014\301"
 133      14DEAB46 
 133      D57AADF6 
 133      A0510CC1 
 134 0209 ABCDCCD6 		.ascii	"\253\315\314\326\251Z?\006\005\021\317G"
 134      A95A3F06 
 134      0511CF47 
 135              		.text
 136              		.section	.gnu.lto_chPoolAlloc.951f746ee2a16c03,"",%progbits
 137 0000 789C9554 		.ascii	"x\234\225TML\023Q\020\236y\373SJ[\323\203\027<`C0A!"
 137      4D4C1351 
 137      109E79FB 
 137      534A5BD3 
 137      83173C60 
 138 0018 2D37BD90 		.ascii	"-7\275\220hH\214\304\364`\211\027\223\225\320u\015\020"
 138      68488CC4 
 138      F4608917 
 138      9395D075 
 138      0D10
 139 002a 4A9B1608 		.ascii	"J\233\026\010za\255\034H\210\011\361\004*\251\210bS"
 139      7A61AD1C 
 139      488809F1 
 139      042AA988 
 139      6253
 140 003c A226FEC5 		.ascii	"\242&\376\305\030\0235\242\007m8z2\304D\210\027\302"
 140      181335A2 
 140      076D387A 
 140      32C44488 
 140      17C2
 141 004e 053CE805 		.ascii	"\005<\350\005\347\275\335mYJ\011\274\376\314\366\275"
 141      E7BDDD6D 
 141      594A09BC 
 141      FECCF6BD 
 142 005e F9E69B6F 		.ascii	"\371\346\233o\336L\031 \275*\327y\3720\025`\216,z\000"
 142      DE4C1920 
 142      BD2AD779 
 142      FA301560 
 142      8E2C7A00 
 143 0072 D9E412C0 		.ascii	"\331\344\022\300\215\020c\322L\033\230M\362F\020\314"
 143      8D1063D2 
 143      4C1B984D 
 143      F24610CC 
 144 0082 5609556B 		.ascii	"V\011Uk[f\312]\276\255\376\341\333\212\263\255\"\362"
 144      5B66CA5D 
 144      BEADFEE1 
 144      DB8AB3AD 
 144      22F2
 145 0094 07221865 		.ascii	"\007\"\030e\222\254\2508zQp\311\0150k\232\267'o\232"
 145      92ACA838 
 145      7A5170C9 
ARM GAS  /tmp/ccV3l6aC.s 			page 11


 145      0D306B9A 
 145      B7276F9A 
 146 00a8 E7B23FB7 		.ascii	"\347\262?\267\266\216\032\010\014\030B\027\302\362\323"
 146      B68E1A08 
 146      0C184217 
 146      C2F2D3
 147 00b7 557F1D18 		.ascii	"U\177\035\030\210\020\002n\031\310\356\304l\350\247"
 147      8810026E 
 147      19C8EEC4 
 147      6CE8A7
 148 00c6 AC039580 		.ascii	"\254\003\225\200\343V\362\353x0\234,p?\362\327\017\006"
 148      E356F2EB 
 148      78309C2C 
 148      703FF2D7 
 148      0F06
 149 00d8 5304AC98 		.ascii	"S\004\254\230\377\2677\335Z\341-[[P\337\263\017?\267"
 149      FFB737DD 
 149      5AE12D5B 
 149      5B50DFB3 
 149      0F3FB7
 150 00eb 461B61CE 		.ascii	"F\033a\316\226k\240\312\240I(]+\024\330.!\310\003\016"
 150      966BA0CA 
 150      A049285D 
 150      2B14D82E 
 150      21C8030E 
 151 00ff 236AF808 		.ascii	"#j\370\010\033\241\0064\274\217\015\340%\373\220l-\331"
 151      1BA10634 
 151      BC8F0DE0 
 151      25FB906C 
 151      2DD9
 152 0111 39B23EB2 		.ascii	"9\262>\262\017\310\372\355\363\200mi)0f\232A\264~w\331"
 152      0FC8FAED 
 152      F3806D69 
 152      2930669A 
 152      41B47E77 
 153 0126 577B815B 		.ascii	"W{\201[~\0251\242\341\017\322\027\252\267\345j#(\302"
 153      7E1531A2 
 153      E10FD217 
 153      AAB7E56A 
 153      2328C2
 154 0139 632E6EA7 		.ascii	"c.n\247\362\362\035y\0304\213\314\347'6VwK\275\274\370"
 154      F2F21D79 
 154      18348BCC 
 154      E7273656 
 154      774BBDBC 
 155 014e A6870E01 		.ascii	"\246\207\016\001\276A\026\327oM\377:\345\"\243\364\012"
 155      BE4116D7 
 155      6F4DFF3A 
 155      E522A3F4 
 155      0A
 156 015f 949E8679 		.ascii	"\224\236\206y\027%o\305q\272P\312Q|\001\324\3034\316"
 156      17256FC5 
 156      71BA50CA 
 156      517C01D4 
 156      C334CE
 157 0172 9853A70D 		.ascii	"\230S\247\015\254q\205-\035\337\263\217\275\"\000W\265"
 157      AC71852D 
ARM GAS  /tmp/ccV3l6aC.s 			page 12


 157      1DDFB38F 
 157      BD220057 
 157      B5
 158 0183 4BE6AA86 		.ascii	"K\346\252\206\363\224$o\257'\253\322\236\231\353t\004"
 158      F394246F 
 158      AF27ABD2 
 158      9E99EB74 
 158      04
 159 0194 5F217B69 		.ascii	"_!{i3\027\267s\255lV\015g\255p\305\334\325=\243\225"
 159      3317B773 
 159      AD6C560D 
 159      67AD70C5 
 159      DCD53DA3 
 160 01a9 D4BE106A 		.ascii	"\324\276\020j\335\005\326\261\246\031NPGIwH\245\201"
 160      DD05D6B1 
 160      A6194E50 
 160      47497748 
 160      A581
 161 01bb B58CC8EB 		.ascii	"\265\214\310\353D\003\200\230\311\313\374k3\227v\244"
 161      44038098 
 161      C9CBFC6B 
 161      339776A4 
 162 01cb 8D4B1ABE 		.ascii	"\215K\032\276\244\020\032\276\242p:/\311g\030\373\215"
 162      A4101ABE 
 162      A2703A2F 
 162      C96718FB 
 162      8D
 163 01dc 8BF923D6 		.ascii	"\213\371#\326\001mq\274;\207\030\237\220\2316\211\213"
 163      016D71BC 
 163      3B87189F 
 163      90993689 
 163      8B
 164 01ed E26DEBB8 		.ascii	"\342m\353\270z]\344>f\203\225\022y)\016!;\246\024\013"
 164      7A5DE43E 
 164      66839512 
 164      79290E21 
 164      3BA6140B 
 165 0201 B78F8C47 		.ascii	"\267\217\214G\2046\257\303N%\331\010\012v\2325\207\274"
 165      8436AFC3 
 165      4E25D908 
 165      0A769A35 
 165      87BC
 166 0213 56C4F157 		.ascii	"V\304\361W\217\303\034r\241\360\215T\002r7\377\016\201"
 166      8FC31C72 
 166      A1F08D54 
 166      027237FF 
 166      0E81
 167 0225 94732E20 		.ascii	"\224s. (\370\337\200\343\352\023\034\201\352\034\222"
 167      28F8DF80 
 167      E3EA131C 
 167      81EA1C92 
 168 0235 13A10872 		.ascii	"\023\241\010r\276\304\340'\022.\300g\340!QvpW\335\357"
 168      BEC4E027 
 168      122EC067 
 168      E0215176 
 168      7057DDEF 
 169 0249 B0AAE549 		.ascii	"\260\252\345I\322\360\3656\217\200\200\025\027\342\326"
ARM GAS  /tmp/ccV3l6aC.s 			page 13


 169      D2F0F536 
 169      8F808015 
 169      17E2D6
 170 0258 8D974613 		.ascii	"\215\227F\023*\207\256\312\354\211U9\200\032.X}7?\361"
 170      2A87AECA 
 170      EC895539 
 170      801A2E58 
 170      7D373FF1 
 171 026c 775F13C8 		.ascii	"w_\023\310W\325\011\\\024=\371\261\332\004j\370\214"
 171      57D5095C 
 171      143DF9B1 
 171      DA046AF8 
 171      8C
 172 027d 1ECA71EC 		.ascii	"\036\312q\354\221\323\3609\326\213\215%\300\345w\212"
 172      91D3F039 
 172      D68B8D25 
 172      C0E5778A 
 173 028d 95BA100D 		.ascii	"\225\272\020\015\360\035\002\324F\022\315\016\031\231"
 173      F01D02D4 
 173      4612CD0E 
 173      1999
 174 029b 174B59C9 		.ascii	"\027KY\311\367\361\377\037\024\305\342\021\344d\274"
 174      F7F1FF1F 
 174      14C5E211 
 174      E464BC
 175 02aa 2F150A87 		.ascii	"/\025\012\207#\326;\231\211\244\007#\231\264\036\321"
 175      23D63B99 
 175      89A40723 
 175      99B41ED1 
 176 02ba 7B124622 		.ascii	"{\022F\"\225L\366g\302:\260DJ\031\356\356\0372\216\357"
 176      954CF667 
 176      C23AB044 
 176      4A19EEEE 
 176      1F328EEF 
 177 02ce F04C25D3 		.ascii	"\360L%\323\203\231\310\231X\264=:B\020=\2316\272\206"
 177      8399C899 
 177      58B43D3A 
 177      42103D99 
 177      36BA86
 178 02e1 4F26C23D 		.ascii	"O&\302=\320\262\335\323\030\031\214\264G;;:#\275\003"
 178      D0B2DDD3 
 178      18198CB4 
 178      473B3B3A 
 178      23BD03
 179 02f4 7AFFD015 		.ascii	"z\377\320\025#\"<\365\304\331\241\001\235\234\203\321"
 179      23223CF5 
 179      C4D9A101 
 179      9D9C83D1 
 180 0304 CE5828DE 		.ascii	"\316X(\336\2351R\351\336\226\320\261V`i\360\020\177"
 180      9D3152E9 
 180      DE96D0B1 
 180      566069F0 
 180      107F
 181 0316 327D0DFE 		.ascii	"2}\015\376\003*2V\012"
 181      032A3256 
 181      0A
 182              		.text
ARM GAS  /tmp/ccV3l6aC.s 			page 14


 183              		.section	.gnu.lto_chPoolFreeI.951f746ee2a16c03,"",%progbits
 184 0000 789C7D91 		.ascii	"x\234}\2211K\303P\020\307\377w/)\202\010NB'K\025\204"
 184      314BC350 
 184      10C7FF77 
 184      2F298208 
 184      4E42274B 
 185 0016 0AC9D7D0 		.ascii	"\012\311\327\320\261\202 B\024\014\201*\226\204\326"
 185      B1822042 
 185      140C812A 
 185      9684D6
 186 0025 D9C6EAE0 		.ascii	"\331\306\352\340X\334t\262\224\352\324\016NN*\010\016"
 186      58DC74B2 
 186      94EAD40E 
 186      4E4E2A08 
 186      0E
 187 0036 453A3976 		.ascii	"E:9v\350\340\342\247\250\367^\242\266\264x\311\343^"
 187      E8E0E2A7 
 187      A8F75EA2 
 187      B6B478C9 
 187      E35E
 188 0048 72F7FBDF 		.ascii	"r\367\373\337\273{\014\222g\332\262\262\026\030p\304"
 188      BB7B0C92 
 188      67DAB2B2 
 188      161870C4 
 189 0058 930271A3 		.ascii	"\223\002q\243\017\234\345\230Ho\004\2511\325\266\015"
 189      0F9CE598 
 189      486F04A9 
 189      31D5B60D 
 190 0068 C97934E3 		.ascii	"\311y4\343\370\252\361Z\337\250\017G\243\345@\377\335"
 190      F8AAF15A 
 190      DFA80F47 
 190      A3E540FF 
 190      DD
 191 0079 27F4BEDA 		.ascii	"'\364\276\332KY\004D\310A{\2065Y#\345\316\343_\216\261"
 191      4B590444 
 191      C8417B86 
 191      355923E5 
 191      CEE35F8E 
 192 008e 421AFDEC 		.ascii	"B\032\375\354<\321\277\350\240s\247\006\335\3143\277"
 192      3CD1BFE8 
 192      A073A706 
 192      DDCC33BF 
 193 009e 0C47B555 		.ascii	"\014G\265U\264R\235\200\024c\315HH\006OK\320x\256\305"
 193      B4529D80 
 193      1463CD48 
 193      48064F4B 
 193      D078AEC5 
 194 00b2 2898DCC7 		.ascii	"(\230\334\307\371\031\305$.Ka\216\310\243\266\200J|"
 194      F919C524 
 194      2E4B618E 
 194      C8A3B680 
 194      4A7C
 195 00c4 4BBC058F 		.ascii	"K\274\005\217n)\257sl\\\304\361\"{\324\224\357C\243"
 195      6E29AF73 
 195      6C5CC4F1 
 195      227BD494 
 195      EF43A3
ARM GAS  /tmp/ccV3l6aC.s 			page 15


 196 00d7 65ACA8BD 		.ascii	"e\254\250\275\036\324\226\250\351\215z\003\353\246<"
 196      1ED496A8 
 196      E98D7A03 
 196      EBA63C
 197 00e6 BA271B49 		.ascii	"\272'\033I\276/\025\321C}\367\275\373\220\006|\262\326"
 197      BE2F15D1 
 197      437DF7BD 
 197      FB90067C 
 197      B2D6
 198 00f8 519041A8 		.ascii	"Q\220A\250\033\\S@6\373\244\262\346\030\211\355\375"
 198      1B5C5340 
 198      36FBA4B2 
 198      E61889ED 
 198      FD
 199 0109 DD95909B 		.ascii	"\335\225\220\233\227v\302M@\031\201\314\364tV\311@)"
 199      9776C24D 
 199      401981CC 
 199      F47456C9 
 199      4029
 200 011b 25F209F7 		.ascii	"%\362\011\367\321=\235\001NT\333\031\257f\216\332\007"
 200      D13D9D01 
 200      4E54DB19 
 200      AF668EDA 
 200      07
 201 012c C9C813EE 		.ascii	"\311\310\023\356\307\212: \375I\227\3109\216\233\274"
 201      C78A3A20 
 201      FD4997C8 
 201      398E9BBC 
 202 013c 61D5AD9C 		.ascii	"a\325\255\234\270\325\212\357\372\245rP\216\302\360"
 202      B8D58AEF 
 202      FAA57250 
 202      8EC2F0
 203 014b B8EAF850 		.ascii	"\270\352\370PQ)\342rd\205\007G\3217]\025rB"
 203      5129E272 
 203      64850747 
 203      D1375D15 
 203      7242
 204              		.text
 205              		.section	.gnu.lto_chPoolFree.951f746ee2a16c03,"",%progbits
 206 0000 789C8D53 		.ascii	"x\234\215S\317O\023A\024~o\266e5z\340d\322\013l\374"
 206      CF4F1341 
 206      147E6FB6 
 206      65357AE0 
 206      64D20B6C 
 207 0015 9528A4EB 		.ascii	"\225(\244\353M\217\032\022\003\207\036hCbLF\002\353"
 207      4D8F1A12 
 207      03871E68 
 207      43624C46 
 207      02EB
 208 0027 C4625A76 		.ascii	"\304bZv\263\333\022\274\320\265z\300\020\015\361$F\023"
 208      B3DB12BC 
 208      D0B57AC0 
 208      100DF124 
 208      4613
 209 0039 F955F000 		.ascii	"\371U\360\000Q\364\300E%1\361P\011'\377\000\022\365"
 209      51F4C045 
 209      2531F150 
ARM GAS  /tmp/ccV3l6aC.s 			page 16


 209      0927FF00 
 209      12F5
 210 004b E0C58B5E 		.ascii	"\340\305\213^<\2257\263\033\332\245-8\355\316\233\314"
 210      3C9537B3 
 210      1BDAA52D 
 210      38EDCE9B 
 210      CC
 211 005c BCEF7BDF 		.ascii	"\274\357{\337{\363\206\001\322\257y$\350\033\212\001"
 211      7BF38601 
 211      D2AF7924 
 211      E81B8A01 
 212 006c AC90450D 		.ascii	"\254\220E\015\220\315\356\000\3347\030\242\\\020\244"
 212      90CDEE00 
 212      DC3718A2 
 212      5C10A4
 213 007b C4B034A4 		.ascii	"\304\2604\244\220x\032\346}\377\351\354\347r\177y\267"
 213      90781AE6 
 213      7DFFE9EC 
 213      E7727F79 
 213      B7
 214 008c 56EB1672 		.ascii	"V\353\026rw\030\241\372k\371T\002\004\"\030 -\203X4"
 214      7718A1FA 
 214      6BF95402 
 214      04221820 
 214      2D835834 
 215 00a0 C6F6E682 		.ascii	"\306\366\346\202\366w\263\343\023\333\332\255\225\316"
 215      F677B3E3 
 215      13DBDAAD 
 215      95CE
 216 00ae C2A22479 		.ascii	"\302\242$y\340\367\013\324\030\234AIA\036\254\231\002"
 216      E0F70BD4 
 216      189C4149 
 216      411EAC99 
 216      02
 217 00bf 1B7D630C 		.ascii	"\033}c\014\316+\337\325\023-\202\3219}\032\234D\344"
 217      CE2BDFD5 
 217      132D82D1 
 217      397D1A9C 
 217      44E4
 218 00d1 384F4046 		.ascii	"8O@Fv\221\254\016\034_\221r\032qx\350\373\235\222B\215"
 218      7691AC0E 
 218      1C5F9172 
 218      1A7178E8 
 218      FB9D9242 
 219 00e6 41696592 		.ascii	"Aie\222i\"\221\013\355\013\241B\247\320p\\\246\235\372"
 219      6922910B 
 219      ED0BA142 
 219      A7D0705C 
 219      A69DFA
 220 00f9 082B4082 		.ascii	"\010+@\202\302\012\304\031\364(U\225\231??[\244\020"
 220      C20AC419 
 220      F4285595 
 220      993F3F5B 
 220      A410
 221 010b A934B9D3 		.ascii	"\2514\271\323!\300W(\343\357\307s\337\257D\202\221\340"
 221      21C05728 
 221      E3EFC773 
ARM GAS  /tmp/ccV3l6aC.s 			page 17


 221      DFAF4482 
 221      91E0
 222 011d 5512CAB1 		.ascii	"U\022\312\261\022\011)\257m\2322#\215j\002\350\2029"
 222      120929AF 
 222      6D9A3223 
 222      8D6A02E8 
 222      8239
 223 012f 7CE93FBB 		.ascii	"|\351?\273*\260#B\273\177\374\"<\326\025\201\314\252"
 223      2AB02342 
 223      BB7FFC22 
 223      3CD61581 
 223      CCAA
 224 0141 85728DE3 		.ascii	"\205r\215\343\002\211\224\367\367hE;T\271EG\355hb\034"
 224      028994F7 
 224      F768453B 
 224      54B94547 
 224      ED68621C 
 225 0155 97021A38 		.ascii	"\227\002\0328\202\203)\216\037k\037\303\032c\023\027"
 225      8283298E 
 225      1F6B1FC3 
 225      1A631317 
 226 0165 E95F423C 		.ascii	"\351_B<\232+\3003\216\033\252^o\325\034\275(\216\357"
 226      9A2BC033 
 226      8E1BAA5E 
 226      6FD51CBD 
 226      288EEF
 227 0178 695705AD 		.ascii	"iW\005\255B\371\346\366\372\006\225\367\035\271X\250"
 227      42F9E6F6 
 227      FA0695F7 
 227      1DB958A8 
 228 0188 F7C0458A 		.ascii	"\367\300E\212\245=\2472\012<\306(\273\204\352\035P\017"
 228      A53DA732 
 228      0A3CC628 
 228      BB84EA1D 
 228      500F
 229 019a E456FD95 		.ascii	"\344V\375\225\020r`:\036\340\"\240\343\004R\227\015"
 229      1072603A 
 229      1EE022A0 
 229      E3045297 
 229      0D
 230 01ab FB209AB3 		.ascii	"\373 \232\263*M=\300}[\237j\001l\035\355FC}\0164`\233"
 230      2A4D3DC0 
 230      7D5B9F6A 
 230      016C1DED 
 230      46437D0E 
 231 01c2 3E6CD38C 		.ascii	">l\323\214\034_\007wQ\231\371\367_\335\010\207u\343"
 231      1C5F0777 
 231      5199F9F7 
 231      5FDD0887 
 231      75E3
 232 01d4 96AAEB87 		.ascii	"\226\252\353\207v\335\310q\215\026u\236\260\3758\276"
 232      76DDC871 
 232      8D16759E 
 232      B0FD38BE 
 233 01e4 C12EB5B1 		.ascii	"\301.\265\261\003X}r'*}P\026\212\336\232t5\222I3\370"
 233      03587D72 
 233      272A7D50 
ARM GAS  /tmp/ccV3l6aC.s 			page 18


 233      168ADE9A 
 233      74359249 
 234 01fa DB9EE916 		.ascii	"\333\236\351\026L\317\265L+\233\027y\307\266s^\322\002"
 234      4CCFB54C 
 234      2B9B1779 
 234      C7B6735E 
 234      D202
 235 020c 967762F6 		.ascii	"\226wb\366\350]'>1\222+\212\013\007\334\035\333-x\346"
 235      E85D273E 
 235      31922B8A 
 235      0B07DC1D 
 235      DB2D78E6 
 236 0220 B574AA2F 		.ascii	"\265t\252/5I8\313v\305\360\304\345|2\013\275\215\236"
 236      354938CB 
 236      76C5F0C4 
 236      E57C320B 
 236      BD8D9E
 237 0233 62B260F6 		.ascii	"b\262`\366\2452\003\031sl\334\312\025o\013SyZ\371\353"
 237      A5320319 
 237      736CDCCA 
 237      156F0B53 
 237      795AF9EB 
 238 0247 C5718B9C 		.ascii	"\305q\213\234;S\231\2641:\342\011\307\035\3535\316]"
 238      3B5399B4 
 238      313AE209 
 238      C71DEB35 
 238      CE5D
 239 0259 02E6824E 		.ascii	"\002\346\202N\"l\367\036hN\326\331\003Z\310\372N"
 239      226CF71E 
 239      684ED6D9 
 239      035AC8FA 
 239      4E
 240              		.text
 241              		.section	.gnu.lto_.cgraph.951f746ee2a16c03,"",%progbits
 242 0000 789C45C7 		.ascii	"x\234E\3071\022@P\020\004\321\231\331uS\367\230T\250"
 242      31124050 
 242      1004D199 
 242      D97553F7 
 242      9854A8
 243 0013 4AEE3842 		.ascii	"J\3568B'\221\360\021\023(\333I\327\023\210\000\320\343"
 243      2791F011 
 243      1328DB49 
 243      D7138800 
 243      D0E3
 244 0025 4B3B0D8C 		.ascii	"K;\015\214+\354y\240\016\232\245F\253t\322Q\272\350"
 244      2BEC79A0 
 244      0E9AA546 
 244      AB74D251 
 244      BAE8
 245 0037 2CDD74F7 		.ascii	",\335t\367+\205i\331\224\201\366\016\017\373K#H"
 245      2B8569D9 
 245      9481F60E 
 245      0FFB4B23 
 245      48
 246              		.text
 247              		.section	.gnu.lto_.vars.951f746ee2a16c03,"",%progbits
 248 0000 789C6362 		.ascii	"x\234cb`d`f`\000\222P\000\000\000r\000\010"
ARM GAS  /tmp/ccV3l6aC.s 			page 19


 248      60646066 
 248      60009250 
 248      00000072 
 248      0008
 249              		.text
 250              		.section	.gnu.lto_.refs.951f746ee2a16c03,"",%progbits
 251 0000 789C6362 		.ascii	"x\234cb`d`f```b\200\001\000\000\204\000\011"
 251      60646066 
 251      60606062 
 251      80010000 
 251      840009
 252              		.text
 253              		.section	.gnu.lto_.statics.951f746ee2a16c03,"",%progbits
 254 0000 789C6362 		.ascii	"x\234cb`d`b\300\016@\342\214\020&\000\000\375\000\011"
 254      60646062 
 254      C00E40E2 
 254      8C102600 
 254      00FD0009 
 255              		.text
 256              		.section	.gnu.lto_.decls.951f746ee2a16c03,"",%progbits
 257 0000 789C9D58 		.ascii	"x\234\235Xml\024E\030\236\231k{\275\336\365\003\022"
 257      6D6C1445 
 257      189E996B 
 257      7BBDDEF5 
 257      0312
 258 0012 4931C456 		.ascii	"I1\304V\005\023I\350! \360Cj\210\211\226\304(?4\321"
 258      051349E8 
 258      2120F043 
 258      6A888996 
 258      C4283F34 
 259 0027 1F9BF37A 		.ascii	"\037\233\363z\267pg\332\273\363z5\340\257M\015\330@"
 259      B77067DA 
 259      BBF37A35 
 259      E0AF4D0D 
 259      D840
 260 0039 D4536328 		.ascii	"\324Sc(\211\332#@\344\243`\200\230\226\0374U\010\266"
 260      89DA2340 
 260      E4A36080 
 260      98961F34 
 260      5508B6
 261 004c A622C654 		.ascii	"\246\"\306T1%i\023\211\226\210\212\370Q\202\225\363"
 261      31256913 
 261      8996888A 
 261      F8518295 
 261      F3
 262 005d 9DDDD9B9 		.ascii	"\235\335\331\271\331\335\233m\357&}og\367\346}\336\367"
 262      D9DD9B6D 
 262      EF267D6F 
 262      67F7E67D 
 262      DEF7
 263 006f 79E69DD9 		.ascii	"y\346\235\331\271\022\204\021m)\202P\036Z\335b\204\036"
 263      B9128411 
 263      6D298250 
 263      1E5ADD62 
 263      841E
 264 0081 86BE179E 		.ascii	"\206\276\027\236mB\205V\005\226\003\033\003\233\000"
 264      6D428556 
ARM GAS  /tmp/ccV3l6aC.s 			page 20


 264      0596031B 
 264      039B00
 265 0090 9B049B02 		.ascii	"\233\004\233\002\233A\316F\307Q\377\203`u`\001\2603"
 265      9B41CE46 
 265      C751FF83 
 265      60756001 
 265      B033
 266 00a2 604360C7 		.ascii	"`C`\307\301\016\201y\300\216\201\235\006\033\004\303"
 266      C10E8179 
 266      C08E819D 
 266      061B04C3 
 267 00b2 CC8F5E7F 		.ascii	"\314\217^\177\265\341\2151\214J\001\3578\303oe\330\263"
 267      B5E18D31 
 267      8C4A01EF 
 267      38C36F65 
 267      D8B3
 268 00c4 6077C0E6 		.ascii	"`w\300\346\030\376\200\020\343\023\026\307\303\260\356"
 268      18FE8010 
 268      E31316C7 
 268      C3B0EE
 269 00d3 B2BC692C 		.ascii	"\262\274i,\017\266\306\232\020\360\315X\347X\354V\026"
 269      0FB6C69A 
 269      10F0CD58 
 269      E758EC56 
 269      16
 270 00e4 D3C41F62 		.ascii	"\323\304\037b\261\317\202U\010\261\006Y<\314\360\350"
 270      B1CF8255 
 270      08B10659 
 270      3CCCF0E8 
 271 00f4 B5DA1687 		.ascii	"\265\332\026\207\352W\3170\3158\225,\226\311\255\030"
 271      EA57CF30 
 271      CD38952C 
 271      96C9AD18 
 272 0104 A785C49C 		.ascii	"\247\205\304\234D\316F\347\312k\343e\352gb\023\001\017"
 272      44CE46E7 
 272      CA6BE365 
 272      EA676213 
 272      010F
 273 0116 331F7AAD 		.ascii	"3\037z\255\265\345N\265\253\221`\025\313\331\216[\254"
 273      B5E54EB5 
 273      AB916015 
 273      CBD98E5B 
 273      AC
 274 0127 669AD047 		.ascii	"f\232\320GZn:\373\272\326v;\237\367.A\357k\320r\273"
 274      5A6E3AFB 
 274      BAD6763B 
 274      9FF72E41 
 274      EF6BD072 
 275 013c 350D6714 		.ascii	"5\015g\024\274\351\036\264\024)\270\316\207P\263\336"
 275      BCE91EB4 
 275      1429B8CE 
 275      8750B3DE 
 276 014c 0BF80CF6 		.ascii	"\013\370\014\366\010\372\007\360\022\275\347\321\343"
 276      08FA07F0 
 276      12BDE7D1 
 276      E3
 277 0159 203FDAA3 		.ascii	" ?\332\243i=\324\265m\024\212\371\035\212\323<\012i"
ARM GAS  /tmp/ccV3l6aC.s 			page 21


 277      693DD4B5 
 277      6D148AF9 
 277      1D8AD33C 
 277      0A69
 278 016b 9A082F71 		.ascii	"\232\010/q\004\232\367\012tH\323\2620\006+\370\020^"
 278      049AF70A 
 278      7448D3B2 
 278      30062BF8 
 278      105E
 279 017d 0C1804A3 		.ascii	"\014\030\004\243\225\350\250\2467F\234]\032\320\360"
 279      95E8A8A6 
 279      37469C5D 
 279      1AD0F0
 280 018c F553CB8C 		.ascii	"\365S\313\214\376\374\3104\267#\200\250\340\217\361"
 280      FEFCC834 
 280      B72380A8 
 280      E08FF1
 281 019b 4A238E66 		.ascii	"J#\216f\304\241O\021{~\241o[\0215<\367\243\034\260\240"
 281      C4A14F11 
 281      7B7EA16F 
 281      5B11353C 
 281      F7A31CB0 
 282 01b0 72541523 		.ascii	"rT\025#\224\253\022\343Z5!\3501\014\267\003EC\017\210"
 282      94AB12E3 
 282      5A3521E8 
 282      310CB703 
 282      45430F88 
 283 01c4 A1F75515 		.ascii	"\241\367U\025\011\215\205\320\012>\216\375\000\330f"
 283      098D85D0 
 283      0A3E8EFD 
 283      00D866
 284 01d3 028E7F5F 		.ascii	"\002\216\177_W<\250\3317\2329\306\332\344SH\243\260"
 284      573CA8D9 
 284      379A39C6 
 284      DAE45348 
 284      A3B0
 285 01e5 46D056CC 		.ascii	"F\320V\314\204\033o,#\226\220\275\017\365\026\204\223"
 285      841B6F2C 
 285      239690BD 
 285      0FF51684 
 285      93
 286 01f6 8517E7FF 		.ascii	"\205\027\347\377\014\366A\374\0270\323\347\356\233\223"
 286      0CF641FC 
 286      1730D3E7 
 286      EE9B93
 287 0205 978288A5 		.ascii	"\227\202\210\245Xi\241\243\337\033\243\014`\343k\263"
 287      5869A1A3 
 287      DF1BA30C 
 287      60E36BB3 
 288 0215 4737D27A 		.ascii	"G7\322z\312\245\037\233d\206\217\236\032\367\224\302"
 288      CAA51F9B 
 288      64868F9E 
 288      1AF794C2 
 289 0225 A7D9C1C7 		.ascii	"\247\331\301\307R\010\266\025\322\352w\221\367\254u"
 289      5208B615 
 289      D2EA7791 
 289      F7AC75
ARM GAS  /tmp/ccV3l6aC.s 			page 22


 290 0234 85184481 		.ascii	"\205\030D\201\357s\036\327\231\021\245\031\322\353\340"
 290      EF731ED7 
 290      9911A519 
 290      D2EBE0
 291 0243 2436B5F9 		.ascii	"$6\265\371m\337\017_\021\303\331\222\226\021L\236\312"
 291      6DDF0F5F 
 291      11C3D992 
 291      96114C9E 
 291      CA
 292 0254 39C03175 		.ascii	"9\3001u\2636\307w\004M\025\324\033\233W\275j\227\312"
 292      B336C777 
 292      044D15D4 
 292      1B9B57BD 
 292      6A97CA
 293 0267 B38429AC 		.ascii	"\263\204)\254I\005\037\305+\220G\301\307\240\350\025"
 293      49051FC5 
 293      2B9047C1 
 293      C7A0E815 
 294 0277 7C5AFF1C 		.ascii	"|Z\377\034\204\317y\013\366`\241`=\026U\005\221\207"
 294      84CF790B 
 294      F660A160 
 294      3D165505 
 294      9187
 295 0289 F43182CA 		.ascii	"\3641\202\312\004\375\302\365\273\325?x\221\255\276"
 295      04FDC2F5 
 295      BBD53F78 
 295      91ADBE
 296 0298 E5E8A0A6 		.ascii	"\345\350\240\246\275Kg\330\300%\350CB\207\345p\023\232"
 296      BD4B67D8 
 296      C025E843 
 296      4287E570 
 296      139A
 297 02aa F149D6B8 		.ascii	"\361I\326\270\350d\224m\216;\365\325J\022g)\212\276"
 297      E864946D 
 297      8E3BF5D5 
 297      4A126729 
 297      8ABE
 298 02bc C6BC1EE6 		.ascii	"\306\274\036\346\276\243\217H}u>\214\372C\3500\255\276"
 298      BEA38F48 
 298      7D753E8C 
 298      FA43E830 
 298      ADBE
 299 02ce 919E467D 		.ascii	"\221\236F}sF\314;f\021\3723LD\345\313\337\341\277\264"
 299      7346CC3B 
 299      6611FA33 
 299      4C44E5CB 
 299      DFE1BFB4 
 300 02e2 D72FCDA1 		.ascii	"\327/\315\241\240{\253\037\331j\333&\373Ib\312>\276"
 300      A07BAB1F 
 300      D96ADB26 
 300      FB4962CA 
 300      3EBE
 301 02f4 ACB8E60A 		.ascii	"\254\270\346\012>\017\311*x\014H\\Y\210\346\255T\266"
 301      3E0FC92A 
 301      780C485C 
 301      5988E6AD 
 301      54B6
ARM GAS  /tmp/ccV3l6aC.s 			page 23


 302 0306 611D97FA 		.ascii	"a\035\227\372\334\366Ke\243\3319gk\204\273\366\325\273"
 302      DCF64B65 
 302      A3D93967 
 302      6B84BBF6 
 302      D5BB
 303 0318 CF965CF1 		.ascii	"\317\226\\\3611\207\342\227\234\212O\337d\212\277\321"
 303      3187E297 
 303      9C8A4FDF 
 303      648ABFD1 
 304 0328 50CA96F1 		.ascii	"P\312\226\361]1\311\261E\325\317\271\252\027\372\357"
 304      5D31C9B1 
 304      45D5CFB9 
 304      AA17FAEF 
 305 0338 73977502 		.ascii	"s\227u\0022\035\222\310j!\330\223=\337\323\306f\324"
 305      321D92C8 
 305      6A21D893 
 305      3DDFD3C6 
 305      66D4
 306 034a 70DB21CB 		.ascii	"p\333!\313Q\037q\305\255\304\014\026\004}\315\023\275"
 306      511F71C5 
 306      ADC40C16 
 306      047DCD13 
 306      BD
 307 035b B1D23DCF 		.ascii	"\261\322=\317I\010x\244\364<'\347\315\363j)\023\343"
 307      490878A4 
 307      F43C27E7 
 307      CDF36A29 
 307      13E3
 308 036d BA16A68B 		.ascii	"\272\026\246\213M\014\261\256\005\3134Mr\366WO\334\353"
 308      4D0CB1AE 
 308      05CB344D 
 308      72F6574F 
 308      DCEB
 309 037f 4E7F8A96 		.ascii	"N\177\212\226\243\204>vT\377\317:0\365\031r\257~y\005"
 309      A3843E76 
 309      54FFCF3A 
 309      30F51972 
 309      AF7E7905 
 310 0393 4F392AF8 		.ascii	"O9*\370GW\241\014\372\004\335(,\350\215\356\224f B\357"
 310      4757A10C 
 310      FA04DD28 
 310      2CE88DEE 
 310      94662042 
 311 03a8 022929F8 		.ascii	"\002))\370'\356s\244\\J3\016J\327\255\224\036@\007\264"
 311      27EE73A4 
 311      5C4A330E 
 311      4AD7AD94 
 311      1E4007B4 
 312 03bc CB97B35A 		.ascii	"\313\227\263ZOc\317t>\337\264\010e\365\271\247\257\331"
 312      4F63CF74 
 312      3EDFB408 
 312      65F5B9A7 
 312      AFD9
 313 03ce 57D88965 		.ascii	"W\330\211e\372\360Hc\237pb\251\346)\320\203h\3418\307"
 313      FAF04863 
 313      9F7062A9 
 313      E629D083 
ARM GAS  /tmp/ccV3l6aC.s 			page 24


 313      68E138C7 
 314 03e2 876B8D8D 		.ascii	"\207k\215\215\262\321\012\276\011\3578\005\377\201\215"
 314      B2D10ABE 
 314      09EF3805 
 314      FF818D
 315 03f1 B7E2D242 		.ascii	"\267\342\322B\237w\363\230\026\312,\241\343mG}\306a"
 315      9F77F398 
 315      16CA2CA1 
 315      E36D477D 
 315      C661
 316 0403 3E6F3376 		.ascii	">o3v/\346\301\027\351\016\026z\206\203t\254\202\377"
 316      2FE6C117 
 316      E90E167A 
 316      868374AC 
 316      82FF
 317 0415 C4464F27 		.ascii	"\304FO'\246\361#E\300\347\262 \376\022R\013\370\304"
 317      A6F12345 
 317      C0E7B220 
 317      FE12520B 
 317      F8C4
 318 0427 5E838582 		.ascii	"^\203\205\2029\016\230\316\361\327\335\215\375u\322"
 318      390E98CE 
 318      F1D7DD8D 
 318      FD75D2
 319 0436 7408DAC5 		.ascii	"t\010\332\305~\034*\270\006\263\244J9N\316\352;\375"
 319      7E1C2AB8 
 319      06B3A44A 
 319      394ECEEA 
 319      3BFD
 320 0448 7B1EFECE 		.ascii	"{\036\376\316\377\364\233\213\374<\351\265\235'\275"
 320      FFF49B8B 
 320      FC3CE9B5 
 320      9D27BD
 321 0457 D6F3A497 		.ascii	"\326\363\244\2273\361\026\316\223\246\230#N1\033x\026"
 321      33F116CE 
 321      93A69823 
 321      4E311B78 
 321      16
 322 0468 8401DE29 		.ascii	"\204\001\336)C\313\177\245Z\232e\3412\237\033\371`/"
 322      43CB7FA5 
 322      5A9A65E1 
 322      329F1BF9 
 322      602F
 323 047a 839B2B23 		.ascii	"\203\233+#\205\377\244)\230?V\350\2360\302\367\204l"
 323      85FFA429 
 323      983F56E8 
 323      9E30C2F7 
 323      846C
 324 048c 85B929FC 		.ascii	"\205\271)\374\303\205\036\336\377\3555\266\346d\373"
 324      C3851EDE 
 324      FFED35B6 
 324      E664FB
 325 049b C25DFAA2 		.ascii	"\302]\372\242\227\254q\331\276@}n\313\317V\356\373\002"
 325      97AC71D9 
 325      BE407D6E 
 325      CBCF56EE 
 325      FB02
ARM GAS  /tmp/ccV3l6aC.s 			page 25


 326 04ad 751EADB4 		.ascii	"u\036\255\264Ly~\341\033\203\202\177\027\224\326\260"
 326      4C797EE1 
 326      1B83827F 
 326      1794D6B0 
 327 04bd ADC65D66 		.ascii	"\255\306]f\3051V\301\273H\351\323\262\233\310\246\245"
 327      C53156C1 
 327      BB48E9D3 
 327      B29BC8A6 
 327      A5
 328 04ce DEC2C91C 		.ascii	"\336\302\311\034\007\335\277\371\211\352V\377\276/<"
 328      07DDBFF9 
 328      89EA56FF 
 328      BE2F3C
 329 04dd D28408D2 		.ascii	"\322\204\010\322*\304u\266p\035b\034\251v>\031\354C"
 329      2AC475B6 
 329      701D621C 
 329      A9763E19 
 329      EC43
 330 04ef 15BCA70C 		.ascii	"\025\274\247\014\025\366JU\010XT\330kW\201\236d\256"
 330      15F64A55 
 330      085854D8 
 330      6B57819E 
 330      64AE
 331 0501 35C99221 		.ascii	"5\311\222!\350\2552\025\260\377\307\301E\001\347?'\336"
 331      E8AD3215 
 331      B0FFC7C1 
 331      4501E73F 
 331      27DE
 332 0513 2E4381AC 		.ascii	".C\201\254T\001\376\203\3102\216+@_\365s\253d\311\020"
 332      5401FE83 
 332      C8328E2B 
 332      405FF573 
 332      AB64C910 
 333 0527 F4814501 		.ascii	"\364\201E\001T\333\251v&\323;C\251d\262#\224\251z\352"
 333      54DBA976 
 333      26D33B43 
 333      A964B223 
 333      94A97AEA 
 334 053b 99E79B9F 		.ascii	"\231\347\233\237@\313[Z\202\306_\262+\230\316\004\343"
 334      40CB5B5A 
 334      82C65FB2 
 334      2B98CE04 
 334      E3
 335 054c 89484777 		.ascii	"\211HGwT\015Fb0\232\216\354j\211!\277\356\022S\303Q"
 335      540D4662 
 335      309A8EEC 
 335      6A8921BF 
 335      EE1253C3 
 336 0561 35ED4DC5 		.ascii	"5\355M\305B\011uG\306\333\231\322\257U]\361\327\324"
 336      42097547 
 336      C6DB99D2 
 336      AF555DF1 
 336      D7D4
 337 0573 50E6F160 		.ascii	"P\346\361`wW:\330\221\214\204;\202\355\361\004\005\354"
 337      77573AD8 
 337      918C843B 
 337      82EDF104 
ARM GAS  /tmp/ccV3l6aC.s 			page 26


 337      05EC
 338 0585 88B707B7 		.ascii	"\210\267\007\267G\"\301p\272sU\"\231PW\251\341\366x"
 338      4722C170 
 338      BA735522 
 338      995057A9 
 338      E1F678
 339 0598 705DCB86 		.ascii	"p]\313\206\2265<LW&\032U\267A\210:\200K\266\277\254"
 339      96353C4C 
 339      57261A55 
 339      B741883A 
 339      804BB6BF 
 340 05ad 4632210A 		.ascii	"F2!\012\030\200\350\333\325\314\266\356D$\224y\320-"
 340      1880E8DB 
 340      D5CCB6EE 
 340      44249479 
 340      D02D
 341 05bf C74832AD 		.ascii	"\307H2\255\322\024\301?\225N\276\032\207\024\033\"\261"
 341      D214C13F 
 341      954EBE1A 
 341      87141B22 
 341      B1
 342 05d0 AD90F0B3 		.ascii	"\255\220\360\263:\334\226D<\323l\003\350JGD\202\021"
 342      3ADC9644 
 342      3CD36C03 
 342      E84A4744 
 342      8211
 343 05e2 443A5315 		.ascii	"D:S\0254l\265\011Qo@<\235\014G7\247\323\341\2358\205"
 343      346CB509 
 343      516F403C 
 343      9D0C4737 
 343      A7D3E19D 
 344 05f8 1301E3D9 		.ascii	"\023\001\343\331\346\016`\271\305/\334\260\376\223i"
 344      E60E60B9 
 344      C52FDCB0 
 344      FE9369
 345 0607 55DD5201 		.ascii	"U\335R\001$R5\205\007\025\221X8]\035\012\351LB\265f"
 345      24523585 
 345      07159158 
 345      385D1D0A 
 345      E94C42B5 
 346 061c A765FDDA 		.ascii	"\247e\375\332u\353\253\273\343\211\314\3325\241\314"
 346      75EBABBB 
 346      E389CCDA 
 346      35A1CC
 347 062b 8BA589C7 		.ascii	"\213\245\211\307\331\300\237\365{AV\200\006Y|,\315h"
 347      D9C09FF5 
 347      7B415680 
 347      06597C2C 
 347      CD68
 348 063d 540CFDE8 		.ascii	"T\014\375\350\032\361n\375j\361n\303\352\377\0019\264"
 348      1AF16EFD 
 348      6AF16EC3 
 348      EAFF0139 
 348      B4
 349 064e 00E7     		.ascii	"\000\347"
 350              		.text
 351              		.section	.gnu.lto_.symtab.951f746ee2a16c03,"",%progbits
ARM GAS  /tmp/ccV3l6aC.s 			page 27


 352 0000 6368506F 		.ascii	"chPoolObjectInit\000\000\000\000\000\000\000\000\000"
 352      6F6C4F62 
 352      6A656374 
 352      496E6974 
 352      00000000 
 353 0019 000000A0 		.ascii	"\000\000\000\240\000\000\000chPoolLoadArray\000\000"
 353      00000063 
 353      68506F6F 
 353      6C4C6F61 
 353      64417272 
 354 0031 00000000 		.ascii	"\000\000\000\000\000\000\000\000\000\000\311\000\000"
 354      00000000 
 354      0000C900 
 354      00
 355 003e 00636850 		.ascii	"\000chPoolAllocI\000\000\000\000\000\000\000\000\000"
 355      6F6F6C41 
 355      6C6C6F63 
 355      49000000 
 355      00000000 
 356 0054 000000D5 		.ascii	"\000\000\000\325\000\000\000chPoolAlloc\000\000\000"
 356      00000063 
 356      68506F6F 
 356      6C416C6C 
 356      6F630000 
 357 0069 00000000 		.ascii	"\000\000\000\000\000\000\000\000\000\333\000\000\000"
 357      00000000 
 357      00DB0000 
 357      00
 358 0076 6368506F 		.ascii	"chPoolFreeI\000\000\000\000\000\000\000\000\000\000"
 358      6F6C4672 
 358      65654900 
 358      00000000 
 358      00000000 
 359 008b 0000DF00 		.ascii	"\000\000\337\000\000\000chPoolFree\000\000\000\000\000"
 359      00006368 
 359      506F6F6C 
 359      46726565 
 359      00000000 
 360 00a0 00000000 		.ascii	"\000\000\000\000\000\000\000\350\000\000\000"
 360      000000E8 
 360      000000
 361              		.text
 362              		.section	.gnu.lto_.opts,"",%progbits
 363 0000 272D6D63 		.ascii	"'-mcpu=cortex-m4''-mno-thumb-interwork''-mthumb''-g"
 363      70753D63 
 363      6F727465 
 363      782D6D34 
 363      27272D6D 
 364 0033 67646227 		.ascii	"gdb''-O2''-fomit-frame-pointer''-falign-functions=1"
 364      272D4F32 
 364      27272D66 
 364      6F6D6974 
 364      2D667261 
 365 0066 3627272D 		.ascii	"6''-ffunction-sections''-fdata-sections''-fno-commo"
 365      6666756E 
 365      6374696F 
 365      6E2D7365 
ARM GAS  /tmp/ccV3l6aC.s 			page 28


 365      6374696F 
 366 0099 6E27272D 		.ascii	"n''-flto'\000"
 366      666C746F 
 366      2700
 367              		.text
 368              		.cfi_sections	.debug_frame
 369              		.section	.text.chPoolObjectInit,"ax",%progbits
 370              		.align	2
 371              		.p2align 4,,15
 372              		.global	chPoolObjectInit
 373              		.thumb
 374              		.thumb_func
 375              		.type	chPoolObjectInit, %function
 376              	chPoolObjectInit:
 377              	.LFB241:
 378              		.file 1 "../../../os/rt/src/chmempools.c"
 379              		.loc 1 75 0
 380              		.cfi_startproc
 381              		@ args = 0, pretend = 0, frame = 0
 382              		@ frame_needed = 0, uses_anonymous_args = 0
 383              		@ link register save eliminated.
 384              	.LVL0:
 385              		.loc 1 79 0
 386 0000 0023     		movs	r3, #0
 387 0002 0360     		str	r3, [r0, #0]
 388              		.loc 1 80 0
 389 0004 4160     		str	r1, [r0, #4]
 390              		.loc 1 81 0
 391 0006 8260     		str	r2, [r0, #8]
 392 0008 7047     		bx	lr
 393              		.cfi_endproc
 394              	.LFE241:
 395              		.size	chPoolObjectInit, .-chPoolObjectInit
 396 000a 00BFAFF3 		.section	.text.chPoolLoadArray,"ax",%progbits
 396      0080
 397              		.align	2
 398              		.p2align 4,,15
 399              		.global	chPoolLoadArray
 400              		.thumb
 401              		.thumb_func
 402              		.type	chPoolLoadArray, %function
 403              	chPoolLoadArray:
 404              	.LFB242:
 405              		.loc 1 97 0
 406              		.cfi_startproc
 407              		@ args = 0, pretend = 0, frame = 0
 408              		@ frame_needed = 0, uses_anonymous_args = 0
 409              		@ link register save eliminated.
 410              	.LVL1:
 411 0000 30B4     		push	{r4, r5}
 412              	.LCFI0:
 413              		.cfi_def_cfa_offset 8
 414              		.cfi_offset 4, -8
 415              		.cfi_offset 5, -4
 416              		.loc 1 101 0
 417 0002 62B1     		cbz	r2, .L2
 418              	.LBB65:
ARM GAS  /tmp/ccV3l6aC.s 			page 29


 419              	.LBB66:
 420              	.LBB67:
 421              	.LBB68:
 422              	.LBB69:
 423              	.LBB70:
 424              		.file 2 "../../../os/ext/CMSIS/include/core_cmFunc.h"
 425              		.loc 2 548 0
 426 0004 2025     		movs	r5, #32
 427              	.LBE70:
 428              	.LBE69:
 429              	.LBE68:
 430              	.LBE67:
 431              	.LBB74:
 432              	.LBB75:
 433              	.LBB76:
 434              	.LBB77:
 435              	.LBB78:
 436 0006 0024     		movs	r4, #0
 437              	.LVL2:
 438              	.L6:
 439              	.LBE78:
 440              	.LBE77:
 441              	.LBE76:
 442              	.LBE75:
 443              	.LBE74:
 444              	.LBB83:
 445              	.LBB73:
 446              	.LBB72:
 447              	.LBB71:
 448              	@ 548 "../../../os/ext/CMSIS/include/core_cmFunc.h" 1
 449 0008 85F31188 		MSR basepri, r5
 450              	@ 0 "" 2
 451              	.LVL3:
 452              		.thumb
 453              	.LBE71:
 454              	.LBE72:
 455              	.LBE73:
 456              	.LBE83:
 457              	.LBB84:
 458              	.LBB85:
 459              		.loc 1 177 0
 460 000c 0368     		ldr	r3, [r0, #0]
 461 000e 0B60     		str	r3, [r1, #0]
 462              		.loc 1 178 0
 463 0010 0160     		str	r1, [r0, #0]
 464              	.LVL4:
 465              	.LBE85:
 466              	.LBE84:
 467              	.LBB86:
 468              	.LBB82:
 469              	.LBB81:
 470              	.LBB80:
 471              	.LBB79:
 472              		.loc 2 548 0
 473              	@ 548 "../../../os/ext/CMSIS/include/core_cmFunc.h" 1
 474 0012 84F31188 		MSR basepri, r4
 475              	@ 0 "" 2
ARM GAS  /tmp/ccV3l6aC.s 			page 30


 476              		.thumb
 477              	.LBE79:
 478              	.LBE80:
 479              	.LBE81:
 480              	.LBE82:
 481              	.LBE86:
 482              	.LBE66:
 483              	.LBE65:
 484              		.loc 1 104 0
 485 0016 4368     		ldr	r3, [r0, #4]
 486              		.loc 1 101 0
 487 0018 013A     		subs	r2, r2, #1
 488              		.loc 1 104 0
 489 001a 1944     		add	r1, r1, r3
 490              	.LVL5:
 491              		.loc 1 101 0
 492 001c F4D1     		bne	.L6
 493              	.LVL6:
 494              	.L2:
 495              		.loc 1 108 0
 496 001e 30BC     		pop	{r4, r5}
 497 0020 7047     		bx	lr
 498              		.cfi_endproc
 499              	.LFE242:
 500              		.size	chPoolLoadArray, .-chPoolLoadArray
 501 0022 00BFAFF3 		.section	.text.chPoolAllocI,"ax",%progbits
 501      0080AFF3 
 501      0080AFF3 
 501      0080
 502              		.align	2
 503              		.p2align 4,,15
 504              		.global	chPoolAllocI
 505              		.thumb
 506              		.thumb_func
 507              		.type	chPoolAllocI, %function
 508              	chPoolAllocI:
 509              	.LFB243:
 510              		.loc 1 120 0
 511              		.cfi_startproc
 512              		@ args = 0, pretend = 0, frame = 0
 513              		@ frame_needed = 0, uses_anonymous_args = 0
 514              	.LVL7:
 515 0000 08B5     		push	{r3, lr}
 516              	.LCFI1:
 517              		.cfi_def_cfa_offset 8
 518              		.cfi_offset 3, -8
 519              		.cfi_offset 14, -4
 520              		.loc 1 120 0
 521 0002 0346     		mov	r3, r0
 522              		.loc 1 126 0
 523 0004 0068     		ldr	r0, [r0, #0]
 524              	.LVL8:
 525              		.loc 1 128 0
 526 0006 10B1     		cbz	r0, .L10
 527              		.loc 1 129 0
 528 0008 0268     		ldr	r2, [r0, #0]
 529 000a 1A60     		str	r2, [r3, #0]
ARM GAS  /tmp/ccV3l6aC.s 			page 31


 530 000c 08BD     		pop	{r3, pc}
 531              	.L10:
 532              		.loc 1 131 0
 533 000e 9A68     		ldr	r2, [r3, #8]
 534 0010 0AB1     		cbz	r2, .L11
 535              		.loc 1 132 0
 536 0012 5868     		ldr	r0, [r3, #4]
 537              	.LVL9:
 538 0014 9047     		blx	r2
 539              	.LVL10:
 540              	.L11:
 541              		.loc 1 137 0
 542 0016 08BD     		pop	{r3, pc}
 543              		.cfi_endproc
 544              	.LFE243:
 545              		.size	chPoolAllocI, .-chPoolAllocI
 546 0018 AFF30080 		.section	.text.chPoolAlloc,"ax",%progbits
 546      AFF30080 
 547              		.align	2
 548              		.p2align 4,,15
 549              		.global	chPoolAlloc
 550              		.thumb
 551              		.thumb_func
 552              		.type	chPoolAlloc, %function
 553              	chPoolAlloc:
 554              	.LFB244:
 555              		.loc 1 149 0
 556              		.cfi_startproc
 557              		@ args = 0, pretend = 0, frame = 0
 558              		@ frame_needed = 0, uses_anonymous_args = 0
 559              	.LVL11:
 560 0000 08B5     		push	{r3, lr}
 561              	.LCFI2:
 562              		.cfi_def_cfa_offset 8
 563              		.cfi_offset 3, -8
 564              		.cfi_offset 14, -4
 565              	.LBB87:
 566              	.LBB88:
 567              	.LBB89:
 568              	.LBB90:
 569              		.loc 2 548 0
 570 0002 2022     		movs	r2, #32
 571              	.LBE90:
 572              	.LBE89:
 573              	.LBE88:
 574              	.LBE87:
 575              		.loc 1 149 0
 576 0004 0346     		mov	r3, r0
 577              	.LBB94:
 578              	.LBB93:
 579              	.LBB92:
 580              	.LBB91:
 581              		.loc 2 548 0
 582              	@ 548 "../../../os/ext/CMSIS/include/core_cmFunc.h" 1
 583 0006 82F31188 		MSR basepri, r2
 584              	@ 0 "" 2
 585              	.LVL12:
ARM GAS  /tmp/ccV3l6aC.s 			page 32


 586              		.thumb
 587              	.LBE91:
 588              	.LBE92:
 589              	.LBE93:
 590              	.LBE94:
 591              	.LBB95:
 592              	.LBB96:
 593              		.loc 1 126 0
 594 000a 0068     		ldr	r0, [r0, #0]
 595              	.LVL13:
 596              		.loc 1 128 0
 597 000c 28B1     		cbz	r0, .L16
 598              		.loc 1 129 0
 599 000e 0268     		ldr	r2, [r0, #0]
 600 0010 1A60     		str	r2, [r3, #0]
 601              	.LVL14:
 602              	.L17:
 603              	.LBE96:
 604              	.LBE95:
 605              	.LBB98:
 606              	.LBB99:
 607              	.LBB100:
 608              	.LBB101:
 609              	.LBB102:
 610              		.loc 2 548 0
 611 0012 0023     		movs	r3, #0
 612              	@ 548 "../../../os/ext/CMSIS/include/core_cmFunc.h" 1
 613 0014 83F31188 		MSR basepri, r3
 614              	@ 0 "" 2
 615              		.thumb
 616              	.LBE102:
 617              	.LBE101:
 618              	.LBE100:
 619              	.LBE99:
 620              	.LBE98:
 621              		.loc 1 157 0
 622 0018 08BD     		pop	{r3, pc}
 623              	.LVL15:
 624              	.L16:
 625              	.LBB103:
 626              	.LBB97:
 627              		.loc 1 131 0
 628 001a 9A68     		ldr	r2, [r3, #8]
 629 001c 002A     		cmp	r2, #0
 630 001e F8D0     		beq	.L17
 631              		.loc 1 132 0
 632 0020 5868     		ldr	r0, [r3, #4]
 633              	.LVL16:
 634 0022 9047     		blx	r2
 635              	.LVL17:
 636 0024 F5E7     		b	.L17
 637              	.LBE97:
 638              	.LBE103:
 639              		.cfi_endproc
 640              	.LFE244:
 641              		.size	chPoolAlloc, .-chPoolAlloc
 642 0026 00BFAFF3 		.section	.text.chPoolFreeI,"ax",%progbits
ARM GAS  /tmp/ccV3l6aC.s 			page 33


 642      0080AFF3 
 642      0080
 643              		.align	2
 644              		.p2align 4,,15
 645              		.global	chPoolFreeI
 646              		.thumb
 647              		.thumb_func
 648              		.type	chPoolFreeI, %function
 649              	chPoolFreeI:
 650              	.LFB245:
 651              		.loc 1 171 0
 652              		.cfi_startproc
 653              		@ args = 0, pretend = 0, frame = 0
 654              		@ frame_needed = 0, uses_anonymous_args = 0
 655              		@ link register save eliminated.
 656              	.LVL18:
 657              		.loc 1 177 0
 658 0000 0368     		ldr	r3, [r0, #0]
 659 0002 0B60     		str	r3, [r1, #0]
 660              		.loc 1 178 0
 661 0004 0160     		str	r1, [r0, #0]
 662 0006 7047     		bx	lr
 663              		.cfi_endproc
 664              	.LFE245:
 665              		.size	chPoolFreeI, .-chPoolFreeI
 666 0008 AFF30080 		.section	.text.chPoolFree,"ax",%progbits
 666      AFF30080 
 667              		.align	2
 668              		.p2align 4,,15
 669              		.global	chPoolFree
 670              		.thumb
 671              		.thumb_func
 672              		.type	chPoolFree, %function
 673              	chPoolFree:
 674              	.LFB246:
 675              		.loc 1 193 0
 676              		.cfi_startproc
 677              		@ args = 0, pretend = 0, frame = 0
 678              		@ frame_needed = 0, uses_anonymous_args = 0
 679              		@ link register save eliminated.
 680              	.LVL19:
 681              	.LBB104:
 682              	.LBB105:
 683              	.LBB106:
 684              	.LBB107:
 685              		.loc 2 548 0
 686 0000 2023     		movs	r3, #32
 687              	@ 548 "../../../os/ext/CMSIS/include/core_cmFunc.h" 1
 688 0002 83F31188 		MSR basepri, r3
 689              	@ 0 "" 2
 690              	.LVL20:
 691              		.thumb
 692              	.LBE107:
 693              	.LBE106:
 694              	.LBE105:
 695              	.LBE104:
 696              	.LBB108:
ARM GAS  /tmp/ccV3l6aC.s 			page 34


 697              	.LBB109:
 698              		.loc 1 177 0
 699 0006 0368     		ldr	r3, [r0, #0]
 700 0008 0B60     		str	r3, [r1, #0]
 701              		.loc 1 178 0
 702 000a 0160     		str	r1, [r0, #0]
 703              	.LVL21:
 704              	.LBE109:
 705              	.LBE108:
 706              	.LBB110:
 707              	.LBB111:
 708              	.LBB112:
 709              	.LBB113:
 710              	.LBB114:
 711              		.loc 2 548 0
 712 000c 0023     		movs	r3, #0
 713              	@ 548 "../../../os/ext/CMSIS/include/core_cmFunc.h" 1
 714 000e 83F31188 		MSR basepri, r3
 715              	@ 0 "" 2
 716              		.thumb
 717 0012 7047     		bx	lr
 718              	.LBE114:
 719              	.LBE113:
 720              	.LBE112:
 721              	.LBE111:
 722              	.LBE110:
 723              		.cfi_endproc
 724              	.LFE246:
 725              		.size	chPoolFree, .-chPoolFree
 726 0014 AFF30080 		.text
 726      AFF30080 
 726      AFF30080 
 727              	.Letext0:
 728              		.file 3 "/usr/local/bin/../lib/gcc/arm-none-eabi/4.7.2/include/stddef.h"
 729              		.file 4 "/usr/local/bin/../lib/gcc/arm-none-eabi/4.7.2/../../../../arm-none-eabi/include/stdint.h"
 730              		.file 5 "../../../os/rt/ports/ARMCMx/compilers/GCC/chtypes.h"
 731              		.file 6 "../../../os/rt/include/chsystypes.h"
 732              		.file 7 "../../../os/rt/include/chschd.h"
 733              		.file 8 "../../../os/rt/ports/ARMCMx/chcore.h"
 734              		.file 9 "../../../os/rt/ports/ARMCMx/chcore_v7m.h"
 735              		.file 10 "../../../os/rt/include/chtm.h"
 736              		.file 11 "../../../os/rt/include/chsem.h"
 737              		.file 12 "../../../os/rt/include/chmtx.h"
 738              		.file 13 "../../../os/rt/include/chmemcore.h"
 739              		.file 14 "../../../os/rt/include/chmempools.h"
 740              		.file 15 "../../../os/rt/include/chsys.h"
 741              		.file 16 "../../../os/ext/CMSIS/include/core_cm4.h"
 742              		.section	.debug_info,"",%progbits
 743              	.Ldebug_info0:
 744 0000 460C0000 		.4byte	0xc46
 745 0004 0200     		.2byte	0x2
 746 0006 00000000 		.4byte	.Ldebug_abbrev0
 747 000a 04       		.byte	0x4
 748 000b 01       		.uleb128 0x1
 749 000c 38010000 		.4byte	.LASF126
 750 0010 01       		.byte	0x1
 751 0011 51020000 		.4byte	.LASF127
ARM GAS  /tmp/ccV3l6aC.s 			page 35


 752 0015 ED040000 		.4byte	.LASF128
 753 0019 20010000 		.4byte	.Ldebug_ranges0+0x120
 754 001d 00000000 		.4byte	0
 755 0021 00000000 		.4byte	0
 756 0025 00000000 		.4byte	.Ldebug_line0
 757 0029 02       		.uleb128 0x2
 758 002a 04       		.byte	0x4
 759 002b 05       		.byte	0x5
 760 002c 696E7400 		.ascii	"int\000"
 761 0030 03       		.uleb128 0x3
 762 0031 DE010000 		.4byte	.LASF2
 763 0035 03       		.byte	0x3
 764 0036 D5       		.byte	0xd5
 765 0037 3B000000 		.4byte	0x3b
 766 003b 04       		.uleb128 0x4
 767 003c 04       		.byte	0x4
 768 003d 07       		.byte	0x7
 769 003e 94000000 		.4byte	.LASF0
 770 0042 04       		.uleb128 0x4
 771 0043 01       		.byte	0x1
 772 0044 06       		.byte	0x6
 773 0045 5F050000 		.4byte	.LASF1
 774 0049 03       		.uleb128 0x3
 775 004a 71020000 		.4byte	.LASF3
 776 004e 04       		.byte	0x4
 777 004f 2A       		.byte	0x2a
 778 0050 54000000 		.4byte	0x54
 779 0054 04       		.uleb128 0x4
 780 0055 01       		.byte	0x1
 781 0056 08       		.byte	0x8
 782 0057 A1040000 		.4byte	.LASF4
 783 005b 04       		.uleb128 0x4
 784 005c 02       		.byte	0x2
 785 005d 05       		.byte	0x5
 786 005e 7C030000 		.4byte	.LASF5
 787 0062 04       		.uleb128 0x4
 788 0063 02       		.byte	0x2
 789 0064 07       		.byte	0x7
 790 0065 6B050000 		.4byte	.LASF6
 791 0069 03       		.uleb128 0x3
 792 006a 8A040000 		.4byte	.LASF7
 793 006e 04       		.byte	0x4
 794 006f 4F       		.byte	0x4f
 795 0070 74000000 		.4byte	0x74
 796 0074 04       		.uleb128 0x4
 797 0075 04       		.byte	0x4
 798 0076 05       		.byte	0x5
 799 0077 A3030000 		.4byte	.LASF8
 800 007b 03       		.uleb128 0x3
 801 007c 1C010000 		.4byte	.LASF9
 802 0080 04       		.byte	0x4
 803 0081 50       		.byte	0x50
 804 0082 86000000 		.4byte	0x86
 805 0086 04       		.uleb128 0x4
 806 0087 04       		.byte	0x4
 807 0088 07       		.byte	0x7
 808 0089 51040000 		.4byte	.LASF10
ARM GAS  /tmp/ccV3l6aC.s 			page 36


 809 008d 04       		.uleb128 0x4
 810 008e 08       		.byte	0x8
 811 008f 05       		.byte	0x5
 812 0090 B4020000 		.4byte	.LASF11
 813 0094 03       		.uleb128 0x3
 814 0095 FD030000 		.4byte	.LASF12
 815 0099 04       		.byte	0x4
 816 009a 78       		.byte	0x78
 817 009b 9F000000 		.4byte	0x9f
 818 009f 04       		.uleb128 0x4
 819 00a0 08       		.byte	0x8
 820 00a1 07       		.byte	0x7
 821 00a2 71010000 		.4byte	.LASF13
 822 00a6 03       		.uleb128 0x3
 823 00a7 5B030000 		.4byte	.LASF14
 824 00ab 05       		.byte	0x5
 825 00ac 39       		.byte	0x39
 826 00ad 7B000000 		.4byte	0x7b
 827 00b1 03       		.uleb128 0x3
 828 00b2 48030000 		.4byte	.LASF15
 829 00b6 05       		.byte	0x5
 830 00b7 3C       		.byte	0x3c
 831 00b8 49000000 		.4byte	0x49
 832 00bc 03       		.uleb128 0x3
 833 00bd 40020000 		.4byte	.LASF16
 834 00c1 05       		.byte	0x5
 835 00c2 3D       		.byte	0x3d
 836 00c3 49000000 		.4byte	0x49
 837 00c7 03       		.uleb128 0x3
 838 00c8 49040000 		.4byte	.LASF17
 839 00cc 05       		.byte	0x5
 840 00cd 3E       		.byte	0x3e
 841 00ce 49000000 		.4byte	0x49
 842 00d2 03       		.uleb128 0x3
 843 00d3 58010000 		.4byte	.LASF18
 844 00d7 05       		.byte	0x5
 845 00d8 40       		.byte	0x40
 846 00d9 7B000000 		.4byte	0x7b
 847 00dd 03       		.uleb128 0x3
 848 00de D2020000 		.4byte	.LASF19
 849 00e2 05       		.byte	0x5
 850 00e3 41       		.byte	0x41
 851 00e4 69000000 		.4byte	0x69
 852 00e8 03       		.uleb128 0x3
 853 00e9 25010000 		.4byte	.LASF20
 854 00ed 05       		.byte	0x5
 855 00ee 43       		.byte	0x43
 856 00ef 7B000000 		.4byte	0x7b
 857 00f3 03       		.uleb128 0x3
 858 00f4 90010000 		.4byte	.LASF21
 859 00f8 05       		.byte	0x5
 860 00f9 45       		.byte	0x45
 861 00fa 69000000 		.4byte	0x69
 862 00fe 03       		.uleb128 0x3
 863 00ff 6F000000 		.4byte	.LASF22
 864 0103 06       		.byte	0x6
 865 0104 33       		.byte	0x33
ARM GAS  /tmp/ccV3l6aC.s 			page 37


 866 0105 7B000000 		.4byte	0x7b
 867 0109 03       		.uleb128 0x3
 868 010a D5010000 		.4byte	.LASF23
 869 010e 06       		.byte	0x6
 870 010f 3F       		.byte	0x3f
 871 0110 14010000 		.4byte	0x114
 872 0114 05       		.uleb128 0x5
 873 0115 9B020000 		.4byte	.LASF43
 874 0119 44       		.byte	0x44
 875 011a 07       		.byte	0x7
 876 011b C2       		.byte	0xc2
 877 011c 25020000 		.4byte	0x225
 878 0120 06       		.uleb128 0x6
 879 0121 ED030000 		.4byte	.LASF24
 880 0125 07       		.byte	0x7
 881 0126 C3       		.byte	0xc3
 882 0127 30020000 		.4byte	0x230
 883 012b 02       		.byte	0x2
 884 012c 23       		.byte	0x23
 885 012d 00       		.uleb128 0
 886 012e 06       		.uleb128 0x6
 887 012f 39040000 		.4byte	.LASF25
 888 0133 07       		.byte	0x7
 889 0134 C5       		.byte	0xc5
 890 0135 30020000 		.4byte	0x230
 891 0139 02       		.byte	0x2
 892 013a 23       		.byte	0x23
 893 013b 04       		.uleb128 0x4
 894 013c 06       		.uleb128 0x6
 895 013d 5E000000 		.4byte	.LASF26
 896 0141 07       		.byte	0x7
 897 0142 C7       		.byte	0xc7
 898 0143 D2000000 		.4byte	0xd2
 899 0147 02       		.byte	0x2
 900 0148 23       		.byte	0x23
 901 0149 08       		.uleb128 0x8
 902 014a 06       		.uleb128 0x6
 903 014b 06040000 		.4byte	.LASF27
 904 014f 07       		.byte	0x7
 905 0150 C8       		.byte	0xc8
 906 0151 93040000 		.4byte	0x493
 907 0155 02       		.byte	0x2
 908 0156 23       		.byte	0x23
 909 0157 0C       		.uleb128 0xc
 910 0158 06       		.uleb128 0x6
 911 0159 B0010000 		.4byte	.LASF28
 912 015d 07       		.byte	0x7
 913 015e CA       		.byte	0xca
 914 015f 30020000 		.4byte	0x230
 915 0163 02       		.byte	0x2
 916 0164 23       		.byte	0x23
 917 0165 10       		.uleb128 0x10
 918 0166 06       		.uleb128 0x6
 919 0167 49020000 		.4byte	.LASF29
 920 016b 07       		.byte	0x7
 921 016c CB       		.byte	0xcb
 922 016d 30020000 		.4byte	0x230
ARM GAS  /tmp/ccV3l6aC.s 			page 38


 923 0171 02       		.byte	0x2
 924 0172 23       		.byte	0x23
 925 0173 14       		.uleb128 0x14
 926 0174 06       		.uleb128 0x6
 927 0175 06020000 		.4byte	.LASF30
 928 0179 07       		.byte	0x7
 929 017a D2       		.byte	0xd2
 930 017b 32060000 		.4byte	0x632
 931 017f 02       		.byte	0x2
 932 0180 23       		.byte	0x23
 933 0181 18       		.uleb128 0x18
 934 0182 06       		.uleb128 0x6
 935 0183 93020000 		.4byte	.LASF31
 936 0187 07       		.byte	0x7
 937 0188 DD       		.byte	0xdd
 938 0189 BC000000 		.4byte	0xbc
 939 018d 02       		.byte	0x2
 940 018e 23       		.byte	0x23
 941 018f 1C       		.uleb128 0x1c
 942 0190 06       		.uleb128 0x6
 943 0191 F1020000 		.4byte	.LASF32
 944 0195 07       		.byte	0x7
 945 0196 E1       		.byte	0xe1
 946 0197 B1000000 		.4byte	0xb1
 947 019b 02       		.byte	0x2
 948 019c 23       		.byte	0x23
 949 019d 1D       		.uleb128 0x1d
 950 019e 06       		.uleb128 0x6
 951 019f C5040000 		.4byte	.LASF33
 952 01a3 07       		.byte	0x7
 953 01a4 E6       		.byte	0xe6
 954 01a5 C7000000 		.4byte	0xc7
 955 01a9 02       		.byte	0x2
 956 01aa 23       		.byte	0x23
 957 01ab 1E       		.uleb128 0x1e
 958 01ac 07       		.uleb128 0x7
 959 01ad 705F7500 		.ascii	"p_u\000"
 960 01b1 07       		.byte	0x7
 961 01b2 3101     		.2byte	0x131
 962 01b4 63050000 		.4byte	0x563
 963 01b8 02       		.byte	0x2
 964 01b9 23       		.byte	0x23
 965 01ba 20       		.uleb128 0x20
 966 01bb 08       		.uleb128 0x8
 967 01bc 20000000 		.4byte	.LASF34
 968 01c0 07       		.byte	0x7
 969 01c1 3601     		.2byte	0x136
 970 01c3 36020000 		.4byte	0x236
 971 01c7 02       		.byte	0x2
 972 01c8 23       		.byte	0x23
 973 01c9 24       		.uleb128 0x24
 974 01ca 08       		.uleb128 0x8
 975 01cb 89000000 		.4byte	.LASF35
 976 01cf 07       		.byte	0x7
 977 01d0 3C01     		.2byte	0x13c
 978 01d2 5C020000 		.4byte	0x25c
 979 01d6 02       		.byte	0x2
ARM GAS  /tmp/ccV3l6aC.s 			page 39


 980 01d7 23       		.byte	0x23
 981 01d8 28       		.uleb128 0x28
 982 01d9 08       		.uleb128 0x8
 983 01da 42030000 		.4byte	.LASF36
 984 01de 07       		.byte	0x7
 985 01df 4001     		.2byte	0x140
 986 01e1 DD000000 		.4byte	0xdd
 987 01e5 02       		.byte	0x2
 988 01e6 23       		.byte	0x23
 989 01e7 30       		.uleb128 0x30
 990 01e8 08       		.uleb128 0x8
 991 01e9 90030000 		.4byte	.LASF37
 992 01ed 07       		.byte	0x7
 993 01ee 4601     		.2byte	0x146
 994 01f0 E8000000 		.4byte	0xe8
 995 01f4 02       		.byte	0x2
 996 01f5 23       		.byte	0x23
 997 01f6 34       		.uleb128 0x34
 998 01f7 08       		.uleb128 0x8
 999 01f8 89020000 		.4byte	.LASF38
 1000 01fc 07       		.byte	0x7
 1001 01fd 4D01     		.2byte	0x14d
 1002 01ff 2C060000 		.4byte	0x62c
 1003 0203 02       		.byte	0x2
 1004 0204 23       		.byte	0x23
 1005 0205 38       		.uleb128 0x38
 1006 0206 08       		.uleb128 0x8
 1007 0207 71030000 		.4byte	.LASF39
 1008 020b 07       		.byte	0x7
 1009 020c 5101     		.2byte	0x151
 1010 020e D2000000 		.4byte	0xd2
 1011 0212 02       		.byte	0x2
 1012 0213 23       		.byte	0x23
 1013 0214 3C       		.uleb128 0x3c
 1014 0215 08       		.uleb128 0x8
 1015 0216 81020000 		.4byte	.LASF40
 1016 021a 07       		.byte	0x7
 1017 021b 5801     		.2byte	0x158
 1018 021d 20030000 		.4byte	0x320
 1019 0221 02       		.byte	0x2
 1020 0222 23       		.byte	0x23
 1021 0223 40       		.uleb128 0x40
 1022 0224 00       		.byte	0
 1023 0225 03       		.uleb128 0x3
 1024 0226 21020000 		.4byte	.LASF41
 1025 022a 06       		.byte	0x6
 1026 022b 44       		.byte	0x44
 1027 022c 30020000 		.4byte	0x230
 1028 0230 09       		.uleb128 0x9
 1029 0231 04       		.byte	0x4
 1030 0232 09010000 		.4byte	0x109
 1031 0236 03       		.uleb128 0x3
 1032 0237 A1000000 		.4byte	.LASF42
 1033 023b 06       		.byte	0x6
 1034 023c 49       		.byte	0x49
 1035 023d 41020000 		.4byte	0x241
 1036 0241 05       		.uleb128 0x5
ARM GAS  /tmp/ccV3l6aC.s 			page 40


 1037 0242 00000000 		.4byte	.LASF44
 1038 0246 04       		.byte	0x4
 1039 0247 07       		.byte	0x7
 1040 0248 B0       		.byte	0xb0
 1041 0249 5C020000 		.4byte	0x25c
 1042 024d 06       		.uleb128 0x6
 1043 024e ED030000 		.4byte	.LASF24
 1044 0252 07       		.byte	0x7
 1045 0253 B1       		.byte	0xb1
 1046 0254 30020000 		.4byte	0x230
 1047 0258 02       		.byte	0x2
 1048 0259 23       		.byte	0x23
 1049 025a 00       		.uleb128 0
 1050 025b 00       		.byte	0
 1051 025c 03       		.uleb128 0x3
 1052 025d 10000000 		.4byte	.LASF45
 1053 0261 06       		.byte	0x6
 1054 0262 50       		.byte	0x50
 1055 0263 67020000 		.4byte	0x267
 1056 0267 05       		.uleb128 0x5
 1057 0268 EC000000 		.4byte	.LASF46
 1058 026c 08       		.byte	0x8
 1059 026d 07       		.byte	0x7
 1060 026e B7       		.byte	0xb7
 1061 026f 90020000 		.4byte	0x290
 1062 0273 06       		.uleb128 0x6
 1063 0274 ED030000 		.4byte	.LASF24
 1064 0278 07       		.byte	0x7
 1065 0279 B8       		.byte	0xb8
 1066 027a 30020000 		.4byte	0x230
 1067 027e 02       		.byte	0x2
 1068 027f 23       		.byte	0x23
 1069 0280 00       		.uleb128 0
 1070 0281 06       		.uleb128 0x6
 1071 0282 39040000 		.4byte	.LASF25
 1072 0286 07       		.byte	0x7
 1073 0287 B9       		.byte	0xb9
 1074 0288 30020000 		.4byte	0x230
 1075 028c 02       		.byte	0x2
 1076 028d 23       		.byte	0x23
 1077 028e 04       		.uleb128 0x4
 1078 028f 00       		.byte	0
 1079 0290 03       		.uleb128 0x3
 1080 0291 71040000 		.4byte	.LASF47
 1081 0295 06       		.byte	0x6
 1082 0296 57       		.byte	0x57
 1083 0297 9B020000 		.4byte	0x29b
 1084 029b 0A       		.uleb128 0xa
 1085 029c C8000000 		.4byte	.LASF48
 1086 02a0 1C       		.byte	0x1c
 1087 02a1 07       		.byte	0x7
 1088 02a2 9001     		.2byte	0x190
 1089 02a4 03030000 		.4byte	0x303
 1090 02a8 08       		.uleb128 0x8
 1091 02a9 C2020000 		.4byte	.LASF49
 1092 02ad 07       		.byte	0x7
 1093 02ae 9101     		.2byte	0x191
ARM GAS  /tmp/ccV3l6aC.s 			page 41


 1094 02b0 5C020000 		.4byte	0x25c
 1095 02b4 02       		.byte	0x2
 1096 02b5 23       		.byte	0x23
 1097 02b6 00       		.uleb128 0
 1098 02b7 08       		.uleb128 0x8
 1099 02b8 31010000 		.4byte	.LASF50
 1100 02bc 07       		.byte	0x7
 1101 02bd 9201     		.2byte	0x192
 1102 02bf D2000000 		.4byte	0xd2
 1103 02c3 02       		.byte	0x2
 1104 02c4 23       		.byte	0x23
 1105 02c5 08       		.uleb128 0x8
 1106 02c6 08       		.uleb128 0x8
 1107 02c7 7E050000 		.4byte	.LASF51
 1108 02cb 07       		.byte	0x7
 1109 02cc 9401     		.2byte	0x194
 1110 02ce 93040000 		.4byte	0x493
 1111 02d2 02       		.byte	0x2
 1112 02d3 23       		.byte	0x23
 1113 02d4 0C       		.uleb128 0xc
 1114 02d5 08       		.uleb128 0x8
 1115 02d6 CA020000 		.4byte	.LASF52
 1116 02da 07       		.byte	0x7
 1117 02db 9701     		.2byte	0x197
 1118 02dd 30020000 		.4byte	0x230
 1119 02e1 02       		.byte	0x2
 1120 02e2 23       		.byte	0x23
 1121 02e3 10       		.uleb128 0x10
 1122 02e4 08       		.uleb128 0x8
 1123 02e5 13030000 		.4byte	.LASF53
 1124 02e9 07       		.byte	0x7
 1125 02ea 9801     		.2byte	0x198
 1126 02ec 30020000 		.4byte	0x230
 1127 02f0 02       		.byte	0x2
 1128 02f1 23       		.byte	0x23
 1129 02f2 14       		.uleb128 0x14
 1130 02f3 08       		.uleb128 0x8
 1131 02f4 86030000 		.4byte	.LASF54
 1132 02f8 07       		.byte	0x7
 1133 02f9 9B01     		.2byte	0x19b
 1134 02fb 30020000 		.4byte	0x230
 1135 02ff 02       		.byte	0x2
 1136 0300 23       		.byte	0x23
 1137 0301 18       		.uleb128 0x18
 1138 0302 00       		.byte	0
 1139 0303 03       		.uleb128 0x3
 1140 0304 FD000000 		.4byte	.LASF55
 1141 0308 06       		.byte	0x6
 1142 0309 5C       		.byte	0x5c
 1143 030a 0E030000 		.4byte	0x30e
 1144 030e 09       		.uleb128 0x9
 1145 030f 04       		.byte	0x4
 1146 0310 14030000 		.4byte	0x314
 1147 0314 0B       		.uleb128 0xb
 1148 0315 01       		.byte	0x1
 1149 0316 20030000 		.4byte	0x320
 1150 031a 0C       		.uleb128 0xc
ARM GAS  /tmp/ccV3l6aC.s 			page 42


 1151 031b 20030000 		.4byte	0x320
 1152 031f 00       		.byte	0
 1153 0320 0D       		.uleb128 0xd
 1154 0321 04       		.byte	0x4
 1155 0322 03       		.uleb128 0x3
 1156 0323 F9020000 		.4byte	.LASF56
 1157 0327 06       		.byte	0x6
 1158 0328 61       		.byte	0x61
 1159 0329 2D030000 		.4byte	0x32d
 1160 032d 0A       		.uleb128 0xa
 1161 032e 60010000 		.4byte	.LASF57
 1162 0332 14       		.byte	0x14
 1163 0333 07       		.byte	0x7
 1164 0334 6B01     		.2byte	0x16b
 1165 0336 86030000 		.4byte	0x386
 1166 033a 08       		.uleb128 0x8
 1167 033b E5040000 		.4byte	.LASF58
 1168 033f 07       		.byte	0x7
 1169 0340 6C01     		.2byte	0x16c
 1170 0342 44060000 		.4byte	0x644
 1171 0346 02       		.byte	0x2
 1172 0347 23       		.byte	0x23
 1173 0348 00       		.uleb128 0
 1174 0349 08       		.uleb128 0x8
 1175 034a A3050000 		.4byte	.LASF59
 1176 034e 07       		.byte	0x7
 1177 034f 6D01     		.2byte	0x16d
 1178 0351 44060000 		.4byte	0x644
 1179 0355 02       		.byte	0x2
 1180 0356 23       		.byte	0x23
 1181 0357 04       		.uleb128 0x4
 1182 0358 08       		.uleb128 0x8
 1183 0359 18020000 		.4byte	.LASF60
 1184 035d 07       		.byte	0x7
 1185 035e 6E01     		.2byte	0x16e
 1186 0360 FE000000 		.4byte	0xfe
 1187 0364 02       		.byte	0x2
 1188 0365 23       		.byte	0x23
 1189 0366 08       		.uleb128 0x8
 1190 0367 08       		.uleb128 0x8
 1191 0368 8F050000 		.4byte	.LASF61
 1192 036c 07       		.byte	0x7
 1193 036d 6F01     		.2byte	0x16f
 1194 036f 03030000 		.4byte	0x303
 1195 0373 02       		.byte	0x2
 1196 0374 23       		.byte	0x23
 1197 0375 0C       		.uleb128 0xc
 1198 0376 08       		.uleb128 0x8
 1199 0377 44010000 		.4byte	.LASF62
 1200 037b 07       		.byte	0x7
 1201 037c 7101     		.2byte	0x171
 1202 037e 20030000 		.4byte	0x320
 1203 0382 02       		.byte	0x2
 1204 0383 23       		.byte	0x23
 1205 0384 10       		.uleb128 0x10
 1206 0385 00       		.byte	0
 1207 0386 03       		.uleb128 0x3
ARM GAS  /tmp/ccV3l6aC.s 			page 43


 1208 0387 AF040000 		.4byte	.LASF63
 1209 038b 06       		.byte	0x6
 1210 038c 66       		.byte	0x66
 1211 038d 91030000 		.4byte	0x391
 1212 0391 0A       		.uleb128 0xa
 1213 0392 BE010000 		.4byte	.LASF64
 1214 0396 10       		.byte	0x10
 1215 0397 07       		.byte	0x7
 1216 0398 7B01     		.2byte	0x17b
 1217 039a DB030000 		.4byte	0x3db
 1218 039e 08       		.uleb128 0x8
 1219 039f E5040000 		.4byte	.LASF58
 1220 03a3 07       		.byte	0x7
 1221 03a4 7C01     		.2byte	0x17c
 1222 03a6 44060000 		.4byte	0x644
 1223 03aa 02       		.byte	0x2
 1224 03ab 23       		.byte	0x23
 1225 03ac 00       		.uleb128 0
 1226 03ad 08       		.uleb128 0x8
 1227 03ae A3050000 		.4byte	.LASF59
 1228 03b2 07       		.byte	0x7
 1229 03b3 7E01     		.2byte	0x17e
 1230 03b5 44060000 		.4byte	0x644
 1231 03b9 02       		.byte	0x2
 1232 03ba 23       		.byte	0x23
 1233 03bb 04       		.uleb128 0x4
 1234 03bc 08       		.uleb128 0x8
 1235 03bd 18020000 		.4byte	.LASF60
 1236 03c1 07       		.byte	0x7
 1237 03c2 8001     		.2byte	0x180
 1238 03c4 FE000000 		.4byte	0xfe
 1239 03c8 02       		.byte	0x2
 1240 03c9 23       		.byte	0x23
 1241 03ca 08       		.uleb128 0x8
 1242 03cb 08       		.uleb128 0x8
 1243 03cc 34020000 		.4byte	.LASF65
 1244 03d0 07       		.byte	0x7
 1245 03d1 8801     		.2byte	0x188
 1246 03d3 FE000000 		.4byte	0xfe
 1247 03d7 02       		.byte	0x2
 1248 03d8 23       		.byte	0x23
 1249 03d9 0C       		.uleb128 0xc
 1250 03da 00       		.byte	0
 1251 03db 03       		.uleb128 0x3
 1252 03dc A5020000 		.4byte	.LASF66
 1253 03e0 06       		.byte	0x6
 1254 03e1 6B       		.byte	0x6b
 1255 03e2 E6030000 		.4byte	0x3e6
 1256 03e6 0A       		.uleb128 0xa
 1257 03e7 0C010000 		.4byte	.LASF67
 1258 03eb 04       		.byte	0x4
 1259 03ec 07       		.byte	0x7
 1260 03ed A201     		.2byte	0x1a2
 1261 03ef 03040000 		.4byte	0x403
 1262 03f3 08       		.uleb128 0x8
 1263 03f4 2A030000 		.4byte	.LASF68
 1264 03f8 07       		.byte	0x7
ARM GAS  /tmp/ccV3l6aC.s 			page 44


 1265 03f9 AA01     		.2byte	0x1aa
 1266 03fb 4A060000 		.4byte	0x64a
 1267 03ff 02       		.byte	0x2
 1268 0400 23       		.byte	0x23
 1269 0401 00       		.uleb128 0
 1270 0402 00       		.byte	0
 1271 0403 03       		.uleb128 0x3
 1272 0404 46050000 		.4byte	.LASF69
 1273 0408 06       		.byte	0x6
 1274 0409 70       		.byte	0x70
 1275 040a 0E040000 		.4byte	0x40e
 1276 040e 0E       		.uleb128 0xe
 1277 040f C5030000 		.4byte	.LASF70
 1278 0413 5001     		.2byte	0x150
 1279 0415 07       		.byte	0x7
 1280 0416 C201     		.2byte	0x1c2
 1281 0418 76040000 		.4byte	0x476
 1282 041c 08       		.uleb128 0x8
 1283 041d 1A040000 		.4byte	.LASF71
 1284 0421 07       		.byte	0x7
 1285 0422 C601     		.2byte	0x1c6
 1286 0424 90020000 		.4byte	0x290
 1287 0428 02       		.byte	0x2
 1288 0429 23       		.byte	0x23
 1289 042a 00       		.uleb128 0
 1290 042b 08       		.uleb128 0x8
 1291 042c C1000000 		.4byte	.LASF72
 1292 0430 07       		.byte	0x7
 1293 0431 CA01     		.2byte	0x1ca
 1294 0433 86030000 		.4byte	0x386
 1295 0437 02       		.byte	0x2
 1296 0438 23       		.byte	0x23
 1297 0439 1C       		.uleb128 0x1c
 1298 043a 07       		.uleb128 0x7
 1299 043b 64626700 		.ascii	"dbg\000"
 1300 043f 07       		.byte	0x7
 1301 0440 CE01     		.2byte	0x1ce
 1302 0442 DB030000 		.4byte	0x3db
 1303 0446 02       		.byte	0x2
 1304 0447 23       		.byte	0x23
 1305 0448 2C       		.uleb128 0x2c
 1306 0449 08       		.uleb128 0x8
 1307 044a 50030000 		.4byte	.LASF73
 1308 044e 07       		.byte	0x7
 1309 044f D201     		.2byte	0x1d2
 1310 0451 09010000 		.4byte	0x109
 1311 0455 02       		.byte	0x2
 1312 0456 23       		.byte	0x23
 1313 0457 30       		.uleb128 0x30
 1314 0458 07       		.uleb128 0x7
 1315 0459 746D00   		.ascii	"tm\000"
 1316 045c 07       		.byte	0x7
 1317 045d D701     		.2byte	0x1d7
 1318 045f 58050000 		.4byte	0x558
 1319 0463 02       		.byte	0x2
 1320 0464 23       		.byte	0x23
 1321 0465 74       		.uleb128 0x74
ARM GAS  /tmp/ccV3l6aC.s 			page 45


 1322 0466 08       		.uleb128 0x8
 1323 0467 D6000000 		.4byte	.LASF74
 1324 046b 07       		.byte	0x7
 1325 046c E301     		.2byte	0x1e3
 1326 046e 4F060000 		.4byte	0x64f
 1327 0472 02       		.byte	0x2
 1328 0473 23       		.byte	0x23
 1329 0474 78       		.uleb128 0x78
 1330 0475 00       		.byte	0
 1331 0476 04       		.uleb128 0x4
 1332 0477 04       		.byte	0x4
 1333 0478 07       		.byte	0x7
 1334 0479 40040000 		.4byte	.LASF75
 1335 047d 03       		.uleb128 0x3
 1336 047e 55000000 		.4byte	.LASF76
 1337 0482 08       		.byte	0x8
 1338 0483 65       		.byte	0x65
 1339 0484 20030000 		.4byte	0x320
 1340 0488 03       		.uleb128 0x3
 1341 0489 84050000 		.4byte	.LASF77
 1342 048d 08       		.byte	0x8
 1343 048e 6D       		.byte	0x6d
 1344 048f 94000000 		.4byte	0x94
 1345 0493 05       		.uleb128 0x5
 1346 0494 D8020000 		.4byte	.LASF78
 1347 0498 04       		.byte	0x4
 1348 0499 08       		.byte	0x8
 1349 049a 89       		.byte	0x89
 1350 049b AE040000 		.4byte	0x4ae
 1351 049f 0F       		.uleb128 0xf
 1352 04a0 72313300 		.ascii	"r13\000"
 1353 04a4 08       		.byte	0x8
 1354 04a5 8A       		.byte	0x8a
 1355 04a6 3B050000 		.4byte	0x53b
 1356 04aa 02       		.byte	0x2
 1357 04ab 23       		.byte	0x23
 1358 04ac 00       		.uleb128 0
 1359 04ad 00       		.byte	0
 1360 04ae 05       		.uleb128 0x5
 1361 04af AC030000 		.4byte	.LASF79
 1362 04b3 24       		.byte	0x24
 1363 04b4 09       		.byte	0x9
 1364 04b5 FD       		.byte	0xfd
 1365 04b6 3B050000 		.4byte	0x53b
 1366 04ba 07       		.uleb128 0x7
 1367 04bb 723400   		.ascii	"r4\000"
 1368 04be 09       		.byte	0x9
 1369 04bf 1001     		.2byte	0x110
 1370 04c1 7D040000 		.4byte	0x47d
 1371 04c5 02       		.byte	0x2
 1372 04c6 23       		.byte	0x23
 1373 04c7 00       		.uleb128 0
 1374 04c8 07       		.uleb128 0x7
 1375 04c9 723500   		.ascii	"r5\000"
 1376 04cc 09       		.byte	0x9
 1377 04cd 1101     		.2byte	0x111
 1378 04cf 7D040000 		.4byte	0x47d
ARM GAS  /tmp/ccV3l6aC.s 			page 46


 1379 04d3 02       		.byte	0x2
 1380 04d4 23       		.byte	0x23
 1381 04d5 04       		.uleb128 0x4
 1382 04d6 07       		.uleb128 0x7
 1383 04d7 723600   		.ascii	"r6\000"
 1384 04da 09       		.byte	0x9
 1385 04db 1201     		.2byte	0x112
 1386 04dd 7D040000 		.4byte	0x47d
 1387 04e1 02       		.byte	0x2
 1388 04e2 23       		.byte	0x23
 1389 04e3 08       		.uleb128 0x8
 1390 04e4 07       		.uleb128 0x7
 1391 04e5 723700   		.ascii	"r7\000"
 1392 04e8 09       		.byte	0x9
 1393 04e9 1301     		.2byte	0x113
 1394 04eb 7D040000 		.4byte	0x47d
 1395 04ef 02       		.byte	0x2
 1396 04f0 23       		.byte	0x23
 1397 04f1 0C       		.uleb128 0xc
 1398 04f2 07       		.uleb128 0x7
 1399 04f3 723800   		.ascii	"r8\000"
 1400 04f6 09       		.byte	0x9
 1401 04f7 1401     		.2byte	0x114
 1402 04f9 7D040000 		.4byte	0x47d
 1403 04fd 02       		.byte	0x2
 1404 04fe 23       		.byte	0x23
 1405 04ff 10       		.uleb128 0x10
 1406 0500 07       		.uleb128 0x7
 1407 0501 723900   		.ascii	"r9\000"
 1408 0504 09       		.byte	0x9
 1409 0505 1501     		.2byte	0x115
 1410 0507 7D040000 		.4byte	0x47d
 1411 050b 02       		.byte	0x2
 1412 050c 23       		.byte	0x23
 1413 050d 14       		.uleb128 0x14
 1414 050e 07       		.uleb128 0x7
 1415 050f 72313000 		.ascii	"r10\000"
 1416 0513 09       		.byte	0x9
 1417 0514 1601     		.2byte	0x116
 1418 0516 7D040000 		.4byte	0x47d
 1419 051a 02       		.byte	0x2
 1420 051b 23       		.byte	0x23
 1421 051c 18       		.uleb128 0x18
 1422 051d 07       		.uleb128 0x7
 1423 051e 72313100 		.ascii	"r11\000"
 1424 0522 09       		.byte	0x9
 1425 0523 1701     		.2byte	0x117
 1426 0525 7D040000 		.4byte	0x47d
 1427 0529 02       		.byte	0x2
 1428 052a 23       		.byte	0x23
 1429 052b 1C       		.uleb128 0x1c
 1430 052c 07       		.uleb128 0x7
 1431 052d 6C7200   		.ascii	"lr\000"
 1432 0530 09       		.byte	0x9
 1433 0531 1801     		.2byte	0x118
 1434 0533 7D040000 		.4byte	0x47d
 1435 0537 02       		.byte	0x2
ARM GAS  /tmp/ccV3l6aC.s 			page 47


 1436 0538 23       		.byte	0x23
 1437 0539 20       		.uleb128 0x20
 1438 053a 00       		.byte	0
 1439 053b 09       		.uleb128 0x9
 1440 053c 04       		.byte	0x4
 1441 053d AE040000 		.4byte	0x4ae
 1442 0541 10       		.uleb128 0x10
 1443 0542 04       		.byte	0x4
 1444 0543 0A       		.byte	0xa
 1445 0544 38       		.byte	0x38
 1446 0545 58050000 		.4byte	0x558
 1447 0549 06       		.uleb128 0x6
 1448 054a EC010000 		.4byte	.LASF80
 1449 054e 0A       		.byte	0xa
 1450 054f 3C       		.byte	0x3c
 1451 0550 A6000000 		.4byte	0xa6
 1452 0554 02       		.byte	0x2
 1453 0555 23       		.byte	0x23
 1454 0556 00       		.uleb128 0
 1455 0557 00       		.byte	0
 1456 0558 03       		.uleb128 0x3
 1457 0559 3F000000 		.4byte	.LASF81
 1458 055d 0A       		.byte	0xa
 1459 055e 3D       		.byte	0x3d
 1460 055f 41050000 		.4byte	0x541
 1461 0563 11       		.uleb128 0x11
 1462 0564 04       		.byte	0x4
 1463 0565 07       		.byte	0x7
 1464 0566 FA       		.byte	0xfa
 1465 0567 C0050000 		.4byte	0x5c0
 1466 056b 12       		.uleb128 0x12
 1467 056c E5010000 		.4byte	.LASF82
 1468 0570 07       		.byte	0x7
 1469 0571 0101     		.2byte	0x101
 1470 0573 DD000000 		.4byte	0xdd
 1471 0577 12       		.uleb128 0x12
 1472 0578 AB050000 		.4byte	.LASF83
 1473 057c 07       		.byte	0x7
 1474 057d 0801     		.2byte	0x108
 1475 057f DD000000 		.4byte	0xdd
 1476 0583 12       		.uleb128 0x12
 1477 0584 B0000000 		.4byte	.LASF84
 1478 0588 07       		.byte	0x7
 1479 0589 0F01     		.2byte	0x10f
 1480 058b 20030000 		.4byte	0x320
 1481 058f 12       		.uleb128 0x12
 1482 0590 52050000 		.4byte	.LASF85
 1483 0594 07       		.byte	0x7
 1484 0595 1601     		.2byte	0x116
 1485 0597 C0050000 		.4byte	0x5c0
 1486 059b 12       		.uleb128 0x12
 1487 059c 92040000 		.4byte	.LASF86
 1488 05a0 07       		.byte	0x7
 1489 05a1 1E01     		.2byte	0x11e
 1490 05a3 EF050000 		.4byte	0x5ef
 1491 05a7 12       		.uleb128 0x12
 1492 05a8 2A000000 		.4byte	.LASF87
ARM GAS  /tmp/ccV3l6aC.s 			page 48


 1493 05ac 07       		.byte	0x7
 1494 05ad 2701     		.2byte	0x127
 1495 05af 2C060000 		.4byte	0x62c
 1496 05b3 12       		.uleb128 0x12
 1497 05b4 E5000000 		.4byte	.LASF88
 1498 05b8 07       		.byte	0x7
 1499 05b9 2F01     		.2byte	0x12f
 1500 05bb E8000000 		.4byte	0xe8
 1501 05bf 00       		.byte	0
 1502 05c0 09       		.uleb128 0x9
 1503 05c1 04       		.byte	0x4
 1504 05c2 25020000 		.4byte	0x225
 1505 05c6 05       		.uleb128 0x5
 1506 05c7 4B010000 		.4byte	.LASF89
 1507 05cb 0C       		.byte	0xc
 1508 05cc 0B       		.byte	0xb
 1509 05cd 34       		.byte	0x34
 1510 05ce EF050000 		.4byte	0x5ef
 1511 05d2 06       		.uleb128 0x6
 1512 05d3 81000000 		.4byte	.LASF90
 1513 05d7 0B       		.byte	0xb
 1514 05d8 35       		.byte	0x35
 1515 05d9 5C020000 		.4byte	0x25c
 1516 05dd 02       		.byte	0x2
 1517 05de 23       		.byte	0x23
 1518 05df 00       		.uleb128 0
 1519 05e0 06       		.uleb128 0x6
 1520 05e1 06010000 		.4byte	.LASF91
 1521 05e5 0B       		.byte	0xb
 1522 05e6 37       		.byte	0x37
 1523 05e7 F3000000 		.4byte	0xf3
 1524 05eb 02       		.byte	0x2
 1525 05ec 23       		.byte	0x23
 1526 05ed 08       		.uleb128 0x8
 1527 05ee 00       		.byte	0
 1528 05ef 09       		.uleb128 0x9
 1529 05f0 04       		.byte	0x4
 1530 05f1 C6050000 		.4byte	0x5c6
 1531 05f5 05       		.uleb128 0x5
 1532 05f6 F3010000 		.4byte	.LASF92
 1533 05fa 10       		.byte	0x10
 1534 05fb 0C       		.byte	0xc
 1535 05fc 39       		.byte	0x39
 1536 05fd 2C060000 		.4byte	0x62c
 1537 0601 06       		.uleb128 0x6
 1538 0602 9B030000 		.4byte	.LASF93
 1539 0606 0C       		.byte	0xc
 1540 0607 3A       		.byte	0x3a
 1541 0608 5C020000 		.4byte	0x25c
 1542 060c 02       		.byte	0x2
 1543 060d 23       		.byte	0x23
 1544 060e 00       		.uleb128 0
 1545 060f 06       		.uleb128 0x6
 1546 0610 79000000 		.4byte	.LASF94
 1547 0614 0C       		.byte	0xc
 1548 0615 3C       		.byte	0x3c
 1549 0616 30020000 		.4byte	0x230
ARM GAS  /tmp/ccV3l6aC.s 			page 49


 1550 061a 02       		.byte	0x2
 1551 061b 23       		.byte	0x23
 1552 061c 08       		.uleb128 0x8
 1553 061d 06       		.uleb128 0x6
 1554 061e 58050000 		.4byte	.LASF95
 1555 0622 0C       		.byte	0xc
 1556 0623 3E       		.byte	0x3e
 1557 0624 6A060000 		.4byte	0x66a
 1558 0628 02       		.byte	0x2
 1559 0629 23       		.byte	0x23
 1560 062a 0C       		.uleb128 0xc
 1561 062b 00       		.byte	0
 1562 062c 09       		.uleb128 0x9
 1563 062d 04       		.byte	0x4
 1564 062e F5050000 		.4byte	0x5f5
 1565 0632 09       		.uleb128 0x9
 1566 0633 04       		.byte	0x4
 1567 0634 38060000 		.4byte	0x638
 1568 0638 13       		.uleb128 0x13
 1569 0639 3D060000 		.4byte	0x63d
 1570 063d 04       		.uleb128 0x4
 1571 063e 01       		.byte	0x1
 1572 063f 08       		.byte	0x8
 1573 0640 50000000 		.4byte	.LASF96
 1574 0644 09       		.uleb128 0x9
 1575 0645 04       		.byte	0x4
 1576 0646 22030000 		.4byte	0x322
 1577 064a 14       		.uleb128 0x14
 1578 064b 32060000 		.4byte	0x632
 1579 064f 15       		.uleb128 0x15
 1580 0650 88040000 		.4byte	0x488
 1581 0654 5F060000 		.4byte	0x65f
 1582 0658 16       		.uleb128 0x16
 1583 0659 76040000 		.4byte	0x476
 1584 065d 1A       		.byte	0x1a
 1585 065e 00       		.byte	0
 1586 065f 03       		.uleb128 0x3
 1587 0660 99040000 		.4byte	.LASF97
 1588 0664 0C       		.byte	0xc
 1589 0665 34       		.byte	0x34
 1590 0666 F5050000 		.4byte	0x5f5
 1591 066a 09       		.uleb128 0x9
 1592 066b 04       		.byte	0x4
 1593 066c 5F060000 		.4byte	0x65f
 1594 0670 03       		.uleb128 0x3
 1595 0671 2C040000 		.4byte	.LASF98
 1596 0675 0D       		.byte	0xd
 1597 0676 34       		.byte	0x34
 1598 0677 7B060000 		.4byte	0x67b
 1599 067b 09       		.uleb128 0x9
 1600 067c 04       		.byte	0x4
 1601 067d 81060000 		.4byte	0x681
 1602 0681 17       		.uleb128 0x17
 1603 0682 01       		.byte	0x1
 1604 0683 20030000 		.4byte	0x320
 1605 0687 91060000 		.4byte	0x691
 1606 068b 0C       		.uleb128 0xc
ARM GAS  /tmp/ccV3l6aC.s 			page 50


 1607 068c 30000000 		.4byte	0x30
 1608 0690 00       		.byte	0
 1609 0691 05       		.uleb128 0x5
 1610 0692 D9040000 		.4byte	.LASF99
 1611 0696 04       		.byte	0x4
 1612 0697 0E       		.byte	0xe
 1613 0698 38       		.byte	0x38
 1614 0699 AC060000 		.4byte	0x6ac
 1615 069d 06       		.uleb128 0x6
 1616 069e 88010000 		.4byte	.LASF100
 1617 06a2 0E       		.byte	0xe
 1618 06a3 39       		.byte	0x39
 1619 06a4 AC060000 		.4byte	0x6ac
 1620 06a8 02       		.byte	0x2
 1621 06a9 23       		.byte	0x23
 1622 06aa 00       		.uleb128 0
 1623 06ab 00       		.byte	0
 1624 06ac 09       		.uleb128 0x9
 1625 06ad 04       		.byte	0x4
 1626 06ae 91060000 		.4byte	0x691
 1627 06b2 10       		.uleb128 0x10
 1628 06b3 0C       		.byte	0xc
 1629 06b4 0E       		.byte	0xe
 1630 06b5 40       		.byte	0x40
 1631 06b6 E5060000 		.4byte	0x6e5
 1632 06ba 06       		.uleb128 0x6
 1633 06bb 79020000 		.4byte	.LASF101
 1634 06bf 0E       		.byte	0xe
 1635 06c0 41       		.byte	0x41
 1636 06c1 AC060000 		.4byte	0x6ac
 1637 06c5 02       		.byte	0x2
 1638 06c6 23       		.byte	0x23
 1639 06c7 00       		.uleb128 0
 1640 06c8 06       		.uleb128 0x6
 1641 06c9 1B030000 		.4byte	.LASF102
 1642 06cd 0E       		.byte	0xe
 1643 06ce 42       		.byte	0x42
 1644 06cf 30000000 		.4byte	0x30
 1645 06d3 02       		.byte	0x2
 1646 06d4 23       		.byte	0x23
 1647 06d5 04       		.uleb128 0x4
 1648 06d6 06       		.uleb128 0x6
 1649 06d7 B4050000 		.4byte	.LASF103
 1650 06db 0E       		.byte	0xe
 1651 06dc 44       		.byte	0x44
 1652 06dd 70060000 		.4byte	0x670
 1653 06e1 02       		.byte	0x2
 1654 06e2 23       		.byte	0x23
 1655 06e3 08       		.uleb128 0x8
 1656 06e4 00       		.byte	0
 1657 06e5 03       		.uleb128 0x3
 1658 06e6 31000000 		.4byte	.LASF104
 1659 06ea 0E       		.byte	0xe
 1660 06eb 46       		.byte	0x46
 1661 06ec B2060000 		.4byte	0x6b2
 1662 06f0 18       		.uleb128 0x18
 1663 06f1 DF030000 		.4byte	.LASF111
ARM GAS  /tmp/ccV3l6aC.s 			page 51


 1664 06f5 02       		.byte	0x2
 1665 06f6 2202     		.2byte	0x222
 1666 06f8 01       		.byte	0x1
 1667 06f9 03       		.byte	0x3
 1668 06fa 0B070000 		.4byte	0x70b
 1669 06fe 19       		.uleb128 0x19
 1670 06ff B8010000 		.4byte	.LASF108
 1671 0703 02       		.byte	0x2
 1672 0704 2202     		.2byte	0x222
 1673 0706 7B000000 		.4byte	0x7b
 1674 070a 00       		.byte	0
 1675 070b 1A       		.uleb128 0x1a
 1676 070c B7000000 		.4byte	.LASF105
 1677 0710 09       		.byte	0x9
 1678 0711 C801     		.2byte	0x1c8
 1679 0713 01       		.byte	0x1
 1680 0714 03       		.byte	0x3
 1681 0715 1A       		.uleb128 0x1a
 1682 0716 97050000 		.4byte	.LASF106
 1683 071a 09       		.byte	0x9
 1684 071b E001     		.2byte	0x1e0
 1685 071d 01       		.byte	0x1
 1686 071e 03       		.byte	0x3
 1687 071f 1A       		.uleb128 0x1a
 1688 0720 FC010000 		.4byte	.LASF107
 1689 0724 0F       		.byte	0xf
 1690 0725 5A01     		.2byte	0x15a
 1691 0727 01       		.byte	0x1
 1692 0728 03       		.byte	0x3
 1693 0729 1B       		.uleb128 0x1b
 1694 072a 01       		.byte	0x1
 1695 072b CC040000 		.4byte	.LASF114
 1696 072f 01       		.byte	0x1
 1697 0730 78       		.byte	0x78
 1698 0731 01       		.byte	0x1
 1699 0732 20030000 		.4byte	0x320
 1700 0736 01       		.byte	0x1
 1701 0737 5F070000 		.4byte	0x75f
 1702 073b 1C       		.uleb128 0x1c
 1703 073c 6D7000   		.ascii	"mp\000"
 1704 073f 01       		.byte	0x1
 1705 0740 78       		.byte	0x78
 1706 0741 5F070000 		.4byte	0x75f
 1707 0745 1D       		.uleb128 0x1d
 1708 0746 09030000 		.4byte	.LASF109
 1709 074a 01       		.byte	0x1
 1710 074b 79       		.byte	0x79
 1711 074c 20030000 		.4byte	0x320
 1712 0750 1E       		.uleb128 0x1e
 1713 0751 0C040000 		.4byte	.LASF110
 1714 0755 75070000 		.4byte	0x775
 1715 0759 01       		.byte	0x1
 1716 075a CC040000 		.4byte	.LASF114
 1717 075e 00       		.byte	0
 1718 075f 09       		.uleb128 0x9
 1719 0760 04       		.byte	0x4
 1720 0761 E5060000 		.4byte	0x6e5
ARM GAS  /tmp/ccV3l6aC.s 			page 52


 1721 0765 15       		.uleb128 0x15
 1722 0766 3D060000 		.4byte	0x63d
 1723 076a 75070000 		.4byte	0x775
 1724 076e 16       		.uleb128 0x16
 1725 076f 76040000 		.4byte	0x476
 1726 0773 0C       		.byte	0xc
 1727 0774 00       		.byte	0
 1728 0775 13       		.uleb128 0x13
 1729 0776 65070000 		.4byte	0x765
 1730 077a 18       		.uleb128 0x18
 1731 077b A4010000 		.4byte	.LASF112
 1732 077f 0F       		.byte	0xf
 1733 0780 6601     		.2byte	0x166
 1734 0782 01       		.byte	0x1
 1735 0783 03       		.byte	0x3
 1736 0784 97070000 		.4byte	0x797
 1737 0788 1E       		.uleb128 0x1e
 1738 0789 96010000 		.4byte	.LASF113
 1739 078d A7070000 		.4byte	0x7a7
 1740 0791 01       		.byte	0x1
 1741 0792 A4010000 		.4byte	.LASF112
 1742 0796 00       		.byte	0
 1743 0797 15       		.uleb128 0x15
 1744 0798 3D060000 		.4byte	0x63d
 1745 079c A7070000 		.4byte	0x7a7
 1746 07a0 16       		.uleb128 0x16
 1747 07a1 76040000 		.4byte	0x476
 1748 07a5 0B       		.byte	0xb
 1749 07a6 00       		.byte	0
 1750 07a7 13       		.uleb128 0x13
 1751 07a8 97070000 		.4byte	0x797
 1752 07ac 1F       		.uleb128 0x1f
 1753 07ad 01       		.byte	0x1
 1754 07ae 7E040000 		.4byte	.LASF116
 1755 07b2 01       		.byte	0x1
 1756 07b3 AB       		.byte	0xab
 1757 07b4 01       		.byte	0x1
 1758 07b5 01       		.byte	0x1
 1759 07b6 E9070000 		.4byte	0x7e9
 1760 07ba 1C       		.uleb128 0x1c
 1761 07bb 6D7000   		.ascii	"mp\000"
 1762 07be 01       		.byte	0x1
 1763 07bf AB       		.byte	0xab
 1764 07c0 5F070000 		.4byte	0x75f
 1765 07c4 20       		.uleb128 0x20
 1766 07c5 09030000 		.4byte	.LASF109
 1767 07c9 01       		.byte	0x1
 1768 07ca AB       		.byte	0xab
 1769 07cb 20030000 		.4byte	0x320
 1770 07cf 21       		.uleb128 0x21
 1771 07d0 70687000 		.ascii	"php\000"
 1772 07d4 01       		.byte	0x1
 1773 07d5 AC       		.byte	0xac
 1774 07d6 AC060000 		.4byte	0x6ac
 1775 07da 1E       		.uleb128 0x1e
 1776 07db 63040000 		.4byte	.LASF115
 1777 07df E9070000 		.4byte	0x7e9
ARM GAS  /tmp/ccV3l6aC.s 			page 53


 1778 07e3 01       		.byte	0x1
 1779 07e4 7E040000 		.4byte	.LASF116
 1780 07e8 00       		.byte	0
 1781 07e9 13       		.uleb128 0x13
 1782 07ea 97070000 		.4byte	0x797
 1783 07ee 1F       		.uleb128 0x1f
 1784 07ef 01       		.byte	0x1
 1785 07f0 0D020000 		.4byte	.LASF117
 1786 07f4 01       		.byte	0x1
 1787 07f5 C1       		.byte	0xc1
 1788 07f6 01       		.byte	0x1
 1789 07f7 01       		.byte	0x1
 1790 07f8 12080000 		.4byte	0x812
 1791 07fc 1C       		.uleb128 0x1c
 1792 07fd 6D7000   		.ascii	"mp\000"
 1793 0800 01       		.byte	0x1
 1794 0801 C1       		.byte	0xc1
 1795 0802 5F070000 		.4byte	0x75f
 1796 0806 20       		.uleb128 0x20
 1797 0807 09030000 		.4byte	.LASF109
 1798 080b 01       		.byte	0x1
 1799 080c C1       		.byte	0xc1
 1800 080d 20030000 		.4byte	0x320
 1801 0811 00       		.byte	0
 1802 0812 22       		.uleb128 0x22
 1803 0813 65000000 		.4byte	.LASF118
 1804 0817 0E       		.byte	0xe
 1805 0818 89       		.byte	0x89
 1806 0819 01       		.byte	0x1
 1807 081a 03       		.byte	0x3
 1808 081b 35080000 		.4byte	0x835
 1809 081f 1C       		.uleb128 0x1c
 1810 0820 6D7000   		.ascii	"mp\000"
 1811 0823 0E       		.byte	0xe
 1812 0824 89       		.byte	0x89
 1813 0825 5F070000 		.4byte	0x75f
 1814 0829 20       		.uleb128 0x20
 1815 082a 09030000 		.4byte	.LASF109
 1816 082e 0E       		.byte	0xe
 1817 082f 89       		.byte	0x89
 1818 0830 20030000 		.4byte	0x320
 1819 0834 00       		.byte	0
 1820 0835 23       		.uleb128 0x23
 1821 0836 01       		.byte	0x1
 1822 0837 E0020000 		.4byte	.LASF121
 1823 083b 01       		.byte	0x1
 1824 083c 4B       		.byte	0x4b
 1825 083d 01       		.byte	0x1
 1826 083e 00000000 		.4byte	.LFB241
 1827 0842 0A000000 		.4byte	.LFE241
 1828 0846 02       		.byte	0x2
 1829 0847 7D       		.byte	0x7d
 1830 0848 00       		.sleb128 0
 1831 0849 01       		.byte	0x1
 1832 084a 7F080000 		.4byte	0x87f
 1833 084e 24       		.uleb128 0x24
 1834 084f 6D7000   		.ascii	"mp\000"
ARM GAS  /tmp/ccV3l6aC.s 			page 54


 1835 0852 01       		.byte	0x1
 1836 0853 4B       		.byte	0x4b
 1837 0854 5F070000 		.4byte	0x75f
 1838 0858 01       		.byte	0x1
 1839 0859 50       		.byte	0x50
 1840 085a 25       		.uleb128 0x25
 1841 085b 0E030000 		.4byte	.LASF119
 1842 085f 01       		.byte	0x1
 1843 0860 4B       		.byte	0x4b
 1844 0861 30000000 		.4byte	0x30
 1845 0865 01       		.byte	0x1
 1846 0866 51       		.byte	0x51
 1847 0867 25       		.uleb128 0x25
 1848 0868 F4030000 		.4byte	.LASF120
 1849 086c 01       		.byte	0x1
 1850 086d 4B       		.byte	0x4b
 1851 086e 70060000 		.4byte	0x670
 1852 0872 01       		.byte	0x1
 1853 0873 52       		.byte	0x52
 1854 0874 26       		.uleb128 0x26
 1855 0875 34030000 		.4byte	.LASF123
 1856 0879 8F080000 		.4byte	0x88f
 1857 087d 01       		.byte	0x1
 1858 087e 00       		.byte	0
 1859 087f 15       		.uleb128 0x15
 1860 0880 3D060000 		.4byte	0x63d
 1861 0884 8F080000 		.4byte	0x88f
 1862 0888 16       		.uleb128 0x16
 1863 0889 76040000 		.4byte	0x476
 1864 088d 10       		.byte	0x10
 1865 088e 00       		.byte	0
 1866 088f 13       		.uleb128 0x13
 1867 0890 7F080000 		.4byte	0x87f
 1868 0894 27       		.uleb128 0x27
 1869 0895 01       		.byte	0x1
 1870 0896 CF030000 		.4byte	.LASF122
 1871 089a 01       		.byte	0x1
 1872 089b 61       		.byte	0x61
 1873 089c 01       		.byte	0x1
 1874 089d 00000000 		.4byte	.LFB242
 1875 08a1 22000000 		.4byte	.LFE242
 1876 08a5 00000000 		.4byte	.LLST0
 1877 08a9 01       		.byte	0x1
 1878 08aa E6090000 		.4byte	0x9e6
 1879 08ae 24       		.uleb128 0x24
 1880 08af 6D7000   		.ascii	"mp\000"
 1881 08b2 01       		.byte	0x1
 1882 08b3 61       		.byte	0x61
 1883 08b4 5F070000 		.4byte	0x75f
 1884 08b8 01       		.byte	0x1
 1885 08b9 50       		.byte	0x50
 1886 08ba 28       		.uleb128 0x28
 1887 08bb 7000     		.ascii	"p\000"
 1888 08bd 01       		.byte	0x1
 1889 08be 61       		.byte	0x61
 1890 08bf 20030000 		.4byte	0x320
 1891 08c3 20000000 		.4byte	.LLST1
ARM GAS  /tmp/ccV3l6aC.s 			page 55


 1892 08c7 28       		.uleb128 0x28
 1893 08c8 6E00     		.ascii	"n\000"
 1894 08ca 01       		.byte	0x1
 1895 08cb 61       		.byte	0x61
 1896 08cc 30000000 		.4byte	0x30
 1897 08d0 3E000000 		.4byte	.LLST2
 1898 08d4 26       		.uleb128 0x26
 1899 08d5 63030000 		.4byte	.LASF124
 1900 08d9 F6090000 		.4byte	0x9f6
 1901 08dd 01       		.byte	0x1
 1902 08de 29       		.uleb128 0x29
 1903 08df 12080000 		.4byte	0x812
 1904 08e3 04000000 		.4byte	.LBB65
 1905 08e7 16000000 		.4byte	.LBE65
 1906 08eb 01       		.byte	0x1
 1907 08ec 66       		.byte	0x66
 1908 08ed 2A       		.uleb128 0x2a
 1909 08ee 29080000 		.4byte	0x829
 1910 08f2 51000000 		.4byte	.LLST3
 1911 08f6 2A       		.uleb128 0x2a
 1912 08f7 1F080000 		.4byte	0x81f
 1913 08fb 70000000 		.4byte	.LLST4
 1914 08ff 29       		.uleb128 0x29
 1915 0900 EE070000 		.4byte	0x7ee
 1916 0904 04000000 		.4byte	.LBB66
 1917 0908 16000000 		.4byte	.LBE66
 1918 090c 0E       		.byte	0xe
 1919 090d 8B       		.byte	0x8b
 1920 090e 2A       		.uleb128 0x2a
 1921 090f 06080000 		.4byte	0x806
 1922 0913 51000000 		.4byte	.LLST3
 1923 0917 2A       		.uleb128 0x2a
 1924 0918 FC070000 		.4byte	0x7fc
 1925 091c 70000000 		.4byte	.LLST4
 1926 0920 2B       		.uleb128 0x2b
 1927 0921 1F070000 		.4byte	0x71f
 1928 0925 04000000 		.4byte	.LBB67
 1929 0929 00000000 		.4byte	.Ldebug_ranges0+0
 1930 092d 01       		.byte	0x1
 1931 092e C3       		.byte	0xc3
 1932 092f 5F090000 		.4byte	0x95f
 1933 0933 2C       		.uleb128 0x2c
 1934 0934 0B070000 		.4byte	0x70b
 1935 0938 04000000 		.4byte	.LBB68
 1936 093c 18000000 		.4byte	.Ldebug_ranges0+0x18
 1937 0940 0F       		.byte	0xf
 1938 0941 5C01     		.2byte	0x15c
 1939 0943 2C       		.uleb128 0x2c
 1940 0944 F0060000 		.4byte	0x6f0
 1941 0948 04000000 		.4byte	.LBB69
 1942 094c 30000000 		.4byte	.Ldebug_ranges0+0x30
 1943 0950 09       		.byte	0x9
 1944 0951 D001     		.2byte	0x1d0
 1945 0953 2A       		.uleb128 0x2a
 1946 0954 FE060000 		.4byte	0x6fe
 1947 0958 83000000 		.4byte	.LLST7
 1948 095c 00       		.byte	0
ARM GAS  /tmp/ccV3l6aC.s 			page 56


 1949 095d 00       		.byte	0
 1950 095e 00       		.byte	0
 1951 095f 2B       		.uleb128 0x2b
 1952 0960 7A070000 		.4byte	0x77a
 1953 0964 06000000 		.4byte	.LBB74
 1954 0968 48000000 		.4byte	.Ldebug_ranges0+0x48
 1955 096c 01       		.byte	0x1
 1956 096d C5       		.byte	0xc5
 1957 096e A9090000 		.4byte	0x9a9
 1958 0972 2D       		.uleb128 0x2d
 1959 0973 60000000 		.4byte	.Ldebug_ranges0+0x60
 1960 0977 2E       		.uleb128 0x2e
 1961 0978 88070000 		.4byte	0x788
 1962 097c 2C       		.uleb128 0x2c
 1963 097d 15070000 		.4byte	0x715
 1964 0981 06000000 		.4byte	.LBB76
 1965 0985 78000000 		.4byte	.Ldebug_ranges0+0x78
 1966 0989 0F       		.byte	0xf
 1967 098a 7301     		.2byte	0x173
 1968 098c 2C       		.uleb128 0x2c
 1969 098d F0060000 		.4byte	0x6f0
 1970 0991 06000000 		.4byte	.LBB77
 1971 0995 90000000 		.4byte	.Ldebug_ranges0+0x90
 1972 0999 09       		.byte	0x9
 1973 099a E301     		.2byte	0x1e3
 1974 099c 2A       		.uleb128 0x2a
 1975 099d FE060000 		.4byte	0x6fe
 1976 09a1 98000000 		.4byte	.LLST8
 1977 09a5 00       		.byte	0
 1978 09a6 00       		.byte	0
 1979 09a7 00       		.byte	0
 1980 09a8 00       		.byte	0
 1981 09a9 29       		.uleb128 0x29
 1982 09aa AC070000 		.4byte	0x7ac
 1983 09ae 0C000000 		.4byte	.LBB84
 1984 09b2 12000000 		.4byte	.LBE84
 1985 09b6 01       		.byte	0x1
 1986 09b7 C4       		.byte	0xc4
 1987 09b8 2A       		.uleb128 0x2a
 1988 09b9 C4070000 		.4byte	0x7c4
 1989 09bd AC000000 		.4byte	.LLST9
 1990 09c1 2A       		.uleb128 0x2a
 1991 09c2 BA070000 		.4byte	0x7ba
 1992 09c6 CB000000 		.4byte	.LLST10
 1993 09ca 2F       		.uleb128 0x2f
 1994 09cb 0C000000 		.4byte	.LBB85
 1995 09cf 12000000 		.4byte	.LBE85
 1996 09d3 30       		.uleb128 0x30
 1997 09d4 CF070000 		.4byte	0x7cf
 1998 09d8 AC000000 		.4byte	.LLST9
 1999 09dc 2E       		.uleb128 0x2e
 2000 09dd DA070000 		.4byte	0x7da
 2001 09e1 00       		.byte	0
 2002 09e2 00       		.byte	0
 2003 09e3 00       		.byte	0
 2004 09e4 00       		.byte	0
 2005 09e5 00       		.byte	0
ARM GAS  /tmp/ccV3l6aC.s 			page 57


 2006 09e6 15       		.uleb128 0x15
 2007 09e7 3D060000 		.4byte	0x63d
 2008 09eb F6090000 		.4byte	0x9f6
 2009 09ef 16       		.uleb128 0x16
 2010 09f0 76040000 		.4byte	0x476
 2011 09f4 0F       		.byte	0xf
 2012 09f5 00       		.byte	0
 2013 09f6 13       		.uleb128 0x13
 2014 09f7 E6090000 		.4byte	0x9e6
 2015 09fb 31       		.uleb128 0x31
 2016 09fc 29070000 		.4byte	0x729
 2017 0a00 00000000 		.4byte	.LFB243
 2018 0a04 18000000 		.4byte	.LFE243
 2019 0a08 DE000000 		.4byte	.LLST12
 2020 0a0c 01       		.byte	0x1
 2021 0a0d 290A0000 		.4byte	0xa29
 2022 0a11 2A       		.uleb128 0x2a
 2023 0a12 3B070000 		.4byte	0x73b
 2024 0a16 FE000000 		.4byte	.LLST13
 2025 0a1a 30       		.uleb128 0x30
 2026 0a1b 45070000 		.4byte	0x745
 2027 0a1f 2A010000 		.4byte	.LLST14
 2028 0a23 2E       		.uleb128 0x2e
 2029 0a24 50070000 		.4byte	0x750
 2030 0a28 00       		.byte	0
 2031 0a29 32       		.uleb128 0x32
 2032 0a2a 01       		.byte	0x1
 2033 0a2b 20040000 		.4byte	.LASF129
 2034 0a2f 01       		.byte	0x1
 2035 0a30 95       		.byte	0x95
 2036 0a31 01       		.byte	0x1
 2037 0a32 20030000 		.4byte	0x320
 2038 0a36 00000000 		.4byte	.LFB244
 2039 0a3a 26000000 		.4byte	.LFE244
 2040 0a3e 54010000 		.4byte	.LLST15
 2041 0a42 01       		.byte	0x1
 2042 0a43 1A0B0000 		.4byte	0xb1a
 2043 0a47 28       		.uleb128 0x28
 2044 0a48 6D7000   		.ascii	"mp\000"
 2045 0a4b 01       		.byte	0x1
 2046 0a4c 95       		.byte	0x95
 2047 0a4d 5F070000 		.4byte	0x75f
 2048 0a51 74010000 		.4byte	.LLST16
 2049 0a55 33       		.uleb128 0x33
 2050 0a56 09030000 		.4byte	.LASF109
 2051 0a5a 01       		.byte	0x1
 2052 0a5b 96       		.byte	0x96
 2053 0a5c 20030000 		.4byte	0x320
 2054 0a60 01       		.byte	0x1
 2055 0a61 50       		.byte	0x50
 2056 0a62 2B       		.uleb128 0x2b
 2057 0a63 1F070000 		.4byte	0x71f
 2058 0a67 02000000 		.4byte	.LBB87
 2059 0a6b A8000000 		.4byte	.Ldebug_ranges0+0xa8
 2060 0a6f 01       		.byte	0x1
 2061 0a70 98       		.byte	0x98
 2062 0a71 9E0A0000 		.4byte	0xa9e
ARM GAS  /tmp/ccV3l6aC.s 			page 58


 2063 0a75 2C       		.uleb128 0x2c
 2064 0a76 0B070000 		.4byte	0x70b
 2065 0a7a 02000000 		.4byte	.LBB88
 2066 0a7e C0000000 		.4byte	.Ldebug_ranges0+0xc0
 2067 0a82 0F       		.byte	0xf
 2068 0a83 5C01     		.2byte	0x15c
 2069 0a85 2C       		.uleb128 0x2c
 2070 0a86 F0060000 		.4byte	0x6f0
 2071 0a8a 02000000 		.4byte	.LBB89
 2072 0a8e D8000000 		.4byte	.Ldebug_ranges0+0xd8
 2073 0a92 09       		.byte	0x9
 2074 0a93 D001     		.2byte	0x1d0
 2075 0a95 34       		.uleb128 0x34
 2076 0a96 FE060000 		.4byte	0x6fe
 2077 0a9a 20       		.byte	0x20
 2078 0a9b 00       		.byte	0
 2079 0a9c 00       		.byte	0
 2080 0a9d 00       		.byte	0
 2081 0a9e 2B       		.uleb128 0x2b
 2082 0a9f 29070000 		.4byte	0x729
 2083 0aa3 0A000000 		.4byte	.LBB95
 2084 0aa7 F0000000 		.4byte	.Ldebug_ranges0+0xf0
 2085 0aab 01       		.byte	0x1
 2086 0aac 99       		.byte	0x99
 2087 0aad CF0A0000 		.4byte	0xacf
 2088 0ab1 2A       		.uleb128 0x2a
 2089 0ab2 3B070000 		.4byte	0x73b
 2090 0ab6 B9010000 		.4byte	.LLST17
 2091 0aba 2D       		.uleb128 0x2d
 2092 0abb 08010000 		.4byte	.Ldebug_ranges0+0x108
 2093 0abf 30       		.uleb128 0x30
 2094 0ac0 45070000 		.4byte	0x745
 2095 0ac4 FE010000 		.4byte	.LLST18
 2096 0ac8 2E       		.uleb128 0x2e
 2097 0ac9 50070000 		.4byte	0x750
 2098 0acd 00       		.byte	0
 2099 0ace 00       		.byte	0
 2100 0acf 29       		.uleb128 0x29
 2101 0ad0 7A070000 		.4byte	0x77a
 2102 0ad4 12000000 		.4byte	.LBB98
 2103 0ad8 18000000 		.4byte	.LBE98
 2104 0adc 01       		.byte	0x1
 2105 0add 9A       		.byte	0x9a
 2106 0ade 2F       		.uleb128 0x2f
 2107 0adf 12000000 		.4byte	.LBB99
 2108 0ae3 18000000 		.4byte	.LBE99
 2109 0ae7 2E       		.uleb128 0x2e
 2110 0ae8 88070000 		.4byte	0x788
 2111 0aec 35       		.uleb128 0x35
 2112 0aed 15070000 		.4byte	0x715
 2113 0af1 12000000 		.4byte	.LBB100
 2114 0af5 18000000 		.4byte	.LBE100
 2115 0af9 0F       		.byte	0xf
 2116 0afa 7301     		.2byte	0x173
 2117 0afc 35       		.uleb128 0x35
 2118 0afd F0060000 		.4byte	0x6f0
 2119 0b01 12000000 		.4byte	.LBB101
ARM GAS  /tmp/ccV3l6aC.s 			page 59


 2120 0b05 18000000 		.4byte	.LBE101
 2121 0b09 09       		.byte	0x9
 2122 0b0a E301     		.2byte	0x1e3
 2123 0b0c 2A       		.uleb128 0x2a
 2124 0b0d FE060000 		.4byte	0x6fe
 2125 0b11 28020000 		.4byte	.LLST19
 2126 0b15 00       		.byte	0
 2127 0b16 00       		.byte	0
 2128 0b17 00       		.byte	0
 2129 0b18 00       		.byte	0
 2130 0b19 00       		.byte	0
 2131 0b1a 36       		.uleb128 0x36
 2132 0b1b AC070000 		.4byte	0x7ac
 2133 0b1f 00000000 		.4byte	.LFB245
 2134 0b23 08000000 		.4byte	.LFE245
 2135 0b27 02       		.byte	0x2
 2136 0b28 7D       		.byte	0x7d
 2137 0b29 00       		.sleb128 0
 2138 0b2a 01       		.byte	0x1
 2139 0b2b 4A0B0000 		.4byte	0xb4a
 2140 0b2f 37       		.uleb128 0x37
 2141 0b30 BA070000 		.4byte	0x7ba
 2142 0b34 01       		.byte	0x1
 2143 0b35 50       		.byte	0x50
 2144 0b36 37       		.uleb128 0x37
 2145 0b37 C4070000 		.4byte	0x7c4
 2146 0b3b 01       		.byte	0x1
 2147 0b3c 51       		.byte	0x51
 2148 0b3d 38       		.uleb128 0x38
 2149 0b3e CF070000 		.4byte	0x7cf
 2150 0b42 01       		.byte	0x1
 2151 0b43 51       		.byte	0x51
 2152 0b44 2E       		.uleb128 0x2e
 2153 0b45 DA070000 		.4byte	0x7da
 2154 0b49 00       		.byte	0
 2155 0b4a 36       		.uleb128 0x36
 2156 0b4b EE070000 		.4byte	0x7ee
 2157 0b4f 00000000 		.4byte	.LFB246
 2158 0b53 14000000 		.4byte	.LFE246
 2159 0b57 02       		.byte	0x2
 2160 0b58 7D       		.byte	0x7d
 2161 0b59 00       		.sleb128 0
 2162 0b5a 01       		.byte	0x1
 2163 0b5b 290C0000 		.4byte	0xc29
 2164 0b5f 37       		.uleb128 0x37
 2165 0b60 FC070000 		.4byte	0x7fc
 2166 0b64 01       		.byte	0x1
 2167 0b65 50       		.byte	0x50
 2168 0b66 37       		.uleb128 0x37
 2169 0b67 06080000 		.4byte	0x806
 2170 0b6b 01       		.byte	0x1
 2171 0b6c 51       		.byte	0x51
 2172 0b6d 39       		.uleb128 0x39
 2173 0b6e 1F070000 		.4byte	0x71f
 2174 0b72 00000000 		.4byte	.LBB104
 2175 0b76 06000000 		.4byte	.LBE104
 2176 0b7a 01       		.byte	0x1
ARM GAS  /tmp/ccV3l6aC.s 			page 60


 2177 0b7b C3       		.byte	0xc3
 2178 0b7c A90B0000 		.4byte	0xba9
 2179 0b80 35       		.uleb128 0x35
 2180 0b81 0B070000 		.4byte	0x70b
 2181 0b85 00000000 		.4byte	.LBB105
 2182 0b89 06000000 		.4byte	.LBE105
 2183 0b8d 0F       		.byte	0xf
 2184 0b8e 5C01     		.2byte	0x15c
 2185 0b90 35       		.uleb128 0x35
 2186 0b91 F0060000 		.4byte	0x6f0
 2187 0b95 00000000 		.4byte	.LBB106
 2188 0b99 06000000 		.4byte	.LBE106
 2189 0b9d 09       		.byte	0x9
 2190 0b9e D001     		.2byte	0x1d0
 2191 0ba0 34       		.uleb128 0x34
 2192 0ba1 FE060000 		.4byte	0x6fe
 2193 0ba5 20       		.byte	0x20
 2194 0ba6 00       		.byte	0
 2195 0ba7 00       		.byte	0
 2196 0ba8 00       		.byte	0
 2197 0ba9 39       		.uleb128 0x39
 2198 0baa AC070000 		.4byte	0x7ac
 2199 0bae 06000000 		.4byte	.LBB108
 2200 0bb2 0C000000 		.4byte	.LBE108
 2201 0bb6 01       		.byte	0x1
 2202 0bb7 C4       		.byte	0xc4
 2203 0bb8 E10B0000 		.4byte	0xbe1
 2204 0bbc 37       		.uleb128 0x37
 2205 0bbd C4070000 		.4byte	0x7c4
 2206 0bc1 01       		.byte	0x1
 2207 0bc2 51       		.byte	0x51
 2208 0bc3 37       		.uleb128 0x37
 2209 0bc4 BA070000 		.4byte	0x7ba
 2210 0bc8 01       		.byte	0x1
 2211 0bc9 50       		.byte	0x50
 2212 0bca 2F       		.uleb128 0x2f
 2213 0bcb 06000000 		.4byte	.LBB109
 2214 0bcf 0C000000 		.4byte	.LBE109
 2215 0bd3 38       		.uleb128 0x38
 2216 0bd4 CF070000 		.4byte	0x7cf
 2217 0bd8 01       		.byte	0x1
 2218 0bd9 51       		.byte	0x51
 2219 0bda 2E       		.uleb128 0x2e
 2220 0bdb DA070000 		.4byte	0x7da
 2221 0bdf 00       		.byte	0
 2222 0be0 00       		.byte	0
 2223 0be1 29       		.uleb128 0x29
 2224 0be2 7A070000 		.4byte	0x77a
 2225 0be6 0C000000 		.4byte	.LBB110
 2226 0bea 14000000 		.4byte	.LBE110
 2227 0bee 01       		.byte	0x1
 2228 0bef C5       		.byte	0xc5
 2229 0bf0 2F       		.uleb128 0x2f
 2230 0bf1 0C000000 		.4byte	.LBB111
 2231 0bf5 14000000 		.4byte	.LBE111
 2232 0bf9 2E       		.uleb128 0x2e
 2233 0bfa 88070000 		.4byte	0x788
ARM GAS  /tmp/ccV3l6aC.s 			page 61


 2234 0bfe 35       		.uleb128 0x35
 2235 0bff 15070000 		.4byte	0x715
 2236 0c03 0C000000 		.4byte	.LBB112
 2237 0c07 14000000 		.4byte	.LBE112
 2238 0c0b 0F       		.byte	0xf
 2239 0c0c 7301     		.2byte	0x173
 2240 0c0e 35       		.uleb128 0x35
 2241 0c0f F0060000 		.4byte	0x6f0
 2242 0c13 0C000000 		.4byte	.LBB113
 2243 0c17 14000000 		.4byte	.LBE113
 2244 0c1b 09       		.byte	0x9
 2245 0c1c E301     		.2byte	0x1e3
 2246 0c1e 34       		.uleb128 0x34
 2247 0c1f FE060000 		.4byte	0x6fe
 2248 0c23 00       		.byte	0
 2249 0c24 00       		.byte	0
 2250 0c25 00       		.byte	0
 2251 0c26 00       		.byte	0
 2252 0c27 00       		.byte	0
 2253 0c28 00       		.byte	0
 2254 0c29 3A       		.uleb128 0x3a
 2255 0c2a B8030000 		.4byte	.LASF125
 2256 0c2e 10       		.byte	0x10
 2257 0c2f FA06     		.2byte	0x6fa
 2258 0c31 370C0000 		.4byte	0xc37
 2259 0c35 01       		.byte	0x1
 2260 0c36 01       		.byte	0x1
 2261 0c37 14       		.uleb128 0x14
 2262 0c38 69000000 		.4byte	0x69
 2263 0c3c 3B       		.uleb128 0x3b
 2264 0c3d 636800   		.ascii	"ch\000"
 2265 0c40 07       		.byte	0x7
 2266 0c41 0902     		.2byte	0x209
 2267 0c43 03040000 		.4byte	0x403
 2268 0c47 01       		.byte	0x1
 2269 0c48 01       		.byte	0x1
 2270 0c49 00       		.byte	0
 2271              		.section	.debug_abbrev,"",%progbits
 2272              	.Ldebug_abbrev0:
 2273 0000 01       		.uleb128 0x1
 2274 0001 11       		.uleb128 0x11
 2275 0002 01       		.byte	0x1
 2276 0003 25       		.uleb128 0x25
 2277 0004 0E       		.uleb128 0xe
 2278 0005 13       		.uleb128 0x13
 2279 0006 0B       		.uleb128 0xb
 2280 0007 03       		.uleb128 0x3
 2281 0008 0E       		.uleb128 0xe
 2282 0009 1B       		.uleb128 0x1b
 2283 000a 0E       		.uleb128 0xe
 2284 000b 55       		.uleb128 0x55
 2285 000c 06       		.uleb128 0x6
 2286 000d 11       		.uleb128 0x11
 2287 000e 01       		.uleb128 0x1
 2288 000f 52       		.uleb128 0x52
 2289 0010 01       		.uleb128 0x1
 2290 0011 10       		.uleb128 0x10
ARM GAS  /tmp/ccV3l6aC.s 			page 62


 2291 0012 06       		.uleb128 0x6
 2292 0013 00       		.byte	0
 2293 0014 00       		.byte	0
 2294 0015 02       		.uleb128 0x2
 2295 0016 24       		.uleb128 0x24
 2296 0017 00       		.byte	0
 2297 0018 0B       		.uleb128 0xb
 2298 0019 0B       		.uleb128 0xb
 2299 001a 3E       		.uleb128 0x3e
 2300 001b 0B       		.uleb128 0xb
 2301 001c 03       		.uleb128 0x3
 2302 001d 08       		.uleb128 0x8
 2303 001e 00       		.byte	0
 2304 001f 00       		.byte	0
 2305 0020 03       		.uleb128 0x3
 2306 0021 16       		.uleb128 0x16
 2307 0022 00       		.byte	0
 2308 0023 03       		.uleb128 0x3
 2309 0024 0E       		.uleb128 0xe
 2310 0025 3A       		.uleb128 0x3a
 2311 0026 0B       		.uleb128 0xb
 2312 0027 3B       		.uleb128 0x3b
 2313 0028 0B       		.uleb128 0xb
 2314 0029 49       		.uleb128 0x49
 2315 002a 13       		.uleb128 0x13
 2316 002b 00       		.byte	0
 2317 002c 00       		.byte	0
 2318 002d 04       		.uleb128 0x4
 2319 002e 24       		.uleb128 0x24
 2320 002f 00       		.byte	0
 2321 0030 0B       		.uleb128 0xb
 2322 0031 0B       		.uleb128 0xb
 2323 0032 3E       		.uleb128 0x3e
 2324 0033 0B       		.uleb128 0xb
 2325 0034 03       		.uleb128 0x3
 2326 0035 0E       		.uleb128 0xe
 2327 0036 00       		.byte	0
 2328 0037 00       		.byte	0
 2329 0038 05       		.uleb128 0x5
 2330 0039 13       		.uleb128 0x13
 2331 003a 01       		.byte	0x1
 2332 003b 03       		.uleb128 0x3
 2333 003c 0E       		.uleb128 0xe
 2334 003d 0B       		.uleb128 0xb
 2335 003e 0B       		.uleb128 0xb
 2336 003f 3A       		.uleb128 0x3a
 2337 0040 0B       		.uleb128 0xb
 2338 0041 3B       		.uleb128 0x3b
 2339 0042 0B       		.uleb128 0xb
 2340 0043 01       		.uleb128 0x1
 2341 0044 13       		.uleb128 0x13
 2342 0045 00       		.byte	0
 2343 0046 00       		.byte	0
 2344 0047 06       		.uleb128 0x6
 2345 0048 0D       		.uleb128 0xd
 2346 0049 00       		.byte	0
 2347 004a 03       		.uleb128 0x3
ARM GAS  /tmp/ccV3l6aC.s 			page 63


 2348 004b 0E       		.uleb128 0xe
 2349 004c 3A       		.uleb128 0x3a
 2350 004d 0B       		.uleb128 0xb
 2351 004e 3B       		.uleb128 0x3b
 2352 004f 0B       		.uleb128 0xb
 2353 0050 49       		.uleb128 0x49
 2354 0051 13       		.uleb128 0x13
 2355 0052 38       		.uleb128 0x38
 2356 0053 0A       		.uleb128 0xa
 2357 0054 00       		.byte	0
 2358 0055 00       		.byte	0
 2359 0056 07       		.uleb128 0x7
 2360 0057 0D       		.uleb128 0xd
 2361 0058 00       		.byte	0
 2362 0059 03       		.uleb128 0x3
 2363 005a 08       		.uleb128 0x8
 2364 005b 3A       		.uleb128 0x3a
 2365 005c 0B       		.uleb128 0xb
 2366 005d 3B       		.uleb128 0x3b
 2367 005e 05       		.uleb128 0x5
 2368 005f 49       		.uleb128 0x49
 2369 0060 13       		.uleb128 0x13
 2370 0061 38       		.uleb128 0x38
 2371 0062 0A       		.uleb128 0xa
 2372 0063 00       		.byte	0
 2373 0064 00       		.byte	0
 2374 0065 08       		.uleb128 0x8
 2375 0066 0D       		.uleb128 0xd
 2376 0067 00       		.byte	0
 2377 0068 03       		.uleb128 0x3
 2378 0069 0E       		.uleb128 0xe
 2379 006a 3A       		.uleb128 0x3a
 2380 006b 0B       		.uleb128 0xb
 2381 006c 3B       		.uleb128 0x3b
 2382 006d 05       		.uleb128 0x5
 2383 006e 49       		.uleb128 0x49
 2384 006f 13       		.uleb128 0x13
 2385 0070 38       		.uleb128 0x38
 2386 0071 0A       		.uleb128 0xa
 2387 0072 00       		.byte	0
 2388 0073 00       		.byte	0
 2389 0074 09       		.uleb128 0x9
 2390 0075 0F       		.uleb128 0xf
 2391 0076 00       		.byte	0
 2392 0077 0B       		.uleb128 0xb
 2393 0078 0B       		.uleb128 0xb
 2394 0079 49       		.uleb128 0x49
 2395 007a 13       		.uleb128 0x13
 2396 007b 00       		.byte	0
 2397 007c 00       		.byte	0
 2398 007d 0A       		.uleb128 0xa
 2399 007e 13       		.uleb128 0x13
 2400 007f 01       		.byte	0x1
 2401 0080 03       		.uleb128 0x3
 2402 0081 0E       		.uleb128 0xe
 2403 0082 0B       		.uleb128 0xb
 2404 0083 0B       		.uleb128 0xb
ARM GAS  /tmp/ccV3l6aC.s 			page 64


 2405 0084 3A       		.uleb128 0x3a
 2406 0085 0B       		.uleb128 0xb
 2407 0086 3B       		.uleb128 0x3b
 2408 0087 05       		.uleb128 0x5
 2409 0088 01       		.uleb128 0x1
 2410 0089 13       		.uleb128 0x13
 2411 008a 00       		.byte	0
 2412 008b 00       		.byte	0
 2413 008c 0B       		.uleb128 0xb
 2414 008d 15       		.uleb128 0x15
 2415 008e 01       		.byte	0x1
 2416 008f 27       		.uleb128 0x27
 2417 0090 0C       		.uleb128 0xc
 2418 0091 01       		.uleb128 0x1
 2419 0092 13       		.uleb128 0x13
 2420 0093 00       		.byte	0
 2421 0094 00       		.byte	0
 2422 0095 0C       		.uleb128 0xc
 2423 0096 05       		.uleb128 0x5
 2424 0097 00       		.byte	0
 2425 0098 49       		.uleb128 0x49
 2426 0099 13       		.uleb128 0x13
 2427 009a 00       		.byte	0
 2428 009b 00       		.byte	0
 2429 009c 0D       		.uleb128 0xd
 2430 009d 0F       		.uleb128 0xf
 2431 009e 00       		.byte	0
 2432 009f 0B       		.uleb128 0xb
 2433 00a0 0B       		.uleb128 0xb
 2434 00a1 00       		.byte	0
 2435 00a2 00       		.byte	0
 2436 00a3 0E       		.uleb128 0xe
 2437 00a4 13       		.uleb128 0x13
 2438 00a5 01       		.byte	0x1
 2439 00a6 03       		.uleb128 0x3
 2440 00a7 0E       		.uleb128 0xe
 2441 00a8 0B       		.uleb128 0xb
 2442 00a9 05       		.uleb128 0x5
 2443 00aa 3A       		.uleb128 0x3a
 2444 00ab 0B       		.uleb128 0xb
 2445 00ac 3B       		.uleb128 0x3b
 2446 00ad 05       		.uleb128 0x5
 2447 00ae 01       		.uleb128 0x1
 2448 00af 13       		.uleb128 0x13
 2449 00b0 00       		.byte	0
 2450 00b1 00       		.byte	0
 2451 00b2 0F       		.uleb128 0xf
 2452 00b3 0D       		.uleb128 0xd
 2453 00b4 00       		.byte	0
 2454 00b5 03       		.uleb128 0x3
 2455 00b6 08       		.uleb128 0x8
 2456 00b7 3A       		.uleb128 0x3a
 2457 00b8 0B       		.uleb128 0xb
 2458 00b9 3B       		.uleb128 0x3b
 2459 00ba 0B       		.uleb128 0xb
 2460 00bb 49       		.uleb128 0x49
 2461 00bc 13       		.uleb128 0x13
ARM GAS  /tmp/ccV3l6aC.s 			page 65


 2462 00bd 38       		.uleb128 0x38
 2463 00be 0A       		.uleb128 0xa
 2464 00bf 00       		.byte	0
 2465 00c0 00       		.byte	0
 2466 00c1 10       		.uleb128 0x10
 2467 00c2 13       		.uleb128 0x13
 2468 00c3 01       		.byte	0x1
 2469 00c4 0B       		.uleb128 0xb
 2470 00c5 0B       		.uleb128 0xb
 2471 00c6 3A       		.uleb128 0x3a
 2472 00c7 0B       		.uleb128 0xb
 2473 00c8 3B       		.uleb128 0x3b
 2474 00c9 0B       		.uleb128 0xb
 2475 00ca 01       		.uleb128 0x1
 2476 00cb 13       		.uleb128 0x13
 2477 00cc 00       		.byte	0
 2478 00cd 00       		.byte	0
 2479 00ce 11       		.uleb128 0x11
 2480 00cf 17       		.uleb128 0x17
 2481 00d0 01       		.byte	0x1
 2482 00d1 0B       		.uleb128 0xb
 2483 00d2 0B       		.uleb128 0xb
 2484 00d3 3A       		.uleb128 0x3a
 2485 00d4 0B       		.uleb128 0xb
 2486 00d5 3B       		.uleb128 0x3b
 2487 00d6 0B       		.uleb128 0xb
 2488 00d7 01       		.uleb128 0x1
 2489 00d8 13       		.uleb128 0x13
 2490 00d9 00       		.byte	0
 2491 00da 00       		.byte	0
 2492 00db 12       		.uleb128 0x12
 2493 00dc 0D       		.uleb128 0xd
 2494 00dd 00       		.byte	0
 2495 00de 03       		.uleb128 0x3
 2496 00df 0E       		.uleb128 0xe
 2497 00e0 3A       		.uleb128 0x3a
 2498 00e1 0B       		.uleb128 0xb
 2499 00e2 3B       		.uleb128 0x3b
 2500 00e3 05       		.uleb128 0x5
 2501 00e4 49       		.uleb128 0x49
 2502 00e5 13       		.uleb128 0x13
 2503 00e6 00       		.byte	0
 2504 00e7 00       		.byte	0
 2505 00e8 13       		.uleb128 0x13
 2506 00e9 26       		.uleb128 0x26
 2507 00ea 00       		.byte	0
 2508 00eb 49       		.uleb128 0x49
 2509 00ec 13       		.uleb128 0x13
 2510 00ed 00       		.byte	0
 2511 00ee 00       		.byte	0
 2512 00ef 14       		.uleb128 0x14
 2513 00f0 35       		.uleb128 0x35
 2514 00f1 00       		.byte	0
 2515 00f2 49       		.uleb128 0x49
 2516 00f3 13       		.uleb128 0x13
 2517 00f4 00       		.byte	0
 2518 00f5 00       		.byte	0
ARM GAS  /tmp/ccV3l6aC.s 			page 66


 2519 00f6 15       		.uleb128 0x15
 2520 00f7 01       		.uleb128 0x1
 2521 00f8 01       		.byte	0x1
 2522 00f9 49       		.uleb128 0x49
 2523 00fa 13       		.uleb128 0x13
 2524 00fb 01       		.uleb128 0x1
 2525 00fc 13       		.uleb128 0x13
 2526 00fd 00       		.byte	0
 2527 00fe 00       		.byte	0
 2528 00ff 16       		.uleb128 0x16
 2529 0100 21       		.uleb128 0x21
 2530 0101 00       		.byte	0
 2531 0102 49       		.uleb128 0x49
 2532 0103 13       		.uleb128 0x13
 2533 0104 2F       		.uleb128 0x2f
 2534 0105 0B       		.uleb128 0xb
 2535 0106 00       		.byte	0
 2536 0107 00       		.byte	0
 2537 0108 17       		.uleb128 0x17
 2538 0109 15       		.uleb128 0x15
 2539 010a 01       		.byte	0x1
 2540 010b 27       		.uleb128 0x27
 2541 010c 0C       		.uleb128 0xc
 2542 010d 49       		.uleb128 0x49
 2543 010e 13       		.uleb128 0x13
 2544 010f 01       		.uleb128 0x1
 2545 0110 13       		.uleb128 0x13
 2546 0111 00       		.byte	0
 2547 0112 00       		.byte	0
 2548 0113 18       		.uleb128 0x18
 2549 0114 2E       		.uleb128 0x2e
 2550 0115 01       		.byte	0x1
 2551 0116 03       		.uleb128 0x3
 2552 0117 0E       		.uleb128 0xe
 2553 0118 3A       		.uleb128 0x3a
 2554 0119 0B       		.uleb128 0xb
 2555 011a 3B       		.uleb128 0x3b
 2556 011b 05       		.uleb128 0x5
 2557 011c 27       		.uleb128 0x27
 2558 011d 0C       		.uleb128 0xc
 2559 011e 20       		.uleb128 0x20
 2560 011f 0B       		.uleb128 0xb
 2561 0120 01       		.uleb128 0x1
 2562 0121 13       		.uleb128 0x13
 2563 0122 00       		.byte	0
 2564 0123 00       		.byte	0
 2565 0124 19       		.uleb128 0x19
 2566 0125 05       		.uleb128 0x5
 2567 0126 00       		.byte	0
 2568 0127 03       		.uleb128 0x3
 2569 0128 0E       		.uleb128 0xe
 2570 0129 3A       		.uleb128 0x3a
 2571 012a 0B       		.uleb128 0xb
 2572 012b 3B       		.uleb128 0x3b
 2573 012c 05       		.uleb128 0x5
 2574 012d 49       		.uleb128 0x49
 2575 012e 13       		.uleb128 0x13
ARM GAS  /tmp/ccV3l6aC.s 			page 67


 2576 012f 00       		.byte	0
 2577 0130 00       		.byte	0
 2578 0131 1A       		.uleb128 0x1a
 2579 0132 2E       		.uleb128 0x2e
 2580 0133 00       		.byte	0
 2581 0134 03       		.uleb128 0x3
 2582 0135 0E       		.uleb128 0xe
 2583 0136 3A       		.uleb128 0x3a
 2584 0137 0B       		.uleb128 0xb
 2585 0138 3B       		.uleb128 0x3b
 2586 0139 05       		.uleb128 0x5
 2587 013a 27       		.uleb128 0x27
 2588 013b 0C       		.uleb128 0xc
 2589 013c 20       		.uleb128 0x20
 2590 013d 0B       		.uleb128 0xb
 2591 013e 00       		.byte	0
 2592 013f 00       		.byte	0
 2593 0140 1B       		.uleb128 0x1b
 2594 0141 2E       		.uleb128 0x2e
 2595 0142 01       		.byte	0x1
 2596 0143 3F       		.uleb128 0x3f
 2597 0144 0C       		.uleb128 0xc
 2598 0145 03       		.uleb128 0x3
 2599 0146 0E       		.uleb128 0xe
 2600 0147 3A       		.uleb128 0x3a
 2601 0148 0B       		.uleb128 0xb
 2602 0149 3B       		.uleb128 0x3b
 2603 014a 0B       		.uleb128 0xb
 2604 014b 27       		.uleb128 0x27
 2605 014c 0C       		.uleb128 0xc
 2606 014d 49       		.uleb128 0x49
 2607 014e 13       		.uleb128 0x13
 2608 014f 20       		.uleb128 0x20
 2609 0150 0B       		.uleb128 0xb
 2610 0151 01       		.uleb128 0x1
 2611 0152 13       		.uleb128 0x13
 2612 0153 00       		.byte	0
 2613 0154 00       		.byte	0
 2614 0155 1C       		.uleb128 0x1c
 2615 0156 05       		.uleb128 0x5
 2616 0157 00       		.byte	0
 2617 0158 03       		.uleb128 0x3
 2618 0159 08       		.uleb128 0x8
 2619 015a 3A       		.uleb128 0x3a
 2620 015b 0B       		.uleb128 0xb
 2621 015c 3B       		.uleb128 0x3b
 2622 015d 0B       		.uleb128 0xb
 2623 015e 49       		.uleb128 0x49
 2624 015f 13       		.uleb128 0x13
 2625 0160 00       		.byte	0
 2626 0161 00       		.byte	0
 2627 0162 1D       		.uleb128 0x1d
 2628 0163 34       		.uleb128 0x34
 2629 0164 00       		.byte	0
 2630 0165 03       		.uleb128 0x3
 2631 0166 0E       		.uleb128 0xe
 2632 0167 3A       		.uleb128 0x3a
ARM GAS  /tmp/ccV3l6aC.s 			page 68


 2633 0168 0B       		.uleb128 0xb
 2634 0169 3B       		.uleb128 0x3b
 2635 016a 0B       		.uleb128 0xb
 2636 016b 49       		.uleb128 0x49
 2637 016c 13       		.uleb128 0x13
 2638 016d 00       		.byte	0
 2639 016e 00       		.byte	0
 2640 016f 1E       		.uleb128 0x1e
 2641 0170 34       		.uleb128 0x34
 2642 0171 00       		.byte	0
 2643 0172 03       		.uleb128 0x3
 2644 0173 0E       		.uleb128 0xe
 2645 0174 49       		.uleb128 0x49
 2646 0175 13       		.uleb128 0x13
 2647 0176 34       		.uleb128 0x34
 2648 0177 0C       		.uleb128 0xc
 2649 0178 1C       		.uleb128 0x1c
 2650 0179 0E       		.uleb128 0xe
 2651 017a 00       		.byte	0
 2652 017b 00       		.byte	0
 2653 017c 1F       		.uleb128 0x1f
 2654 017d 2E       		.uleb128 0x2e
 2655 017e 01       		.byte	0x1
 2656 017f 3F       		.uleb128 0x3f
 2657 0180 0C       		.uleb128 0xc
 2658 0181 03       		.uleb128 0x3
 2659 0182 0E       		.uleb128 0xe
 2660 0183 3A       		.uleb128 0x3a
 2661 0184 0B       		.uleb128 0xb
 2662 0185 3B       		.uleb128 0x3b
 2663 0186 0B       		.uleb128 0xb
 2664 0187 27       		.uleb128 0x27
 2665 0188 0C       		.uleb128 0xc
 2666 0189 20       		.uleb128 0x20
 2667 018a 0B       		.uleb128 0xb
 2668 018b 01       		.uleb128 0x1
 2669 018c 13       		.uleb128 0x13
 2670 018d 00       		.byte	0
 2671 018e 00       		.byte	0
 2672 018f 20       		.uleb128 0x20
 2673 0190 05       		.uleb128 0x5
 2674 0191 00       		.byte	0
 2675 0192 03       		.uleb128 0x3
 2676 0193 0E       		.uleb128 0xe
 2677 0194 3A       		.uleb128 0x3a
 2678 0195 0B       		.uleb128 0xb
 2679 0196 3B       		.uleb128 0x3b
 2680 0197 0B       		.uleb128 0xb
 2681 0198 49       		.uleb128 0x49
 2682 0199 13       		.uleb128 0x13
 2683 019a 00       		.byte	0
 2684 019b 00       		.byte	0
 2685 019c 21       		.uleb128 0x21
 2686 019d 34       		.uleb128 0x34
 2687 019e 00       		.byte	0
 2688 019f 03       		.uleb128 0x3
 2689 01a0 08       		.uleb128 0x8
ARM GAS  /tmp/ccV3l6aC.s 			page 69


 2690 01a1 3A       		.uleb128 0x3a
 2691 01a2 0B       		.uleb128 0xb
 2692 01a3 3B       		.uleb128 0x3b
 2693 01a4 0B       		.uleb128 0xb
 2694 01a5 49       		.uleb128 0x49
 2695 01a6 13       		.uleb128 0x13
 2696 01a7 00       		.byte	0
 2697 01a8 00       		.byte	0
 2698 01a9 22       		.uleb128 0x22
 2699 01aa 2E       		.uleb128 0x2e
 2700 01ab 01       		.byte	0x1
 2701 01ac 03       		.uleb128 0x3
 2702 01ad 0E       		.uleb128 0xe
 2703 01ae 3A       		.uleb128 0x3a
 2704 01af 0B       		.uleb128 0xb
 2705 01b0 3B       		.uleb128 0x3b
 2706 01b1 0B       		.uleb128 0xb
 2707 01b2 27       		.uleb128 0x27
 2708 01b3 0C       		.uleb128 0xc
 2709 01b4 20       		.uleb128 0x20
 2710 01b5 0B       		.uleb128 0xb
 2711 01b6 01       		.uleb128 0x1
 2712 01b7 13       		.uleb128 0x13
 2713 01b8 00       		.byte	0
 2714 01b9 00       		.byte	0
 2715 01ba 23       		.uleb128 0x23
 2716 01bb 2E       		.uleb128 0x2e
 2717 01bc 01       		.byte	0x1
 2718 01bd 3F       		.uleb128 0x3f
 2719 01be 0C       		.uleb128 0xc
 2720 01bf 03       		.uleb128 0x3
 2721 01c0 0E       		.uleb128 0xe
 2722 01c1 3A       		.uleb128 0x3a
 2723 01c2 0B       		.uleb128 0xb
 2724 01c3 3B       		.uleb128 0x3b
 2725 01c4 0B       		.uleb128 0xb
 2726 01c5 27       		.uleb128 0x27
 2727 01c6 0C       		.uleb128 0xc
 2728 01c7 11       		.uleb128 0x11
 2729 01c8 01       		.uleb128 0x1
 2730 01c9 12       		.uleb128 0x12
 2731 01ca 01       		.uleb128 0x1
 2732 01cb 40       		.uleb128 0x40
 2733 01cc 0A       		.uleb128 0xa
 2734 01cd 9742     		.uleb128 0x2117
 2735 01cf 0C       		.uleb128 0xc
 2736 01d0 01       		.uleb128 0x1
 2737 01d1 13       		.uleb128 0x13
 2738 01d2 00       		.byte	0
 2739 01d3 00       		.byte	0
 2740 01d4 24       		.uleb128 0x24
 2741 01d5 05       		.uleb128 0x5
 2742 01d6 00       		.byte	0
 2743 01d7 03       		.uleb128 0x3
 2744 01d8 08       		.uleb128 0x8
 2745 01d9 3A       		.uleb128 0x3a
 2746 01da 0B       		.uleb128 0xb
ARM GAS  /tmp/ccV3l6aC.s 			page 70


 2747 01db 3B       		.uleb128 0x3b
 2748 01dc 0B       		.uleb128 0xb
 2749 01dd 49       		.uleb128 0x49
 2750 01de 13       		.uleb128 0x13
 2751 01df 02       		.uleb128 0x2
 2752 01e0 0A       		.uleb128 0xa
 2753 01e1 00       		.byte	0
 2754 01e2 00       		.byte	0
 2755 01e3 25       		.uleb128 0x25
 2756 01e4 05       		.uleb128 0x5
 2757 01e5 00       		.byte	0
 2758 01e6 03       		.uleb128 0x3
 2759 01e7 0E       		.uleb128 0xe
 2760 01e8 3A       		.uleb128 0x3a
 2761 01e9 0B       		.uleb128 0xb
 2762 01ea 3B       		.uleb128 0x3b
 2763 01eb 0B       		.uleb128 0xb
 2764 01ec 49       		.uleb128 0x49
 2765 01ed 13       		.uleb128 0x13
 2766 01ee 02       		.uleb128 0x2
 2767 01ef 0A       		.uleb128 0xa
 2768 01f0 00       		.byte	0
 2769 01f1 00       		.byte	0
 2770 01f2 26       		.uleb128 0x26
 2771 01f3 34       		.uleb128 0x34
 2772 01f4 00       		.byte	0
 2773 01f5 03       		.uleb128 0x3
 2774 01f6 0E       		.uleb128 0xe
 2775 01f7 49       		.uleb128 0x49
 2776 01f8 13       		.uleb128 0x13
 2777 01f9 34       		.uleb128 0x34
 2778 01fa 0C       		.uleb128 0xc
 2779 01fb 00       		.byte	0
 2780 01fc 00       		.byte	0
 2781 01fd 27       		.uleb128 0x27
 2782 01fe 2E       		.uleb128 0x2e
 2783 01ff 01       		.byte	0x1
 2784 0200 3F       		.uleb128 0x3f
 2785 0201 0C       		.uleb128 0xc
 2786 0202 03       		.uleb128 0x3
 2787 0203 0E       		.uleb128 0xe
 2788 0204 3A       		.uleb128 0x3a
 2789 0205 0B       		.uleb128 0xb
 2790 0206 3B       		.uleb128 0x3b
 2791 0207 0B       		.uleb128 0xb
 2792 0208 27       		.uleb128 0x27
 2793 0209 0C       		.uleb128 0xc
 2794 020a 11       		.uleb128 0x11
 2795 020b 01       		.uleb128 0x1
 2796 020c 12       		.uleb128 0x12
 2797 020d 01       		.uleb128 0x1
 2798 020e 40       		.uleb128 0x40
 2799 020f 06       		.uleb128 0x6
 2800 0210 9742     		.uleb128 0x2117
 2801 0212 0C       		.uleb128 0xc
 2802 0213 01       		.uleb128 0x1
 2803 0214 13       		.uleb128 0x13
ARM GAS  /tmp/ccV3l6aC.s 			page 71


 2804 0215 00       		.byte	0
 2805 0216 00       		.byte	0
 2806 0217 28       		.uleb128 0x28
 2807 0218 05       		.uleb128 0x5
 2808 0219 00       		.byte	0
 2809 021a 03       		.uleb128 0x3
 2810 021b 08       		.uleb128 0x8
 2811 021c 3A       		.uleb128 0x3a
 2812 021d 0B       		.uleb128 0xb
 2813 021e 3B       		.uleb128 0x3b
 2814 021f 0B       		.uleb128 0xb
 2815 0220 49       		.uleb128 0x49
 2816 0221 13       		.uleb128 0x13
 2817 0222 02       		.uleb128 0x2
 2818 0223 06       		.uleb128 0x6
 2819 0224 00       		.byte	0
 2820 0225 00       		.byte	0
 2821 0226 29       		.uleb128 0x29
 2822 0227 1D       		.uleb128 0x1d
 2823 0228 01       		.byte	0x1
 2824 0229 31       		.uleb128 0x31
 2825 022a 13       		.uleb128 0x13
 2826 022b 11       		.uleb128 0x11
 2827 022c 01       		.uleb128 0x1
 2828 022d 12       		.uleb128 0x12
 2829 022e 01       		.uleb128 0x1
 2830 022f 58       		.uleb128 0x58
 2831 0230 0B       		.uleb128 0xb
 2832 0231 59       		.uleb128 0x59
 2833 0232 0B       		.uleb128 0xb
 2834 0233 00       		.byte	0
 2835 0234 00       		.byte	0
 2836 0235 2A       		.uleb128 0x2a
 2837 0236 05       		.uleb128 0x5
 2838 0237 00       		.byte	0
 2839 0238 31       		.uleb128 0x31
 2840 0239 13       		.uleb128 0x13
 2841 023a 02       		.uleb128 0x2
 2842 023b 06       		.uleb128 0x6
 2843 023c 00       		.byte	0
 2844 023d 00       		.byte	0
 2845 023e 2B       		.uleb128 0x2b
 2846 023f 1D       		.uleb128 0x1d
 2847 0240 01       		.byte	0x1
 2848 0241 31       		.uleb128 0x31
 2849 0242 13       		.uleb128 0x13
 2850 0243 52       		.uleb128 0x52
 2851 0244 01       		.uleb128 0x1
 2852 0245 55       		.uleb128 0x55
 2853 0246 06       		.uleb128 0x6
 2854 0247 58       		.uleb128 0x58
 2855 0248 0B       		.uleb128 0xb
 2856 0249 59       		.uleb128 0x59
 2857 024a 0B       		.uleb128 0xb
 2858 024b 01       		.uleb128 0x1
 2859 024c 13       		.uleb128 0x13
 2860 024d 00       		.byte	0
ARM GAS  /tmp/ccV3l6aC.s 			page 72


 2861 024e 00       		.byte	0
 2862 024f 2C       		.uleb128 0x2c
 2863 0250 1D       		.uleb128 0x1d
 2864 0251 01       		.byte	0x1
 2865 0252 31       		.uleb128 0x31
 2866 0253 13       		.uleb128 0x13
 2867 0254 52       		.uleb128 0x52
 2868 0255 01       		.uleb128 0x1
 2869 0256 55       		.uleb128 0x55
 2870 0257 06       		.uleb128 0x6
 2871 0258 58       		.uleb128 0x58
 2872 0259 0B       		.uleb128 0xb
 2873 025a 59       		.uleb128 0x59
 2874 025b 05       		.uleb128 0x5
 2875 025c 00       		.byte	0
 2876 025d 00       		.byte	0
 2877 025e 2D       		.uleb128 0x2d
 2878 025f 0B       		.uleb128 0xb
 2879 0260 01       		.byte	0x1
 2880 0261 55       		.uleb128 0x55
 2881 0262 06       		.uleb128 0x6
 2882 0263 00       		.byte	0
 2883 0264 00       		.byte	0
 2884 0265 2E       		.uleb128 0x2e
 2885 0266 34       		.uleb128 0x34
 2886 0267 00       		.byte	0
 2887 0268 31       		.uleb128 0x31
 2888 0269 13       		.uleb128 0x13
 2889 026a 00       		.byte	0
 2890 026b 00       		.byte	0
 2891 026c 2F       		.uleb128 0x2f
 2892 026d 0B       		.uleb128 0xb
 2893 026e 01       		.byte	0x1
 2894 026f 11       		.uleb128 0x11
 2895 0270 01       		.uleb128 0x1
 2896 0271 12       		.uleb128 0x12
 2897 0272 01       		.uleb128 0x1
 2898 0273 00       		.byte	0
 2899 0274 00       		.byte	0
 2900 0275 30       		.uleb128 0x30
 2901 0276 34       		.uleb128 0x34
 2902 0277 00       		.byte	0
 2903 0278 31       		.uleb128 0x31
 2904 0279 13       		.uleb128 0x13
 2905 027a 02       		.uleb128 0x2
 2906 027b 06       		.uleb128 0x6
 2907 027c 00       		.byte	0
 2908 027d 00       		.byte	0
 2909 027e 31       		.uleb128 0x31
 2910 027f 2E       		.uleb128 0x2e
 2911 0280 01       		.byte	0x1
 2912 0281 31       		.uleb128 0x31
 2913 0282 13       		.uleb128 0x13
 2914 0283 11       		.uleb128 0x11
 2915 0284 01       		.uleb128 0x1
 2916 0285 12       		.uleb128 0x12
 2917 0286 01       		.uleb128 0x1
ARM GAS  /tmp/ccV3l6aC.s 			page 73


 2918 0287 40       		.uleb128 0x40
 2919 0288 06       		.uleb128 0x6
 2920 0289 9642     		.uleb128 0x2116
 2921 028b 0C       		.uleb128 0xc
 2922 028c 01       		.uleb128 0x1
 2923 028d 13       		.uleb128 0x13
 2924 028e 00       		.byte	0
 2925 028f 00       		.byte	0
 2926 0290 32       		.uleb128 0x32
 2927 0291 2E       		.uleb128 0x2e
 2928 0292 01       		.byte	0x1
 2929 0293 3F       		.uleb128 0x3f
 2930 0294 0C       		.uleb128 0xc
 2931 0295 03       		.uleb128 0x3
 2932 0296 0E       		.uleb128 0xe
 2933 0297 3A       		.uleb128 0x3a
 2934 0298 0B       		.uleb128 0xb
 2935 0299 3B       		.uleb128 0x3b
 2936 029a 0B       		.uleb128 0xb
 2937 029b 27       		.uleb128 0x27
 2938 029c 0C       		.uleb128 0xc
 2939 029d 49       		.uleb128 0x49
 2940 029e 13       		.uleb128 0x13
 2941 029f 11       		.uleb128 0x11
 2942 02a0 01       		.uleb128 0x1
 2943 02a1 12       		.uleb128 0x12
 2944 02a2 01       		.uleb128 0x1
 2945 02a3 40       		.uleb128 0x40
 2946 02a4 06       		.uleb128 0x6
 2947 02a5 9642     		.uleb128 0x2116
 2948 02a7 0C       		.uleb128 0xc
 2949 02a8 01       		.uleb128 0x1
 2950 02a9 13       		.uleb128 0x13
 2951 02aa 00       		.byte	0
 2952 02ab 00       		.byte	0
 2953 02ac 33       		.uleb128 0x33
 2954 02ad 34       		.uleb128 0x34
 2955 02ae 00       		.byte	0
 2956 02af 03       		.uleb128 0x3
 2957 02b0 0E       		.uleb128 0xe
 2958 02b1 3A       		.uleb128 0x3a
 2959 02b2 0B       		.uleb128 0xb
 2960 02b3 3B       		.uleb128 0x3b
 2961 02b4 0B       		.uleb128 0xb
 2962 02b5 49       		.uleb128 0x49
 2963 02b6 13       		.uleb128 0x13
 2964 02b7 02       		.uleb128 0x2
 2965 02b8 0A       		.uleb128 0xa
 2966 02b9 00       		.byte	0
 2967 02ba 00       		.byte	0
 2968 02bb 34       		.uleb128 0x34
 2969 02bc 05       		.uleb128 0x5
 2970 02bd 00       		.byte	0
 2971 02be 31       		.uleb128 0x31
 2972 02bf 13       		.uleb128 0x13
 2973 02c0 1C       		.uleb128 0x1c
 2974 02c1 0B       		.uleb128 0xb
ARM GAS  /tmp/ccV3l6aC.s 			page 74


 2975 02c2 00       		.byte	0
 2976 02c3 00       		.byte	0
 2977 02c4 35       		.uleb128 0x35
 2978 02c5 1D       		.uleb128 0x1d
 2979 02c6 01       		.byte	0x1
 2980 02c7 31       		.uleb128 0x31
 2981 02c8 13       		.uleb128 0x13
 2982 02c9 11       		.uleb128 0x11
 2983 02ca 01       		.uleb128 0x1
 2984 02cb 12       		.uleb128 0x12
 2985 02cc 01       		.uleb128 0x1
 2986 02cd 58       		.uleb128 0x58
 2987 02ce 0B       		.uleb128 0xb
 2988 02cf 59       		.uleb128 0x59
 2989 02d0 05       		.uleb128 0x5
 2990 02d1 00       		.byte	0
 2991 02d2 00       		.byte	0
 2992 02d3 36       		.uleb128 0x36
 2993 02d4 2E       		.uleb128 0x2e
 2994 02d5 01       		.byte	0x1
 2995 02d6 31       		.uleb128 0x31
 2996 02d7 13       		.uleb128 0x13
 2997 02d8 11       		.uleb128 0x11
 2998 02d9 01       		.uleb128 0x1
 2999 02da 12       		.uleb128 0x12
 3000 02db 01       		.uleb128 0x1
 3001 02dc 40       		.uleb128 0x40
 3002 02dd 0A       		.uleb128 0xa
 3003 02de 9742     		.uleb128 0x2117
 3004 02e0 0C       		.uleb128 0xc
 3005 02e1 01       		.uleb128 0x1
 3006 02e2 13       		.uleb128 0x13
 3007 02e3 00       		.byte	0
 3008 02e4 00       		.byte	0
 3009 02e5 37       		.uleb128 0x37
 3010 02e6 05       		.uleb128 0x5
 3011 02e7 00       		.byte	0
 3012 02e8 31       		.uleb128 0x31
 3013 02e9 13       		.uleb128 0x13
 3014 02ea 02       		.uleb128 0x2
 3015 02eb 0A       		.uleb128 0xa
 3016 02ec 00       		.byte	0
 3017 02ed 00       		.byte	0
 3018 02ee 38       		.uleb128 0x38
 3019 02ef 34       		.uleb128 0x34
 3020 02f0 00       		.byte	0
 3021 02f1 31       		.uleb128 0x31
 3022 02f2 13       		.uleb128 0x13
 3023 02f3 02       		.uleb128 0x2
 3024 02f4 0A       		.uleb128 0xa
 3025 02f5 00       		.byte	0
 3026 02f6 00       		.byte	0
 3027 02f7 39       		.uleb128 0x39
 3028 02f8 1D       		.uleb128 0x1d
 3029 02f9 01       		.byte	0x1
 3030 02fa 31       		.uleb128 0x31
 3031 02fb 13       		.uleb128 0x13
ARM GAS  /tmp/ccV3l6aC.s 			page 75


 3032 02fc 11       		.uleb128 0x11
 3033 02fd 01       		.uleb128 0x1
 3034 02fe 12       		.uleb128 0x12
 3035 02ff 01       		.uleb128 0x1
 3036 0300 58       		.uleb128 0x58
 3037 0301 0B       		.uleb128 0xb
 3038 0302 59       		.uleb128 0x59
 3039 0303 0B       		.uleb128 0xb
 3040 0304 01       		.uleb128 0x1
 3041 0305 13       		.uleb128 0x13
 3042 0306 00       		.byte	0
 3043 0307 00       		.byte	0
 3044 0308 3A       		.uleb128 0x3a
 3045 0309 34       		.uleb128 0x34
 3046 030a 00       		.byte	0
 3047 030b 03       		.uleb128 0x3
 3048 030c 0E       		.uleb128 0xe
 3049 030d 3A       		.uleb128 0x3a
 3050 030e 0B       		.uleb128 0xb
 3051 030f 3B       		.uleb128 0x3b
 3052 0310 05       		.uleb128 0x5
 3053 0311 49       		.uleb128 0x49
 3054 0312 13       		.uleb128 0x13
 3055 0313 3F       		.uleb128 0x3f
 3056 0314 0C       		.uleb128 0xc
 3057 0315 3C       		.uleb128 0x3c
 3058 0316 0C       		.uleb128 0xc
 3059 0317 00       		.byte	0
 3060 0318 00       		.byte	0
 3061 0319 3B       		.uleb128 0x3b
 3062 031a 34       		.uleb128 0x34
 3063 031b 00       		.byte	0
 3064 031c 03       		.uleb128 0x3
 3065 031d 08       		.uleb128 0x8
 3066 031e 3A       		.uleb128 0x3a
 3067 031f 0B       		.uleb128 0xb
 3068 0320 3B       		.uleb128 0x3b
 3069 0321 05       		.uleb128 0x5
 3070 0322 49       		.uleb128 0x49
 3071 0323 13       		.uleb128 0x13
 3072 0324 3F       		.uleb128 0x3f
 3073 0325 0C       		.uleb128 0xc
 3074 0326 3C       		.uleb128 0x3c
 3075 0327 0C       		.uleb128 0xc
 3076 0328 00       		.byte	0
 3077 0329 00       		.byte	0
 3078 032a 00       		.byte	0
 3079              		.section	.debug_loc,"",%progbits
 3080              	.Ldebug_loc0:
 3081              	.LLST0:
 3082 0000 00000000 		.4byte	.LFB242
 3083 0004 02000000 		.4byte	.LCFI0
 3084 0008 0200     		.2byte	0x2
 3085 000a 7D       		.byte	0x7d
 3086 000b 00       		.sleb128 0
 3087 000c 02000000 		.4byte	.LCFI0
 3088 0010 22000000 		.4byte	.LFE242
ARM GAS  /tmp/ccV3l6aC.s 			page 76


 3089 0014 0200     		.2byte	0x2
 3090 0016 7D       		.byte	0x7d
 3091 0017 08       		.sleb128 8
 3092 0018 00000000 		.4byte	0
 3093 001c 00000000 		.4byte	0
 3094              	.LLST1:
 3095 0020 00000000 		.4byte	.LVL1
 3096 0024 1C000000 		.4byte	.LVL5
 3097 0028 0100     		.2byte	0x1
 3098 002a 51       		.byte	0x51
 3099 002b 1C000000 		.4byte	.LVL5
 3100 002f 22000000 		.4byte	.LFE242
 3101 0033 0100     		.2byte	0x1
 3102 0035 51       		.byte	0x51
 3103 0036 00000000 		.4byte	0
 3104 003a 00000000 		.4byte	0
 3105              	.LLST2:
 3106 003e 00000000 		.4byte	.LVL1
 3107 0042 08000000 		.4byte	.LVL2
 3108 0046 0100     		.2byte	0x1
 3109 0048 52       		.byte	0x52
 3110 0049 00000000 		.4byte	0
 3111 004d 00000000 		.4byte	0
 3112              	.LLST3:
 3113 0051 08000000 		.4byte	.LVL2
 3114 0055 1C000000 		.4byte	.LVL5
 3115 0059 0100     		.2byte	0x1
 3116 005b 51       		.byte	0x51
 3117 005c 1C000000 		.4byte	.LVL5
 3118 0060 1E000000 		.4byte	.LVL6
 3119 0064 0200     		.2byte	0x2
 3120 0066 70       		.byte	0x70
 3121 0067 00       		.sleb128 0
 3122 0068 00000000 		.4byte	0
 3123 006c 00000000 		.4byte	0
 3124              	.LLST4:
 3125 0070 08000000 		.4byte	.LVL2
 3126 0074 1E000000 		.4byte	.LVL6
 3127 0078 0100     		.2byte	0x1
 3128 007a 50       		.byte	0x50
 3129 007b 00000000 		.4byte	0
 3130 007f 00000000 		.4byte	0
 3131              	.LLST7:
 3132 0083 08000000 		.4byte	.LVL2
 3133 0087 1E000000 		.4byte	.LVL6
 3134 008b 0300     		.2byte	0x3
 3135 008d 08       		.byte	0x8
 3136 008e 20       		.byte	0x20
 3137 008f 9F       		.byte	0x9f
 3138 0090 00000000 		.4byte	0
 3139 0094 00000000 		.4byte	0
 3140              	.LLST8:
 3141 0098 12000000 		.4byte	.LVL4
 3142 009c 1E000000 		.4byte	.LVL6
 3143 00a0 0200     		.2byte	0x2
 3144 00a2 30       		.byte	0x30
 3145 00a3 9F       		.byte	0x9f
ARM GAS  /tmp/ccV3l6aC.s 			page 77


 3146 00a4 00000000 		.4byte	0
 3147 00a8 00000000 		.4byte	0
 3148              	.LLST9:
 3149 00ac 0C000000 		.4byte	.LVL3
 3150 00b0 1C000000 		.4byte	.LVL5
 3151 00b4 0100     		.2byte	0x1
 3152 00b6 51       		.byte	0x51
 3153 00b7 1C000000 		.4byte	.LVL5
 3154 00bb 1E000000 		.4byte	.LVL6
 3155 00bf 0200     		.2byte	0x2
 3156 00c1 70       		.byte	0x70
 3157 00c2 00       		.sleb128 0
 3158 00c3 00000000 		.4byte	0
 3159 00c7 00000000 		.4byte	0
 3160              	.LLST10:
 3161 00cb 0C000000 		.4byte	.LVL3
 3162 00cf 1E000000 		.4byte	.LVL6
 3163 00d3 0100     		.2byte	0x1
 3164 00d5 50       		.byte	0x50
 3165 00d6 00000000 		.4byte	0
 3166 00da 00000000 		.4byte	0
 3167              	.LLST12:
 3168 00de 00000000 		.4byte	.LFB243
 3169 00e2 02000000 		.4byte	.LCFI1
 3170 00e6 0200     		.2byte	0x2
 3171 00e8 7D       		.byte	0x7d
 3172 00e9 00       		.sleb128 0
 3173 00ea 02000000 		.4byte	.LCFI1
 3174 00ee 18000000 		.4byte	.LFE243
 3175 00f2 0200     		.2byte	0x2
 3176 00f4 7D       		.byte	0x7d
 3177 00f5 08       		.sleb128 8
 3178 00f6 00000000 		.4byte	0
 3179 00fa 00000000 		.4byte	0
 3180              	.LLST13:
 3181 00fe 00000000 		.4byte	.LVL7
 3182 0102 06000000 		.4byte	.LVL8
 3183 0106 0100     		.2byte	0x1
 3184 0108 50       		.byte	0x50
 3185 0109 06000000 		.4byte	.LVL8
 3186 010d 15000000 		.4byte	.LVL10-1
 3187 0111 0100     		.2byte	0x1
 3188 0113 53       		.byte	0x53
 3189 0114 15000000 		.4byte	.LVL10-1
 3190 0118 18000000 		.4byte	.LFE243
 3191 011c 0400     		.2byte	0x4
 3192 011e F3       		.byte	0xf3
 3193 011f 01       		.uleb128 0x1
 3194 0120 50       		.byte	0x50
 3195 0121 9F       		.byte	0x9f
 3196 0122 00000000 		.4byte	0
 3197 0126 00000000 		.4byte	0
 3198              	.LLST14:
 3199 012a 06000000 		.4byte	.LVL8
 3200 012e 14000000 		.4byte	.LVL9
 3201 0132 0100     		.2byte	0x1
 3202 0134 50       		.byte	0x50
ARM GAS  /tmp/ccV3l6aC.s 			page 78


 3203 0135 14000000 		.4byte	.LVL9
 3204 0139 15000000 		.4byte	.LVL10-1
 3205 013d 0200     		.2byte	0x2
 3206 013f 73       		.byte	0x73
 3207 0140 00       		.sleb128 0
 3208 0141 16000000 		.4byte	.LVL10
 3209 0145 18000000 		.4byte	.LFE243
 3210 0149 0100     		.2byte	0x1
 3211 014b 50       		.byte	0x50
 3212 014c 00000000 		.4byte	0
 3213 0150 00000000 		.4byte	0
 3214              	.LLST15:
 3215 0154 00000000 		.4byte	.LFB244
 3216 0158 02000000 		.4byte	.LCFI2
 3217 015c 0200     		.2byte	0x2
 3218 015e 7D       		.byte	0x7d
 3219 015f 00       		.sleb128 0
 3220 0160 02000000 		.4byte	.LCFI2
 3221 0164 26000000 		.4byte	.LFE244
 3222 0168 0200     		.2byte	0x2
 3223 016a 7D       		.byte	0x7d
 3224 016b 08       		.sleb128 8
 3225 016c 00000000 		.4byte	0
 3226 0170 00000000 		.4byte	0
 3227              	.LLST16:
 3228 0174 00000000 		.4byte	.LVL11
 3229 0178 0C000000 		.4byte	.LVL13
 3230 017c 0100     		.2byte	0x1
 3231 017e 50       		.byte	0x50
 3232 017f 0C000000 		.4byte	.LVL13
 3233 0183 12000000 		.4byte	.LVL14
 3234 0187 0100     		.2byte	0x1
 3235 0189 53       		.byte	0x53
 3236 018a 12000000 		.4byte	.LVL14
 3237 018e 1A000000 		.4byte	.LVL15
 3238 0192 0400     		.2byte	0x4
 3239 0194 F3       		.byte	0xf3
 3240 0195 01       		.uleb128 0x1
 3241 0196 50       		.byte	0x50
 3242 0197 9F       		.byte	0x9f
 3243 0198 1A000000 		.4byte	.LVL15
 3244 019c 23000000 		.4byte	.LVL17-1
 3245 01a0 0100     		.2byte	0x1
 3246 01a2 53       		.byte	0x53
 3247 01a3 23000000 		.4byte	.LVL17-1
 3248 01a7 26000000 		.4byte	.LFE244
 3249 01ab 0400     		.2byte	0x4
 3250 01ad F3       		.byte	0xf3
 3251 01ae 01       		.uleb128 0x1
 3252 01af 50       		.byte	0x50
 3253 01b0 9F       		.byte	0x9f
 3254 01b1 00000000 		.4byte	0
 3255 01b5 00000000 		.4byte	0
 3256              	.LLST17:
 3257 01b9 0A000000 		.4byte	.LVL12
 3258 01bd 0C000000 		.4byte	.LVL13
 3259 01c1 0100     		.2byte	0x1
ARM GAS  /tmp/ccV3l6aC.s 			page 79


 3260 01c3 50       		.byte	0x50
 3261 01c4 0C000000 		.4byte	.LVL13
 3262 01c8 12000000 		.4byte	.LVL14
 3263 01cc 0100     		.2byte	0x1
 3264 01ce 53       		.byte	0x53
 3265 01cf 12000000 		.4byte	.LVL14
 3266 01d3 1A000000 		.4byte	.LVL15
 3267 01d7 0400     		.2byte	0x4
 3268 01d9 F3       		.byte	0xf3
 3269 01da 01       		.uleb128 0x1
 3270 01db 50       		.byte	0x50
 3271 01dc 9F       		.byte	0x9f
 3272 01dd 1A000000 		.4byte	.LVL15
 3273 01e1 23000000 		.4byte	.LVL17-1
 3274 01e5 0100     		.2byte	0x1
 3275 01e7 53       		.byte	0x53
 3276 01e8 23000000 		.4byte	.LVL17-1
 3277 01ec 26000000 		.4byte	.LFE244
 3278 01f0 0400     		.2byte	0x4
 3279 01f2 F3       		.byte	0xf3
 3280 01f3 01       		.uleb128 0x1
 3281 01f4 50       		.byte	0x50
 3282 01f5 9F       		.byte	0x9f
 3283 01f6 00000000 		.4byte	0
 3284 01fa 00000000 		.4byte	0
 3285              	.LLST18:
 3286 01fe 0C000000 		.4byte	.LVL13
 3287 0202 22000000 		.4byte	.LVL16
 3288 0206 0100     		.2byte	0x1
 3289 0208 50       		.byte	0x50
 3290 0209 22000000 		.4byte	.LVL16
 3291 020d 23000000 		.4byte	.LVL17-1
 3292 0211 0200     		.2byte	0x2
 3293 0213 73       		.byte	0x73
 3294 0214 00       		.sleb128 0
 3295 0215 24000000 		.4byte	.LVL17
 3296 0219 26000000 		.4byte	.LFE244
 3297 021d 0100     		.2byte	0x1
 3298 021f 50       		.byte	0x50
 3299 0220 00000000 		.4byte	0
 3300 0224 00000000 		.4byte	0
 3301              	.LLST19:
 3302 0228 12000000 		.4byte	.LVL14
 3303 022c 1A000000 		.4byte	.LVL15
 3304 0230 0200     		.2byte	0x2
 3305 0232 30       		.byte	0x30
 3306 0233 9F       		.byte	0x9f
 3307 0234 00000000 		.4byte	0
 3308 0238 00000000 		.4byte	0
 3309              		.section	.debug_aranges,"",%progbits
 3310 0000 44000000 		.4byte	0x44
 3311 0004 0200     		.2byte	0x2
 3312 0006 00000000 		.4byte	.Ldebug_info0
 3313 000a 04       		.byte	0x4
 3314 000b 00       		.byte	0
 3315 000c 0000     		.2byte	0
 3316 000e 0000     		.2byte	0
ARM GAS  /tmp/ccV3l6aC.s 			page 80


 3317 0010 00000000 		.4byte	.LFB241
 3318 0014 0A000000 		.4byte	.LFE241-.LFB241
 3319 0018 00000000 		.4byte	.LFB242
 3320 001c 22000000 		.4byte	.LFE242-.LFB242
 3321 0020 00000000 		.4byte	.LFB243
 3322 0024 18000000 		.4byte	.LFE243-.LFB243
 3323 0028 00000000 		.4byte	.LFB244
 3324 002c 26000000 		.4byte	.LFE244-.LFB244
 3325 0030 00000000 		.4byte	.LFB245
 3326 0034 08000000 		.4byte	.LFE245-.LFB245
 3327 0038 00000000 		.4byte	.LFB246
 3328 003c 14000000 		.4byte	.LFE246-.LFB246
 3329 0040 00000000 		.4byte	0
 3330 0044 00000000 		.4byte	0
 3331              		.section	.debug_ranges,"",%progbits
 3332              	.Ldebug_ranges0:
 3333 0000 04000000 		.4byte	.LBB67
 3334 0004 06000000 		.4byte	.LBE67
 3335 0008 08000000 		.4byte	.LBB83
 3336 000c 0C000000 		.4byte	.LBE83
 3337 0010 00000000 		.4byte	0
 3338 0014 00000000 		.4byte	0
 3339 0018 04000000 		.4byte	.LBB68
 3340 001c 06000000 		.4byte	.LBE68
 3341 0020 08000000 		.4byte	.LBB73
 3342 0024 0C000000 		.4byte	.LBE73
 3343 0028 00000000 		.4byte	0
 3344 002c 00000000 		.4byte	0
 3345 0030 04000000 		.4byte	.LBB69
 3346 0034 06000000 		.4byte	.LBE69
 3347 0038 08000000 		.4byte	.LBB72
 3348 003c 0C000000 		.4byte	.LBE72
 3349 0040 00000000 		.4byte	0
 3350 0044 00000000 		.4byte	0
 3351 0048 06000000 		.4byte	.LBB74
 3352 004c 08000000 		.4byte	.LBE74
 3353 0050 12000000 		.4byte	.LBB86
 3354 0054 16000000 		.4byte	.LBE86
 3355 0058 00000000 		.4byte	0
 3356 005c 00000000 		.4byte	0
 3357 0060 06000000 		.4byte	.LBB75
 3358 0064 08000000 		.4byte	.LBE75
 3359 0068 12000000 		.4byte	.LBB82
 3360 006c 16000000 		.4byte	.LBE82
 3361 0070 00000000 		.4byte	0
 3362 0074 00000000 		.4byte	0
 3363 0078 06000000 		.4byte	.LBB76
 3364 007c 08000000 		.4byte	.LBE76
 3365 0080 12000000 		.4byte	.LBB81
 3366 0084 16000000 		.4byte	.LBE81
 3367 0088 00000000 		.4byte	0
 3368 008c 00000000 		.4byte	0
 3369 0090 06000000 		.4byte	.LBB77
 3370 0094 08000000 		.4byte	.LBE77
 3371 0098 12000000 		.4byte	.LBB80
 3372 009c 16000000 		.4byte	.LBE80
 3373 00a0 00000000 		.4byte	0
ARM GAS  /tmp/ccV3l6aC.s 			page 81


 3374 00a4 00000000 		.4byte	0
 3375 00a8 02000000 		.4byte	.LBB87
 3376 00ac 04000000 		.4byte	.LBE87
 3377 00b0 06000000 		.4byte	.LBB94
 3378 00b4 0A000000 		.4byte	.LBE94
 3379 00b8 00000000 		.4byte	0
 3380 00bc 00000000 		.4byte	0
 3381 00c0 02000000 		.4byte	.LBB88
 3382 00c4 04000000 		.4byte	.LBE88
 3383 00c8 06000000 		.4byte	.LBB93
 3384 00cc 0A000000 		.4byte	.LBE93
 3385 00d0 00000000 		.4byte	0
 3386 00d4 00000000 		.4byte	0
 3387 00d8 02000000 		.4byte	.LBB89
 3388 00dc 04000000 		.4byte	.LBE89
 3389 00e0 06000000 		.4byte	.LBB92
 3390 00e4 0A000000 		.4byte	.LBE92
 3391 00e8 00000000 		.4byte	0
 3392 00ec 00000000 		.4byte	0
 3393 00f0 0A000000 		.4byte	.LBB95
 3394 00f4 12000000 		.4byte	.LBE95
 3395 00f8 1A000000 		.4byte	.LBB103
 3396 00fc 26000000 		.4byte	.LBE103
 3397 0100 00000000 		.4byte	0
 3398 0104 00000000 		.4byte	0
 3399 0108 0A000000 		.4byte	.LBB96
 3400 010c 12000000 		.4byte	.LBE96
 3401 0110 1A000000 		.4byte	.LBB97
 3402 0114 26000000 		.4byte	.LBE97
 3403 0118 00000000 		.4byte	0
 3404 011c 00000000 		.4byte	0
 3405 0120 00000000 		.4byte	.LFB241
 3406 0124 0A000000 		.4byte	.LFE241
 3407 0128 00000000 		.4byte	.LFB242
 3408 012c 22000000 		.4byte	.LFE242
 3409 0130 00000000 		.4byte	.LFB243
 3410 0134 18000000 		.4byte	.LFE243
 3411 0138 00000000 		.4byte	.LFB244
 3412 013c 26000000 		.4byte	.LFE244
 3413 0140 00000000 		.4byte	.LFB245
 3414 0144 08000000 		.4byte	.LFE245
 3415 0148 00000000 		.4byte	.LFB246
 3416 014c 14000000 		.4byte	.LFE246
 3417 0150 00000000 		.4byte	0
 3418 0154 00000000 		.4byte	0
 3419              		.section	.debug_line,"",%progbits
 3420              	.Ldebug_line0:
 3421 0000 CA020000 		.section	.debug_str,"MS",%progbits,1
 3421      0200FD01 
 3421      00000201 
 3421      FB0E0D00 
 3421      01010101 
 3422              	.LASF44:
 3423 0000 63685F74 		.ascii	"ch_threads_list\000"
 3423      68726561 
 3423      64735F6C 
 3423      69737400 
ARM GAS  /tmp/ccV3l6aC.s 			page 82


 3424              	.LASF45:
 3425 0010 74687265 		.ascii	"threads_queue_t\000"
 3425      6164735F 
 3425      71756575 
 3425      655F7400 
 3426              	.LASF34:
 3427 0020 705F7761 		.ascii	"p_waiting\000"
 3427      6974696E 
 3427      6700
 3428              	.LASF87:
 3429 002a 77746D74 		.ascii	"wtmtxp\000"
 3429      787000
 3430              	.LASF104:
 3431 0031 6D656D6F 		.ascii	"memory_pool_t\000"
 3431      72795F70 
 3431      6F6F6C5F 
 3431      7400
 3432              	.LASF81:
 3433 003f 746D5F63 		.ascii	"tm_calibration_t\000"
 3433      616C6962 
 3433      72617469 
 3433      6F6E5F74 
 3433      00
 3434              	.LASF96:
 3435 0050 63686172 		.ascii	"char\000"
 3435      00
 3436              	.LASF76:
 3437 0055 72656761 		.ascii	"regarm_t\000"
 3437      726D5F74 
 3437      00
 3438              	.LASF26:
 3439 005e 705F7072 		.ascii	"p_prio\000"
 3439      696F00
 3440              	.LASF118:
 3441 0065 6368506F 		.ascii	"chPoolAdd\000"
 3441      6F6C4164 
 3441      6400
 3442              	.LASF22:
 3443 006f 73797374 		.ascii	"systime_t\000"
 3443      696D655F 
 3443      7400
 3444              	.LASF94:
 3445 0079 6D5F6F77 		.ascii	"m_owner\000"
 3445      6E657200 
 3446              	.LASF90:
 3447 0081 735F7175 		.ascii	"s_queue\000"
 3447      65756500 
 3448              	.LASF35:
 3449 0089 705F6D73 		.ascii	"p_msgqueue\000"
 3449      67717565 
 3449      756500
 3450              	.LASF0:
 3451 0094 756E7369 		.ascii	"unsigned int\000"
 3451      676E6564 
 3451      20696E74 
 3451      00
 3452              	.LASF42:
ARM GAS  /tmp/ccV3l6aC.s 			page 83


 3453 00a1 74687265 		.ascii	"threads_list_t\000"
 3453      6164735F 
 3453      6C697374 
 3453      5F7400
 3454              	.LASF84:
 3455 00b0 77746F62 		.ascii	"wtobjp\000"
 3455      6A7000
 3456              	.LASF105:
 3457 00b7 706F7274 		.ascii	"port_lock\000"
 3457      5F6C6F63 
 3457      6B00
 3458              	.LASF72:
 3459 00c1 76746C69 		.ascii	"vtlist\000"
 3459      737400
 3460              	.LASF48:
 3461 00c8 63685F72 		.ascii	"ch_ready_list\000"
 3461      65616479 
 3461      5F6C6973 
 3461      7400
 3462              	.LASF74:
 3463 00d6 69646C65 		.ascii	"idle_thread_wa\000"
 3463      5F746872 
 3463      6561645F 
 3463      776100
 3464              	.LASF88:
 3465 00e5 65776D61 		.ascii	"ewmask\000"
 3465      736B00
 3466              	.LASF46:
 3467 00ec 63685F74 		.ascii	"ch_threads_queue\000"
 3467      68726561 
 3467      64735F71 
 3467      75657565 
 3467      00
 3468              	.LASF55:
 3469 00fd 76746675 		.ascii	"vtfunc_t\000"
 3469      6E635F74 
 3469      00
 3470              	.LASF91:
 3471 0106 735F636E 		.ascii	"s_cnt\000"
 3471      7400
 3472              	.LASF67:
 3473 010c 63685F73 		.ascii	"ch_system_debug\000"
 3473      79737465 
 3473      6D5F6465 
 3473      62756700 
 3474              	.LASF9:
 3475 011c 75696E74 		.ascii	"uint32_t\000"
 3475      33325F74 
 3475      00
 3476              	.LASF20:
 3477 0125 6576656E 		.ascii	"eventmask_t\000"
 3477      746D6173 
 3477      6B5F7400 
 3478              	.LASF50:
 3479 0131 725F7072 		.ascii	"r_prio\000"
 3479      696F00
 3480              	.LASF126:
ARM GAS  /tmp/ccV3l6aC.s 			page 84


 3481 0138 474E5520 		.ascii	"GNU C 4.7.2\000"
 3481      4320342E 
 3481      372E3200 
 3482              	.LASF62:
 3483 0144 76745F70 		.ascii	"vt_par\000"
 3483      617200
 3484              	.LASF89:
 3485 014b 63685F73 		.ascii	"ch_semaphore\000"
 3485      656D6170 
 3485      686F7265 
 3485      00
 3486              	.LASF18:
 3487 0158 74707269 		.ascii	"tprio_t\000"
 3487      6F5F7400 
 3488              	.LASF57:
 3489 0160 63685F76 		.ascii	"ch_virtual_timer\000"
 3489      69727475 
 3489      616C5F74 
 3489      696D6572 
 3489      00
 3490              	.LASF13:
 3491 0171 6C6F6E67 		.ascii	"long long unsigned int\000"
 3491      206C6F6E 
 3491      6720756E 
 3491      7369676E 
 3491      65642069 
 3492              	.LASF100:
 3493 0188 70685F6E 		.ascii	"ph_next\000"
 3493      65787400 
 3494              	.LASF21:
 3495 0190 636E745F 		.ascii	"cnt_t\000"
 3495      7400
 3496              	.LASF113:
 3497 0196 5F5F6675 		.ascii	"__func__.5650\000"
 3497      6E635F5F 
 3497      2E353635 
 3497      3000
 3498              	.LASF112:
 3499 01a4 63685379 		.ascii	"chSysUnlock\000"
 3499      73556E6C 
 3499      6F636B00 
 3500              	.LASF28:
 3501 01b0 705F6E65 		.ascii	"p_newer\000"
 3501      77657200 
 3502              	.LASF108:
 3503 01b8 76616C75 		.ascii	"value\000"
 3503      6500
 3504              	.LASF64:
 3505 01be 63685F76 		.ascii	"ch_virtual_timers_list\000"
 3505      69727475 
 3505      616C5F74 
 3505      696D6572 
 3505      735F6C69 
 3506              	.LASF23:
 3507 01d5 74687265 		.ascii	"thread_t\000"
 3507      61645F74 
 3507      00
ARM GAS  /tmp/ccV3l6aC.s 			page 85


 3508              	.LASF2:
 3509 01de 73697A65 		.ascii	"size_t\000"
 3509      5F7400
 3510              	.LASF82:
 3511 01e5 7264796D 		.ascii	"rdymsg\000"
 3511      736700
 3512              	.LASF80:
 3513 01ec 6F666673 		.ascii	"offset\000"
 3513      657400
 3514              	.LASF92:
 3515 01f3 63685F6D 		.ascii	"ch_mutex\000"
 3515      75746578 
 3515      00
 3516              	.LASF107:
 3517 01fc 63685379 		.ascii	"chSysLock\000"
 3517      734C6F63 
 3517      6B00
 3518              	.LASF30:
 3519 0206 705F6E61 		.ascii	"p_name\000"
 3519      6D6500
 3520              	.LASF117:
 3521 020d 6368506F 		.ascii	"chPoolFree\000"
 3521      6F6C4672 
 3521      656500
 3522              	.LASF60:
 3523 0218 76745F64 		.ascii	"vt_delta\000"
 3523      656C7461 
 3523      00
 3524              	.LASF41:
 3525 0221 74687265 		.ascii	"thread_reference_t\000"
 3525      61645F72 
 3525      65666572 
 3525      656E6365 
 3525      5F7400
 3526              	.LASF65:
 3527 0234 76745F6C 		.ascii	"vt_lasttime\000"
 3527      61737474 
 3527      696D6500 
 3528              	.LASF16:
 3529 0240 74737461 		.ascii	"tstate_t\000"
 3529      74655F74 
 3529      00
 3530              	.LASF29:
 3531 0249 705F6F6C 		.ascii	"p_older\000"
 3531      64657200 
 3532              	.LASF127:
 3533 0251 2E2E2F2E 		.ascii	"../../../os/rt/src/chmempools.c\000"
 3533      2E2F2E2E 
 3533      2F6F732F 
 3533      72742F73 
 3533      72632F63 
 3534              	.LASF3:
 3535 0271 75696E74 		.ascii	"uint8_t\000"
 3535      385F7400 
 3536              	.LASF101:
 3537 0279 6D705F6E 		.ascii	"mp_next\000"
 3537      65787400 
ARM GAS  /tmp/ccV3l6aC.s 			page 86


 3538              	.LASF40:
 3539 0281 705F6D70 		.ascii	"p_mpool\000"
 3539      6F6F6C00 
 3540              	.LASF38:
 3541 0289 705F6D74 		.ascii	"p_mtxlist\000"
 3541      786C6973 
 3541      7400
 3542              	.LASF31:
 3543 0293 705F7374 		.ascii	"p_state\000"
 3543      61746500 
 3544              	.LASF43:
 3545 029b 63685F74 		.ascii	"ch_thread\000"
 3545      68726561 
 3545      6400
 3546              	.LASF66:
 3547 02a5 73797374 		.ascii	"system_debug_t\000"
 3547      656D5F64 
 3547      65627567 
 3547      5F7400
 3548              	.LASF11:
 3549 02b4 6C6F6E67 		.ascii	"long long int\000"
 3549      206C6F6E 
 3549      6720696E 
 3549      7400
 3550              	.LASF49:
 3551 02c2 725F7175 		.ascii	"r_queue\000"
 3551      65756500 
 3552              	.LASF52:
 3553 02ca 725F6E65 		.ascii	"r_newer\000"
 3553      77657200 
 3554              	.LASF19:
 3555 02d2 6D73675F 		.ascii	"msg_t\000"
 3555      7400
 3556              	.LASF78:
 3557 02d8 636F6E74 		.ascii	"context\000"
 3557      65787400 
 3558              	.LASF121:
 3559 02e0 6368506F 		.ascii	"chPoolObjectInit\000"
 3559      6F6C4F62 
 3559      6A656374 
 3559      496E6974 
 3559      00
 3560              	.LASF32:
 3561 02f1 705F666C 		.ascii	"p_flags\000"
 3561      61677300 
 3562              	.LASF56:
 3563 02f9 76697274 		.ascii	"virtual_timer_t\000"
 3563      75616C5F 
 3563      74696D65 
 3563      725F7400 
 3564              	.LASF109:
 3565 0309 6F626A70 		.ascii	"objp\000"
 3565      00
 3566              	.LASF119:
 3567 030e 73697A65 		.ascii	"size\000"
 3567      00
 3568              	.LASF53:
ARM GAS  /tmp/ccV3l6aC.s 			page 87


 3569 0313 725F6F6C 		.ascii	"r_older\000"
 3569      64657200 
 3570              	.LASF102:
 3571 031b 6D705F6F 		.ascii	"mp_object_size\000"
 3571      626A6563 
 3571      745F7369 
 3571      7A6500
 3572              	.LASF68:
 3573 032a 70616E69 		.ascii	"panic_msg\000"
 3573      635F6D73 
 3573      6700
 3574              	.LASF123:
 3575 0334 5F5F6675 		.ascii	"__func__.6346\000"
 3575      6E635F5F 
 3575      2E363334 
 3575      3600
 3576              	.LASF36:
 3577 0342 705F6D73 		.ascii	"p_msg\000"
 3577      6700
 3578              	.LASF15:
 3579 0348 746D6F64 		.ascii	"tmode_t\000"
 3579      655F7400 
 3580              	.LASF73:
 3581 0350 6D61696E 		.ascii	"mainthread\000"
 3581      74687265 
 3581      616400
 3582              	.LASF14:
 3583 035b 7274636E 		.ascii	"rtcnt_t\000"
 3583      745F7400 
 3584              	.LASF124:
 3585 0363 5F5F6675 		.ascii	"__func__.6352\000"
 3585      6E635F5F 
 3585      2E363335 
 3585      3200
 3586              	.LASF39:
 3587 0371 705F7265 		.ascii	"p_realprio\000"
 3587      616C7072 
 3587      696F00
 3588              	.LASF5:
 3589 037c 73686F72 		.ascii	"short int\000"
 3589      7420696E 
 3589      7400
 3590              	.LASF54:
 3591 0386 725F6375 		.ascii	"r_current\000"
 3591      7272656E 
 3591      7400
 3592              	.LASF37:
 3593 0390 705F6570 		.ascii	"p_epending\000"
 3593      656E6469 
 3593      6E6700
 3594              	.LASF93:
 3595 039b 6D5F7175 		.ascii	"m_queue\000"
 3595      65756500 
 3596              	.LASF8:
 3597 03a3 6C6F6E67 		.ascii	"long int\000"
 3597      20696E74 
 3597      00
ARM GAS  /tmp/ccV3l6aC.s 			page 88


 3598              	.LASF79:
 3599 03ac 706F7274 		.ascii	"port_intctx\000"
 3599      5F696E74 
 3599      63747800 
 3600              	.LASF125:
 3601 03b8 49544D5F 		.ascii	"ITM_RxBuffer\000"
 3601      52784275 
 3601      66666572 
 3601      00
 3602              	.LASF70:
 3603 03c5 63685F73 		.ascii	"ch_system\000"
 3603      79737465 
 3603      6D00
 3604              	.LASF122:
 3605 03cf 6368506F 		.ascii	"chPoolLoadArray\000"
 3605      6F6C4C6F 
 3605      61644172 
 3605      72617900 
 3606              	.LASF111:
 3607 03df 5F5F7365 		.ascii	"__set_BASEPRI\000"
 3607      745F4241 
 3607      53455052 
 3607      4900
 3608              	.LASF24:
 3609 03ed 705F6E65 		.ascii	"p_next\000"
 3609      787400
 3610              	.LASF120:
 3611 03f4 70726F76 		.ascii	"provider\000"
 3611      69646572 
 3611      00
 3612              	.LASF12:
 3613 03fd 75696E74 		.ascii	"uint64_t\000"
 3613      36345F74 
 3613      00
 3614              	.LASF27:
 3615 0406 705F6374 		.ascii	"p_ctx\000"
 3615      7800
 3616              	.LASF110:
 3617 040c 5F5F6675 		.ascii	"__func__.6360\000"
 3617      6E635F5F 
 3617      2E363336 
 3617      3000
 3618              	.LASF71:
 3619 041a 726C6973 		.ascii	"rlist\000"
 3619      7400
 3620              	.LASF129:
 3621 0420 6368506F 		.ascii	"chPoolAlloc\000"
 3621      6F6C416C 
 3621      6C6F6300 
 3622              	.LASF98:
 3623 042c 6D656D67 		.ascii	"memgetfunc_t\000"
 3623      65746675 
 3623      6E635F74 
 3623      00
 3624              	.LASF25:
 3625 0439 705F7072 		.ascii	"p_prev\000"
 3625      657600
ARM GAS  /tmp/ccV3l6aC.s 			page 89


 3626              	.LASF75:
 3627 0440 73697A65 		.ascii	"sizetype\000"
 3627      74797065 
 3627      00
 3628              	.LASF17:
 3629 0449 74726566 		.ascii	"trefs_t\000"
 3629      735F7400 
 3630              	.LASF10:
 3631 0451 6C6F6E67 		.ascii	"long unsigned int\000"
 3631      20756E73 
 3631      69676E65 
 3631      6420696E 
 3631      7400
 3632              	.LASF115:
 3633 0463 5F5F6675 		.ascii	"__func__.6370\000"
 3633      6E635F5F 
 3633      2E363337 
 3633      3000
 3634              	.LASF47:
 3635 0471 72656164 		.ascii	"ready_list_t\000"
 3635      795F6C69 
 3635      73745F74 
 3635      00
 3636              	.LASF116:
 3637 047e 6368506F 		.ascii	"chPoolFreeI\000"
 3637      6F6C4672 
 3637      65654900 
 3638              	.LASF7:
 3639 048a 696E7433 		.ascii	"int32_t\000"
 3639      325F7400 
 3640              	.LASF86:
 3641 0492 77747365 		.ascii	"wtsemp\000"
 3641      6D7000
 3642              	.LASF97:
 3643 0499 6D757465 		.ascii	"mutex_t\000"
 3643      785F7400 
 3644              	.LASF4:
 3645 04a1 756E7369 		.ascii	"unsigned char\000"
 3645      676E6564 
 3645      20636861 
 3645      7200
 3646              	.LASF63:
 3647 04af 76697274 		.ascii	"virtual_timers_list_t\000"
 3647      75616C5F 
 3647      74696D65 
 3647      72735F6C 
 3647      6973745F 
 3648              	.LASF33:
 3649 04c5 705F7265 		.ascii	"p_refs\000"
 3649      667300
 3650              	.LASF114:
 3651 04cc 6368506F 		.ascii	"chPoolAllocI\000"
 3651      6F6C416C 
 3651      6C6F6349 
 3651      00
 3652              	.LASF99:
 3653 04d9 706F6F6C 		.ascii	"pool_header\000"
ARM GAS  /tmp/ccV3l6aC.s 			page 90


 3653      5F686561 
 3653      64657200 
 3654              	.LASF58:
 3655 04e5 76745F6E 		.ascii	"vt_next\000"
 3655      65787400 
 3656              	.LASF128:
 3657 04ed 2F686F6D 		.ascii	"/home/sylvain/Documents/TelecomRobotics/ChibiOS_16."
 3657      652F7379 
 3657      6C766169 
 3657      6E2F446F 
 3657      63756D65 
 3658 0520 312E372F 		.ascii	"1.7/demos/STM32/RT-STM32F302R8-NUCLEO\000"
 3658      64656D6F 
 3658      732F5354 
 3658      4D33322F 
 3658      52542D53 
 3659              	.LASF69:
 3660 0546 63685F73 		.ascii	"ch_system_t\000"
 3660      79737465 
 3660      6D5F7400 
 3661              	.LASF85:
 3662 0552 77747472 		.ascii	"wttrp\000"
 3662      7000
 3663              	.LASF95:
 3664 0558 6D5F6E65 		.ascii	"m_next\000"
 3664      787400
 3665              	.LASF1:
 3666 055f 7369676E 		.ascii	"signed char\000"
 3666      65642063 
 3666      68617200 
 3667              	.LASF6:
 3668 056b 73686F72 		.ascii	"short unsigned int\000"
 3668      7420756E 
 3668      7369676E 
 3668      65642069 
 3668      6E7400
 3669              	.LASF51:
 3670 057e 725F6374 		.ascii	"r_ctx\000"
 3670      7800
 3671              	.LASF77:
 3672 0584 73746B61 		.ascii	"stkalign_t\000"
 3672      6C69676E 
 3672      5F7400
 3673              	.LASF61:
 3674 058f 76745F66 		.ascii	"vt_func\000"
 3674      756E6300 
 3675              	.LASF106:
 3676 0597 706F7274 		.ascii	"port_unlock\000"
 3676      5F756E6C 
 3676      6F636B00 
 3677              	.LASF59:
 3678 05a3 76745F70 		.ascii	"vt_prev\000"
 3678      72657600 
 3679              	.LASF83:
 3680 05ab 65786974 		.ascii	"exitcode\000"
 3680      636F6465 
 3680      00
ARM GAS  /tmp/ccV3l6aC.s 			page 91


 3681              	.LASF103:
 3682 05b4 6D705F70 		.ascii	"mp_provider\000"
 3682      726F7669 
 3682      64657200 
 3683              		.comm	__gnu_lto_v1,1,1
 3684              		.ident	"GCC: (GNU) 4.7.2"
ARM GAS  /tmp/ccV3l6aC.s 			page 92


DEFINED SYMBOLS
                            *ABS*:00000000 chmempools.c
     /tmp/ccV3l6aC.s:370    .text.chPoolObjectInit:00000000 $t
     /tmp/ccV3l6aC.s:376    .text.chPoolObjectInit:00000000 chPoolObjectInit
     /tmp/ccV3l6aC.s:397    .text.chPoolLoadArray:00000000 $t
     /tmp/ccV3l6aC.s:403    .text.chPoolLoadArray:00000000 chPoolLoadArray
     /tmp/ccV3l6aC.s:502    .text.chPoolAllocI:00000000 $t
     /tmp/ccV3l6aC.s:508    .text.chPoolAllocI:00000000 chPoolAllocI
     /tmp/ccV3l6aC.s:547    .text.chPoolAlloc:00000000 $t
     /tmp/ccV3l6aC.s:553    .text.chPoolAlloc:00000000 chPoolAlloc
     /tmp/ccV3l6aC.s:643    .text.chPoolFreeI:00000000 $t
     /tmp/ccV3l6aC.s:649    .text.chPoolFreeI:00000000 chPoolFreeI
     /tmp/ccV3l6aC.s:667    .text.chPoolFree:00000000 $t
     /tmp/ccV3l6aC.s:673    .text.chPoolFree:00000000 chPoolFree
                            *COM*:00000001 __gnu_lto_v1
                     .debug_frame:00000010 $d

NO UNDEFINED SYMBOLS
