ARM GAS  /tmp/ccV3l6aC.s 			page 1


   1              		.syntax unified
   2              		.cpu cortex-m4
   3              		.fpu softvfp
   4              		.eabi_attribute 20, 1
   5              		.eabi_attribute 21, 1
   6              		.eabi_attribute 23, 3
   7              		.eabi_attribute 24, 1
   8              		.eabi_attribute 25, 1
   9              		.eabi_attribute 26, 1
  10              		.eabi_attribute 30, 2
  11              		.eabi_attribute 34, 1
  12              		.eabi_attribute 18, 4
  13              		.thumb
  14              		.file	"chmempools.c"
  15              		.text
  16              	.Ltext0:
  17              		.section	.gnu.lto_.jmpfuncs.951f746ee2a16c03,"",%progbits
  18 0000 789C6362 		.ascii	"x\234cb`d`g\300\016$\2404\033\003;#;\023##C=\003\003"
  18      60646067 
  18      C00E24A0 
  18      341B033B 
  18      233B1323 
  19 0019 33846261 		.ascii	"3\204bafef\000\000\023a\001N"
  19      66656600 
  19      00136101 
  19      4E
  20              		.text
  21              		.section	.gnu.lto_.inline.951f746ee2a16c03,"",%progbits
  22 0000 789C6362 		.ascii	"x\234cb`d\340e\300\016\212\2414\033\020\2612201\357"
  22      6064E065 
  22      C00E8AA1 
  22      341B10B1 
  22      32323031 
  23 0015 1067E0BC 		.ascii	"\020g\340\274a\306\004\322\362\022H0\011\366\337\343"
  23      61C604D2 
  23      F2124830 
  23      09F6DFE3 
  24 0025 62E09CDB 		.ascii	"b\340\234\333\303\304\304\300\304 \310\005\024\341\233"
  24      C3C4C4C0 
  24      C420C805 
  24      14E19B
  25 0034 E6CCC035 		.ascii	"\346\314\3005\303\200\211\201U\220\201\201q\202\037"
  25      C3808981 
  25      55908181 
  25      71821F
  26 0043 3383300F 		.ascii	"3\2030\017PXh[\022\2120\013\232\201\254\014\034\354"
  26      5058685B 
  26      128A300B 
  26      9A81AC0C 
  26      1CEC
  27 0055 403EFB0D 		.ascii	"@>\373\0153\010\237\001\000\325\025\020e"
  27      33089F01 
  27      00D51510 
  27      65
  28              		.text
  29              		.section	.gnu.lto_.pureconst.951f746ee2a16c03,"",%progbits
  30 0000 789C6362 		.ascii	"x\234cb`d`f``\340e\200\0006\006)F+&)f+\026)V+\000\007"
ARM GAS  /tmp/ccV3l6aC.s 			page 2


  30      60646066 
  30      6060E065 
  30      80003606 
  30      29462B26 
  31 001d EA0125   		.ascii	"\352\001%"
  32              		.text
  33              		.section	.gnu.lto_chPoolObjectInit.951f746ee2a16c03,"",%progbits
  34 0000 789C7591 		.ascii	"x\234u\2211K\003A\020\205\337\233\275H\032\3016]\300"
  34      314B0341 
  34      1085DF9B 
  34      BD481AC1 
  34      365DC0
  35 0013 60612087 		.ascii	"`a \207\330\370\023\004\253\010\202M\2648\017\014\030"
  35      D8F81304 
  35      AB08824D 
  35      B4380F0C 
  35      18
  36 0024 2EDC8985 		.ascii	".\334\211\205\2059\243? X\231\263\021#\226\026\226i"
  36      8539A33F 
  36      205899B3 
  36      11239616 
  36      9669
  37 0036 B4B09020 		.ascii	"\264\260\220 \261\261\264\360\207\010:{g\344 fv\207"
  37      B1B1B4F0 
  37      87083A7B 
  37      67E42066 
  37      7687
  38 0048 37B0EF9B 		.ascii	"7\260\357\233aw\005\3245\035%\315\007=XU\245\001\245"
  38      617705D4 
  38      351D25CD 
  38      073D5855 
  38      A501A5
  39 005b 37064ECB 		.ascii	"7\006N\313B\332B\221\216\260\263\225\221\243\253\301"
  39      42DA4291 
  39      8EB0B395 
  39      91A3ABC1 
  40 006b 1BDF93B9 		.ascii	"\033\337\223\271Gy\372\374\356T0\210\343\213\336Y\274"
  40      4779FAFC 
  40      EE543088 
  40      E38BDE59 
  40      BC
  41 007c EE138245 		.ascii	"\356\023\202Eb\227\370\350\017\245\004\237D\031V\005"
  41      6297F8E8 
  41      0FA5049F 
  41      44195605 
  42 008c 8E8292F7 		.ascii	"\216\202\222\367\032\301R\352\275\234\237vja\220w;\202"
  42      1AC152EA 
  42      BD9C9F76 
  42      6A619077 
  42      3B82
  43 009e 6AEA7E59 		.ascii	"j\352~Y\371\327\355h\002E\262\301kV \2527\252F\365V"
  43      F9D7ED68 
  43      0245B2C1 
  43      6B5620AA 
  43      37AA46F5 
  44 00b3 55A380F3 		.ascii	"U\243\200\3638^`3\355\222F\335\252\275\336\246\366\261"
  44      385E6033 
ARM GAS  /tmp/ccV3l6aC.s 			page 3


  44      ED9246DD 
  44      AABDDEA6 
  44      F6B1
  45 00c5 8519A1BB 		.ascii	"\205\031\241\273\366\325?i\360\216\005T\261\354\263"
  45      F6D53F69 
  45      F08E0554 
  45      B1ECB3
  46 00d4 6012F4E9 		.ascii	"`\022\364\351sN<\262\224\016\001\2665w\370\367r\352"
  46      734E3CB2 
  46      940E01B6 
  46      3577F8F7 
  46      72EA
  47 00e6 CADE05DD 		.ascii	"\312\336\005\335\215\347d\310\034nf\343\277\274gg[\362"
  47      8DE764C8 
  47      1C6E66E3 
  47      BFBC6767 
  47      5BF2
  48 00f8 35B9CF93 		.ascii	"5\271\317\223\316lR&\244\001\306\260?\221q\223\250\333"
  48      CE6C5226 
  48      A401C6B0 
  48      3F917193 
  48      A8DB
  49 010a DE7A1DEB 		.ascii	"\336z\035\353+\327jn\266\203\310\015\017\335(\364\\"
  49      2BD76A6E 
  49      B683C80D 
  49      0FDD28F4 
  49      5C
  50 011b 6FBFE5B7 		.ascii	"o\277\345\267\332Ap\020\325<H\253\355D\315c\277\330"
  50      DA417010 
  50      D53C48AB 
  50      ED44CD63 
  50      BFD8
  51 012d 0E83A3E6 		.ascii	"\016\203\243\346\236\037\376\0003v_\275"
  51      9E1FFE00 
  51      33765FBD 
  52              		.text
  53              		.section	.gnu.lto_chPoolLoadArray.951f746ee2a16c03,"",%progbits
  54 0000 789C9555 		.ascii	"x\234\225U]HTA\024>g\346\336\3355\205\354\321\036l1"
  54      5D485441 
  54      143E67E6 
  54      DEDD3585 
  54      ECD11E6C 
  55 0015 0B33717D 		.ascii	"\0133q}+\210\240\020B\037|P\013B\270\211\336n\254\341"
  55      2B88A010 
  55      421F7C50 
  55      0B42B889 
  55      DE6EACE1 
  56 0029 BACBAE8A 		.ascii	"\272\313\256\212\275\344\266\372`\221`\321\203\212B"
  56      BDE4B6FA 
  56      609160D1 
  56      838A42
  57 0038 66D8BFB1 		.ascii	"f\330\277\261\006\005A\026\225\011f\022$\342[\202B "
  57      06054116 
  57      95096612 
  57      24E25B82 
  57      4220
  58 004a 3DF5D453 		.ascii	"=\365\324Svf\346\356\272?W\333f\367\3363\367\316w\276"
ARM GAS  /tmp/ccV3l6aC.s 			page 4


  58      7666E6EE 
  58      BA3F57DB 
  58      66F7DE33 
  58      F7CE77BE 
  59 005e 73E69B99 		.ascii	"s\346\233\231s\031 \375\262\333I\272N\270\001\276\222"
  59      731920FD 
  59      B2DB49BA 
  59      4EB801BE 
  59      92
  60 006f 4517201B 		.ascii	"E\027 \033Z\002\270\346e\250\251\016W\235\011\257\306"
  60      5A02B8E6 
  60      65A8A90E 
  60      579D09AF 
  60      C6
  61 0080 F8CD7980 		.ascii	"\370\315y\200h\231\336\357\206h\225\216(\336\023g/\343"
  61      6899DEEF 
  61      8668958E 
  61      28DE1367 
  61      2FE3
  62 0092 9A8EBDE7 		.ascii	"\232\216\275\347$;+\201\211h\364\366\320\207XMlmk\353"
  62      243B2B81 
  62      8968F4F6 
  62      D087584D 
  62      6C6D6BEB 
  63 00a6 8025DE36 		.ascii	"\200%\3366#,\254\256\027\024\201\205\010^\020\226\201"
  63      232CACAE 
  63      17148185 
  63      085E1096 
  63      81
  64 00b7 969E4796 		.ascii	"\226\236G\226\037\227~\213\3233\270\253\337\342\330"
  64      1F977E8B 
  64      D333B8AB 
  64      DFE2D8
  65 00c6 2FBE31EE 		.ascii	"/\2761\356z\313\336\255m\365\226\302\244 \351\213\326"
  65      7ACBDEAD 
  65      6DF596C2 
  65      A420E98B 
  65      D6
  66 00d7 58A83138 		.ascii	"X\25018\210\222b\354%\313\246`\251X\235\301a\211\375"
  66      889262EC 
  66      25CBA660 
  66      A9589DC1 
  66      6189FD
  67 00ea 9DEF108C 		.ascii	"\235\357\020\214\306!\025\355bP&\321\303{\035\321.\272"
  67      C62115ED 
  67      625026D1 
  67      C37B1DD1 
  67      2EBA
  68 00fc 34D88760 		.ascii	"4\330\207`\340},\005Fv\212,G\365\254\241z\326\311\336"
  68      E07D2C05 
  68      46768A2C 
  68      47F5ACA1 
  68      7AD6C9DE 
  69 0110 23EBA2F1 		.ascii	"#\353\242\361\273X\002n\033\357\261\361\005d'\350=5"
  69      BB58026E 
  69      1BEFB1F1 
  69      056427E8 
ARM GAS  /tmp/ccV3l6aC.s 			page 5


  69      3D35
  70 0122 1DFAA3D1 		.ascii	"\035\372\243\321Bl\223Qe\253\027\226\026\242\236\302"
  70      426C9351 
  70      65AB1796 
  70      16A29EC2 
  71 0132 92E50DA4 		.ascii	"\222\345\015\244\027\322\372\360O\3000\251&\245k\253"
  71      17D2FAF0 
  71      4FC030A9 
  71      26A56BAB 
  72 0142 A9193849 		.ascii	"\251\0318IPr\367\357*\247Is\205\0358H\245r\225\301?"
  72      5072F7EF 
  72      2AA74973 
  72      851D3848 
  72      A57295C1 
  73 0157 285051A8 		.ascii	"(PQ\250\254\231\201\217i\026\006>\222\367\207\"@\312"
  73      AC99818F 
  73      6916063E 
  73      92F78722 
  73      40CA
  74 0169 823BA488 		.ascii	"\202;\244\210\177F\277m8,\231S\232\006>\245nv\252\006"
  74      7F46BF6D 
  74      382C9953 
  74      9A063EA5 
  74      6E76AA06 
  75 017d 3E515CFF 		.ascii	">Q\\\377\225+\244\033E\236\321\262b\271\031\234\025"
  75      952BA41B 
  75      459ED1B2 
  75      62B9199C 
  75      15
  76 018e B2B0CDC1 		.ascii	"\262\260\315\301x\361\256\321\304K7\015\002|\206\030"
  76      78F1AED1 
  76      C44B370D 
  76      027C8618 
  77 019e CEDC1959 		.ascii	"\316\334\031Y?\236\031\360yZ@qd\343\264\262\264\306"
  77      3F9E19F0 
  77      795A4071 
  77      64E3B4B2 
  77      B4C6
  78 01b0 F206500C 		.ascii	"\362\006P\014\357q<:|\312BO\032arx\316\036\316\223\004"
  78      EF713C3A 
  78      7CCA424F 
  78      1A617278 
  78      CE1ECE93 
  79 01c5 4AA2B893 		.ascii	"J\242\270\223DI\271\331\302\365\007<W\265\035\251\222"
  79      4449B9D9 
  79      C2F5073C 
  79      57B51DA9 
  79      92
  80 01d6 6AB3DCD4 		.ascii	"j\263\334\324\336x6k\013\216Y\\\234\301\027\314a\227"
  80      DE78366B 
  80      0B8E595C 
  80      9CC117CC 
  80      6197
  81 01e8 25158BA7 		.ascii	"%\025\213\247)f\340,q\312@\013\020k\022\345\303\300"
  81      2966E02C 
  81      71CA400B 
  81      106B12E5 
ARM GAS  /tmp/ccV3l6aC.s 			page 6


  81      C3C0
  82 01fa 370431B1 		.ascii	"7\0041\261\340(\224\023?\037\205\021\264p\017\243Y\025"
  82      E0289413 
  82      3F1F8511 
  82      B4700FA3 
  82      5915
  83 020c C9930AB2 		.ascii	"\311\223\012\2620^\330\256\216\344Y;\240+\2774\247|"
  83      305ED8AE 
  83      8EE4593B 
  83      A02BBF34 
  83      A77C
  84 021e 7292E588 		.ascii	"r\222\345\210'\235\350\356\227S+P~\313\323W\035\034"
  84      279DE8EE 
  84      97532B50 
  84      7ECBD357 
  84      1D1C
  85 0230 9DA39DCF 		.ascii	"\235\243\235\317a\007\306s\331\201\006\276P\207{s\360"
  85      6107C673 
  85      D98106BE 
  85      50877B73 
  85      F0
  86 0241 D6F78A1C 		.ascii	"\326\367\212\034\366 \354\270\007I\256\005yP\347w\332"
  86      F620ECB8 
  86      0749AE05 
  86      7950E777 
  86      DA
  87 0252 8906BEA2 		.ascii	"\211\006\276\242\3166\217\275\365\014|\215\305\011\371"
  87      CE368FBD 
  87      F50C7C8D 
  87      C509F9
  88 0261 9AA8DE97 		.ascii	"\232\250\336\227\252\303n\242KJ\341r\222b5OjA\004\303"
  88      AAC36EA2 
  88      4B4AE172 
  88      9262354F 
  88      6A4104C3 
  89 0275 79B66FDF 		.ascii	"y\266o\337\015\336\223\360t\223:\344/\005\262k\207\252"
  89      0DDE93F0 
  89      74933AE4 
  89      2F05B26B 
  89      87AA
  90 0287 91A6884D 		.ascii	"\221\246\210M\330\001\276<\276?\201\366\230(\253\206"
  90      D801BE3C 
  90      BE3F81F6 
  90      9828AB86 
  91 0297 4B2A9CEA 		.ascii	"K*\234\3522%]<j*\015\024Y|\273\354R\231\030e\211\272"
  91      32255D3C 
  91      6A2A0D14 
  91      597CBBEC 
  91      52991865 
  92 02ad 978840DD 		.ascii	"\227\210@\3359\350\377\201?\307.%\"\330\364\333m\005"
  92      39E8FF81 
  92      3FC72E25 
  92      22D8F4DB 
  92      6D05
  93 02bf 283FCEE8 		.ascii	"(?\316\350\346\346\037\307\213W\200&\247\211G\217HL"
  93      E6E61FC7 
  93      8B578026 
ARM GAS  /tmp/ccV3l6aC.s 			page 7


  93      A789478F 
  93      484C
  94 02d1 C4D26579 		.ascii	"\304\322ey^\002\244\217TJ\365\003Q\302Q\214\011\361"
  94      5E02A48F 
  94      544AF503 
  94      51C2518C 
  94      09F1
  95 02e3 BC95953E 		.ascii	"\274\225\225>\365\017F|\341N_$l\372L\177\300\012\204"
  95      F50F467C 
  95      E14E5F24 
  95      6CFA4C7F 
  95      C00A84
  96 02f6 82C1F648 		.ascii	"\202\301\366H\245\011,\020\302\020vh\301\326\313\241"
  96      A5092C10 
  96      C2107668 
  96      C1D6CBA1 
  97 0306 D20C705B 		.ascii	"\322\014p[\207\331\336u\321Ju\360\203\336\335\322\336"
  97      87D9DE75 
  97      D14A75F0 
  97      83DEDDD2 
  97      DE
  98 0317 651DC980 		.ascii	"e\035\311\200\206\202\341\316\210\357tC]u]\017\341\315"
  98      8682E1CE 
  98      88EF7443 
  98      5D755D0F 
  98      E1CD
  99 0329 60D86AEE 		.ascii	"`\330j\356>\026 |E*\322\352\351\364U\3275\3266ns\013"
  99      3E16207C 
  99      452AD2EA 
  99      E9F455D7 
  99      35D6366E 
 100 033f A41938D3 		.ascii	"\244\0318\323\325a\022\270\260\256\261\301\333\332\022"
 100      D56112B8 
 100      B0AEB1C1 
 100      DBDA12
 101 034e B142E1B6 		.ascii	"\261B\341\266\012\357\241*`apS\360`\370\012\360\220"
 101      0AEFA12A 
 101      60617053 
 101      F060F80A 
 101      F090
 102 0360 3FF417F6 		.ascii	"?\364\027\366\326\222-"
 102      D6922D
 103              		.text
 104              		.section	.gnu.lto_chPoolAllocI.951f746ee2a16c03,"",%progbits
 105 0000 789C9552 		.ascii	"x\234\225R\277k\024Q\020\236\231\267\357\355\255A\275"
 105      BF6B1451 
 105      109E99B7 
 105      EFEDAD41 
 105      BD
 106 0011 4AD0C623 		.ascii	"J\320\306#\246\010\021\356\374\007\322+\251<\260\021"
 106      A60811EE 
 106      FC07D22B 
 106      A93CB011 
 107 0021 2E429615 		.ascii	".B\226\025\015\036w\344,\304\346\3263\205v\301\312$"
 107      0D1E77E4 
 107      2CC4E6D6 
 107      338576C1 
ARM GAS  /tmp/ccV3l6aC.s 			page 8


 107      CA24
 108 0033 84254664 		.ascii	"\204%Fd\323X\247R\301S$\034)\255\024RDL\225&I\223\346"
 108      D358A752 
 108      C153241C 
 108      29AD1452 
 108      444C9526 
 109 004a 32F3F6DE 		.ascii	"2\363\366\336\351\351E\314\376\340{;;\337\367\315\233"
 109      E9E945CC 
 109      FEE07B3B 
 109      3BDFF7CD 
 109      9B
 110 005b 7904C8F7 		.ascii	"y\004\310\367\337\327\024\277\337\025\300\004#\372\200"
 110      DFD714BF 
 110      DF15C004 
 110      23FA80
 111 006a B4B005F0 		.ascii	"\264\260\005\360\244@\244V&!\036\367\366\363\020_Sh"
 111      A440A456 
 111      26211EF7 
 111      F6F3105F 
 111      5368
 112 007c B2B0477A 		.ascii	"\262\260GzY\302\346P\302\332\205\015\242,\330\240I\312"
 112      59C2E650 
 112      C2DA850D 
 112      A22CD8A0 
 112      49CA
 113 008e D3069BB7 		.ascii	"\323\006\233\267\254\227\036\205\3258~\261\360\261u"
 113      AC971E85 
 113      D5387EB1 
 113      F0B175
 114 009d BDB5DDED 		.ascii	"\275\265\335\355^\216$z\007a\363\371\217\013\027!B\204"
 114      5E8E247A 
 114      0761F3F9 
 114      8F0B1721 
 114      4284
 115 00af 02081278 		.ascii	"\002\010\022x\203U\235\300\333\365O\307R\226\365-}|"
 115      83559DC0 
 115      DBF54FC7 
 115      5296F52D 
 115      7D7C
 116 00c1 3A9A6769 		.ascii	":\232gi;\351\036\376\017\357i\354x\232\340\012\012\265"
 116      3BE91EFE 
 116      0FEF69EC 
 116      789AE00A 
 116      0AB5
 117 00d3 93DCFD27 		.ascii	"\223\334\375'\263\235\274\243\316\272yO\037\266\273"
 117      B39DBCA3 
 117      CEBA794F 
 117      1FB6BB
 118 00e2 CD3158EB 		.ascii	"\3151X\353\311Dh\010\306\255B;yKC$8\003\316#T\3605\216"
 118      C9446808 
 118      C6AD423B 
 118      794B4324 
 118      3803CE23 
 119 00fa 026105DF 		.ascii	"\002a\005\337\340\030\250\336\267f\\e4\214\257\030s"
 119      E018A8DE 
 119      B7665C65 
 119      348CAF18 
ARM GAS  /tmp/ccV3l6aC.s 			page 9


 119      73
 120 010b 8C6B8C41 		.ascii	"\214k\214A\357\277\014\004\346\3438O\331\367}\353d\257"
 120      EFBF0C04 
 120      E6E3384F 
 120      D9F77DEB 
 120      64AF
 121 011d 9B8232C2 		.ascii	"\233\2022\3022;\311BmB\353\366A2S\301\0245\204\250\256"
 121      323BC942 
 121      6D42EBF6 
 121      413253C1 
 121      143584A8 
 122 0132 C2044F41 		.ascii	"\302\004OA-\301\"F\350S\210\266<\303\264/\334e\230\376"
 122      2DC12246 
 122      E85388B6 
 122      3CC3B42F 
 122      DC6598FE 
 123 0146 75B63E03 		.ascii	"u\266>\003=S\031/\363\011e\016\237`\376'\266\323K}A"
 123      3D53192F 
 123      F309650E 
 123      9F60FE27 
 123      B6D34B7D 
 124 015b A1EB81AE 		.ascii	"\241\353\201\256\224%oe\322Zw\322#t\251z\300;G=\262"
 124      94256F65 
 124      D25A77D2 
 124      2374A97A 
 124      C03B473D 
 125 0170 A34D637F 		.ascii	"\243Mc\177\311\314\033/u\306;\271\340G\277\327\033\272"
 125      C9CC1B2F 
 125      75C63BB9 
 125      E047BFD7 
 125      1BBA
 126 0182 22CA32F6 		.ascii	"\"\3122\366\375\274u\347\023\343\314\215\325\011\206"
 126      FDBC75E7 
 126      13E3CC8D 
 126      D50986
 127 0191 E964E6E4 		.ascii	"\351d\346\344\314\355\0167T\237(i\301\037\033d\257\344"
 127      CCED0E37 
 127      549F2869 
 127      C11F1B64 
 127      AFE4
 128 01a3 ACB590D3 		.ascii	"\254\265\220\323\345Rs\326\343\3140\217]\337\232pc6"
 128      E55273D6 
 128      E3CC308F 
 128      5DDF9A70 
 128      6336
 129 01b5 7CABD101 		.ascii	"|\253\321\001/\355{\004\241$\261@\204#\266\3610\330"
 129      2FED7B04 
 129      A124B140 
 129      8423B6F1 
 129      30D8
 130 01c7 F7C0F99A 		.ascii	"\367\300\371\232l\250\234\301\373v\177y\271\005\330"
 130      6CA89CC1 
 130      FB767F79 
 130      B905D8
 131 01d6 5E3FE7E4 		.ascii	"^?\347\344lO\276\002r\203\025\317\236\301\023\021\275"
 131      6C4FBE02 
 131      728315CF 
ARM GAS  /tmp/ccV3l6aC.s 			page 10


 131      9EC11311 
 131      BD
 132 01e7 93CECA11 		.ascii	"\223\316\312\021A+\"\373-\024\213\245\354\2515Js\017"
 132      412B22FB 
 132      2D148BA5 
 132      ECA9354A 
 132      730F
 133 01f9 4B8DB9B0 		.ascii	"K\215\271\260\024\336\253F\325z\255\366\240Q\014\301"
 133      14DEAB46 
 133      D57AADF6 
 133      A0510CC1 
 134 0209 ABCDCCD6 		.ascii	"\253\315\314\326\251Z?\006\005\021\317G"
 134      A95A3F06 
 134      0511CF47 
 135              		.text
 136              		.section	.gnu.lto_chPoolAlloc.951f746ee2a16c03,"",%progbits
 137 0000 789C9554 		.ascii	"x\234\225TML\023Q\020\236y\373SJ[\323\203\027<`C0A!"
 137      4D4C1351 
 137      109E79FB 
 137      534A5BD3 
 137      83173C60 
 138 0018 2D37BD90 		.ascii	"-7\275\220hH\214\304\364`\211\027\223\225\320u\015\020"
 138      68488CC4 
 138      F4608917 
 138      9395D075 
 138      0D10
 139 002a 4A9B1608 		.ascii	"J\233\026\010za\255\034H\210\011\361\004*\251\210bS"
 139      7A61AD1C 
 139      488809F1 
 139      042AA988 
 139      6253
 140 003c A226FEC5 		.ascii	"\242&\376\305\030\0235\242\007m8z2\304D\210\027\302"
 140      181335A2 
 140      076D387A 
 140      32C44488 
 140      17C2
 141 004e 053CE805 		.ascii	"\005<\350\005\347\275\335mYJ\011\274\376\314\366\275"
 141      E7BDDD6D 
 141      594A09BC 
 141      FECCF6BD 
 142 005e F9E69B6F 		.ascii	"\371\346\233o\336L\031 \275*\327y\3720\025`\216,z\000"
 142      DE4C1920 
 142      BD2AD779 
 142      FA301560 
 142      8E2C7A00 
 143 0072 D9E412C0 		.ascii	"\331\344\022\300\215\020c\322L\033\230M\362F\020\314"
 143      8D1063D2 
 143      4C1B984D 
 143      F24610CC 
 144 0082 5609556B 		.ascii	"V\011Uk[f\312]\276\255\376\341\333\212\263\255\"\362"
 144      5B66CA5D 
 144      BEADFEE1 
 144      DB8AB3AD 
 144      22F2
 145 0094 07221865 		.ascii	"\007\"\030e\222\254\2508zQp\311\0150k\232\267'o\232"
 145      92ACA838 
 145      7A5170C9 
ARM GAS  /tmp/ccV3l6aC.s 			page 11


 145      0D306B9A 
 145      B7276F9A 
 146 00a8 E7B23FB7 		.ascii	"\347\262?\267\266\216\032\010\014\030B\027\302\362\323"
 146      B68E1A08 
 146      0C184217 
 146      C2F2D3
 147 00b7 557F1D18 		.ascii	"U\177\035\030\210\020\002n\031\310\356\304l\350\247"
 147      8810026E 
 147      19C8EEC4 
 147      6CE8A7
 148 00c6 AC039580 		.ascii	"\254\003\225\200\343V\362\353x0\234,p?\362\327\017\006"
 148      E356F2EB 
 148      78309C2C 
 148      703FF2D7 
 148      0F06
 149 00d8 5304AC98 		.ascii	"S\004\254\230\377\2677\335Z\341-[[P\337\263\017?\267"
 149      FFB737DD 
 149      5AE12D5B 
 149      5B50DFB3 
 149      0F3FB7
 150 00eb 461B61CE 		.ascii	"F\033a\316\226k\240\312\240I(]+\024\330.!\310\003\016"
 150      966BA0CA 
 150      A049285D 
 150      2B14D82E 
 150      21C8030E 
 151 00ff 236AF808 		.ascii	"#j\370\010\033\241\0064\274\217\015\340%\373\220l-\331"
 151      1BA10634 
 151      BC8F0DE0 
 151      25FB906C 
 151      2DD9
 152 0111 39B23EB2 		.ascii	"9\262>\262\017\310\372\355\363\200mi)0f\232A\264~w\331"
 152      0FC8FAED 
 152      F3806D69 
 152      2930669A 
 152      41B47E77 
 153 0126 577B815B 		.ascii	"W{\201[~\0251\242\341\017\322\027\252\267\345j#(\302"
 153      7E1531A2 
 153      E10FD217 
 153      AAB7E56A 
 153      2328C2
 154 0139 632E6EA7 		.ascii	"c.n\247\362\362\035y\0304\213\314\347'6VwK\275\274\370"
 154      F2F21D79 
 154      18348BCC 
 154      E7273656 
 154      774BBDBC 
 155 014e A6870E01 		.ascii	"\246\207\016\001\276A\026\327oM\377:\345\"\243\364\012"
 155      BE4116D7 
 155      6F4DFF3A 
 155      E522A3F4 
 155      0A
 156 015f 949E8679 		.ascii	"\224\236\206y\027%o\305q\272P\312Q|\001\324\3034\316"
 156      17256FC5 
 156      71BA50CA 
 156      517C01D4 
 156      C334CE
 157 0172 9853A70D 		.ascii	"\230S\247\015\254q\205-\035\337\263\217\275\"\000W\265"
 157      AC71852D 
ARM GAS  /tmp/ccV3l6aC.s 			page 12


 157      1DDFB38F 
 157      BD220057 
 157      B5
 158 0183 4BE6AA86 		.ascii	"K\346\252\206\363\224$o\257'\253\322\236\231\353t\004"
 158      F394246F 
 158      AF27ABD2 
 158      9E99EB74 
 158      04
 159 0194 5F217B69 		.ascii	"_!{i3\027\267s\255lV\015g\255p\305\334\325=\243\225"
 159      3317B773 
 159      AD6C560D 
 159      67AD70C5 
 159      DCD53DA3 
 160 01a9 D4BE106A 		.ascii	"\324\276\020j\335\005\326\261\246\031NPGIwH\245\201"
 160      DD05D6B1 
 160      A6194E50 
 160      47497748 
 160      A581
 161 01bb B58CC8EB 		.ascii	"\265\214\310\353D\003\200\230\311\313\374k3\227v\244"
 161      44038098 
 161      C9CBFC6B 
 161      339776A4 
 162 01cb 8D4B1ABE 		.ascii	"\215K\032\276\244\020\032\276\242p:/\311g\030\373\215"
 162      A4101ABE 
 162      A2703A2F 
 162      C96718FB 
 162      8D
 163 01dc 8BF923D6 		.ascii	"\213\371#\326\001mq\274;\207\030\237\220\2316\211\213"
 163      016D71BC 
 163      3B87189F 
 163      90993689 
 163      8B
 164 01ed E26DEBB8 		.ascii	"\342m\353\270z]\344>f\203\225\022y)\016!;\246\024\013"
 164      7A5DE43E 
 164      66839512 
 164      79290E21 
 164      3BA6140B 
 165 0201 B78F8C47 		.ascii	"\267\217\214G\2046\257\303N%\331\010\012v\2325\207\274"
 165      8436AFC3 
 165      4E25D908 
 165      0A769A35 
 165      87BC
 166 0213 56C4F157 		.ascii	"V\304\361W\217\303\034r\241\360\215T\002r7\377\016\201"
 166      8FC31C72 
 166      A1F08D54 
 166      027237FF 
 166      0E81
 167 0225 94732E20 		.ascii	"\224s. (\370\337\200\343\352\023\034\201\352\034\222"
 167      28F8DF80 
 167      E3EA131C 
 167      81EA1C92 
 168 0235 13A10872 		.ascii	"\023\241\010r\276\304\340'\022.\300g\340!QvpW\335\357"
 168      BEC4E027 
 168      122EC067 
 168      E0215176 
 168      7057DDEF 
 169 0249 B0AAE549 		.ascii	"\260\252\345I\322\360\3656\217\200\200\025\027\342\326"
ARM GAS  /tmp/ccV3l6aC.s 			page 13


 169      D2F0F536 
 169      8F808015 
 169      17E2D6
 170 0258 8D974613 		.ascii	"\215\227F\023*\207\256\312\354\211U9\200\032.X}7?\361"
 170      2A87AECA 
 170      EC895539 
 170      801A2E58 
 170      7D373FF1 
 171 026c 775F13C8 		.ascii	"w_\023\310W\325\011\\\024=\371\261\332\004j\370\214"
 171      57D5095C 
 171      143DF9B1 
 171      DA046AF8 
 171      8C
 172 027d 1ECA71EC 		.ascii	"\036\312q\354\221\323\3609\326\213\215%\300\345w\212"
 172      91D3F039 
 172      D68B8D25 
 172      C0E5778A 
 173 028d 95BA100D 		.ascii	"\225\272\020\015\360\035\002\324F\022\315\016\031\231"
 173      F01D02D4 
 173      4612CD0E 
 173      1999
 174 029b 174B59C9 		.ascii	"\027KY\311\367\361\377\037\024\305\342\021\344d\274"
 174      F7F1FF1F 
 174      14C5E211 
 174      E464BC
 175 02aa 2F150A87 		.ascii	"/\025\012\207#\326;\231\211\244\007#\231\264\036\321"
 175      23D63B99 
 175      89A40723 
 175      99B41ED1 
 176 02ba 7B124622 		.ascii	"{\022F\"\225L\366g\302:\260DJ\031\356\356\0372\216\357"
 176      954CF667 
 176      C23AB044 
 176      4A19EEEE 
 176      1F328EEF 
 177 02ce F04C25D3 		.ascii	"\360L%\323\203\231\310\231X\264=:B\020=\2316\272\206"
 177      8399C899 
 177      58B43D3A 
 177      42103D99 
 177      36BA86
 178 02e1 4F26C23D 		.ascii	"O&\302=\320\262\335\323\030\031\214\264G;;:#\275\003"
 178      D0B2DDD3 
 178      18198CB4 
 178      473B3B3A 
 178      23BD03
 179 02f4 7AFFD015 		.ascii	"z\377\320\025#\"<\365\304\331\241\001\235\234\203\321"
 179      23223CF5 
 179      C4D9A101 
 179      9D9C83D1 
 180 0304 CE5828DE 		.ascii	"\316X(\336\2351R\351\336\226\320\261V`i\360\020\177"
 180      9D3152E9 
 180      DE96D0B1 
 180      566069F0 
 180      107F
 181 0316 327D0DFE 		.ascii	"2}\015\376\003*2V\012"
 181      032A3256 
 181      0A
 182              		.text
ARM GAS  /tmp/ccV3l6aC.s 			page 14


 183              		.section	.gnu.lto_chPoolFreeI.951f746ee2a16c03,"",%progbits
 184 0000 789C7D91 		.ascii	"x\234}\2211K\303P\020\307\377w/)\202\010NB'K\025\204"
 184      314BC350 
 184      10C7FF77 
 184      2F298208 
 184      4E42274B 
 185 0016 0AC9D7D0 		.ascii	"\012\311\327\320\261\202 B\024\014\201*\226\204\326"
 185      B1822042 
 185      140C812A 
 185      9684D6
 186 0025 D9C6EAE0 		.ascii	"\331\306\352\340X\334t\262\224\352\324\016NN*\010\016"
 186      58DC74B2 
 186      94EAD40E 
 186      4E4E2A08 
 186      0E
 187 0036 453A3976 		.ascii	"E:9v\350\340\342\247\250\367^\242\266\264x\311\343^"
 187      E8E0E2A7 
 187      A8F75EA2 
 187      B6B478C9 
 187      E35E
 188 0048 72F7FBDF 		.ascii	"r\367\373\337\273{\014\222g\332\262\262\026\030p\304"
 188      BB7B0C92 
 188      67DAB2B2 
 188      161870C4 
 189 0058 930271A3 		.ascii	"\223\002q\243\017\234\345\230Ho\004\2511\325\266\015"
 189      0F9CE598 
 189      486F04A9 
 189      31D5B60D 
 190 0068 C97934E3 		.ascii	"\311y4\343\370\252\361Z\337\250\017G\243\345@\377\335"
 190      F8AAF15A 
 190      DFA80F47 
 190      A3E540FF 
 190      DD
 191 0079 27F4BEDA 		.ascii	"'\364\276\332KY\004D\310A{\2065Y#\345\316\343_\216\261"
 191      4B590444 
 191      C8417B86 
 191      355923E5 
 191      CEE35F8E 
 192 008e 421AFDEC 		.ascii	"B\032\375\354<\321\277\350\240s\247\006\335\3143\277"
 192      3CD1BFE8 
 192      A073A706 
 192      DDCC33BF 
 193 009e 0C47B555 		.ascii	"\014G\265U\264R\235\200\024c\315HH\006OK\320x\256\305"
 193      B4529D80 
 193      1463CD48 
 193      48064F4B 
 193      D078AEC5 
 194 00b2 2898DCC7 		.ascii	"(\230\334\307\371\031\305$.Ka\216\310\243\266\200J|"
 194      F919C524 
 194      2E4B618E 
 194      C8A3B680 
 194      4A7C
 195 00c4 4BBC058F 		.ascii	"K\274\005\217n)\257sl\\\304\361\"{\324\224\357C\243"
 195      6E29AF73 
 195      6C5CC4F1 
 195      227BD494 
 195      EF43A3
ARM GAS  /tmp/ccV3l6aC.s 			page 15


 196 00d7 65ACA8BD 		.ascii	"e\254\250\275\036\324\226\250\351\215z\003\353\246<"
 196      1ED496A8 
 196      E98D7A03 
 196      EBA63C
 197 00e6 BA271B49 		.ascii	"\272'\033I\276/\025\321C}\367\275\373\220\006|\262\326"
 197      BE2F15D1 
 197      437DF7BD 
 197      FB90067C 
 197      B2D6
 198 00f8 519041A8 		.ascii	"Q\220A\250\033\\S@6\373\244\262\346\030\211\355\375"
 198      1B5C5340 
 198      36FBA4B2 
 198      E61889ED 
 198      FD
 199 0109 DD95909B 		.ascii	"\335\225\220\233\227v\302M@\031\201\314\364tV\311@)"
 199      9776C24D 
 199      401981CC 
 199      F47456C9 
 199      4029
 200 011b 25F209F7 		.ascii	"%\362\011\367\321=\235\001NT\333\031\257f\216\332\007"
 200      D13D9D01 
 200      4E54DB19 
 200      AF668EDA 
 200      07
 201 012c C9C813EE 		.ascii	"\311\310\023\356\307\212: \375I\227\3109\216\233\274"
 201      C78A3A20 
 201      FD4997C8 
 201      398E9BBC 
 202 013c 61D5AD9C 		.ascii	"a\325\255\234\270\325\212\357\372\245rP\216\302\360"
 202      B8D58AEF 
 202      FAA57250 
 202      8EC2F0
 203 014b B8EAF850 		.ascii	"\270\352\370PQ)\342rd\205\007G\3217]\025rB"
 203      5129E272 
 203      64850747 
 203      D1375D15 
 203      7242
 204              		.text
 205              		.section	.gnu.lto_chPoolFree.951f746ee2a16c03,"",%progbits
 206 0000 789C8D53 		.ascii	"x\234\215S\317O\023A\024~o\266e5z\340d\322\013l\374"
 206      CF4F1341 
 206      147E6FB6 
 206      65357AE0 
 206      64D20B6C 
 207 0015 9528A4EB 		.ascii	"\225(\244\353M\217\032\022\003\207\036hCbLF\002\353"
 207      4D8F1A12 
 207      03871E68 
 207      43624C46 
 207      02EB
 208 0027 C4625A76 		.ascii	"\304bZv\263\333\022\274\320\265z\300\020\015\361$F\023"
 208      B3DB12BC 
 208      D0B57AC0 
 208      100DF124 
 208      4613
 209 0039 F955F000 		.ascii	"\371U\360\000Q\364\300E%1\361P\011'\377\000\022\365"
 209      51F4C045 
 209      2531F150 
ARM GAS  /tmp/ccV3l6aC.s 			page 16


 209      0927FF00 
 209      12F5
 210 004b E0C58B5E 		.ascii	"\340\305\213^<\2257\263\033\332\245-8\355\316\233\314"
 210      3C9537B3 
 210      1BDAA52D 
 210      38EDCE9B 
 210      CC
 211 005c BCEF7BDF 		.ascii	"\274\357{\337{\363\206\001\322\257y$\350\033\212\001"
 211      7BF38601 
 211      D2AF7924 
 211      E81B8A01 
 212 006c AC90450D 		.ascii	"\254\220E\015\220\315\356\000\3347\030\242\\\020\244"
 212      90CDEE00 
 212      DC3718A2 
 212      5C10A4
 213 007b C4B034A4 		.ascii	"\304\2604\244\220x\032\346}\377\351\354\347r\177y\267"
 213      90781AE6 
 213      7DFFE9EC 
 213      E7727F79 
 213      B7
 214 008c 56EB1672 		.ascii	"V\353\026rw\030\241\372k\371T\002\004\"\030 -\203X4"
 214      7718A1FA 
 214      6BF95402 
 214      04221820 
 214      2D835834 
 215 00a0 C6F6E682 		.ascii	"\306\366\346\202\366w\263\343\023\333\332\255\225\316"
 215      F677B3E3 
 215      13DBDAAD 
 215      95CE
 216 00ae C2A22479 		.ascii	"\302\242$y\340\367\013\324\030\234AIA\036\254\231\002"
 216      E0F70BD4 
 216      189C4149 
 216      411EAC99 
 216      02
 217 00bf 1B7D630C 		.ascii	"\033}c\014\316+\337\325\023-\202\3219}\032\234D\344"
 217      CE2BDFD5 
 217      132D82D1 
 217      397D1A9C 
 217      44E4
 218 00d1 384F4046 		.ascii	"8O@Fv\221\254\016\034_\221r\032qx\350\373\235\222B\215"
 218      7691AC0E 
 218      1C5F9172 
 218      1A7178E8 
 218      FB9D9242 
 219 00e6 41696592 		.ascii	"Aie\222i\"\221\013\355\013\241B\247\320p\\\246\235\372"
 219      6922910B 
 219      ED0BA142 
 219      A7D0705C 
 219      A69DFA
 220 00f9 082B4082 		.ascii	"\010+@\202\302\012\304\031\364(U\225\231??[\244\020"
 220      C20AC419 
 220      F4285595 
 220      993F3F5B 
 220      A410
 221 010b A934B9D3 		.ascii	"\2514\271\323!\300W(\343\357\307s\337\257D\202\221\340"
 221      21C05728 
 221      E3EFC773 
ARM GAS  /tmp/ccV3l6aC.s 			page 17


 221      DFAF4482 
 221      91E0
 222 011d 5512CAB1 		.ascii	"U\022\312\261\022\011)\257m\2322#\215j\002\350\2029"
 222      120929AF 
 222      6D9A3223 
 222      8D6A02E8 
 222      8239
 223 012f 7CE93FBB 		.ascii	"|\351?\273*\260#B\273\177\374\"<\326\025\201\314\252"
 223      2AB02342 
 223      BB7FFC22 
 223      3CD61581 
 223      CCAA
 224 0141 85728DE3 		.ascii	"\205r\215\343\002\211\224\367\367hE;T\271EG\355hb\034"
 224      028994F7 
 224      F768453B 
 224      54B94547 
 224      ED68621C 
 225 0155 97021A38 		.ascii	"\227\002\0328\202\203)\216\037k\037\303\032c\023\027"
 225      8283298E 
 225      1F6B1FC3 
 225      1A631317 
 226 0165 E95F423C 		.ascii	"\351_B<\232+\3003\216\033\252^o\325\034\275(\216\357"
 226      9A2BC033 
 226      8E1BAA5E 
 226      6FD51CBD 
 226      288EEF
 227 0178 695705AD 		.ascii	"iW\005\255B\371\346\366\372\006\225\367\035\271X\250"
 227      42F9E6F6 
 227      FA0695F7 
 227      1DB958A8 
 228 0188 F7C0458A 		.ascii	"\367\300E\212\245=\2472\012<\306(\273\204\352\035P\017"
 228      A53DA732 
 228      0A3CC628 
 228      BB84EA1D 
 228      500F
 229 019a E456FD95 		.ascii	"\344V\375\225\020r`:\036\340\"\240\343\004R\227\015"
 229      1072603A 
 229      1EE022A0 
 229      E3045297 
 229      0D
 230 01ab FB209AB3 		.ascii	"\373 \232\263*M=\300}[\237j\001l\035\355FC}\0164`\233"
 230      2A4D3DC0 
 230      7D5B9F6A 
 230      016C1DED 
 230      46437D0E 
 231 01c2 3E6CD38C 		.ascii	">l\323\214\034_\007wQ\231\371\367_\335\010\207u\343"
 231      1C5F0777 
 231      5199F9F7 
 231      5FDD0887 
 231      75E3
 232 01d4 96AAEB87 		.ascii	"\226\252\353\207v\335\310q\215\026u\236\260\3758\276"
 232      76DDC871 
 232      8D16759E 
 232      B0FD38BE 
 233 01e4 C12EB5B1 		.ascii	"\301.\265\261\003X}r'*}P\026\212\336\232t5\222I3\370"
 233      03587D72 
 233      272A7D50 
ARM GAS  /tmp/ccV3l6aC.s 			page 18


 233      168ADE9A 
 233      74359249 
 234 01fa DB9EE916 		.ascii	"\333\236\351\026L\317\265L+\233\027y\307\266s^\322\002"
 234      4CCFB54C 
 234      2B9B1779 
 234      C7B6735E 
 234      D202
 235 020c 967762F6 		.ascii	"\226wb\366\350]'>1\222+\212\013\007\334\035\333-x\346"
 235      E85D273E 
 235      31922B8A 
 235      0B07DC1D 
 235      DB2D78E6 
 236 0220 B574AA2F 		.ascii	"\265t\252/5I8\313v\305\360\304\345|2\013\275\215\236"
 236      354938CB 
 236      76C5F0C4 
 236      E57C320B 
 236      BD8D9E
 237 0233 62B260F6 		.ascii	"b\262`\366\2452\003\031sl\334\312\025o\013SyZ\371\353"
 237      A5320319 
 237      736CDCCA 
 237      156F0B53 
 237      795AF9EB 
 238 0247 C5718B9C 		.ascii	"\305q\213\234;S\231\2641:\342\011\307\035\3535\316]"
 238      3B5399B4 
 238      313AE209 
 238      C71DEB35 
 238      CE5D
 239 0259 02E6824E 		.ascii	"\002\346\202N\"l\367\036hN\326\331\003Z\310\372N"
 239      226CF71E 
 239      684ED6D9 
 239      035AC8FA 
 239      4E
 240              		.text
 241              		.section	.gnu.lto_.cgraph.951f746ee2a16c03,"",%progbits
 242 0000 789C45C7 		.ascii	"x\234E\3071\022@P\020\004\321\231\331uS\367\230T\250"
 242      31124050 
 242      1004D199 
 242      D97553F7 
 242      9854A8
 243 0013 4AEE3842 		.ascii	"J\3568B'\221\360\021\023(\333I\327\023\210\000\320\343"
 243      2791F011 
 243      1328DB49 
 243      D7138800 
 243      D0E3
 244 0025 4B3B0D8C 		.ascii	"K;\015\214+\354y\240\016\232\245F\253t\322Q\272\350"
 244      2BEC79A0 
 244      0E9AA546 
 244      AB74D251 
 244      BAE8
 245 0037 2CDD74F7 		.ascii	",\335t\367+\205i\331\224\201\366\016\017\373K#H"
 245      2B8569D9 
 245      9481F60E 
 245      0FFB4B23 
 245      48
 246              		.text
 247              		.section	.gnu.lto_.vars.951f746ee2a16c03,"",%progbits
 248 0000 789C6362 		.ascii	"x\234cb`d`f`\000\222P\000\000\000r\000\010"
ARM GAS  /tmp/ccV3l6aC.s 			page 19


 248      60646066 
 248      60009250 
 248      00000072 
 248      0008
 249              		.text
 250              		.section	.gnu.lto_.refs.951f746ee2a16c03,"",%progbits
 251 0000 789C6362 		.ascii	"x\234cb`d`f```b\200\001\000\000\204\000\011"
 251      60646066 
 251      60606062 
 251      80010000 
 251      840009
 252              		.text
 253              		.section	.gnu.lto_.statics.951f746ee2a16c03,"",%progbits
 254 0000 789C6362 		.ascii	"x\234cb`d`b\300\016@\342\214\020&\000\000\375\000\011"
 254      60646062 
 254      C00E40E2 
 254      8C102600 
 254      00FD0009 
 255              		.text
 256              		.section	.gnu.lto_.decls.951f746ee2a16c03,"",%progbits
 257 0000 789C9D58 		.ascii	"x\234\235Xml\024E\030\236\231k{\275\336\365\003\022"
 257      6D6C1445 
 257      189E996B 
 257      7BBDDEF5 
 257      0312
 258 0012 4931C456 		.ascii	"I1\304V\005\023I\350! \360Cj\210\211\226\304(?4\321"
 258      051349E8 
 258      2120F043 
 258      6A888996 
 258      C4283F34 
 259 0027 1F9BF37A 		.ascii	"\037\233\363z\267pg\332\273\363z5\340\257M\015\330@"
 259      B77067DA 
 259      BBF37A35 
 259      E0AF4D0D 
 259      D840
 260 0039 D4536328 		.ascii	"\324Sc(\211\332#@\344\243`\200\230\226\0374U\010\266"
 260      89DA2340 
 260      E4A36080 
 260      98961F34 
 260      5508B6
 261 004c A622C654 		.ascii	"\246\"\306T1%i\023\211\226\210\212\370Q\202\225\363"
 261      31256913 
 261      8996888A 
 261      F8518295 
 261      F3
 262 005d 9DDDD9B9 		.ascii	"\235\335\331\271\331\335\233m\357&}og\367\346}\336\367"
 262      D9DD9B6D 
 262      EF267D6F 
 262      67F7E67D 
 262      DEF7
 263 006f 79E69DD9 		.ascii	"y\346\235\331\271\022\204\021m)\202P\036Z\335b\204\036"
 263      B9128411 
 263      6D298250 
 263      1E5ADD62 
 263      841E
 264 0081 86BE179E 		.ascii	"\206\276\027\236mB\205V\005\226\003\033\003\233\000"
 264      6D428556 
ARM GAS  /tmp/ccV3l6aC.s 			page 20


 264      0596031B 
 264      039B00
 265 0090 9B049B02 		.ascii	"\233\004\233\002\233A\316F\307Q\377\203`u`\001\2603"
 265      9B41CE46 
 265      C751FF83 
 265      60756001 
 265      B033
 266 00a2 604360C7 		.ascii	"`C`\307\301\016\201y\300\216\201\235\006\033\004\303"
 266      C10E8179 
 266      C08E819D 
 266      061B04C3 
 267 00b2 CC8F5E7F 		.ascii	"\314\217^\177\265\341\2151\214J\001\3578\303oe\330\263"
 267      B5E18D31 
 267      8C4A01EF 
 267      38C36F65 
 267      D8B3
 268 00c4 6077C0E6 		.ascii	"`w\300\346\030\376\200\020\343\023\026\307\303\260\356"
 268      18FE8010 
 268      E31316C7 
 268      C3B0EE
 269 00d3 B2BC692C 		.ascii	"\262\274i,\017\266\306\232\020\360\315X\347X\354V\026"
 269      0FB6C69A 
 269      10F0CD58 
 269      E758EC56 
 269      16
 270 00e4 D3C41F62 		.ascii	"\323\304\037b\261\317\202U\010\261\006Y<\314\360\350"
 270      B1CF8255 
 270      08B10659 
 270      3CCCF0E8 
 271 00f4 B5DA1687 		.ascii	"\265\332\026\207\352W\3170\3158\225,\226\311\255\030"
 271      EA57CF30 
 271      CD38952C 
 271      96C9AD18 
 272 0104 A785C49C 		.ascii	"\247\205\304\234D\316F\347\312k\343e\352gb\023\001\017"
 272      44CE46E7 
 272      CA6BE365 
 272      EA676213 
 272      010F
 273 0116 331F7AAD 		.ascii	"3\037z\255\265\345N\265\253\221`\025\313\331\216[\254"
 273      B5E54EB5 
 273      AB916015 
 273      CBD98E5B 
 273      AC
 274 0127 669AD047 		.ascii	"f\232\320GZn:\373\272\326v;\237\367.A\357k\320r\273"
 274      5A6E3AFB 
 274      BAD6763B 
 274      9FF72E41 
 274      EF6BD072 
 275 013c 350D6714 		.ascii	"5\015g\024\274\351\036\264\024)\270\316\207P\263\336"
 275      BCE91EB4 
 275      1429B8CE 
 275      8750B3DE 
 276 014c 0BF80CF6 		.ascii	"\013\370\014\366\010\372\007\360\022\275\347\321\343"
 276      08FA07F0 
 276      12BDE7D1 
 276      E3
 277 0159 203FDAA3 		.ascii	" ?\332\243i=\324\265m\024\212\371\035\212\323<\012i"
ARM GAS  /tmp/ccV3l6aC.s 			page 21


 277      693DD4B5 
 277      6D148AF9 
 277      1D8AD33C 
 277      0A69
 278 016b 9A082F71 		.ascii	"\232\010/q\004\232\367\012tH\323\2620\006+\370\020^"
 278      049AF70A 
 278      7448D3B2 
 278      30062BF8 
 278      105E
 279 017d 0C1804A3 		.ascii	"\014\030\004\243\225\350\250\2467F\234]\032\320\360"
 279      95E8A8A6 
 279      37469C5D 
 279      1AD0F0
 280 018c F553CB8C 		.ascii	"\365S\313\214\376\374\3104\267#\200\250\340\217\361"
 280      FEFCC834 
 280      B72380A8 
 280      E08FF1
 281 019b 4A238E66 		.ascii	"J#\216f\304\241O\021{~\241o[\0215<\367\243\034\260\240"
 281      C4A14F11 
 281      7B7EA16F 
 281      5B11353C 
 281      F7A31CB0 
 282 01b0 72541523 		.ascii	"rT\025#\224\253\022\343Z5!\3501\014\267\003EC\017\210"
 282      94AB12E3 
 282      5A3521E8 
 282      310CB703 
 282      45430F88 
 283 01c4 A1F75515 		.ascii	"\241\367U\025\011\215\205\320\012>\216\375\000\330f"
 283      098D85D0 
 283      0A3E8EFD 
 283      00D866
 284 01d3 028E7F5F 		.ascii	"\002\216\177_W<\250\3317\2329\306\332\344SH\243\260"
 284      573CA8D9 
 284      379A39C6 
 284      DAE45348 
 284      A3B0
 285 01e5 46D056CC 		.ascii	"F\320V\314\204\033o,#\226\220\275\017\365\026\204\223"
 285      841B6F2C 
 285      239690BD 
 285      0FF51684 
 285      93
 286 01f6 8517E7FF 		.ascii	"\205\027\347\377\014\366A\374\0270\323\347\356\233\223"
 286      0CF641FC 
 286      1730D3E7 
 286      EE9B93
 287 0205 978288A5 		.ascii	"\227\202\210\245Xi\241\243\337\033\243\014`\343k\263"
 287      5869A1A3 
 287      DF1BA30C 
 287      60E36BB3 
 288 0215 4737D27A 		.ascii	"G7\322z\312\245\037\233d\206\217\236\032\367\224\302"
 288      CAA51F9B 
 288      64868F9E 
 288      1AF794C2 
 289 0225 A7D9C1C7 		.ascii	"\247\331\301\307R\010\266\025\322\352w\221\367\254u"
 289      5208B615 
 289      D2EA7791 
 289      F7AC75
ARM GAS  /tmp/ccV3l6aC.s 			page 22


 290 0234 85184481 		.ascii	"\205\030D\201\357s\036\327\231\021\245\031\322\353\340"
 290      EF731ED7 
 290      9911A519 
 290      D2EBE0
 291 0243 2436B5F9 		.ascii	"$6\265\371m\337\017_\021\303\331\222\226\021L\236\312"
 291      6DDF0F5F 
 291      11C3D992 
 291      96114C9E 
 291      CA
 292 0254 39C03175 		.ascii	"9\3001u\2636\307w\004M\025\324\033\233W\275j\227\312"
 292      B336C777 
 292      044D15D4 
 292      1B9B57BD 
 292      6A97CA
 293 0267 B38429AC 		.ascii	"\263\204)\254I\005\037\305+\220G\301\307\240\350\025"
 293      49051FC5 
 293      2B9047C1 
 293      C7A0E815 
 294 0277 7C5AFF1C 		.ascii	"|Z\377\034\204\317y\013\366`\241`=\026U\005\221\207"
 294      84CF790B 
 294      F660A160 
 294      3D165505 
 294      9187
 295 0289 F43182CA 		.ascii	"\3641\202\312\004\375\302\365\273\325?x\221\255\276"
 295      04FDC2F5 
 295      BBD53F78 
 295      91ADBE
 296 0298 E5E8A0A6 		.ascii	"\345\350\240\246\275Kg\330\300%\350CB\207\345p\023\232"
 296      BD4B67D8 
 296      C025E843 
 296      4287E570 
 296      139A
 297 02aa F149D6B8 		.ascii	"\361I\326\270\350d\224m\216;\365\325J\022g)\212\276"
 297      E864946D 
 297      8E3BF5D5 
 297      4A126729 
 297      8ABE
 298 02bc C6BC1EE6 		.ascii	"\306\274\036\346\276\243\217H}u>\214\372C\3500\255\276"
 298      BEA38F48 
 298      7D753E8C 
 298      FA43E830 
 298      ADBE
 299 02ce 919E467D 		.ascii	"\221\236F}sF\314;f\021\3723LD\345\313\337\341\277\264"
 299      7346CC3B 
 299      6611FA33 
 299      4C44E5CB 
 299      DFE1BFB4 
 300 02e2 D72FCDA1 		.ascii	"\327/\315\241\240{\253\037\331j\333&\373Ib\312>\276"
 300      A07BAB1F 
 300      D96ADB26 
 300      FB4962CA 
 300      3EBE
 301 02f4 ACB8E60A 		.ascii	"\254\270\346\012>\017\311*x\014H\\Y\210\346\255T\266"
 301      3E0FC92A 
 301      780C485C 
 301      5988E6AD 
 301      54B6
ARM GAS  /tmp/ccV3l6aC.s 			page 23


 302 0306 611D97FA 		.ascii	"a\035\227\372\334\366Ke\243\3319gk\204\273\366\325\273"
 302      DCF64B65 
 302      A3D93967 
 302      6B84BBF6 
 302      D5BB
 303 0318 CF965CF1 		.ascii	"\317\226\\\3611\207\342\227\234\212O\337d\212\277\321"
 303      3187E297 
 303      9C8A4FDF 
 303      648ABFD1 
 304 0328 50CA96F1 		.ascii	"P\312\226\361]1\311\261E\325\317\271\252\027\372\357"
 304      5D31C9B1 
 304      45D5CFB9 
 304      AA17FAEF 
 305 0338 73977502 		.ascii	"s\227u\0022\035\222\310j!\330\223=\337\323\306f\324"
 305      321D92C8 
 305      6A21D893 
 305      3DDFD3C6 
 305      66D4
 306 034a 70DB21CB 		.ascii	"p\333!\313Q\037q\305\255\304\014\026\004}\315\023\275"
 306      511F71C5 
 306      ADC40C16 
 306      047DCD13 
 306      BD
 307 035b B1D23DCF 		.ascii	"\261\322=\317I\010x\244\364<'\347\315\363j)\023\343"
 307      490878A4 
 307      F43C27E7 
 307      CDF36A29 
 307      13E3
 308 036d BA16A68B 		.ascii	"\272\026\246\213M\014\261\256\005\3134Mr\366WO\334\353"
 308      4D0CB1AE 
 308      05CB344D 
 308      72F6574F 
 308      DCEB
 309 037f 4E7F8A96 		.ascii	"N\177\212\226\243\204>vT\377\317:0\365\031r\257~y\005"
 309      A3843E76 
 309      54FFCF3A 
 309      30F51972 
 309      AF7E7905 
 310 0393 4F392AF8 		.ascii	"O9*\370GW\241\014\372\004\335(,\350\215\356\224f B\357"
 310      4757A10C 
 310      FA04DD28 
 310      2CE88DEE 
 310      94662042 
 311 03a8 022929F8 		.ascii	"\002))\370'\356s\244\\J3\016J\327\255\224\036@\007\264"
 311      27EE73A4 
 311      5C4A330E 
 311      4AD7AD94 
 311      1E4007B4 
 312 03bc CB97B35A 		.ascii	"\313\227\263ZOc\317t>\337\264\010e\365\271\247\257\331"
 312      4F63CF74 
 312      3EDFB408 
 312      65F5B9A7 
 312      AFD9
 313 03ce 57D88965 		.ascii	"W\330\211e\372\360Hc\237pb\251\346)\320\203h\3418\307"
 313      FAF04863 
 313      9F7062A9 
 313      E629D083 
ARM GAS  /tmp/ccV3l6aC.s 			page 24


 313      68E138C7 
 314 03e2 876B8D8D 		.ascii	"\207k\215\215\262\321\012\276\011\3578\005\377\201\215"
 314      B2D10ABE 
 314      09EF3805 
 314      FF818D
 315 03f1 B7E2D242 		.ascii	"\267\342\322B\237w\363\230\026\312,\241\343mG}\306a"
 315      9F77F398 
 315      16CA2CA1 
 315      E36D477D 
 315      C661
 316 0403 3E6F3376 		.ascii	">o3v/\346\301\027\351\016\026z\206\203t\254\202\377"
 316      2FE6C117 
 316      E90E167A 
 316      868374AC 
 316      82FF
 317 0415 C4464F27 		.ascii	"\304FO'\246\361#E\300\347\262 \376\022R\013\370\304"
 317      A6F12345 
 317      C0E7B220 
 317      FE12520B 
 317      F8C4
 318 0427 5E838582 		.ascii	"^\203\205\2029\016\230\316\361\327\335\215\375u\322"
 318      390E98CE 
 318      F1D7DD8D 
 318      FD75D2
 319 0436 7408DAC5 		.ascii	"t\010\332\305~\034*\270\006\263\244J9N\316\352;\375"
 319      7E1C2AB8 
 319      06B3A44A 
 319      394ECEEA 
 319      3BFD
 320 0448 7B1EFECE 		.ascii	"{\036\376\316\377\364\233\213\374<\351\265\235'\275"
 320      FFF49B8B 
 320      FC3CE9B5 
 320      9D27BD
 321 0457 D6F3A497 		.ascii	"\326\363\244\2273\361\026\316\223\246\230#N1\033x\026"
 321      33F116CE 
 321      93A69823 
 321      4E311B78 
 321      16
 322 0468 8401DE29 		.ascii	"\204\001\336)C\313\177\245Z\232e\3412\237\033\371`/"
 322      43CB7FA5 
 322      5A9A65E1 
 322      329F1BF9 
 322      602F
 323 047a 839B2B23 		.ascii	"\203\233+#\205\377\244)\230?V\350\2360\302\367\204l"
 323      85FFA429 
 323      983F56E8 
 323      9E30C2F7 
 323      846C
 324 048c 85B929FC 		.ascii	"\205\271)\374\303\205\036\336\377\3555\266\346d\373"
 324      C3851EDE 
 324      FFED35B6 
 324      E664FB
 325 049b C25DFAA2 		.ascii	"\302]\372\242\227\254q\331\276@}n\313\317V\356\373\002"
 325      97AC71D9 
 325      BE407D6E 
 325      CBCF56EE 
 325      FB02
ARM GAS  /tmp/ccV3l6aC.s 			page 25


 326 04ad 751EADB4 		.ascii	"u\036\255\264Ly~\341\033\203\202\177\027\224\326\260"
 326      4C797EE1 
 326      1B83827F 
 326      1794D6B0 
 327 04bd ADC65D66 		.ascii	"\255\306]f\3051V\301\273H\351\323\262\233\310\246\245"
 327      C53156C1 
 327      BB48E9D3 
 327      B29BC8A6 
 327      A5
 328 04ce DEC2C91C 		.ascii	"\336\302\311\034\007\335\277\371\211\352V\377\276/<"
 328      07DDBFF9 
 328      89EA56FF 
 328      BE2F3C
 329 04dd D28408D2 		.ascii	"\322\204\010\322*\304u\266p\035b\034\251v>\031\354C"
 329      2AC475B6 
 329      701D621C 
 329      A9763E19 
 329      EC43
 330 04ef 15BCA70C 		.ascii	"\025\274\247\014\025\366JU\010XT\330kW\201\236d\256"
 330      15F64A55 
 330      085854D8 
 330      6B57819E 
 330      64AE
 331 0501 35C99221 		.ascii	"5\311\222!\350\2552\025\260\377\307\301E\001\347?'\336"
 331      E8AD3215 
 331      B0FFC7C1 
 331      4501E73F 
 331      27DE
 332 0513 2E4381AC 		.ascii	".C\201\254T\001\376\203\3102\216+@_\365s\253d\311\020"
 332      5401FE83 
 332      C8328E2B 
 332      405FF573 
 332      AB64C910 
 333 0527 F4814501 		.ascii	"\364\201E\001T\333\251v&\323;C\251d\262#\224\251z\352"
 333      54DBA976 
 333      26D33B43 
 333      A964B223 
 333      94A97AEA 
 334 053b 99E79B9F 		.ascii	"\231\347\233\237@\313[Z\202\306_\262+\230\316\004\343"
 334      40CB5B5A 
 334      82C65FB2 
 334      2B98CE04 
 334      E3
 335 054c 89484777 		.ascii	"\211HGwT\015Fb0\232\216\354j\211!\277\356\022S\303Q"
 335      540D4662 
 335      309A8EEC 
 335      6A8921BF 
 335      EE1253C3 
 336 0561 35ED4DC5 		.ascii	"5\355M\305B\011uG\306\333\231\322\257U]\361\327\324"
 336      42097547 
 336      C6DB99D2 
 336      AF555DF1 
 336      D7D4
 337 0573 50E6F160 		.ascii	"P\346\361`wW:\330\221\214\204;\202\355\361\004\005\354"
 337      77573AD8 
 337      918C843B 
 337      82EDF104 
ARM GAS  /tmp/ccV3l6aC.s 			page 26


 337      05EC
 338 0585 88B707B7 		.ascii	"\210\267\007\267G\"\301p\272sU\"\231PW\251\341\366x"
 338      4722C170 
 338      BA735522 
 338      995057A9 
 338      E1F678
 339 0598 705DCB86 		.ascii	"p]\313\206\2265<LW&\032U\267A\210:\200K\266\277\254"
 339      96353C4C 
 339      57261A55 
 339      B741883A 
 339      804BB6BF 
 340 05ad 4632210A 		.ascii	"F2!\012\030\200\350\333\325\314\266\356D$\224y\320-"
 340      1880E8DB 
 340      D5CCB6EE 
 340      44249479 
 340      D02D
 341 05bf C74832AD 		.ascii	"\307H2\255\322\024\301?\225N\276\032\207\024\033\"\261"
 341      D214C13F 
 341      954EBE1A 
 341      87141B22 
 341      B1
 342 05d0 AD90F0B3 		.ascii	"\255\220\360\263:\334\226D<\323l\003\350JGD\202\021"
 342      3ADC9644 
 342      3CD36C03 
 342      E84A4744 
 342      8211
 343 05e2 443A5315 		.ascii	"D:S\0254l\265\011Qo@<\235\014G7\247\323\341\2358\205"
 343      346CB509 
 343      516F403C 
 343      9D0C4737 
 343      A7D3E19D 
 344 05f8 1301E3D9 		.ascii	"\023\001\343\331\346\016`\271\305/\334\260\376\223i"
 344      E60E60B9 
 344      C52FDCB0 
 344      FE9369
 345 0607 55DD5201 		.ascii	"U\335R\001$R5\205\007\025\221X8]\035\012\351LB\265f"
 345      24523585 
 345      07159158 
 345      385D1D0A 
 345      E94C42B5 
 346 061c A765FDDA 		.ascii	"\247e\375\332u\353\253\273\343\211\314\3325\241\314"
 346      75EBABBB 
 346      E389CCDA 
 346      35A1CC
 347 062b 8BA589C7 		.ascii	"\213\245\211\307\331\300\237\365{AV\200\006Y|,\315h"
 347      D9C09FF5 
 347      7B415680 
 347      06597C2C 
 347      CD68
 348 063d 540CFDE8 		.ascii	"T\014\375\350\032\361n\375j\361n\303\352\377\0019\264"
 348      1AF16EFD 
 348      6AF16EC3 
 348      EAFF0139 
 348      B4
 349 064e 00E7     		.ascii	"\000\347"
 350              		.text
 351              		.section	.gnu.lto_.symtab.951f746ee2a16c03,"",%progbits
ARM GAS  /tmp/ccV3l6aC.s 			page 27


 352 0000 6368506F 		.ascii	"chPoolObjectInit\000\000\000\000\000\000\000\000\000"
 352      6F6C4F62 
 352      6A656374 
 352      496E6974 
 352      00000000 
 353 0019 000000A0 		.ascii	"\000\000\000\240\000\000\000chPoolLoadArray\000\000"
 353      00000063 
 353      68506F6F 
 353      6C4C6F61 
 353      64417272 
 354 0031 00000000 		.ascii	"\000\000\000\000\000\000\000\000\000\000\311\000\000"
 354      00000000 
 354      0000C900 
 354      00
 355 003e 00636850 		.ascii	"\000chPoolAllocI\000\000\000\000\000\000\000\000\000"
 355      6F6F6C41 
 355      6C6C6F63 
 355      49000000 
 355      00000000 
 356 0054 000000D5 		.ascii	"\000\000\000\325\000\000\000chPoolAlloc\000\000\000"
 356      00000063 
 356      68506F6F 
 356      6C416C6C 
 356      6F630000 
 357 0069 00000000 		.ascii	"\000\000\000\000\000\000\000\000\000\333\000\000\000"
 357      00000000 
 357      00DB0000 
 357      00
 358 0076 6368506F 		.ascii	"chPoolFreeI\000\000\000\000\000\000\000\000\000\000"
 358      6F6C4672 
 358      65654900 
 358      00000000 
 358      00000000 
 359 008b 0000DF00 		.ascii	"\000\000\337\000\000\000chPoolFree\000\000\000\000\000"
 359      00006368 
 359      506F6F6C 
 359      46726565 
 359      00000000 
 360 00a0 00000000 		.ascii	"\000\000\000\000\000\000\000\350\000\000\000"
 360      000000E8 
 360      000000
 361              		.text
 362              		.section	.gnu.lto_.opts,"",%progbits
 363 0000 272D6D63 		.ascii	"'-mcpu=cortex-m4''-mno-thumb-interwork''-mthumb''-g"
 363      70753D63 
 363      6F727465 
 363      782D6D34 
 363      27272D6D 
 364 0033 67646227 		.ascii	"gdb''-O2''-fomit-frame-pointer''-falign-functions=1"
 364      272D4F32 
 364      27272D66 
 364      6F6D6974 
 364      2D667261 
 365 0066 3627272D 		.ascii	"6''-ffunction-sections''-fdata-sections''-fno-commo"
 365      6666756E 
 365      6374696F 
 365      6E2D7365 
ARM GAS  /tmp/ccV3l6aC.s 			page 28


 365      6374696F 
 366 0099 6E27272D 		.ascii	"n''-flto'\000"
 366      666C746F 
 366      2700
 367              		.text
 368              		.cfi_sections	.debug_frame
 369              		.section	.text.chPoolObjectInit,"ax",%progbits
 370              		.align	2
 371              		.p2align 4,,15
 372              		.global	chPoolObjectInit
 373              		.thumb
 374              		.thumb_func
 375              		.type	chPoolObjectInit, %function
 376              	chPoolObjectInit:
 377              	.LFB241:
 378              		.file 1 "../../../os/rt/src/chmempools.c"
 379              		.loc 1 75 0
 380              		.cfi_startproc
 381              		@ args = 0, pretend = 0, frame = 0
 382              		@ frame_needed = 0, uses_anonymous_args = 0
 383              		@ link register save eliminated.
 384              	.LVL0:
 385              		.loc 1 79 0
 386 0000 0023     		movs	r3, #0
 387 0002 0360     		str	r3, [r0, #0]
 388              		.loc 1 80 0
 389 0004 4160     		str	r1, [r0, #4]
 390              		.loc 1 81 0
 391 0006 8260     		str	r2, [r0, #8]
 392 0008 7047     		bx	lr
 393              		.cfi_endproc
 394              	.LFE241:
 395              		.size	chPoolObjectInit, .-chPoolObjectInit
 396 000a 00BFAFF3 		.section	.text.chPoolLoadArray,"ax",%progbits
 396      0080
 397              		.align	2
 398              		.p2align 4,,15
 399              		.global	chPoolLoadArray
 400              		.thumb
 401              		.thumb_func
 402              		.type	chPoolLoadArray, %function
 403              	chPoolLoadArray:
 404              	.LFB242:
 405              		.loc 1 97 0
 406              		.cfi_startproc
 407              		@ args = 0, pretend = 0, frame = 0
 408              		@ frame_needed = 0, uses_anonymous_args = 0
 409              		@ link register save eliminated.
 410              	.LVL1:
 411 0000 30B4     		push	{r4, r5}
 412              	.LCFI0:
 413              		.cfi_def_cfa_offset 8
 414              		.cfi_offset 4, -8
 415              		.cfi_offset 5, -4
 416              		.loc 1 101 0
 417 0002 62B1     		cbz	r2, .L2
 418              	.LBB65:
ARM GAS  /tmp/ccV3l6aC.s 			page 29


 419              	.LBB66:
 420              	.LBB67:
 421              	.LBB68:
 422              	.LBB69:
 423              	.LBB70:
 424              		.file 2 "../../../os/ext/CMSIS/include/core_cmFunc.h"
 425              		.loc 2 548 0
 426 0004 2025     		movs	r5, #32
 427              	.LBE70:
 428              	.LBE69:
 429              	.LBE68:
 430              	.LBE67:
 431              	.LBB74:
 432              	.LBB75:
 433              	.LBB76:
 434              	.LBB77:
 435              	.LBB78:
 436 0006 0024     		movs	r4, #0
 437              	.LVL2:
 438              	.L6:
 439              	.LBE78:
 440              	.LBE77:
 441              	.LBE76:
 442              	.LBE75:
 443              	.LBE74:
 444              	.LBB83:
 445              	.LBB73:
 446              	.LBB72:
 447              	.LBB71:
 448              	@ 548 "../../../os/ext/CMSIS/include/core_cmFunc.h" 1
 449 0008 85F31188 		MSR basepri, r5
 450              	@ 0 "" 2
 451              	.LVL3:
 452              		.thumb
 453              	.LBE71:
 454              	.LBE72:
 455              	.LBE73:
 456              	.LBE83:
 457              	.LBB84:
 458              	.LBB85:
 459              		.loc 1 177 0
 460 000c 0368     		ldr	r3, [r0, #0]
 461 000e 0B60     		str	r3, [r1, #0]
 462              		.loc 1 178 0
 463 0010 0160     		str	r1, [r0, #0]
 464              	.LVL4:
 465              	.LBE85:
 466              	.LBE84:
 467              	.LBB86:
 468              	.LBB82:
 469              	.LBB81:
 470              	.LBB80:
 471              	.LBB79:
 472              		.loc 2 548 0
 473              	@ 548 "../../../os/ext/CMSIS/include/core_cmFunc.h" 1
 474 0012 84F31188 		MSR basepri, r4
 475              	@ 0 "" 2
ARM GAS  /tmp/ccV3l6aC.s 			page 30


 476              		.thumb
 477              	.LBE79:
 478              	.LBE80:
 479              	.LBE81:
 480              	.LBE82:
 481              	.LBE86:
 482              	.LBE66:
 483              	.LBE65:
 484              		.loc 1 104 0
 485 0016 4368     		ldr	r3, [r0, #4]
 486              		.loc 1 101 0
 487 0018 013A     		subs	r2, r2, #1
 488              		.loc 1 104 0
 489 001a 1944     		add	r1, r1, r3
 490              	.LVL5:
 491              		.loc 1 101 0
 492 001c F4D1     		bne	.L6
 493              	.LVL6:
 494              	.L2:
 495              		.loc 1 108 0
 496 001e 30BC     		pop	{r4, r5}
 497 0020 7047     		bx	lr
 498              		.cfi_endproc
 499              	.LFE242:
 500              		.size	chPoolLoadArray, .-chPoolLoadArray
 501 0022 00BFAFF3 		.section	.text.chPoolAllocI,"ax",%progbits
 501      0080AFF3 
 501      0080AFF3 
 501      0080
 502              		.align	2
 503              		.p2align 4,,15
 504              		.global	chPoolAllocI
 505              		.thumb
 506              		.thumb_func
 507              		.type	chPoolAllocI, %function
 508              	chPoolAllocI:
 509              	.LFB243:
 510              		.loc 1 120 0
 511              		.cfi_startproc
 512              		@ args = 0, pretend = 0, frame = 0
 513              		@ frame_needed = 0, uses_anonymous_args = 0
 514              	.LVL7:
 515 0000 08B5     		push	{r3, lr}
 516              	.LCFI1:
 517              		.cfi_def_cfa_offset 8
 518              		.cfi_offset 3, -8
 519              		.cfi_offset 14, -4
 520              		.loc 1 120 0
 521 0002 0346     		mov	r3, r0
 522              		.loc 1 126 0
 523 0004 0068     		ldr	r0, [r0, #0]
 524              	.LVL8:
 525              		.loc 1 128 0
 526 0006 10B1     		cbz	r0, .L10
 527              		.loc 1 129 0
 528 0008 0268     		ldr	r2, [r0, #0]
 529 000a 1A60     		str	r2, [r3, #0]
ARM GAS  /tmp/ccV3l6aC.s 			page 31


 530 000c 08BD     		pop	{r3, pc}
 531              	.L10:
 532              		.loc 1 131 0
 533 000e 9A68     		ldr	r2, [r3, #8]
 534 0010 0AB1     		cbz	r2, .L11
 535              		.loc 1 132 0
 536 0012 5868     		ldr	r0, [r3, #4]
 537              	.LVL9:
 538 0014 9047     		blx	r2
 539              	.LVL10:
 540              	.L11:
 541              		.loc 1 137 0
 542 0016 08BD     		pop	{r3, pc}
 543              		.cfi_endproc
 544              	.LFE243:
 545              		.size	chPoolAllocI, .-chPoolAllocI
 546 0018 AFF30080 		.section	.text.chPoolAlloc,"ax",%progbits
 546      AFF30080 
 547              		.align	2
 548              		.p2align 4,,15
 549              		.global	chPoolAlloc
 550              		.thumb
 551              		.thumb_func
 552              		.type	chPoolAlloc, %function
 553              	chPoolAlloc:
 554              	.LFB244:
 555              		.loc 1 149 0
 556              		.cfi_startproc
 557              		@ args = 0, pretend = 0, frame = 0
 558              		@ frame_needed = 0, uses_anonymous_args = 0
 559              	.LVL11:
 560 0000 08B5     		push	{r3, lr}
 561              	.LCFI2:
 562              		.cfi_def_cfa_offset 8
 563              		.cfi_offset 3, -8
 564              		.cfi_offset 14, -4
 565              	.LBB87:
 566              	.LBB88:
 567              	.LBB89:
 568              	.LBB90:
 569              		.loc 2 548 0
 570 0002 2022     		movs	r2, #32
 571              	.LBE90:
 572              	.LBE89:
 573              	.LBE88:
 574              	.LBE87:
 575              		.loc 1 149 0
 576 0004 0346     		mov	r3, r0
 577              	.LBB94:
 578              	.LBB93:
 579              	.LBB92:
 580              	.LBB91:
 581              		.loc 2 548 0
 582              	@ 548 "../../../os/ext/CMSIS/include/core_cmFunc.h" 1
 583 0006 82F31188 		MSR basepri, r2
 584              	@ 0 "" 2
 585              	.LVL12:
ARM GAS  /tmp/ccV3l6aC.s 			page 32


 586              		.thumb
 587              	.LBE91:
 588              	.LBE92:
 589              	.LBE93:
 590              	.LBE94:
 591              	.LBB95:
 592              	.LBB96:
 593              		.loc 1 126 0
 594 000a 0068     		ldr	r0, [r0, #0]
 595              	.LVL13:
 596              		.loc 1 128 0
 597 000c 28B1     		cbz	r0, .L16
 598              		.loc 1 129 0
 599 000e 0268     		ldr	r2, [r0, #0]
 600 0010 1A60     		str	r2, [r3, #0]
 601              	.LVL14:
 602              	.L17:
 603              	.LBE96:
 604              	.LBE95:
 605              	.LBB98:
 606              	.LBB99:
 607              	.LBB100:
 608              	.LBB101:
 609              	.LBB102:
 610              		.loc 2 548 0
 611 0012 0023     		movs	r3, #0
 612              	@ 548 "../../../os/ext/CMSIS/include/core_cmFunc.h" 1
 613 0014 83F31188 		MSR basepri, r3
 614              	@ 0 "" 2
 615              		.thumb
 616              	.LBE102:
 617              	.LBE101:
 618              	.LBE100:
 619              	.LBE99:
 620              	.LBE98:
 621              		.loc 1 157 0
 622 0018 08BD     		pop	{r3, pc}
 623              	.LVL15:
 624              	.L16:
 625              	.LBB103:
 626              	.LBB97:
 627              		.loc 1 131 0
 628 001a 9A68     		ldr	r2, [r3, #8]
 629 001c 002A     		cmp	r2, #0
 630 001e F8D0     		beq	.L17
 631              		.loc 1 132 0
 632 0020 5868     		ldr	r0, [r3, #4]
 633              	.LVL16:
 634 0022 9047     		blx	r2
 635              	.LVL17:
 636 0024 F5E7     		b	.L17
 637              	.LBE97:
 638              	.LBE103:
 639              		.cfi_endproc
 640              	.LFE244:
 641              		.size	chPoolAlloc, .-chPoolAlloc
 642 0026 00BFAFF3 		.section	.text.chPoolFreeI,"ax",%progbits
ARM GAS  /tmp/ccV3l6aC.s 			page 33


 642      0080AFF3 
 642      0080
 643              		.align	2
 644              		.p2align 4,,15
 645              		.global	chPoolFreeI
 646              		.thumb
 647              		.thumb_func
 648              		.type	chPoolFreeI, %function
 649              	chPoolFreeI:
 650              	.LFB245:
 651              		.loc 1 171 0
 652              		.cfi_startproc
 653              		@ args = 0, pretend = 0, frame = 0
 654              		@ frame_needed = 0, uses_anonymous_args = 0
 655              		@ link register save eliminated.
 656              	.LVL18:
 657              		.loc 1 177 0
 658 0000 0368     		ldr	r3, [r0, #0]
 659 0002 0B60     		str	r3, [r1, #0]
 660              		.loc 1 178 0
 661 0004 0160     		str	r1, [r0, #0]
 662 0006 7047     		bx	lr
 663              		.cfi_endproc
 664              	.LFE245:
 665              		.size	chPoolFreeI, .-chPoolFreeI
 666 0008 AFF30080 		.section	.text.chPoolFree,"ax",%progbits
 666      AFF30080 
 667              		.align	2
 668              		.p2align 4,,15
 669              		.global	chPoolFree
 670              		.thumb
 671              		.thumb_func
 672              		.type	chPoolFree, %function
 673              	chPoolFree:
 674              	.LFB246:
 675              		.loc 1 193 0
 676              		.cfi_startproc
 677              		@ args = 0, pretend = 0, frame = 0
 678              		@ frame_needed = 0, uses_anonymous_args = 0
 679              		@ link register save eliminated.
 680              	.LVL19:
 681              	.LBB104:
 682              	.LBB105:
 683              	.LBB106:
 684              	.LBB107:
 685              		.loc 2 548 0
 686 0000 2023     		movs	r3, #32
 687              	@ 548 "../../../os/ext/CMSIS/include/core_cmFunc.h" 1
 688 0002 83F31188 		MSR basepri, r3
 689              	@ 0 "" 2
 690              	.LVL20:
 691              		.thumb
 692              	.LBE107:
 693              	.LBE106:
 694              	.LBE105:
 695              	.LBE104:
 696              	.LBB108:
ARM GAS  /tmp/ccV3l6aC.s 			page 34


 697              	.LBB109:
 698              		.loc 1 177 0
 699 0006 0368     		ldr	r3, [r0, #0]
 700 0008 0B60     		str	r3, [r1, #0]
 701              		.loc 1 178 0
 702 000a 0160     		str	r1, [r0, #0]
 703              	.LVL21:
 704              	.LBE109:
 705              	.LBE108:
 706              	.LBB110:
 707              	.LBB111:
 708              	.LBB112:
 709              	.LBB113:
 710              	.LBB114:
 711              		.loc 2 548 0
 712 000c 0023     		movs	r3, #0
 713              	@ 548 "../../../os/ext/CMSIS/include/core_cmFunc.h" 1
 714 000e 83F31188 		MSR basepri, r3
 715              	@ 0 "" 2
 716              		.thumb
 717 0012 7047     		bx	lr
 718              	.LBE114:
 719              	.LBE113:
 720              	.LBE112:
 721              	.LBE111:
 722              	.LBE110:
 723              		.cfi_endproc
 724              	.LFE246:
 725              		.size	chPoolFree, .-chPoolFree
 726 0014 AFF30080 		.text
 726      AFF30080 
 726      AFF30080 
 727              	.Letext0:
 728              		.file 3 "/usr/local/bin/../lib/gcc/arm-none-eabi/4.7.2/include/stddef.h"
 729              		.file 4 "/usr/local/bin/../lib/gcc/arm-none-eabi/4.7.2/../../../../arm-none-eabi/include/stdint.h"
 730              		.file 5 "../../../os/rt/ports/ARMCMx/compilers/GCC/chtypes.h"
 731              		.file 6 "../../../os/rt/include/chsystypes.h"
 732              		.file 7 "../../../os/rt/include/chschd.h"
 733              		.file 8 "../../../os/rt/ports/ARMCMx/chcore.h"
 734              		.file 9 "../../../os/rt/ports/ARMCMx/chcore_v7m.h"
 735              		.file 10 "../../../os/rt/include/chtm.h"
 736              		.file 11 "../../../os/rt/include/chsem.h"
 737              		.file 12 "../../../os/rt/include/chmtx.h"
 738              		.file 13 "../../../os/rt/include/chmemcore.h"
 739              		.file 14 "../../../os/rt/include/chmempools.h"
 740              		.file 15 "../../../os/rt/include/chsys.h"
 741              		.file 16 "../../../os/ext/CMSIS/include/core_cm4.h"