ARM GAS  /tmp/ccxHztRu.s 			page 1


   1              		.syntax unified
   2              		.cpu cortex-m4
   3              		.fpu softvfp
   4              		.eabi_attribute 20, 1
   5              		.eabi_attribute 21, 1
   6              		.eabi_attribute 23, 3
   7              		.eabi_attribute 24, 1
   8              		.eabi_attribute 25, 1
   9              		.eabi_attribute 26, 1
  10              		.eabi_attribute 30, 2
  11              		.eabi_attribute 34, 1
  12              		.eabi_attribute 18, 4
  13              		.thumb
  14              		.file	"chmemcore.c"
  15              		.text
  16              	.Ltext0:
  17              		.section	.gnu.lto_.jmpfuncs.6cbd600d34c59106,"",%progbits
  18 0000 789C6362 		.ascii	"x\234cb`d`g\300\016\270\2404\013\003\003##\023#3\003"
  18      60646067 
  18      C00EB8A0 
  18      340B0303 
  18      23231323 
  19 0016 030002DC 		.ascii	"\003\000\002\334\000!"
  19      0021
  20              		.text
  21              		.section	.gnu.lto_.inline.6cbd600d34c59106,"",%progbits
  22 0000 789C6362 		.ascii	"x\234cb`d\340e\300\016B\2414\013\003\003\007;#\003\023"
  22      6064E065 
  22      C00E42A1 
  22      340B0303 
  22      073B2303 
  23 0015 CB027906 		.ascii	"\313\002y\006\266\005\362L@-|\274\214\214@\212\201Y"
  23      B605F24C 
  23      402D7CBC 
  23      8C8C408A 
  23      8159
  24 0027 E8402723 		.ascii	"\350@'#D\020(\313\302\300\304\300\303\015\225\341[\220"
  24      441028CB 
  24      C2C0C4C0 
  24      C30D95E1 
  24      5B90
  25 0039 8524C1CC 		.ascii	"\205$\301\314\300\306\0124\202\355\203\036D\220\001"
  25      C0C60A34 
  25      82ED831E 
  25      449001
  26 0048 00971709 		.ascii	"\000\227\027\011\323"
  26      D3
  27              		.text
  28              		.section	.gnu.lto_.pureconst.6cbd600d34c59106,"",%progbits
  29 0000 789C6362 		.ascii	"x\234cb`d`f``\340d\200\000\026\006\011F+&\011f\026\000"
  29      60646066 
  29      6060E064 
  29      80001606 
  29      09462B26 
  30 0018 03880088 		.ascii	"\003\210\000\210"
  31              		.text
  32              		.section	.gnu.lto__core_init.6cbd600d34c59106,"",%progbits
ARM GAS  /tmp/ccxHztRu.s 			page 2


  33 0000 789CBD93 		.ascii	"x\234\275\223=O\033A\020\206\337\331\365\235\303\227"
  33      3D4F1B41 
  33      1086DFD9 
  33      F59DC397 
  34 0010 480B0D16 		.ascii	"H\013\015\026?\340\034\323\245\240\207\202\202H\210"
  34      3FE01CD3 
  34      A5A08782 
  34      824888
  35 001f CA3A91CB 		.ascii	"\312:\221\313JP\360\021\233\002\245\361a\370\001\026"
  35      4A50F011 
  35      9B02A5F1 
  35      61F80116 
  36 002f 55701A02 		.ascii	"Up\032\002\010\001Q\224*RhH$(\010\212\250)-D\203\344"
  36      08015194 
  36      2A526848 
  36      2428088A 
  36      A8292D44 
  37 0045 92229190 		.ascii	"\222\"\221\220\216\231\265\3176\262\241\013{wz\367v"
  37      8E99B5CF 
  37      36B2A10B 
  37      7B777AF7 
  37      76
  38 0056 E6DD796E 		.ascii	"\346\335ynoW\201\370jo\003\374\034i\340=+i\220*]\000"
  38      6F5781F8 
  38      6A6F03FC 
  38      1C69E03D 
  38      2B69902A 
  39 006c AB294524 		.ascii	"\253)E$\035\266\024\024\025\246\25439\214\317a\270Q"
  39      1DB61414 
  39      15A6AC33 
  39      398CCF61 
  39      B851
  40 007e 3A298E15 		.ascii	":)\216\025+Q4d\010\012\212\340\023\016\177\177?\325"
  40      2B513464 
  40      080A8AE0 
  40      130E7F7F 
  40      3FD5
  41 0090 03304448 		.ascii	"\0030DHAT!\361\260N\273\027b\304\3773m\304&\2550b)/"
  41      415421F1 
  41      B04EBB17 
  41      62C4FF33 
  41      6DC426AD 
  42 00a8 3B20CED1 		.ascii	"; \316\321S\345\024F\255\263Z>\246\347!\235\260\365"
  42      53E51446 
  42      ADB35A3E 
  42      A6E7219D 
  42      B0F5
  43 00ba CE3A9236 		.ascii	"\316:\2226Qo7\217\351\356\223\373S\375\252D\005\240"
  43      516F378F 
  43      E9EE93FB 
  43      53FDAA44 
  43      05A0
  44 00cc 8790A52D 		.ascii	"\207\220\245-\032f\336,m\263j\326\035\326\004\353.\253"
  44      1A66DE2C 
  44      6DB36AD6 
  44      1DD604EB 
  44      2EAB
ARM GAS  /tmp/ccxHztRu.s 			page 3


  45 00de C3BAC7EA 		.ascii	"\303\272\307\352\262\356\263&Y\017X\2719X\017\303\227"
  45      B2EEB326 
  45      590F58B9 
  45      39580FC3 
  45      97
  46 00ef 4A582AA5 		.ascii	"JX*\245R\270\3651U\207I(L[\230\323\362a\243r\226\276"
  46      52B8F531 
  46      55874928 
  46      4C5B98D3 
  46      F261A372 
  47 0105 324E0B7F 		.ascii	"2N\013\177\233\307X\317\237\301\246\343[\323\341\327"
  47      9BC758CF 
  47      9FC1A6E3 
  47      5BD3E1D7 
  48 0115 279A1495 		.ascii	"'\232\024\225\015\366Fb\334\321\347(V\365u\371\212\262"
  48      0DF64662 
  48      DCD1E728 
  48      56F575F9 
  48      8AB2
  49 0127 F4851C04 		.ascii	"\364\205\034\004D\037\360/|a\310\241\271\330\177\216"
  49      441FF02F 
  49      7C61C8A1 
  49      B9D87F8E 
  50 0137 B502E2B8 		.ascii	"\265\002\342\270\342\024Y\034\336\227\265\320\221n\304"
  50      E214591C 
  50      DE97B5D0 
  50      916EC4
  51 0146 34876BB1 		.ascii	"4\207k\261\277Q\024\365\333x\361F_\3528!\3019vp\374"
  51      BF5114F5 
  51      DB78F146 
  51      5FEA3821 
  51      C1397670 
  52 015b 477DAC8C 		.ascii	"G}\254\214M\222\037P\257\352rU{^d\032\327\036\004\210"
  52      4D921F50 
  52      AFEA7255 
  52      7B5E641A 
  52      D71E0488 
  53 016f CF9AAA5A 		.ascii	"\317\232\252Z\366C<\227\323\002\252\033\240-4.\347t"
  53      F6433C97 
  53      D302AA1B 
  53      A02D342E 
  53      E774
  54 0181 A0396BD0 		.ascii	"\2409k\320$\003)!4\373\217\323P;\015\177\370\005d\037"
  54      24032921 
  54      34FB8FD3 
  54      503B0D7F 
  54      F805641F 
  55 0195 D44C719B 		.ascii	"\324Lq\233\224T^SY\265~\337\23753K\376\333\231\274\361"
  55      94545E53 
  55      59B57EDF 
  55      9F35334B 
  55      FEDB99BC 
  56 01aa 7DEFF590 		.ascii	"}\357\365\220\347\245k\367b>\235[N\347sA:\230\2357\363"
  56      E7A56BF7 
  56      623E9D5B 
  56      4EE77341 
  56      3A989D37 
ARM GAS  /tmp/ccxHztRu.s 			page 4


  57 01bf C162CE78 		.ascii	"\301b\316x\001\272\027\314\3122\277z\231W\261\325,\274"
  57      01BA17CC 
  57      CA32BF7A 
  57      9957B1D5 
  57      2CBC
  58 01d1 636726D3 		.ascii	"cg&\323\305\035\033\031\351{0iok\336=\372\033\355\312"
  58      C51D1B19 
  58      E97B3069 
  58      6F6BDE3D 
  58      FA1BEDCA 
  59              		.text
  60              		.section	.gnu.lto_chCoreAlloc.6cbd600d34c59106,"",%progbits
  61 0000 789C9D54 		.ascii	"x\234\235TMHTQ\024>\347\2767\316\214\277\343\306p\243"
  61      4D485451 
  61      143EE7BE 
  61      37CE8CBF 
  61      E3C670A3 
  62 0014 22060932 		.ascii	"\"\006\0112#X\350&(\004\311\205DJ\313\207\350\363\205"
  62      2358E826 
  62      2804C985 
  62      444ACB87 
  62      E8F385
  63 0027 13CD8CCC 		.ascii	"\023\315\214\314\250\230\033_c\213\010$s\245\201\222"
  63      A8981B5F 
  63      638B0824 
  63      73A58192 
  64 0037 DA8F2352 		.ascii	"\332\217#RI!EYBjQ\342B\244\245\011\032T\314\262\205"
  64      49214559 
  64      426A51E2 
  64      42A4A509 
  64      1A54CCB2 
  65 004c 41349D7B 		.ascii	"A4\235{\337{\343L\243\323\330\374}w\316=\337w~\356\271"
  65      DF7BE34C 
  65      A3D3D8FC 
  65      7D77CE3D 
  65      DF777EEE 
  66 0061 8F01D23B 		.ascii	"\217\001\322;\365UC\337wY\364%D\033 \033^\007\270V\306"
  66      F55543DF 
  66      7759F425 
  66      441B201B 
  66      5E07B856 
  67 0076 98FCD50E 		.ascii	"\230\374\325\016\372\011if\025@\257\226P6\3542\"_\220"
  67      FA096966 
  67      1540AF96 
  67      5036EC32 
  67      225F90
  68 0089 D4009364 		.ascii	"\324\000\223d\034\270(4\235\3450\251\353#\303\203\372"
  68      1CB82834 
  68      9DE530A9 
  68      EB23C383 
  68      FA
  69 009a B9F0762C 		.ascii	"\271\360v,V\252!0`\010\255\010\033[;\271\305\240!B\031"
  69      56AA2130 
  69      6008AD08 
  69      1B5B3BB9 
  69      C5A02142 
  70 00af 70642027 		.ascii	"pd ''\220B\225\030T\010jt\274$\023\346\333\021\213)"
ARM GAS  /tmp/ccxHztRu.s 			page 5


  70      27904295 
  70      1854086A 
  70      74BC2413 
  70      E6DB118B 
  71 00c4 33A814CC 		.ascii	"3\250\024\314_\021\177*\323\213\251\324\260E\265\001"
  71      5F117F2A 
  71      D38BA9D4 
  71      B045B501 
  72 00d4 E76D4632 		.ascii	"\347mF2\2108\234@\313\022\264=\333\021Y\014jD\236pd"
  72      88389C40 
  72      CB12B43D 
  72      DB11590C 
  72      6A449E70 
  73 00e9 DEE94C79 		.ascii	"\336\351Ly\211\305Q_\032\376\207g4e9r9--:>\305\242\023"
  73      89C5515F 
  73      1AFE8767 
  73      34653972 
  73      392D2D3A 
  74 0101 596FD8D2 		.ascii	"Yo\330\322vl\240\002\246\315\323\244\203Tp\232\334\305"
  74      766CA002 
  74      A6CDD3A4 
  74      8354709A 
  74      DCC5
  75 0113 497EC703 		.ascii	"I~\307\0034\310\005\216!*\370\030+\300\001\012>\302"
  75      34C8058E 
  75      212AF818 
  75      2BC0010A 
  75      3EC2
  76 0125 7270124E 		.ascii	"rp\022N\021f\023\316\021\346\020\316\022\346\022\336"
  76      116613CE 
  76      11E610CE 
  76      12E612DE 
  77 0135 25CC239C 		.ascii	"%\314#\234!\314'|HX@\370\200\320Ex\217\260\320\364\243"
  77      21CC277C 
  77      485840F8 
  77      80D04578 
  77      8FB0D0F4 
  78 014a 970DAEEB 		.ascii	"\227\015\256\353\272\013\215\377\255\346\361_\340\310"
  78      BA0B8DFF 
  78      ADE6F15F 
  78      E0C8
  79 0158 67B899D2 		.ascii	"g\270\231\322\340\013i\225F\325p5\031\244\360\204\027"
  79      E00B6995 
  79      46D57035 
  79      19A4F084 
  79      17
  80 0169 7FF88CDA 		.ascii	"\177\370\214\332\031\234\027\035]\030\232\337\252J\333"
  80      199C171D 
  80      5D189ADF 
  80      AA4ADB
  81 0178 1E6EB4D3 		.ascii	"\036n\264\323&\300G\010\343\357[c;uI\301(\275\247\224"
  81      26C04708 
  81      E3EF5B63 
  81      3B7549C1 
  81      28BDA794 
  82 018c 9E82F349 		.ascii	"\236\202\363I!\371m\235\243\376P\216\342\007\240\004"
  82      21F96D9D 
ARM GAS  /tmp/ccxHztRu.s 			page 6


  82      A3FE508E 
  82      E207A004 
  83 019c 16715C1F 		.ascii	"\026q\\\037=\243\241#I6\276\275dn;\205\000\257\012\314"
  83      3DA3A123 
  83      4936BEBD 
  83      646E3B85 
  83      00AF0ACC 
  84 01b0 5EAA941E 		.ascii	"^\252\224\036|\200\301\201\215\321\373yf\330\324+\253"
  84      7C80C181 
  84      8DD1FB79 
  84      66D8D42B 
  84      AB
  85 01c1 E0A4715C 		.ascii	"\340\244q\\\2733\227\322\226\024O|J$\236\334+\025\035"
  85      BB3397D2 
  85      96144F7C 
  85      4A249EDC 
  85      2B151D
  86 01d4 14AE581C 		.ascii	"\024\256X\034\256\035D\330\027\322r\244]\301W\344\247"
  86      AE1D44D8 
  86      17D272A4 
  86      5DC157E4 
  86      A7
  87 01e5 A2931C8C 		.ascii	"\242\223\034\214\335\275X,V`d\012\306\256\225\255\223"
  87      DDBD582C 
  87      5660640A 
  87      C6AE95AD 
  87      93
  88 01f6 D3C28D9B 		.ascii	"\323\302\215\233\221\327h\321\262\357\300\030\362Q\356"
  88      91D768D1 
  88      B2EFC018 
  88      F251EE
  89 0205 879FBA43 		.ascii	"\207\237\272C\303l\364\"\257Jd\230-\032\006\"Z\370\233"
  89      C36CF422 
  89      AF4A6498 
  89      2D1A0622 
  89      5AF89B
  90 0218 04162947 		.ascii	"\004\026)G\345[\\*n\312=@\007\376\245\223G<Q\311\215"
  90      E55B5C2A 
  90      6ECA3D40 
  90      07FEA593 
  90      473C51C9 
  91 022d 7D5BBE90 		.ascii	"}[\276\220\317\023\256Q\251\3172\027\320\016\300\012"
  91      CF13AE51 
  91      A9CF3217 
  91      D00EC00A 
  92 023d 2C7FC1CE 		.ascii	",\177\301\316\204\222\013\366\033\324L\245\003=V\371"
  92      84920BF6 
  92      1BD44CA5 
  92      033D56F9 
  93 024d DCFD8814 		.ascii	"\334\375\210\024Y\225/\212\312\21507%z\202Yl\027Y\343"
  93      59952F8A 
  93      CA8D3037 
  93      257A8259 
  93      6C1759E3 
  94 0261 2D31C367 		.ascii	"-1\303gR\0041\255\200r|\320\327&\212\214\003\213_\022"
  94      520431AD 
  94      80727CD0 
ARM GAS  /tmp/ccxHztRu.s 			page 7


  94      D7268A8C 
  94      038B5F12 
  95 0275 481DFF43 		.ascii	"H\035\377Cn\301!WA\301g\306\330,\014\335\376\234\311"
  95      6EC12157 
  95      41C167C6 
  95      D82C0CDD 
  95      FE9CC9
  96 0288 5D807477 		.ascii	"]\200tw\341\275\030\251\225\303\356\202\202\317i\261"
  96      E1BD18A9 
  96      95C3EE82 
  96      82CF69B1 
  97 0298 AF630EBF 		.ascii	"\257c\016\277\202/\261D\030\326\0017\242\222\221\272"
  97      822FB144 
  97      18D60137 
  97      A29291BA 
  98 02a8 8A85DCF4 		.ascii	"\212\205\334\364\011\0129\201/\331n\244\210\332)\255"
  98      090A3981 
  98      2FD96EA4 
  98      88DA29AD 
  99 02b8 CDE6F327 		.ascii	"\315\346\363'\001\212\276p\005\354*u\273=\306'\020\362"
  99      018ABE70 
  99      05EC2A75 
  99      BB3DC627 
  99      10F2
 100 02ca 04BB3DA1 		.ascii	"\004\273=\241\240\352Q;}\232O\015\0045\267\012r\310"
 100      A0EA513B 
 100      7D9A4F0D 
 100      0435B70A 
 100      72C8
 101 02dc DBAF39FD 		.ascii	"\333\2579\375Z_7\331\334u\361U\255C\363w\360\305)kq"
 101      5A5F37D9 
 101      DC75F155 
 101      AD43F377 
 101      F0C5296B 
 102 02f1 D2D6DB76 		.ascii	"\322\326\333v\245G\253\374K\260+\020\354\016y\31667"
 102      A547ABFC 
 102      4BB02B10 
 102      EC0E79CE 
 102      3637
 103 0303 D537F591 		.ascii	"\3257\365\2212\227m\355\255\365\271;\241*\321\223d="
 103      32976DED 
 103      ADF5B93B 
 103      A12AD193 
 103      643D
 104 0315 F54D2D8D 		.ascii	"\365M-\215-\036\257_\275\322\323\241y\204\247\352k\350"
 104      2D1EAF5F 
 104      BDD2D3A1 
 104      7984A7EA 
 104      6BE8
 105 0327 F1ABE4EC 		.ascii	"\361\253\344\354jji.ko\013i]AoU\331\361j`A\260S\330"
 105      6A6A692E 
 105      6B6F0B69 
 105      5D416F55 
 105      D9F16A60 
 106 033f 40F02AFC 		.ascii	"@\360*\374\001vT\221\320"
 106      01765491 
 106      D0
ARM GAS  /tmp/ccxHztRu.s 			page 8


 107              		.text
 108              		.section	.gnu.lto_chCoreAllocI.6cbd600d34c59106,"",%progbits
 109 0000 789C9D54 		.ascii	"x\234\235T=hSQ\024\376\316\275\367\345\275\024\214\202"
 109      3D685351 
 109      14FECEBD 
 109      F7E5BD14 
 109      8C82
 110 0012 50E8D412 		.ascii	"P\350\324\022:\010B\"X\177&\347:\032\024\\B\207\347"
 110      3A084222 
 110      587F26E7 
 110      3A1A145C 
 110      4287E7
 111 0025 9346682A 		.ascii	"\223Fh*I\207\320%\317\324\2418\205N*\016\226R\315\213"
 111      4987D025 
 111      CFD4A138 
 111      854E2A0E 
 111      9652CD8B 
 112 0039 8838BAA8 		.ascii	"\2108\272\250`\355\020\244Sq\352\320!\203\20289(\010"
 112      60ED10A4 
 112      5371EAD0 
 112      21838238 
 112      392808
 113 004c CF73EFCD 		.ascii	"\317s\357\315\213\321\024\033\373\222\360\235{\316\375"
 113      8BD1141B 
 113      FB92F09D 
 113      7BCEFD
 114 005b CEFF8B00 		.ascii	"\316\377\213\000\361g\3709\313\277G\012\270\316H\016"
 114      F167F839 
 114      CBBF470A 
 114      B8CE480E 
 115 006b 48347780 		.ascii	"H4w\200;SB\250O.\302S\262\265\015\204g$)\253WDZ`Wu!"
 115      3B5342A8 
 115      4F2EC253 
 115      B2B50D84 
 115      672429AB 
 116 0086 15D5AF19 		.ascii	"\025\325\257\031\237\351,\326\303p\255\371\2561\333"
 116      9FE92CD6 
 116      C370ADF9 
 116      AE31DB
 117 0095 D88FE3C9 		.ascii	"\330\217\343\311@k\347\010\235\373\233\307&\020\020"
 117      406BE708 
 117      9DFB9BC7 
 117      261010
 118 00a4 610A1A05 		.ascii	"a\012\032\005\324\237\321\207xR K\232\272\033\275\246"
 118      D49FD187 
 118      7852204B 
 118      9ABA1BBD 
 118      A6
 119 00b5 C3A9CD01 		.ascii	"\303\251\315\001\252\0228m\250\370\357\2203\243\362"
 119      AA12386D 
 119      A8F8EF90 
 119      33A3F2
 120 00c4 FE8A77E9 		.ascii	"\376\212w\351H<\034!I\333\317\332H\244\265\201\312f"
 120      483C1C21 
 120      49DBCFDA 
 120      48A4B581 
 120      CA66
ARM GAS  /tmp/ccxHztRu.s 			page 9


 121 00d6 4D863FA3 		.ascii	"M\206?\243\3620\263DC\324\2250\241:\002\005C\355\266"
 121      F230B344 
 121      43D49530 
 121      A13A0205 
 121      43EDB6
 122 00e9 6EFE33E8 		.ascii	"n\3763\350^\353\211\330m\247\336\210\267\373q}\032\033"
 122      5EEB89D8 
 122      6DA7DE88 
 122      B7FB717D 
 122      1A1B
 123 00fb 3D3701A5 		.ascii	"=7\001\245\004\256\032\017{\255\257\007M\222o\340$\241"
 123      04AE1A0F 
 123      7BADAF07 
 123      4D926FE0 
 123      24A1
 124 010d 48CF290B 		.ascii	"H\317)\013AEzA\323\220|~\314g\005{v\030\327\371\234"
 124      41457A41 
 124      D3907C7E 
 124      CC67057B 
 124      7618D7F9 
 125 0122 62DC6074 		.ascii	"b\334`t\0317\031=\306\247\214i\306\210q\214\261\315"
 125      1937193D 
 125      C6A78C69 
 125      C688718C 
 125      B1CD
 126 0134 98617CC6 		.ascii	"\230a|\306\310\217\203\273ax\202\254\377\271^\255W4"
 126      C88F83BB 
 126      617882AC 
 126      FFB95EAD 
 126      5734
 127 0146 EA052E70 		.ascii	"\352\005.p\032Z\220\035\254\324\267\242[Ez\311\333\357"
 127      1A5A901D 
 127      ACD4B7A2 
 127      5B457AC9 
 127      DBEF
 128 0158 93F4494C 		.ascii	"\223\364IL\230\334\\\276\311\306WrU&F\305vk\374\036"
 128      98DC5CBE 
 128      C9C65772 
 128      552646C5 
 128      766BFC1E 
 129 016c C7F171BE 		.ascii	"\307\361q\276\260\015\001k\265\371\372z\272\0354.\353"
 129      B00D016B 
 129      B5F9FA7A 
 129      BA1D342E 
 129      EB
 130 017d F54D68CE 		.ascii	"\365Mh\316C< =\215e\374\010\275\200\\*\021\351D\264"
 130      433C203D 
 130      8D65FC08 
 130      BD805C2A 
 130      11E944B4 
 131 0191 2FD7BC4C 		.ascii	"/\327\274L0\301\032\237%\022R\212y\326U_\345\036\340"
 131      30C11A9F 
 131      2512528A 
 131      79D6555F 
 131      E51EE0
 132 01a4 0787F9F1 		.ascii	"\007\207\371\361|m\342BV\177\353\322\306\275g\256~\221"
 132      7C6DE242 
ARM GAS  /tmp/ccxHztRu.s 			page 10


 132      567FEBD2 
 132      C6BD67AE 
 132      7E91
 133 01b6 B5443DC6 		.ascii	"\265D=\306\026\340=\266\2724?\240\033\030x\201$\300"
 133      16E03DB6 
 133      BA343FA0 
 133      1B187881 
 133      24C0
 134 01c8 FF0892EB 		.ascii	"\377\010\222\353\376\026\215'\225\353\016'a\356I^\266"
 134      FE168D27 
 134      95EB0E27 
 134      61EE495E 
 134      B6
 135 01d9 849D616D 		.ascii	"\204\235am\277%\275\360\243\024\301\314$\240\262c\332"
 135      BF25BDF0 
 135      A314C1CC 
 135      24A0B263 
 135      DA
 136 01ea 01F5FB69 		.ascii	"\001\365\373i\312\374\010\263T\334#\210n4\316\201\344"
 136      CAFC08B3 
 136      54DC2388 
 136      6E34CE81 
 136      E4
 137 01fb 8776464F 		.ascii	"\207vFO\230\014\203\307\213\311\\.o\277\213\325|e)_"
 137      980C83C7 
 137      8BC95C2E 
 137      6FBF8BD5 
 137      7C65295F 
 138 020f ADF8797F 		.ascii	"\255\370y\177~!X\360\027+A\316\207\027\224o\360)7\223"
 138      7E2158F0 
 138      172B41CE 
 138      8717946F 
 138      F0293793 
 139 0223 08E7D2E5 		.ascii	"\010\347\322\345\240\266\244\245\363}\351B_\272H\267"
 139      A0B6A4A5 
 139      F37DE942 
 139      5FBA48B7 
 140 0233 55B5B41C 		.ascii	"U\265\264\034\374\0023 \0127"
 140      FC023320 
 140      0A37
 141              		.text
 142              		.section	.gnu.lto_chCoreGetStatusX.6cbd600d34c59106,"",%progbits
 143 0000 789C9D92 		.ascii	"x\234\235\222=O\302P\024\206\337s\373a\335\\\231 \254"
 143      3D4FC250 
 143      1486DF73 
 143      FB61DD5C 
 143      9920AC
 144 0013 26AD5F83 		.ascii	"&\255_\203\223\2532j\342H\034\352Mt\000\222\302`\\\250"
 144      93AB326A 
 144      E2481CEA 
 144      4D740092 
 144      C2605CA8 
 145 0027 E8E0484C 		.ascii	"\350\340HL\034d\222\030#\212\277AMtb\340\0278\2608h"
 145      1C649218 
 145      238ABF41 
 145      4D7462E0 
 145      1738B038 
ARM GAS  /tmp/ccxHztRu.s 			page 11


 146 003c 1C5D5CC4 		.ascii	"\034]\\\304s.\001\361#A=m\363\234\236\334\347\234\336"
 146      732E01F1 
 146      23413D6D 
 146      F39C9EDC 
 146      E79CDE
 147 004f B60AC4C7 		.ascii	"\266\012\304\307\367H\360u\250\200E&Y Um\003;)E$\011"
 147      F748F075 
 147      A8804526 
 147      5920556D 
 147      033B2945 
 148 0065 2B6545E5 		.ascii	"+eE\345Uc\272i\324\343\270V\275\255,U:\335nRKu\215\320"
 148      5563BA69 
 148      D4E3B856 
 148      BDAD2C55 
 148      3ADD6E52 
 149 007d BA7AA004 		.ascii	"\272z\240\0044\021R\020*\330\237g\030\357`\310\263\024"
 149      34115210 
 149      2AD89F67 
 149      18EF60C8 
 149      B314
 150 008f D2246A63 		.ascii	"\322$jcl\264X\035\022m\205I#\342\317\003\347~\353}\231"
 150      6CB4581D 
 150      126D8549 
 150      23E2CF03 
 150      E77EEB7D 
 151 00a4 B7F02F0F 		.ascii	"\267\360/\017\243\245\373\346\033\335]\272\327\352\246"
 151      A3A5FBE6 
 151      1BDD5DBA 
 151      D7EAA6
 152 00b3 D32D031E 		.ascii	"\323-\003\036!KuJC1O\230\026\363\224i3\317\230\016\363"
 152      214B754A 
 152      43314F98 
 152      16F39469 
 152      33CF980E 
 153 00c8 9CE9328F 		.ascii	"\234\3512\217\231\034\016\366\342x\302\214\222X\026"
 153      991C0EF6 
 153      E278C28C 
 153      925816
 154 00d7 CA675BE1 		.ascii	"\312g[\341i\222X-T2/\315'\312\322\0059\010\211j8\"y"
 154      6992582D 
 154      54322FCD 
 154      27CAD205 
 154      3908896A 
 155 00ee 1DDB788D 		.ascii	"\035\333x\215=M\016m\366~\013yB\307|o\011\326\036e|"
 155      3D4D0E6D 
 155      F67E0B79 
 155      42C77C6F 
 155      09D61E65 
 156 0103 4F52EC99 		.ascii	"OR\354\231ZfP\262~\350C\243\372\330\354Imw\377\243\346"
 156      5A6650B2 
 156      7EE843A3 
 156      FAD8EC49 
 156      6D77FFA3 
 157 0118 98F6B659 		.ascii	"\230\366\266Y\372l\315\367\313n(]\332\240\301B\267\277"
 157      FA6CCDF7 
 157      CB6E285D 
 157      DAA0C142 
ARM GAS  /tmp/ccxHztRu.s 			page 12


 157      B7BF
 158 012a 45323BE3 		.ascii	"E2;\343\375!\351\373A\357,\024\203\250\024\024\2430"
 158      FD21E9FB 
 158      41EF2C14 
 158      83A81414 
 158      A330
 159 013c 0837723A 		.ascii	"\0107r:\027\026\"\355\207\360t~\235\357\374\251~2=\236"
 159      171622ED 
 159      87F0747E 
 159      9DEFFCA9 
 159      7E323D9E 
 160 0150 D75B25C9 		.ascii	"\327[%\311f\006\331\354;\201\230\226_"
 160      6606D9EC 
 160      3B819896 
 160      5F
 161              		.text
 162              		.section	.gnu.lto_.cgraph.6cbd600d34c59106,"",%progbits
 163 0000 789C45C7 		.ascii	"x\234E\307\273\025\000\020\024D\301\273OW\232\333T\250"
 163      BB150010 
 163      1444C1BB 
 163      4F579ADB 
 163      54A8
 164 0012 022569C6 		.ascii	"\002%i\306'\2268L6\201H@\346\212!C\355\330\255(\246"
 164      2796384C 
 164      36814840 
 164      E68A2143 
 164      EDD8AD28 
 165 0027 ACBF25C7 		.ascii	"\254\277%\307\337\226\323\033\007U0\024-"
 165      DF96D31B 
 165      07553014 
 165      2D
 166              		.text
 167              		.section	.gnu.lto_.vars.6cbd600d34c59106,"",%progbits
 168 0000 789C6362 		.ascii	"x\234cb`d`f``\220d\200\000\226\037\214\014\014\365\014"
 168      60646066 
 168      60609064 
 168      8000961F 
 168      8C0C0CF5 
 169 0015 1F191959 		.ascii	"\037\031\031Y\352\231\17722\001\331\237\030\231\201"
 169      EA997F32 
 169      3201D99F 
 169      189981
 170 0024 6C0054E6 		.ascii	"l\000T\346\006\014"
 170      060C
 171              		.text
 172              		.section	.gnu.lto_.refs.6cbd600d34c59106,"",%progbits
 173 0000 789C25C5 		.ascii	"x\234%\305\201\015\000 \020\203@Zt\021\367\037\322\350"
 173      810D0020 
 173      1083405A 
 173      7411F71F 
 173      D2E8
 174 0012 13922B41 		.ascii	"\023\222+A\3400-6fWM\376v\254O\270\014\002\000k"
 174      E0302D36 
 174      66574DFE 
 174      76AC4FB8 
 174      0C02006B 
 175              		.text
ARM GAS  /tmp/ccxHztRu.s 			page 13


 176              		.section	.gnu.lto_.statics.6cbd600d34c59106,"",%progbits
 177 0000 789C6362 		.ascii	"x\234cb`d`b\300\016@\342\214\020&\000\000\375\000\011"
 177      60646062 
 177      C00E40E2 
 177      8C102600 
 177      00FD0009 
 178              		.text
 179              		.section	.gnu.lto_.decls.6cbd600d34c59106,"",%progbits
 180 0000 789C9D54 		.ascii	"x\234\235TMh\023Q\020\236\267\246\331\306\244Z\017\226"
 180      4D681351 
 180      109EB7A6 
 180      D9C6A45A 
 180      0F96
 181 0012 7AAA888A 		.ascii	"z\252\210\212\010f\241\026\364\240\025\351\301z\361"
 181      0866A116 
 181      F4A015E9 
 181      C17AF1
 182 0021 A2821EC2 		.ascii	"\242\202\036\302\222lW\023HSM\266 \352\341Q\301\252"
 182      926C5713 
 182      48534DB6 
 182      20EAE151 
 182      C1AA
 183 0033 780882F8 		.ascii	"x\010\202\370s\220\264Z\251\025\211\264\326V\374\253"
 183      7390B45A 
 183      A91589B4 
 183      D656FCAB 
 184 0043 558B16AD 		.ascii	"U\213\026\255(^D\017\271z\021\017\012\036\2248o\337"
 184      285E440F 
 184      B97A110F 
 184      0A1E9438 
 184      6FDF
 185 0055 DB5FBBD1 		.ascii	"\333_\273\321:d\332\227\2673\337\367\315\344K$ \300"
 185      3A64DA97 
 185      B733DFF7 
 185      CDE44B24 
 185      20C0
 186 0067 E238FEAB 		.ascii	"\3428\376\253b\\\221\001:\360\\\207w[\301\211\020f\011"
 186      625C9101 
 186      3AF05C87 
 186      775BC189 
 186      106609
 187 007a 7308B38C 		.ascii	"s\010\263\2149&\356&0\037bNaN\2037X=\302\231XK0c\230"
 187      3926EE26 
 187      301F624E 
 187      614E8337 
 187      583DC299 
 188 0093 8F302731 		.ascii	"\2170'1\237a>\027uD\324\206\004\326\264\300\235\362"
 188      9F613E17 
 188      7544D486 
 188      04D6B4C0 
 188      9DF2
 189 00a5 E131EE28 		.ascii	"\3411\356(f\273\013oX`\326\211\376\031\314\227\230s"
 189      66BB0B6F 
 189      5860D689 
 189      FE19CC97 
 189      9873
 190 00b7 3E7CD62B 		.ascii	">|\326+\271\360\335\301\346\251\237GgHp\015\373\260"
ARM GAS  /tmp/ccxHztRu.s 			page 14


 190      B9F0DDC1 
 190      E6A99F47 
 190      6748700D 
 190      FBB0
 191 00c9 CA35B0D8 		.ascii	"\3125\260\330^\302\242\307\217\345\306\030\023\030\323"
 191      5EC2A2C7 
 191      8FE5C618 
 191      1318D3
 192 00d8 02C71D2D 		.ascii	"\002\307\035-p\205\226*\305\023\264\363G\265*7\301y"
 192      7085962A 
 192      C513B4F3 
 192      47B52A37 
 192      C179
 193 00ea 8A513A49 		.ascii	"\212Q:I)1\022d\353rX\001\011\262$\002\260\322<\305\""
 193      29311264 
 193      EB725801 
 193      09B22402 
 193      B0D23CC5 
 194 00ff 1C1DF03C 		.ascii	"\034\035\360<@\232\304i\317\"\216%\201D`=\334\240f\020"
 194      409AC469 
 194      CF228E25 
 194      8144603D 
 194      DCA06610 
 195 0113 47004603 		.ascii	"G\000F\003\214~\036k\263X\327\302\020+\231\352k6I\030"
 195      8C7E1E6B 
 195      B358D7C2 
 195      102B99EA 
 195      6B364918 
 196 0127 4889B478 		.ascii	"H\211\264x\204%\310 \221\376Yi{\264\206\322\353B\351"
 196      8425C820 
 196      91FE5969 
 196      7BB486D2 
 196      EB42E9
 197 013a 22730B10 		.ascii	"\"s\013\020\201S\224\366\261\326\316\027\270\266\371"
 197      815394F6 
 197      B1D6CE17 
 197      B8B6F9
 198 0149 FBD6C035 		.ascii	"\373\326\3005J\213l\214\004\031&\021\354l#\370\370*"
 198      4A8B6C8C 
 198      04192611 
 198      EC6C23F8 
 198      F82A
 199 015b 590F5F3E 		.ascii	"Y\017_>~\377)Y\"\353\"^\321\370\236Wq`\376\330:1\323"
 199      7EFF2959 
 199      22EB225E 
 199      D1F89E57 
 199      7160FED8 
 200 0172 2FC59538 		.ascii	"/\305\2258+C\334c\026\356\350\207\373[\370\345j\270"
 200      2B43DC63 
 200      16EEE887 
 200      FB5BF8E5 
 200      6AB8
 201 0184 4AE93936 		.ascii	"J\35196\252E\336OX\325\020\356hX\016\030\224\227\362"
 201      AA45DE4F 
 201      58D510EE 
 201      68580E18 
 201      9497F2
ARM GAS  /tmp/ccxHztRu.s 			page 15


 202 0197 D5F6159F 		.ascii	"\325\366\025\237\366u\232[\001\321v$h=f\305\315?W]\371"
 202      F6759A5B 
 202      01D17624 
 202      683D66C5 
 202      CD3F575D 
 203 01ac 2A56DDDF 		.ascii	"*V\335\337\3107(\301YbI\375\264n~\241\011r\013\221\022"
 203      C83728C1 
 203      596249FD 
 203      B46E7EA1 
 203      09720B91 
 204 01c1 A48C8C93 		.ascii	"\244\214\214\223\013\027Z\376\253\320\3335<\321O\251"
 204      0B175AFE 
 204      ABD0DB35 
 204      3CD14FA9 
 205 01d1 E4B30523 		.ascii	"\344\263\005#\012\366\305\235y\034|\311\231\361f\312"
 205      0AF6C59D 
 205      791C7CC9 
 205      99F166CA 
 206 01e1 635721D5 		.ascii	"cW!\325\324\216%c\314\2575\265\216{\265\256\202\001"
 206      D48E2563 
 206      CCAF35B5 
 206      8E7BB5AE 
 206      8201
 207 01f3 5A291669 		.ascii	"Z)\026i\251\231V\252\325\226eP4\2252\213\035\026\226"
 207      A99956AA 
 207      D5966550 
 207      3495328B 
 207      1D1696
 208 0206 AC0CD1E6 		.ascii	"\254\014\321\346\213.K\326\333\260\304g\311{\246+Fl"
 208      8B2E4BD6 
 208      DBB0C467 
 208      C97BA62B 
 208      466C
 209 0218 B12317C6 		.ascii	"\261#\027\306\177\331\236$>O\022\257'\211\355Iv\252"
 209      7FD99E24 
 209      3E4F12AF 
 209      2789ED49 
 209      76AA
 210 022a 1277E924 		.ascii	"\022w\351$Y\346\356\305\317\\b\317GO\217\277\227\234"
 210      59E6EEC5 
 210      CF5C62CF 
 210      474F8FBF 
 210      979C
 211 023c AA07CE64 		.ascii	"\252\007\316dl*\372\216}\002\346TQ8\343|\267\270\314"
 211      6C2AFA8E 
 211      7D02E654 
 211      5138E37C 
 211      B7B8CC
 212 024f E0FD3F22 		.ascii	"\340\375?\"Q\207\350\262d\315\362mbqp\317c/\265k\241"
 212      5187E8B2 
 212      64CDF26D 
 212      627170CF 
 212      632FB56B 
 213 0264 5CBC0483 		.ascii	"\\\274\004\203\246\342W\227G\210#\370I\240`\256B\202"
 213      A6E25797 
 213      478823F8 
 213      49A060AE 
ARM GAS  /tmp/ccxHztRu.s 			page 16


 213      4282
 214 0276 B24DFFB3 		.ascii	"\262M\377\263\026\375S\007\3107*#\017\356{\346\214\352"
 214      16FD5307 
 214      C8372A23 
 214      0FEE7BE6 
 214      8CEA
 215 0288 EB63F4C1 		.ascii	"\353c\364\301}\317\235\276\005\377l\315\230\036\271"
 215      7DCF9DBE 
 215      05FF6CCD 
 215      981EB9
 216 0297 2B391E79 		.ascii	"+9\036y;\243X\033\221}\036\221\275\036\221m\217\310"
 216      3BA3581B 
 216      917D1E91 
 216      BD1E916D 
 216      8FC8
 217 02a9 CEEF9665 		.ascii	"\316\357\226e\331)\237e\233k:\226r5\263\246\232\307"
 217      D9299F65 
 217      9B6B3A96 
 217      7235B3A6 
 217      9AC7
 218 02bb E68743E0 		.ascii	"\346\207C\340\317\340\025\026\353\254c\322Y\313\245"
 218      CFE01516 
 218      EBAC63D2 
 218      59CBA5
 219 02ca 1647A3CD 		.ascii	"\026G\243\315!\211\316\227\302\265\246&j\2576V\313|"
 219      2189CE97 
 219      C2B5A626 
 219      6AAF3656 
 219      CB7C
 220 02dc AF5D6CB1 		.ascii	"\257]l\261\210\373d\251\363|C\271\016\013n\263],\013"
 220      88FB64A9 
 220      F37C43B9 
 220      0E0B6EB3 
 220      5D2C0B
 221 02ef B8B9FF90 		.ascii	"\270\271\377\220\360&PB\330\332\312bU\353\311\353j&"
 221      F0265042 
 221      D8DACA62 
 221      55EBC9EB 
 221      6A26
 222 0301 9731C23B 		.ascii	"\2271\302;v\355]\331\001-\361\270\302_=\005%o(\205\274"
 222      76ED5DD9 
 222      012DF1B8 
 222      C25F3D05 
 222      256F2885 
 223 0316 A668E96E 		.ascii	"\246h\351n\275\233\025\3065\010\0272Gu\325\330\246\364"
 223      BD9B15C6 
 223      35081732 
 223      4775D5D8 
 223      A6F4
 224 0328 16F24AB6 		.ascii	"\026\362J\266GKf\225T&\307\352\263\231\224rP\323\224"
 224      474B6695 
 224      5426C7EA 
 224      B3999472 
 224      50D394
 225 033b 64BE7B43 		.ascii	"d\276{C\256'\247o\320\223\251\214\322\026\337\024oU"
 225      AE27A76F 
 225      D093A98C 
ARM GAS  /tmp/ccxHztRu.s 			page 17


 225      D216DF14 
 225      6F55
 226 034d 32392DDB 		.ascii	"29-\333\333\245+\005\243\253K?\020OCTKw \340\366,B\204"
 226      DBA52B05 
 226      A3AB4B3F 
 226      104F4354 
 226      4B7720E0 
 227 0365 1864CC75 		.ascii	"\030d\314u\261\263\221\277\331\241\033\273\215\244\321"
 227      B1B391BF 
 227      D9A11BBB 
 227      8DA4D1
 228 0374 5BD827F7 		.ascii	"[\330'\367fr\306f\325\330\2770Z{\026|y\237\273\004!"
 228      6672C666 
 228      D5D8BF30 
 228      5A7B167C 
 228      799FBB04 
 229 0389 320A6A50 		.ascii	"2\012jP\325\264\236<\244\246\222\005]U\345\234~\304"
 229      D5B49E3C 
 229      A4A69205 
 229      5D55E59C 
 229      7EC4
 230 039b C0A163E2 		.ascii	"\300\241c\342V\317u\251j\030\377\342]=\323\262\261U"
 230      56CF75A9 
 230      6A18FFE2 
 230      5D3DD3B2 
 230      B155
 231 03ad 35425A3A 		.ascii	"5BZ:\231\377\015\256G\3446"
 231      99FF0DAE 
 231      47E436
 232              		.text
 233              		.section	.gnu.lto_.symtab.6cbd600d34c59106,"",%progbits
 234 0000 5F636F72 		.ascii	"_core_init\000\000\000\000\000\000\000\000\000\000\000"
 234      655F696E 
 234      69740000 
 234      00000000 
 234      00000000 
 235 0015 00A00000 		.ascii	"\000\240\000\000\000chCoreAlloc\000\000\000\000\000"
 235      00636843 
 235      6F726541 
 235      6C6C6F63 
 235      00000000 
 236 002a 00000000 		.ascii	"\000\000\000\000\000\000\000\245\000\000\000chCoreA"
 236      000000A5 
 236      00000063 
 236      68436F72 
 236      6541
 237 003c 6C6C6F63 		.ascii	"llocI\000\000\000\000\000\000\000\000\000\000\000\000"
 237      49000000 
 237      00000000 
 237      00000000 
 237      00
 238 004d AF000000 		.ascii	"\257\000\000\000chCoreGetStatusX\000\000\000\000\000"
 238      6368436F 
 238      72654765 
 238      74537461 
 238      74757358 
 239 0066 00000000 		.ascii	"\000\000\000\000\000\000\000\263\000\000\000__heap_"
ARM GAS  /tmp/ccxHztRu.s 			page 18


 239      000000B3 
 239      0000005F 
 239      5F686561 
 239      705F
 240 0078 62617365 		.ascii	"base__\000\000\002\000\000\000\000\000\000\000\000\000"
 240      5F5F0000 
 240      02000000 
 240      00000000 
 240      0000
 241 008a B7000000 		.ascii	"\267\000\000\000__heap_end__\000\000\002\000\000\000"
 241      5F5F6865 
 241      61705F65 
 241      6E645F5F 
 241      00000200 
 242 00a0 00000000 		.ascii	"\000\000\000\000\000\000\300\000\000\000"
 242      0000C000 
 242      0000
 243              		.text
 244              		.section	.gnu.lto_.opts,"",%progbits
 245 0000 272D6D63 		.ascii	"'-mcpu=cortex-m4''-mno-thumb-interwork''-mthumb''-g"
 245      70753D63 
 245      6F727465 
 245      782D6D34 
 245      27272D6D 
 246 0033 67646227 		.ascii	"gdb''-O2''-fomit-frame-pointer''-falign-functions=1"
 246      272D4F32 
 246      27272D66 
 246      6F6D6974 
 246      2D667261 
 247 0066 3627272D 		.ascii	"6''-ffunction-sections''-fdata-sections''-fno-commo"
 247      6666756E 
 247      6374696F 
 247      6E2D7365 
 247      6374696F 
 248 0099 6E27272D 		.ascii	"n''-flto'\000"
 248      666C746F 
 248      2700
 249              		.text
 250              		.cfi_sections	.debug_frame
 251              		.section	.text._core_init,"ax",%progbits
 252              		.align	2
 253              		.p2align 4,,15
 254              		.global	_core_init
 255              		.thumb
 256              		.thumb_func
 257              		.type	_core_init, %function
 258              	_core_init:
 259              	.LFB241:
 260              		.file 1 "../../../os/rt/src/chmemcore.c"
 261              		.loc 1 78 0
 262              		.cfi_startproc
 263              		@ args = 0, pretend = 0, frame = 0
 264              		@ frame_needed = 0, uses_anonymous_args = 0
 265              		@ link register save eliminated.
 266              		.loc 1 84 0
 267 0000 40F20002 		movw	r2, #:lower16:.LANCHOR0
 268              		.loc 1 85 0
ARM GAS  /tmp/ccxHztRu.s 			page 19


 269 0004 40F20003 		movw	r3, #:lower16:.LANCHOR1
 270 0008 40F20001 		movw	r1, #:lower16:__heap_end__
 271              		.loc 1 84 0
 272 000c 0648     		ldr	r0, .L2
 273 000e C0F20002 		movt	r2, #:upper16:.LANCHOR0
 274              		.loc 1 85 0
 275 0012 C0F20003 		movt	r3, #:upper16:.LANCHOR1
 276 0016 C0F20001 		movt	r1, #:upper16:__heap_end__
 277              		.loc 1 84 0
 278 001a 20F00700 		bic	r0, r0, #7
 279              		.loc 1 85 0
 280 001e 21F00701 		bic	r1, r1, #7
 281              		.loc 1 84 0
 282 0022 1060     		str	r0, [r2, #0]
 283              		.loc 1 85 0
 284 0024 1960     		str	r1, [r3, #0]
 285 0026 7047     		bx	lr
 286              	.L3:
 287              		.align	2
 288              	.L2:
 289 0028 07000000 		.word	__heap_base__+7
 290              		.cfi_endproc
 291              	.LFE241:
 292              		.size	_core_init, .-_core_init
 293 002c AFF30080 		.section	.text.chCoreAlloc,"ax",%progbits
 294              		.align	2
 295              		.p2align 4,,15
 296              		.global	chCoreAlloc
 297              		.thumb
 298              		.thumb_func
 299              		.type	chCoreAlloc, %function
 300              	chCoreAlloc:
 301              	.LFB242:
 302              		.loc 1 109 0
 303              		.cfi_startproc
 304              		@ args = 0, pretend = 0, frame = 0
 305              		@ frame_needed = 0, uses_anonymous_args = 0
 306              		@ link register save eliminated.
 307              	.LVL0:
 308              	.LBB26:
 309              	.LBB27:
 310              	.LBB28:
 311              	.LBB29:
 312              		.file 2 "../../../os/ext/CMSIS/include/core_cmFunc.h"
 313              		.loc 2 548 0
 314 0000 2023     		movs	r3, #32
 315              	@ 548 "../../../os/ext/CMSIS/include/core_cmFunc.h" 1
 316 0002 83F31188 		MSR basepri, r3
 317              	@ 0 "" 2
 318              	.LVL1:
 319              		.thumb
 320              	.LBE29:
 321              	.LBE28:
 322              	.LBE27:
 323              	.LBE26:
 324              	.LBB30:
 325              	.LBB31:
ARM GAS  /tmp/ccxHztRu.s 			page 20


 326              		.loc 1 138 0
 327 0006 094A     		ldr	r2, .L7
 328 0008 0949     		ldr	r1, .L7+4
 329 000a 1368     		ldr	r3, [r2, #0]
 330 000c 0968     		ldr	r1, [r1, #0]
 331              		.loc 1 136 0
 332 000e 0730     		adds	r0, r0, #7
 333              	.LVL2:
 334 0010 20F00700 		bic	r0, r0, #7
 335              	.LVL3:
 336              		.loc 1 138 0
 337 0014 C91A     		subs	r1, r1, r3
 338 0016 8842     		cmp	r0, r1
 339              	.LVL4:
 340              		.loc 1 143 0
 341 0018 9ABF     		itte	ls
 342 001a 1818     		addls	r0, r3, r0
 343              	.LVL5:
 344 001c 1060     		strls	r0, [r2, #0]
 345              		.loc 1 140 0
 346 001e 0023     		movhi	r3, #0
 347              	.LVL6:
 348              	.LBE31:
 349              	.LBE30:
 350              	.LBB32:
 351              	.LBB33:
 352              	.LBB34:
 353              	.LBB35:
 354              	.LBB36:
 355              		.loc 2 548 0
 356 0020 0022     		movs	r2, #0
 357              	@ 548 "../../../os/ext/CMSIS/include/core_cmFunc.h" 1
 358 0022 82F31188 		MSR basepri, r2
 359              	@ 0 "" 2
 360              		.thumb
 361              	.LBE36:
 362              	.LBE35:
 363              	.LBE34:
 364              	.LBE33:
 365              	.LBE32:
 366              		.loc 1 117 0
 367 0026 1846     		mov	r0, r3
 368 0028 7047     		bx	lr
 369              	.L8:
 370 002a 00BF     		.align	2
 371              	.L7:
 372 002c 00000000 		.word	.LANCHOR0
 373 0030 00000000 		.word	.LANCHOR1
 374              		.cfi_endproc
 375              	.LFE242:
 376              		.size	chCoreAlloc, .-chCoreAlloc
 377 0034 AFF30080 		.section	.text.chCoreAllocI,"ax",%progbits
 377      AFF30080 
 377      AFF30080 
 378              		.align	2
 379              		.p2align 4,,15
 380              		.global	chCoreAllocI
ARM GAS  /tmp/ccxHztRu.s 			page 21


 381              		.thumb
 382              		.thumb_func
 383              		.type	chCoreAllocI, %function
 384              	chCoreAllocI:
 385              	.LFB243:
 386              		.loc 1 131 0
 387              		.cfi_startproc
 388              		@ args = 0, pretend = 0, frame = 0
 389              		@ frame_needed = 0, uses_anonymous_args = 0
 390              		@ link register save eliminated.
 391              	.LVL7:
 392              		.loc 1 138 0
 393 0000 074A     		ldr	r2, .L12
 394 0002 0849     		ldr	r1, .L12+4
 395 0004 1368     		ldr	r3, [r2, #0]
 396 0006 0968     		ldr	r1, [r1, #0]
 397              		.loc 1 136 0
 398 0008 0730     		adds	r0, r0, #7
 399              	.LVL8:
 400 000a 20F00700 		bic	r0, r0, #7
 401              	.LVL9:
 402              		.loc 1 138 0
 403 000e C91A     		subs	r1, r1, r3
 404 0010 8842     		cmp	r0, r1
 405              	.LVL10:
 406              		.loc 1 143 0
 407 0012 9ABF     		itte	ls
 408 0014 1818     		addls	r0, r3, r0
 409              	.LVL11:
 410 0016 1060     		strls	r0, [r2, #0]
 411              		.loc 1 140 0
 412 0018 0023     		movhi	r3, #0
 413              	.LVL12:
 414              		.loc 1 146 0
 415 001a 1846     		mov	r0, r3
 416 001c 7047     		bx	lr
 417              	.L13:
 418 001e 00BF     		.align	2
 419              	.L12:
 420 0020 00000000 		.word	.LANCHOR0
 421 0024 00000000 		.word	.LANCHOR1
 422              		.cfi_endproc
 423              	.LFE243:
 424              		.size	chCoreAllocI, .-chCoreAllocI
 425 0028 AFF30080 		.section	.text.chCoreGetStatusX,"ax",%progbits
 425      AFF30080 
 426              		.align	2
 427              		.p2align 4,,15
 428              		.global	chCoreGetStatusX
 429              		.thumb
 430              		.thumb_func
 431              		.type	chCoreGetStatusX, %function
 432              	chCoreGetStatusX:
 433              	.LFB244:
 434              		.loc 1 155 0
 435              		.cfi_startproc
 436              		@ args = 0, pretend = 0, frame = 0
ARM GAS  /tmp/ccxHztRu.s 			page 22


 437              		@ frame_needed = 0, uses_anonymous_args = 0
 438              		@ link register save eliminated.
 439              		.loc 1 158 0
 440 0000 40F20002 		movw	r2, #:lower16:.LANCHOR1
 441 0004 40F20003 		movw	r3, #:lower16:.LANCHOR0
 442 0008 C0F20002 		movt	r2, #:upper16:.LANCHOR1
 443 000c C0F20003 		movt	r3, #:upper16:.LANCHOR0
 444 0010 1068     		ldr	r0, [r2, #0]
 445 0012 1B68     		ldr	r3, [r3, #0]
 446              		.loc 1 160 0
 447 0014 C01A     		subs	r0, r0, r3
 448 0016 7047     		bx	lr
 449              		.cfi_endproc
 450              	.LFE244:
 451              		.size	chCoreGetStatusX, .-chCoreGetStatusX
 452 0018 AFF30080 		.section	.bss.endmem,"aw",%nobits
 452      AFF30080 
 453              		.align	2
 454              		.set	.LANCHOR1,. + 0
 455              		.type	endmem, %object
 456              		.size	endmem, 4
 457              	endmem:
 458 0000 00000000 		.space	4
 459              		.section	.bss.nextmem,"aw",%nobits
 460              		.align	2
 461              		.set	.LANCHOR0,. + 0
 462              		.type	nextmem, %object
 463              		.size	nextmem, 4
 464              	nextmem:
 465 0000 00000000 		.space	4
 466              		.text
 467              	.Letext0:
 468              		.file 3 "/usr/local/bin/../lib/gcc/arm-none-eabi/4.7.2/include/stddef.h"
 469              		.file 4 "/usr/local/bin/../lib/gcc/arm-none-eabi/4.7.2/../../../../arm-none-eabi/include/stdint.h"
 470              		.file 5 "../../../os/rt/ports/ARMCMx/compilers/GCC/chtypes.h"
 471              		.file 6 "../../../os/rt/include/chsystypes.h"
 472              		.file 7 "../../../os/rt/include/chschd.h"
 473              		.file 8 "../../../os/rt/ports/ARMCMx/chcore.h"
 474              		.file 9 "../../../os/rt/ports/ARMCMx/chcore_v7m.h"
 475              		.file 10 "../../../os/rt/include/chtm.h"
 476              		.file 11 "../../../os/rt/include/chsem.h"
 477              		.file 12 "../../../os/rt/include/chmtx.h"
 478              		.file 13 "../../../os/rt/include/chsys.h"
 479              		.file 14 "../../../os/ext/CMSIS/include/core_cm4.h"