ARM GAS  /tmp/ccxHztRu.s 			page 1


   1              		.syntax unified
   2              		.cpu cortex-m4
   3              		.fpu softvfp
   4              		.eabi_attribute 20, 1
   5              		.eabi_attribute 21, 1
   6              		.eabi_attribute 23, 3
   7              		.eabi_attribute 24, 1
   8              		.eabi_attribute 25, 1
   9              		.eabi_attribute 26, 1
  10              		.eabi_attribute 30, 2
  11              		.eabi_attribute 34, 1
  12              		.eabi_attribute 18, 4
  13              		.thumb
  14              		.file	"chmemcore.c"
  15              		.text
  16              	.Ltext0:
  17              		.section	.gnu.lto_.jmpfuncs.6cbd600d34c59106,"",%progbits
  18 0000 789C6362 		.ascii	"x\234cb`d`g\300\016\270\2404\013\003\003##\023#3\003"
  18      60646067 
  18      C00EB8A0 
  18      340B0303 
  18      23231323 
  19 0016 030002DC 		.ascii	"\003\000\002\334\000!"
  19      0021
  20              		.text
  21              		.section	.gnu.lto_.inline.6cbd600d34c59106,"",%progbits
  22 0000 789C6362 		.ascii	"x\234cb`d\340e\300\016B\2414\013\003\003\007;#\003\023"
  22      6064E065 
  22      C00E42A1 
  22      340B0303 
  22      073B2303 
  23 0015 CB027906 		.ascii	"\313\002y\006\266\005\362L@-|\274\214\214@\212\201Y"
  23      B605F24C 
  23      402D7CBC 
  23      8C8C408A 
  23      8159
  24 0027 E8402723 		.ascii	"\350@'#D\020(\313\302\300\304\300\303\015\225\341[\220"
  24      441028CB 
  24      C2C0C4C0 
  24      C30D95E1 
  24      5B90
  25 0039 8524C1CC 		.ascii	"\205$\301\314\300\306\0124\202\355\203\036D\220\001"
  25      C0C60A34 
  25      82ED831E 
  25      449001
  26 0048 00971709 		.ascii	"\000\227\027\011\323"
  26      D3
  27              		.text
  28              		.section	.gnu.lto_.pureconst.6cbd600d34c59106,"",%progbits
  29 0000 789C6362 		.ascii	"x\234cb`d`f``\340d\200\000\026\006\011F+&\011f\026\000"
  29      60646066 
  29      6060E064 
  29      80001606 
  29      09462B26 
  30 0018 03880088 		.ascii	"\003\210\000\210"
  31              		.text
  32              		.section	.gnu.lto__core_init.6cbd600d34c59106,"",%progbits
ARM GAS  /tmp/ccxHztRu.s 			page 2


  33 0000 789CBD93 		.ascii	"x\234\275\223=O\033A\020\206\337\331\365\235\303\227"
  33      3D4F1B41 
  33      1086DFD9 
  33      F59DC397 
  34 0010 480B0D16 		.ascii	"H\013\015\026?\340\034\323\245\240\207\202\202H\210"
  34      3FE01CD3 
  34      A5A08782 
  34      824888
  35 001f CA3A91CB 		.ascii	"\312:\221\313JP\360\021\233\002\245\361a\370\001\026"
  35      4A50F011 
  35      9B02A5F1 
  35      61F80116 
  36 002f 55701A02 		.ascii	"Up\032\002\010\001Q\224*RhH$(\010\212\250)-D\203\344"
  36      08015194 
  36      2A526848 
  36      2428088A 
  36      A8292D44 
  37 0045 92229190 		.ascii	"\222\"\221\220\216\231\265\3176\262\241\013{wz\367v"
  37      8E99B5CF 
  37      36B2A10B 
  37      7B777AF7 
  37      76
  38 0056 E6DD796E 		.ascii	"\346\335ynoW\201\370jo\003\374\034i\340=+i\220*]\000"
  38      6F5781F8 
  38      6A6F03FC 
  38      1C69E03D 
  38      2B69902A 
  39 006c AB294524 		.ascii	"\253)E$\035\266\024\024\025\246\25439\214\317a\270Q"
  39      1DB61414 
  39      15A6AC33 
  39      398CCF61 
  39      B851
  40 007e 3A298E15 		.ascii	":)\216\025+Q4d\010\012\212\340\023\016\177\177?\325"
  40      2B513464 
  40      080A8AE0 
  40      130E7F7F 
  40      3FD5
  41 0090 03304448 		.ascii	"\0030DHAT!\361\260N\273\027b\304\3773m\304&\2550b)/"
  41      415421F1 
  41      B04EBB17 
  41      62C4FF33 
  41      6DC426AD 
  42 00a8 3B20CED1 		.ascii	"; \316\321S\345\024F\255\263Z>\246\347!\235\260\365"
  42      53E51446 
  42      ADB35A3E 
  42      A6E7219D 
  42      B0F5
  43 00ba CE3A9236 		.ascii	"\316:\2226Qo7\217\351\356\223\373S\375\252D\005\240"
  43      516F378F 
  43      E9EE93FB 
  43      53FDAA44 
  43      05A0
  44 00cc 8790A52D 		.ascii	"\207\220\245-\032f\336,m\263j\326\035\326\004\353.\253"
  44      1A66DE2C 
  44      6DB36AD6 
  44      1DD604EB 
  44      2EAB
ARM GAS  /tmp/ccxHztRu.s 			page 3


  45 00de C3BAC7EA 		.ascii	"\303\272\307\352\262\356\263&Y\017X\2719X\017\303\227"
  45      B2EEB326 
  45      590F58B9 
  45      39580FC3 
  45      97
  46 00ef 4A582AA5 		.ascii	"JX*\245R\270\3651U\207I(L[\230\323\362a\243r\226\276"
  46      52B8F531 
  46      55874928 
  46      4C5B98D3 
  46      F261A372 
  47 0105 324E0B7F 		.ascii	"2N\013\177\233\307X\317\237\301\246\343[\323\341\327"
  47      9BC758CF 
  47      9FC1A6E3 
  47      5BD3E1D7 
  48 0115 279A1495 		.ascii	"'\232\024\225\015\366Fb\334\321\347(V\365u\371\212\262"
  48      0DF64662 
  48      DCD1E728 
  48      56F575F9 
  48      8AB2
  49 0127 F4851C04 		.ascii	"\364\205\034\004D\037\360/|a\310\241\271\330\177\216"
  49      441FF02F 
  49      7C61C8A1 
  49      B9D87F8E 
  50 0137 B502E2B8 		.ascii	"\265\002\342\270\342\024Y\034\336\227\265\320\221n\304"
  50      E214591C 
  50      DE97B5D0 
  50      916EC4
  51 0146 34876BB1 		.ascii	"4\207k\261\277Q\024\365\333x\361F_\3528!\3019vp\374"
  51      BF5114F5 
  51      DB78F146 
  51      5FEA3821 
  51      C1397670 
  52 015b 477DAC8C 		.ascii	"G}\254\214M\222\037P\257\352rU{^d\032\327\036\004\210"
  52      4D921F50 
  52      AFEA7255 
  52      7B5E641A 
  52      D71E0488 
  53 016f CF9AAA5A 		.ascii	"\317\232\252Z\366C<\227\323\002\252\033\240-4.\347t"
  53      F6433C97 
  53      D302AA1B 
  53      A02D342E 
  53      E774
  54 0181 A0396BD0 		.ascii	"\2409k\320$\003)!4\373\217\323P;\015\177\370\005d\037"
  54      24032921 
  54      34FB8FD3 
  54      503B0D7F 
  54      F805641F 
  55 0195 D44C719B 		.ascii	"\324Lq\233\224T^SY\265~\337\23753K\376\333\231\274\361"
  55      94545E53 
  55      59B57EDF 
  55      9F35334B 
  55      FEDB99BC 
  56 01aa 7DEFF590 		.ascii	"}\357\365\220\347\245k\367b>\235[N\347sA:\230\2357\363"
  56      E7A56BF7 
  56      623E9D5B 
  56      4EE77341 
  56      3A989D37 
ARM GAS  /tmp/ccxHztRu.s 			page 4


  57 01bf C162CE78 		.ascii	"\301b\316x\001\272\027\314\3122\277z\231W\261\325,\274"
  57      01BA17CC 
  57      CA32BF7A 
  57      9957B1D5 
  57      2CBC
  58 01d1 636726D3 		.ascii	"cg&\323\305\035\033\031\351{0iok\336=\372\033\355\312"
  58      C51D1B19 
  58      E97B3069 
  58      6F6BDE3D 
  58      FA1BEDCA 
  59              		.text
  60              		.section	.gnu.lto_chCoreAlloc.6cbd600d34c59106,"",%progbits
  61 0000 789C9D54 		.ascii	"x\234\235TMHTQ\024>\347\2767\316\214\277\343\306p\243"
  61      4D485451 
  61      143EE7BE 
  61      37CE8CBF 
  61      E3C670A3 
  62 0014 22060932 		.ascii	"\"\006\0112#X\350&(\004\311\205DJ\313\207\350\363\205"
  62      2358E826 
  62      2804C985 
  62      444ACB87 
  62      E8F385
  63 0027 13CD8CCC 		.ascii	"\023\315\214\314\250\230\033_c\213\010$s\245\201\222"
  63      A8981B5F 
  63      638B0824 
  63      73A58192 
  64 0037 DA8F2352 		.ascii	"\332\217#RI!EYBjQ\342B\244\245\011\032T\314\262\205"
  64      49214559 
  64      426A51E2 
  64      42A4A509 
  64      1A54CCB2 
  65 004c 41349D7B 		.ascii	"A4\235{\337{\343L\243\323\330\374}w\316=\337w~\356\271"
  65      DF7BE34C 
  65      A3D3D8FC 
  65      7D77CE3D 
  65      DF777EEE 
  66 0061 8F01D23B 		.ascii	"\217\001\322;\365UC\337wY\364%D\033 \033^\007\270V\306"
  66      F55543DF 
  66      7759F425 
  66      441B201B 
  66      5E07B856 
  67 0076 98FCD50E 		.ascii	"\230\374\325\016\372\011if\025@\257\226P6\3542\"_\220"
  67      FA096966 
  67      1540AF96 
  67      5036EC32 
  67      225F90
  68 0089 D4009364 		.ascii	"\324\000\223d\034\270(4\235\3450\251\353#\303\203\372"
  68      1CB82834 
  68      9DE530A9 
  68      EB23C383 
  68      FA
  69 009a B9F0762C 		.ascii	"\271\360v,V\252!0`\010\255\010\033[;\271\305\240!B\031"
  69      56AA2130 
  69      6008AD08 
  69      1B5B3BB9 
  69      C5A02142 
  70 00af 70642027 		.ascii	"pd ''\220B\225\030T\010jt\274$\023\346\333\021\213)"
ARM GAS  /tmp/ccxHztRu.s 			page 5


  70      27904295 
  70      1854086A 
  70      74BC2413 
  70      E6DB118B 
  71 00c4 33A814CC 		.ascii	"3\250\024\314_\021\177*\323\213\251\324\260E\265\001"
  71      5F117F2A 
  71      D38BA9D4 
  71      B045B501 
  72 00d4 E76D4632 		.ascii	"\347mF2\2108\234@\313\022\264=\333\021Y\014jD\236pd"
  72      88389C40 
  72      CB12B43D 
  72      DB11590C 
  72      6A449E70 
  73 00e9 DEE94C79 		.ascii	"\336\351Ly\211\305Q_\032\376\207g4e9r9--:>\305\242\023"
  73      89C5515F 
  73      1AFE8767 
  73      34653972 
  73      392D2D3A 
  74 0101 596FD8D2 		.ascii	"Yo\330\322vl\240\002\246\315\323\244\203Tp\232\334\305"
  74      766CA002 
  74      A6CDD3A4 
  74      8354709A 
  74      DCC5
  75 0113 497EC703 		.ascii	"I~\307\0034\310\005\216!*\370\030+\300\001\012>\302"
  75      34C8058E 
  75      212AF818 
  75      2BC0010A 
  75      3EC2
  76 0125 7270124E 		.ascii	"rp\022N\021f\023\316\021\346\020\316\022\346\022\336"
  76      116613CE 
  76      11E610CE 
  76      12E612DE 
  77 0135 25CC239C 		.ascii	"%\314#\234!\314'|HX@\370\200\320Ex\217\260\320\364\243"
  77      21CC277C 
  77      485840F8 
  77      80D04578 
  77      8FB0D0F4 
  78 014a 970DAEEB 		.ascii	"\227\015\256\353\272\013\215\377\255\346\361_\340\310"
  78      BA0B8DFF 
  78      ADE6F15F 
  78      E0C8
  79 0158 67B899D2 		.ascii	"g\270\231\322\340\013i\225F\325p5\031\244\360\204\027"
  79      E00B6995 
  79      46D57035 
  79      19A4F084 
  79      17
  80 0169 7FF88CDA 		.ascii	"\177\370\214\332\031\234\027\035]\030\232\337\252J\333"
  80      199C171D 
  80      5D189ADF 
  80      AA4ADB
  81 0178 1E6EB4D3 		.ascii	"\036n\264\323&\300G\010\343\357[c;uI\301(\275\247\224"
  81      26C04708 
  81      E3EF5B63 
  81      3B7549C1 
  81      28BDA794 
  82 018c 9E82F349 		.ascii	"\236\202\363I!\371m\235\243\376P\216\342\007\240\004"
  82      21F96D9D 
ARM GAS  /tmp/ccxHztRu.s 			page 6


  82      A3FE508E 
  82      E207A004 
  83 019c 16715C1F 		.ascii	"\026q\\\037=\243\241#I6\276\275dn;\205\000\257\012\314"
  83      3DA3A123 
  83      4936BEBD 
  83      646E3B85 
  83      00AF0ACC 
  84 01b0 5EAA941E 		.ascii	"^\252\224\036|\200\301\201\215\321\373yf\330\324+\253"
  84      7C80C181 
  84      8DD1FB79 
  84      66D8D42B 
  84      AB
  85 01c1 E0A4715C 		.ascii	"\340\244q\\\2733\227\322\226\024O|J$\236\334+\025\035"
  85      BB3397D2 
  85      96144F7C 
  85      4A249EDC 
  85      2B151D
  86 01d4 14AE581C 		.ascii	"\024\256X\034\256\035D\330\027\322r\244]\301W\344\247"
  86      AE1D44D8 
  86      17D272A4 
  86      5DC157E4 
  86      A7
  87 01e5 A2931C8C 		.ascii	"\242\223\034\214\335\275X,V`d\012\306\256\225\255\223"
  87      DDBD582C 
  87      5660640A 
  87      C6AE95AD 
  87      93
  88 01f6 D3C28D9B 		.ascii	"\323\302\215\233\221\327h\321\262\357\300\030\362Q\356"
  88      91D768D1 
  88      B2EFC018 
  88      F251EE
  89 0205 879FBA43 		.ascii	"\207\237\272C\303l\364\"\257Jd\230-\032\006\"Z\370\233"
  89      C36CF422 
  89      AF4A6498 
  89      2D1A0622 
  89      5AF89B
  90 0218 04162947 		.ascii	"\004\026)G\345[\\*n\312=@\007\376\245\223G<Q\311\215"
  90      E55B5C2A 
  90      6ECA3D40 
  90      07FEA593 
  90      473C51C9 
  91 022d 7D5BBE90 		.ascii	"}[\276\220\317\023\256Q\251\3172\027\320\016\300\012"
  91      CF13AE51 
  91      A9CF3217 
  91      D00EC00A 
  92 023d 2C7FC1CE 		.ascii	",\177\301\316\204\222\013\366\033\324L\245\003=V\371"
  92      84920BF6 
  92      1BD44CA5 
  92      033D56F9 
  93 024d DCFD8814 		.ascii	"\334\375\210\024Y\225/\212\312\21507%z\202Yl\027Y\343"
  93      59952F8A 
  93      CA8D3037 
  93      257A8259 
  93      6C1759E3 
  94 0261 2D31C367 		.ascii	"-1\303gR\0041\255\200r|\320\327&\212\214\003\213_\022"
  94      520431AD 
  94      80727CD0 
ARM GAS  /tmp/ccxHztRu.s 			page 7


  94      D7268A8C 
  94      038B5F12 
  95 0275 481DFF43 		.ascii	"H\035\377Cn\301!WA\301g\306\330,\014\335\376\234\311"
  95      6EC12157 
  95      41C167C6 
  95      D82C0CDD 
  95      FE9CC9
  96 0288 5D807477 		.ascii	"]\200tw\341\275\030\251\225\303\356\202\202\317i\261"
  96      E1BD18A9 
  96      95C3EE82 
  96      82CF69B1 
  97 0298 AF630EBF 		.ascii	"\257c\016\277\202/\261D\030\326\0017\242\222\221\272"
  97      822FB144 
  97      18D60137 
  97      A29291BA 
  98 02a8 8A85DCF4 		.ascii	"\212\205\334\364\011\0129\201/\331n\244\210\332)\255"
  98      090A3981 
  98      2FD96EA4 
  98      88DA29AD 
  99 02b8 CDE6F327 		.ascii	"\315\346\363'\001\212\276p\005\354*u\273=\306'\020\362"
  99      018ABE70 
  99      05EC2A75 
  99      BB3DC627 
  99      10F2
 100 02ca 04BB3DA1 		.ascii	"\004\273=\241\240\352Q;}\232O\015\0045\267\012r\310"
 100      A0EA513B 
 100      7D9A4F0D 
 100      0435B70A 
 100      72C8
 101 02dc DBAF39FD 		.ascii	"\333\2579\375Z_7\331\334u\361U\255C\363w\360\305)kq"
 101      5A5F37D9 
 101      DC75F155 
 101      AD43F377 
 101      F0C5296B 
 102 02f1 D2D6DB76 		.ascii	"\322\326\333v\245G\253\374K\260+\020\354\016y\31667"
 102      A547ABFC 
 102      4BB02B10 
 102      EC0E79CE 
 102      3637
 103 0303 D537F591 		.ascii	"\3257\365\2212\227m\355\255\365\271;\241*\321\223d="
 103      32976DED 
 103      ADF5B93B 
 103      A12AD193 
 103      643D
 104 0315 F54D2D8D 		.ascii	"\365M-\215-\036\257_\275\322\323\241y\204\247\352k\350"
 104      2D1EAF5F 
 104      BDD2D3A1 
 104      7984A7EA 
 104      6BE8
 105 0327 F1ABE4EC 		.ascii	"\361\253\344\354jji.ko\013i]AoU\331\361j`A\260S\330"
 105      6A6A692E 
 105      6B6F0B69 
 105      5D416F55 
 105      D9F16A60 
 106 033f 40F02AFC 		.ascii	"@\360*\374\001vT\221\320"
 106      01765491 
 106      D0
ARM GAS  /tmp/ccxHztRu.s 			page 8


 107              		.text
 108              		.section	.gnu.lto_chCoreAllocI.6cbd600d34c59106,"",%progbits
 109 0000 789C9D54 		.ascii	"x\234\235T=hSQ\024\376\316\275\367\345\275\024\214\202"
 109      3D685351 
 109      14FECEBD 
 109      F7E5BD14 
 109      8C82
 110 0012 50E8D412 		.ascii	"P\350\324\022:\010B\"X\177&\347:\032\024\\B\207\347"
 110      3A084222 
 110      587F26E7 
 110      3A1A145C 
 110      4287E7
 111 0025 9346682A 		.ascii	"\223Fh*I\207\320%\317\324\2418\205N*\016\226R\315\213"
 111      4987D025 
 111      CFD4A138 
 111      854E2A0E 
 111      9652CD8B 
 112 0039 8838BAA8 		.ascii	"\2108\272\250`\355\020\244Sq\352\320!\203\20289(\010"
 112      60ED10A4 
 112      5371EAD0 
 112      21838238 
 112      392808
 113 004c CF73EFCD 		.ascii	"\317s\357\315\213\321\024\033\373\222\360\235{\316\375"
 113      8BD1141B 
 113      FB92F09D 
 113      7BCEFD
 114 005b CEFF8B00 		.ascii	"\316\377\213\000\361g\3709\313\277G\012\270\316H\016"
 114      F167F839 
 114      CBBF470A 
 114      B8CE480E 
 115 006b 48347780 		.ascii	"H4w\200;SB\250O.\302S\262\265\015\204g$)\253WDZ`Wu!"
 115      3B5342A8 
 115      4F2EC253 
 115      B2B50D84 
 115      672429AB 
 116 0086 15D5AF19 		.ascii	"\025\325\257\031\237\351,\326\303p\255\371\2561\333"
 116      9FE92CD6 
 116      C370ADF9 
 116      AE31DB
 117 0095 D88FE3C9 		.ascii	"\330\217\343\311@k\347\010\235\373\233\307&\020\020"
 117      406BE708 
 117      9DFB9BC7 
 117      261010
 118 00a4 610A1A05 		.ascii	"a\012\032\005\324\237\321\207xR K\232\272\033\275\246"
 118      D49FD187 
 118      7852204B 
 118      9ABA1BBD 
 118      A6
 119 00b5 C3A9CD01 		.ascii	"\303\251\315\001\252\0228m\250\370\357\2203\243\362"
 119      AA12386D 
 119      A8F8EF90 
 119      33A3F2
 120 00c4 FE8A77E9 		.ascii	"\376\212w\351H<\034!I\333\317\332H\244\265\201\312f"
 120      483C1C21 
 120      49DBCFDA 
 120      48A4B581 
 120      CA66
ARM GAS  /tmp/ccxHztRu.s 			page 9


 121 00d6 4D863FA3 		.ascii	"M\206?\243\3620\263DC\324\2250\241:\002\005C\355\266"
 121      F230B344 
 121      43D49530 
 121      A13A0205 
 121      43EDB6
 122 00e9 6EFE33E8 		.ascii	"n\3763\350^\353\211\330m\247\336\210\267\373q}\032\033"
 122      5EEB89D8 
 122      6DA7DE88 
 122      B7FB717D 
 122      1A1B
 123 00fb 3D3701A5 		.ascii	"=7\001\245\004\256\032\017{\255\257\007M\222o\340$\241"
 123      04AE1A0F 
 123      7BADAF07 
 123      4D926FE0 
 123      24A1
 124 010d 48CF290B 		.ascii	"H\317)\013AEzA\323\220|~\314g\005{v\030\327\371\234"
 124      41457A41 
 124      D3907C7E 
 124      CC67057B 
 124      7618D7F9 
 125 0122 62DC6074 		.ascii	"b\334`t\0317\031=\306\247\214i\306\210q\214\261\315"
 125      1937193D 
 125      C6A78C69 
 125      C688718C 
 125      B1CD
 126 0134 98617CC6 		.ascii	"\230a|\306\310\217\203\273ax\202\254\377\271^\255W4"
 126      C88F83BB 
 126      617882AC 
 126      FFB95EAD 
 126      5734
 127 0146 EA052E70 		.ascii	"\352\005.p\032Z\220\035\254\324\267\242[Ez\311\333\357"
 127      1A5A901D 
 127      ACD4B7A2 
 127      5B457AC9 
 127      DBEF
 128 0158 93F4494C 		.ascii	"\223\364IL\230\334\\\276\311\306WrU&F\305vk\374\036"
 128      98DC5CBE 
 128      C9C65772 
 128      552646C5 
 128      766BFC1E 
 129 016c C7F171BE 		.ascii	"\307\361q\276\260\015\001k\265\371\372z\272\0354.\353"
 129      B00D016B 
 129      B5F9FA7A 
 129      BA1D342E 
 129      EB
 130 017d F54D68CE 		.ascii	"\365Mh\316C< =\215e\374\010\275\200\\*\021\351D\264"
 130      433C203D 
 130      8D65FC08 
 130      BD805C2A 
 130      11E944B4 
 131 0191 2FD7BC4C 		.ascii	"/\327\274L0\301\032\237%\022R\212y\326U_\345\036\340"
 131      30C11A9F 
 131      2512528A 
 131      79D6555F 
 131      E51EE0
 132 01a4 0787F9F1 		.ascii	"\007\207\371\361|m\342BV\177\353\322\306\275g\256~\221"
 132      7C6DE242 
ARM GAS  /tmp/ccxHztRu.s 			page 10


 132      567FEBD2 
 132      C6BD67AE 
 132      7E91
 133 01b6 B5443DC6 		.ascii	"\265D=\306\026\340=\266\2724?\240\033\030x\201$\300"
 133      16E03DB6 
 133      BA343FA0 
 133      1B187881 
 133      24C0
 134 01c8 FF0892EB 		.ascii	"\377\010\222\353\376\026\215'\225\353\016'a\356I^\266"
 134      FE168D27 
 134      95EB0E27 
 134      61EE495E 
 134      B6
 135 01d9 849D616D 		.ascii	"\204\235am\277%\275\360\243\024\301\314$\240\262c\332"
 135      BF25BDF0 
 135      A314C1CC 
 135      24A0B263 
 135      DA
 136 01ea 01F5FB69 		.ascii	"\001\365\373i\312\374\010\263T\334#\210n4\316\201\344"
 136      CAFC08B3 
 136      54DC2388 
 136      6E34CE81 
 136      E4
 137 01fb 8776464F 		.ascii	"\207vFO\230\014\203\307\213\311\\.o\277\213\325|e)_"
 137      980C83C7 
 137      8BC95C2E 
 137      6FBF8BD5 
 137      7C65295F 
 138 020f ADF8797F 		.ascii	"\255\370y\177~!X\360\027+A\316\207\027\224o\360)7\223"
 138      7E2158F0 
 138      172B41CE 
 138      8717946F 
 138      F0293793 
 139 0223 08E7D2E5 		.ascii	"\010\347\322\345\240\266\244\245\363}\351B_\272H\267"
 139      A0B6A4A5 
 139      F37DE942 
 139      5FBA48B7 
 140 0233 55B5B41C 		.ascii	"U\265\264\034\374\0023 \0127"
 140      FC023320 
 140      0A37
 141              		.text
 142              		.section	.gnu.lto_chCoreGetStatusX.6cbd600d34c59106,"",%progbits
 143 0000 789C9D92 		.ascii	"x\234\235\222=O\302P\024\206\337s\373a\335\\\231 \254"
 143      3D4FC250 
 143      1486DF73 
 143      FB61DD5C 
 143      9920AC
 144 0013 26AD5F83 		.ascii	"&\255_\203\223\2532j\342H\034\352Mt\000\222\302`\\\250"
 144      93AB326A 
 144      E2481CEA 
 144      4D740092 
 144      C2605CA8 
 145 0027 E8E0484C 		.ascii	"\350\340HL\034d\222\030#\212\277AMtb\340\0278\2608h"
 145      1C649218 
 145      238ABF41 
 145      4D7462E0 
 145      1738B038 
ARM GAS  /tmp/ccxHztRu.s 			page 11


 146 003c 1C5D5CC4 		.ascii	"\034]\\\304s.\001\361#A=m\363\234\236\334\347\234\336"
 146      732E01F1 
 146      23413D6D 
 146      F39C9EDC 
 146      E79CDE
 147 004f B60AC4C7 		.ascii	"\266\012\304\307\367H\360u\250\200E&Y Um\003;)E$\011"
 147      F748F075 
 147      A8804526 
 147      5920556D 
 147      033B2945 
 148 0065 2B6545E5 		.ascii	"+eE\345Uc\272i\324\343\270V\275\255,U:\335nRKu\215\320"
 148      5563BA69 
 148      D4E3B856 
 148      BDAD2C55 
 148      3ADD6E52 
 149 007d BA7AA004 		.ascii	"\272z\240\0044\021R\020*\330\237g\030\357`\310\263\024"
 149      34115210 
 149      2AD89F67 
 149      18EF60C8 
 149      B314
 150 008f D2246A63 		.ascii	"\322$jcl\264X\035\022m\205I#\342\317\003\347~\353}\231"
 150      6CB4581D 
 150      126D8549 
 150      23E2CF03 
 150      E77EEB7D 
 151 00a4 B7F02F0F 		.ascii	"\267\360/\017\243\245\373\346\033\335]\272\327\352\246"
 151      A3A5FBE6 
 151      1BDD5DBA 
 151      D7EAA6
 152 00b3 D32D031E 		.ascii	"\323-\003\036!KuJC1O\230\026\363\224i3\317\230\016\363"
 152      214B754A 
 152      43314F98 
 152      16F39469 
 152      33CF980E 
 153 00c8 9CE9328F 		.ascii	"\234\3512\217\231\034\016\366\342x\302\214\222X\026"
 153      991C0EF6 
 153      E278C28C 
 153      925816
 154 00d7 CA675BE1 		.ascii	"\312g[\341i\222X-T2/\315'\312\322\0059\010\211j8\"y"
 154      6992582D 
 154      54322FCD 
 154      27CAD205 
 154      3908896A 
 155 00ee 1DDB788D 		.ascii	"\035\333x\215=M\016m\366~\013yB\307|o\011\326\036e|"
 155      3D4D0E6D 
 155      F67E0B79 
 155      42C77C6F 
 155      09D61E65 
 156 0103 4F52EC99 		.ascii	"OR\354\231ZfP\262~\350C\243\372\330\354Imw\377\243\346"
 156      5A6650B2 
 156      7EE843A3 
 156      FAD8EC49 
 156      6D77FFA3 
 157 0118 98F6B659 		.ascii	"\230\366\266Y\372l\315\367\313n(]\332\240\301B\267\277"
 157      FA6CCDF7 
 157      CB6E285D 
 157      DAA0C142 
ARM GAS  /tmp/ccxHztRu.s 			page 12


 157      B7BF
 158 012a 45323BE3 		.ascii	"E2;\343\375!\351\373A\357,\024\203\250\024\024\2430"
 158      FD21E9FB 
 158      41EF2C14 
 158      83A81414 
 158      A330
 159 013c 0837723A 		.ascii	"\0107r:\027\026\"\355\207\360t~\235\357\374\251~2=\236"
 159      171622ED 
 159      87F0747E 
 159      9DEFFCA9 
 159      7E323D9E 
 160 0150 D75B25C9 		.ascii	"\327[%\311f\006\331\354;\201\230\226_"
 160      6606D9EC 
 160      3B819896 
 160      5F
 161              		.text
 162              		.section	.gnu.lto_.cgraph.6cbd600d34c59106,"",%progbits
 163 0000 789C45C7 		.ascii	"x\234E\307\273\025\000\020\024D\301\273OW\232\333T\250"
 163      BB150010 
 163      1444C1BB 
 163      4F579ADB 
 163      54A8
 164 0012 022569C6 		.ascii	"\002%i\306'\2268L6\201H@\346\212!C\355\330\255(\246"
 164      2796384C 
 164      36814840 
 164      E68A2143 
 164      EDD8AD28 
 165 0027 ACBF25C7 		.ascii	"\254\277%\307\337\226\323\033\007U0\024-"
 165      DF96D31B 
 165      07553014 
 165      2D
 166              		.text
 167              		.section	.gnu.lto_.vars.6cbd600d34c59106,"",%progbits
 168 0000 789C6362 		.ascii	"x\234cb`d`f``\220d\200\000\226\037\214\014\014\365\014"
 168      60646066 
 168      60609064 
 168      8000961F 
 168      8C0C0CF5 
 169 0015 1F191959 		.ascii	"\037\031\031Y\352\231\17722\001\331\237\030\231\201"
 169      EA997F32 
 169      3201D99F 
 169      189981
 170 0024 6C0054E6 		.ascii	"l\000T\346\006\014"
 170      060C
 171              		.text
 172              		.section	.gnu.lto_.refs.6cbd600d34c59106,"",%progbits
 173 0000 789C25C5 		.ascii	"x\234%\305\201\015\000 \020\203@Zt\021\367\037\322\350"
 173      810D0020 
 173      1083405A 
 173      7411F71F 
 173      D2E8
 174 0012 13922B41 		.ascii	"\023\222+A\3400-6fWM\376v\254O\270\014\002\000k"
 174      E0302D36 
 174      66574DFE 
 174      76AC4FB8 
 174      0C02006B 
 175              		.text
ARM GAS  /tmp/ccxHztRu.s 			page 13


 176              		.section	.gnu.lto_.statics.6cbd600d34c59106,"",%progbits
 177 0000 789C6362 		.ascii	"x\234cb`d`b\300\016@\342\214\020&\000\000\375\000\011"
 177      60646062 
 177      C00E40E2 
 177      8C102600 
 177      00FD0009 
 178              		.text
 179              		.section	.gnu.lto_.decls.6cbd600d34c59106,"",%progbits
 180 0000 789C9D54 		.ascii	"x\234\235TMh\023Q\020\236\267\246\331\306\244Z\017\226"
 180      4D681351 
 180      109EB7A6 
 180      D9C6A45A 
 180      0F96
 181 0012 7AAA888A 		.ascii	"z\252\210\212\010f\241\026\364\240\025\351\301z\361"
 181      0866A116 
 181      F4A015E9 
 181      C17AF1
 182 0021 A2821EC2 		.ascii	"\242\202\036\302\222lW\023HSM\266 \352\341Q\301\252"
 182      926C5713 
 182      48534DB6 
 182      20EAE151 
 182      C1AA
 183 0033 780882F8 		.ascii	"x\010\202\370s\220\264Z\251\025\211\264\326V\374\253"
 183      7390B45A 
 183      A91589B4 
 183      D656FCAB 
 184 0043 558B16AD 		.ascii	"U\213\026\255(^D\017\271z\021\017\012\036\2248o\337"
 184      285E440F 
 184      B97A110F 
 184      0A1E9438 
 184      6FDF
 185 0055 DB5FBBD1 		.ascii	"\333_\273\321:d\332\227\2673\337\367\315\344K$ \300"
 185      3A64DA97 
 185      B733DFF7 
 185      CDE44B24 
 185      20C0
 186 0067 E238FEAB 		.ascii	"\3428\376\253b\\\221\001:\360\\\207w[\301\211\020f\011"
 186      625C9101 
 186      3AF05C87 
 186      775BC189 
 186      106609
 187 007a 7308B38C 		.ascii	"s\010\263\2149&\356&0\037bNaN\2037X=\302\231XK0c\230"
 187      3926EE26 
 187      301F624E 
 187      614E8337 
 187      583DC299 
 188 0093 8F302731 		.ascii	"\2170'1\237a>\027uD\324\206\004\326\264\300\235\362"
 188      9F613E17 
 188      7544D486 
 188      04D6B4C0 
 188      9DF2
 189 00a5 E131EE28 		.ascii	"\3411\356(f\273\013oX`\326\211\376\031\314\227\230s"
 189      66BB0B6F 
 189      5860D689 
 189      FE19CC97 
 189      9873
 190 00b7 3E7CD62B 		.ascii	">|\326+\271\360\335\301\346\251\237GgHp\015\373\260"
ARM GAS  /tmp/ccxHztRu.s 			page 14


 190      B9F0DDC1 
 190      E6A99F47 
 190      6748700D 
 190      FBB0
 191 00c9 CA35B0D8 		.ascii	"\3125\260\330^\302\242\307\217\345\306\030\023\030\323"
 191      5EC2A2C7 
 191      8FE5C618 
 191      1318D3
 192 00d8 02C71D2D 		.ascii	"\002\307\035-p\205\226*\305\023\264\363G\265*7\301y"
 192      7085962A 
 192      C513B4F3 
 192      47B52A37 
 192      C179
 193 00ea 8A513A49 		.ascii	"\212Q:I)1\022d\353rX\001\011\262$\002\260\322<\305\""
 193      29311264 
 193      EB725801 
 193      09B22402 
 193      B0D23CC5 
 194 00ff 1C1DF03C 		.ascii	"\034\035\360<@\232\304i\317\"\216%\201D`=\334\240f\020"
 194      409AC469 
 194      CF228E25 
 194      8144603D 
 194      DCA06610 
 195 0113 47004603 		.ascii	"G\000F\003\214~\036k\263X\327\302\020+\231\352k6I\030"
 195      8C7E1E6B 
 195      B358D7C2 
 195      102B99EA 
 195      6B364918 
 196 0127 4889B478 		.ascii	"H\211\264x\204%\310 \221\376Yi{\264\206\322\353B\351"
 196      8425C820 
 196      91FE5969 
 196      7BB486D2 
 196      EB42E9
 197 013a 22730B10 		.ascii	"\"s\013\020\201S\224\366\261\326\316\027\270\266\371"
 197      815394F6 
 197      B1D6CE17 
 197      B8B6F9
 198 0149 FBD6C035 		.ascii	"\373\326\3005J\213l\214\004\031&\021\354l#\370\370*"
 198      4A8B6C8C 
 198      04192611 
 198      EC6C23F8 
 198      F82A
 199 015b 590F5F3E 		.ascii	"Y\017_>~\377)Y\"\353\"^\321\370\236Wq`\376\330:1\323"
 199      7EFF2959 
 199      22EB225E 
 199      D1F89E57 
 199      7160FED8 
 200 0172 2FC59538 		.ascii	"/\305\2258+C\334c\026\356\350\207\373[\370\345j\270"
 200      2B43DC63 
 200      16EEE887 
 200      FB5BF8E5 
 200      6AB8
 201 0184 4AE93936 		.ascii	"J\35196\252E\336OX\325\020\356hX\016\030\224\227\362"
 201      AA45DE4F 
 201      58D510EE 
 201      68580E18 
 201      9497F2
ARM GAS  /tmp/ccxHztRu.s 			page 15


 202 0197 D5F6159F 		.ascii	"\325\366\025\237\366u\232[\001\321v$h=f\305\315?W]\371"
 202      F6759A5B 
 202      01D17624 
 202      683D66C5 
 202      CD3F575D 
 203 01ac 2A56DDDF 		.ascii	"*V\335\337\3107(\301YbI\375\264n~\241\011r\013\221\022"
 203      C83728C1 
 203      596249FD 
 203      B46E7EA1 
 203      09720B91 
 204 01c1 A48C8C93 		.ascii	"\244\214\214\223\013\027Z\376\253\320\3335<\321O\251"
 204      0B175AFE 
 204      ABD0DB35 
 204      3CD14FA9 
 205 01d1 E4B30523 		.ascii	"\344\263\005#\012\366\305\235y\034|\311\231\361f\312"
 205      0AF6C59D 
 205      791C7CC9 
 205      99F166CA 
 206 01e1 635721D5 		.ascii	"cW!\325\324\216%c\314\2575\265\216{\265\256\202\001"
 206      D48E2563 
 206      CCAF35B5 
 206      8E7BB5AE 
 206      8201
 207 01f3 5A291669 		.ascii	"Z)\026i\251\231V\252\325\226eP4\2252\213\035\026\226"
 207      A99956AA 
 207      D5966550 
 207      3495328B 
 207      1D1696
 208 0206 AC0CD1E6 		.ascii	"\254\014\321\346\213.K\326\333\260\304g\311{\246+Fl"
 208      8B2E4BD6 
 208      DBB0C467 
 208      C97BA62B 
 208      466C
 209 0218 B12317C6 		.ascii	"\261#\027\306\177\331\236$>O\022\257'\211\355Iv\252"
 209      7FD99E24 
 209      3E4F12AF 
 209      2789ED49 
 209      76AA
 210 022a 1277E924 		.ascii	"\022w\351$Y\346\356\305\317\\b\317GO\217\277\227\234"
 210      59E6EEC5 
 210      CF5C62CF 
 210      474F8FBF 
 210      979C
 211 023c AA07CE64 		.ascii	"\252\007\316dl*\372\216}\002\346TQ8\343|\267\270\314"
 211      6C2AFA8E 
 211      7D02E654 
 211      5138E37C 
 211      B7B8CC
 212 024f E0FD3F22 		.ascii	"\340\375?\"Q\207\350\262d\315\362mbqp\317c/\265k\241"
 212      5187E8B2 
 212      64CDF26D 
 212      627170CF 
 212      632FB56B 
 213 0264 5CBC0483 		.ascii	"\\\274\004\203\246\342W\227G\210#\370I\240`\256B\202"
 213      A6E25797 
 213      478823F8 
 213      49A060AE 
ARM GAS  /tmp/ccxHztRu.s 			page 16


 213      4282
 214 0276 B24DFFB3 		.ascii	"\262M\377\263\026\375S\007\3107*#\017\356{\346\214\352"
 214      16FD5307 
 214      C8372A23 
 214      0FEE7BE6 
 214      8CEA
 215 0288 EB63F4C1 		.ascii	"\353c\364\301}\317\235\276\005\377l\315\230\036\271"
 215      7DCF9DBE 
 215      05FF6CCD 
 215      981EB9
 216 0297 2B391E79 		.ascii	"+9\036y;\243X\033\221}\036\221\275\036\221m\217\310"
 216      3BA3581B 
 216      917D1E91 
 216      BD1E916D 
 216      8FC8
 217 02a9 CEEF9665 		.ascii	"\316\357\226e\331)\237e\233k:\226r5\263\246\232\307"
 217      D9299F65 
 217      9B6B3A96 
 217      7235B3A6 
 217      9AC7
 218 02bb E68743E0 		.ascii	"\346\207C\340\317\340\025\026\353\254c\322Y\313\245"
 218      CFE01516 
 218      EBAC63D2 
 218      59CBA5
 219 02ca 1647A3CD 		.ascii	"\026G\243\315!\211\316\227\302\265\246&j\2576V\313|"
 219      2189CE97 
 219      C2B5A626 
 219      6AAF3656 
 219      CB7C
 220 02dc AF5D6CB1 		.ascii	"\257]l\261\210\373d\251\363|C\271\016\013n\263],\013"
 220      88FB64A9 
 220      F37C43B9 
 220      0E0B6EB3 
 220      5D2C0B
 221 02ef B8B9FF90 		.ascii	"\270\271\377\220\360&PB\330\332\312bU\353\311\353j&"
 221      F0265042 
 221      D8DACA62 
 221      55EBC9EB 
 221      6A26
 222 0301 9731C23B 		.ascii	"\2271\302;v\355]\331\001-\361\270\302_=\005%o(\205\274"
 222      76ED5DD9 
 222      012DF1B8 
 222      C25F3D05 
 222      256F2885 
 223 0316 A668E96E 		.ascii	"\246h\351n\275\233\025\3065\010\0272Gu\325\330\246\364"
 223      BD9B15C6 
 223      35081732 
 223      4775D5D8 
 223      A6F4
 224 0328 16F24AB6 		.ascii	"\026\362J\266GKf\225T&\307\352\263\231\224rP\323\224"
 224      474B6695 
 224      5426C7EA 
 224      B3999472 
 224      50D394
 225 033b 64BE7B43 		.ascii	"d\276{C\256'\247o\320\223\251\214\322\026\337\024oU"
 225      AE27A76F 
 225      D093A98C 
ARM GAS  /tmp/ccxHztRu.s 			page 17


 225      D216DF14 
 225      6F55
 226 034d 32392DDB 		.ascii	"29-\333\333\245+\005\243\253K?\020OCTKw \340\366,B\204"
 226      DBA52B05 
 226      A3AB4B3F 
 226      104F4354 
 226      4B7720E0 
 227 0365 1864CC75 		.ascii	"\030d\314u\261\263\221\277\331\241\033\273\215\244\321"
 227      B1B391BF 
 227      D9A11BBB 
 227      8DA4D1
 228 0374 5BD827F7 		.ascii	"[\330'\367fr\306f\325\330\2770Z{\026|y\237\273\004!"
 228      6672C666 
 228      D5D8BF30 
 228      5A7B167C 
 228      799FBB04 
 229 0389 320A6A50 		.ascii	"2\012jP\325\264\236<\244\246\222\005]U\345\234~\304"
 229      D5B49E3C 
 229      A4A69205 
 229      5D55E59C 
 229      7EC4
 230 039b C0A163E2 		.ascii	"\300\241c\342V\317u\251j\030\377\342]=\323\262\261U"
 230      56CF75A9 
 230      6A18FFE2 
 230      5D3DD3B2 
 230      B155
 231 03ad 35425A3A 		.ascii	"5BZ:\231\377\015\256G\3446"
 231      99FF0DAE 
 231      47E436
 232              		.text
 233              		.section	.gnu.lto_.symtab.6cbd600d34c59106,"",%progbits
 234 0000 5F636F72 		.ascii	"_core_init\000\000\000\000\000\000\000\000\000\000\000"
 234      655F696E 
 234      69740000 
 234      00000000 
 234      00000000 
 235 0015 00A00000 		.ascii	"\000\240\000\000\000chCoreAlloc\000\000\000\000\000"
 235      00636843 
 235      6F726541 
 235      6C6C6F63 
 235      00000000 
 236 002a 00000000 		.ascii	"\000\000\000\000\000\000\000\245\000\000\000chCoreA"
 236      000000A5 
 236      00000063 
 236      68436F72 
 236      6541
 237 003c 6C6C6F63 		.ascii	"llocI\000\000\000\000\000\000\000\000\000\000\000\000"
 237      49000000 
 237      00000000 
 237      00000000 
 237      00
 238 004d AF000000 		.ascii	"\257\000\000\000chCoreGetStatusX\000\000\000\000\000"
 238      6368436F 
 238      72654765 
 238      74537461 
 238      74757358 
 239 0066 00000000 		.ascii	"\000\000\000\000\000\000\000\263\000\000\000__heap_"
ARM GAS  /tmp/ccxHztRu.s 			page 18


 239      000000B3 
 239      0000005F 
 239      5F686561 
 239      705F
 240 0078 62617365 		.ascii	"base__\000\000\002\000\000\000\000\000\000\000\000\000"
 240      5F5F0000 
 240      02000000 
 240      00000000 
 240      0000
 241 008a B7000000 		.ascii	"\267\000\000\000__heap_end__\000\000\002\000\000\000"
 241      5F5F6865 
 241      61705F65 
 241      6E645F5F 
 241      00000200 
 242 00a0 00000000 		.ascii	"\000\000\000\000\000\000\300\000\000\000"
 242      0000C000 
 242      0000
 243              		.text
 244              		.section	.gnu.lto_.opts,"",%progbits
 245 0000 272D6D63 		.ascii	"'-mcpu=cortex-m4''-mno-thumb-interwork''-mthumb''-g"
 245      70753D63 
 245      6F727465 
 245      782D6D34 
 245      27272D6D 
 246 0033 67646227 		.ascii	"gdb''-O2''-fomit-frame-pointer''-falign-functions=1"
 246      272D4F32 
 246      27272D66 
 246      6F6D6974 
 246      2D667261 
 247 0066 3627272D 		.ascii	"6''-ffunction-sections''-fdata-sections''-fno-commo"
 247      6666756E 
 247      6374696F 
 247      6E2D7365 
 247      6374696F 
 248 0099 6E27272D 		.ascii	"n''-flto'\000"
 248      666C746F 
 248      2700
 249              		.text
 250              		.cfi_sections	.debug_frame
 251              		.section	.text._core_init,"ax",%progbits
 252              		.align	2
 253              		.p2align 4,,15
 254              		.global	_core_init
 255              		.thumb
 256              		.thumb_func
 257              		.type	_core_init, %function
 258              	_core_init:
 259              	.LFB241:
 260              		.file 1 "../../../os/rt/src/chmemcore.c"
 261              		.loc 1 78 0
 262              		.cfi_startproc
 263              		@ args = 0, pretend = 0, frame = 0
 264              		@ frame_needed = 0, uses_anonymous_args = 0
 265              		@ link register save eliminated.
 266              		.loc 1 84 0
 267 0000 40F20002 		movw	r2, #:lower16:.LANCHOR0
 268              		.loc 1 85 0
ARM GAS  /tmp/ccxHztRu.s 			page 19


 269 0004 40F20003 		movw	r3, #:lower16:.LANCHOR1
 270 0008 40F20001 		movw	r1, #:lower16:__heap_end__
 271              		.loc 1 84 0
 272 000c 0648     		ldr	r0, .L2
 273 000e C0F20002 		movt	r2, #:upper16:.LANCHOR0
 274              		.loc 1 85 0
 275 0012 C0F20003 		movt	r3, #:upper16:.LANCHOR1
 276 0016 C0F20001 		movt	r1, #:upper16:__heap_end__
 277              		.loc 1 84 0
 278 001a 20F00700 		bic	r0, r0, #7
 279              		.loc 1 85 0
 280 001e 21F00701 		bic	r1, r1, #7
 281              		.loc 1 84 0
 282 0022 1060     		str	r0, [r2, #0]
 283              		.loc 1 85 0
 284 0024 1960     		str	r1, [r3, #0]
 285 0026 7047     		bx	lr
 286              	.L3:
 287              		.align	2
 288              	.L2:
 289 0028 07000000 		.word	__heap_base__+7
 290              		.cfi_endproc
 291              	.LFE241:
 292              		.size	_core_init, .-_core_init
 293 002c AFF30080 		.section	.text.chCoreAlloc,"ax",%progbits
 294              		.align	2
 295              		.p2align 4,,15
 296              		.global	chCoreAlloc
 297              		.thumb
 298              		.thumb_func
 299              		.type	chCoreAlloc, %function
 300              	chCoreAlloc:
 301              	.LFB242:
 302              		.loc 1 109 0
 303              		.cfi_startproc
 304              		@ args = 0, pretend = 0, frame = 0
 305              		@ frame_needed = 0, uses_anonymous_args = 0
 306              		@ link register save eliminated.
 307              	.LVL0:
 308              	.LBB26:
 309              	.LBB27:
 310              	.LBB28:
 311              	.LBB29:
 312              		.file 2 "../../../os/ext/CMSIS/include/core_cmFunc.h"
 313              		.loc 2 548 0
 314 0000 2023     		movs	r3, #32
 315              	@ 548 "../../../os/ext/CMSIS/include/core_cmFunc.h" 1
 316 0002 83F31188 		MSR basepri, r3
 317              	@ 0 "" 2
 318              	.LVL1:
 319              		.thumb
 320              	.LBE29:
 321              	.LBE28:
 322              	.LBE27:
 323              	.LBE26:
 324              	.LBB30:
 325              	.LBB31:
ARM GAS  /tmp/ccxHztRu.s 			page 20


 326              		.loc 1 138 0
 327 0006 094A     		ldr	r2, .L7
 328 0008 0949     		ldr	r1, .L7+4
 329 000a 1368     		ldr	r3, [r2, #0]
 330 000c 0968     		ldr	r1, [r1, #0]
 331              		.loc 1 136 0
 332 000e 0730     		adds	r0, r0, #7
 333              	.LVL2:
 334 0010 20F00700 		bic	r0, r0, #7
 335              	.LVL3:
 336              		.loc 1 138 0
 337 0014 C91A     		subs	r1, r1, r3
 338 0016 8842     		cmp	r0, r1
 339              	.LVL4:
 340              		.loc 1 143 0
 341 0018 9ABF     		itte	ls
 342 001a 1818     		addls	r0, r3, r0
 343              	.LVL5:
 344 001c 1060     		strls	r0, [r2, #0]
 345              		.loc 1 140 0
 346 001e 0023     		movhi	r3, #0
 347              	.LVL6:
 348              	.LBE31:
 349              	.LBE30:
 350              	.LBB32:
 351              	.LBB33:
 352              	.LBB34:
 353              	.LBB35:
 354              	.LBB36:
 355              		.loc 2 548 0
 356 0020 0022     		movs	r2, #0
 357              	@ 548 "../../../os/ext/CMSIS/include/core_cmFunc.h" 1
 358 0022 82F31188 		MSR basepri, r2
 359              	@ 0 "" 2
 360              		.thumb
 361              	.LBE36:
 362              	.LBE35:
 363              	.LBE34:
 364              	.LBE33:
 365              	.LBE32:
 366              		.loc 1 117 0
 367 0026 1846     		mov	r0, r3
 368 0028 7047     		bx	lr
 369              	.L8:
 370 002a 00BF     		.align	2
 371              	.L7:
 372 002c 00000000 		.word	.LANCHOR0
 373 0030 00000000 		.word	.LANCHOR1
 374              		.cfi_endproc
 375              	.LFE242:
 376              		.size	chCoreAlloc, .-chCoreAlloc
 377 0034 AFF30080 		.section	.text.chCoreAllocI,"ax",%progbits
 377      AFF30080 
 377      AFF30080 
 378              		.align	2
 379              		.p2align 4,,15
 380              		.global	chCoreAllocI
ARM GAS  /tmp/ccxHztRu.s 			page 21


 381              		.thumb
 382              		.thumb_func
 383              		.type	chCoreAllocI, %function
 384              	chCoreAllocI:
 385              	.LFB243:
 386              		.loc 1 131 0
 387              		.cfi_startproc
 388              		@ args = 0, pretend = 0, frame = 0
 389              		@ frame_needed = 0, uses_anonymous_args = 0
 390              		@ link register save eliminated.
 391              	.LVL7:
 392              		.loc 1 138 0
 393 0000 074A     		ldr	r2, .L12
 394 0002 0849     		ldr	r1, .L12+4
 395 0004 1368     		ldr	r3, [r2, #0]
 396 0006 0968     		ldr	r1, [r1, #0]
 397              		.loc 1 136 0
 398 0008 0730     		adds	r0, r0, #7
 399              	.LVL8:
 400 000a 20F00700 		bic	r0, r0, #7
 401              	.LVL9:
 402              		.loc 1 138 0
 403 000e C91A     		subs	r1, r1, r3
 404 0010 8842     		cmp	r0, r1
 405              	.LVL10:
 406              		.loc 1 143 0
 407 0012 9ABF     		itte	ls
 408 0014 1818     		addls	r0, r3, r0
 409              	.LVL11:
 410 0016 1060     		strls	r0, [r2, #0]
 411              		.loc 1 140 0
 412 0018 0023     		movhi	r3, #0
 413              	.LVL12:
 414              		.loc 1 146 0
 415 001a 1846     		mov	r0, r3
 416 001c 7047     		bx	lr
 417              	.L13:
 418 001e 00BF     		.align	2
 419              	.L12:
 420 0020 00000000 		.word	.LANCHOR0
 421 0024 00000000 		.word	.LANCHOR1
 422              		.cfi_endproc
 423              	.LFE243:
 424              		.size	chCoreAllocI, .-chCoreAllocI
 425 0028 AFF30080 		.section	.text.chCoreGetStatusX,"ax",%progbits
 425      AFF30080 
 426              		.align	2
 427              		.p2align 4,,15
 428              		.global	chCoreGetStatusX
 429              		.thumb
 430              		.thumb_func
 431              		.type	chCoreGetStatusX, %function
 432              	chCoreGetStatusX:
 433              	.LFB244:
 434              		.loc 1 155 0
 435              		.cfi_startproc
 436              		@ args = 0, pretend = 0, frame = 0
ARM GAS  /tmp/ccxHztRu.s 			page 22


 437              		@ frame_needed = 0, uses_anonymous_args = 0
 438              		@ link register save eliminated.
 439              		.loc 1 158 0
 440 0000 40F20002 		movw	r2, #:lower16:.LANCHOR1
 441 0004 40F20003 		movw	r3, #:lower16:.LANCHOR0
 442 0008 C0F20002 		movt	r2, #:upper16:.LANCHOR1
 443 000c C0F20003 		movt	r3, #:upper16:.LANCHOR0
 444 0010 1068     		ldr	r0, [r2, #0]
 445 0012 1B68     		ldr	r3, [r3, #0]
 446              		.loc 1 160 0
 447 0014 C01A     		subs	r0, r0, r3
 448 0016 7047     		bx	lr
 449              		.cfi_endproc
 450              	.LFE244:
 451              		.size	chCoreGetStatusX, .-chCoreGetStatusX
 452 0018 AFF30080 		.section	.bss.endmem,"aw",%nobits
 452      AFF30080 
 453              		.align	2
 454              		.set	.LANCHOR1,. + 0
 455              		.type	endmem, %object
 456              		.size	endmem, 4
 457              	endmem:
 458 0000 00000000 		.space	4
 459              		.section	.bss.nextmem,"aw",%nobits
 460              		.align	2
 461              		.set	.LANCHOR0,. + 0
 462              		.type	nextmem, %object
 463              		.size	nextmem, 4
 464              	nextmem:
 465 0000 00000000 		.space	4
 466              		.text
 467              	.Letext0:
 468              		.file 3 "/usr/local/bin/../lib/gcc/arm-none-eabi/4.7.2/include/stddef.h"
 469              		.file 4 "/usr/local/bin/../lib/gcc/arm-none-eabi/4.7.2/../../../../arm-none-eabi/include/stdint.h"
 470              		.file 5 "../../../os/rt/ports/ARMCMx/compilers/GCC/chtypes.h"
 471              		.file 6 "../../../os/rt/include/chsystypes.h"
 472              		.file 7 "../../../os/rt/include/chschd.h"
 473              		.file 8 "../../../os/rt/ports/ARMCMx/chcore.h"
 474              		.file 9 "../../../os/rt/ports/ARMCMx/chcore_v7m.h"
 475              		.file 10 "../../../os/rt/include/chtm.h"
 476              		.file 11 "../../../os/rt/include/chsem.h"
 477              		.file 12 "../../../os/rt/include/chmtx.h"
 478              		.file 13 "../../../os/rt/include/chsys.h"
 479              		.file 14 "../../../os/ext/CMSIS/include/core_cm4.h"
 480              		.section	.debug_info,"",%progbits
 481              	.Ldebug_info0:
 482 0000 CC080000 		.4byte	0x8cc
 483 0004 0200     		.2byte	0x2
 484 0006 00000000 		.4byte	.Ldebug_abbrev0
 485 000a 04       		.byte	0x4
 486 000b 01       		.uleb128 0x1
 487 000c 31010000 		.4byte	.LASF111
 488 0010 01       		.byte	0x1
 489 0011 9B030000 		.4byte	.LASF112
 490 0015 3B040000 		.4byte	.LASF113
 491 0019 00000000 		.4byte	.Ldebug_ranges0+0
 492 001d 00000000 		.4byte	0
ARM GAS  /tmp/ccxHztRu.s 			page 23


 493 0021 00000000 		.4byte	0
 494 0025 00000000 		.4byte	.Ldebug_line0
 495 0029 02       		.uleb128 0x2
 496 002a 04       		.byte	0x4
 497 002b 05       		.byte	0x5
 498 002c 696E7400 		.ascii	"int\000"
 499 0030 03       		.uleb128 0x3
 500 0031 E8010000 		.4byte	.LASF2
 501 0035 03       		.byte	0x3
 502 0036 D5       		.byte	0xd5
 503 0037 3B000000 		.4byte	0x3b
 504 003b 04       		.uleb128 0x4
 505 003c 04       		.byte	0x4
 506 003d 07       		.byte	0x7
 507 003e 7C000000 		.4byte	.LASF0
 508 0042 04       		.uleb128 0x4
 509 0043 01       		.byte	0x1
 510 0044 06       		.byte	0x6
 511 0045 AD040000 		.4byte	.LASF1
 512 0049 03       		.uleb128 0x3
 513 004a 64020000 		.4byte	.LASF3
 514 004e 04       		.byte	0x4
 515 004f 2A       		.byte	0x2a
 516 0050 54000000 		.4byte	0x54
 517 0054 04       		.uleb128 0x4
 518 0055 01       		.byte	0x1
 519 0056 08       		.byte	0x8
 520 0057 08040000 		.4byte	.LASF4
 521 005b 04       		.uleb128 0x4
 522 005c 02       		.byte	0x2
 523 005d 05       		.byte	0x5
 524 005e 1E030000 		.4byte	.LASF5
 525 0062 04       		.uleb128 0x4
 526 0063 02       		.byte	0x2
 527 0064 07       		.byte	0x7
 528 0065 B9040000 		.4byte	.LASF6
 529 0069 03       		.uleb128 0x3
 530 006a F1030000 		.4byte	.LASF7
 531 006e 04       		.byte	0x4
 532 006f 4F       		.byte	0x4f
 533 0070 74000000 		.4byte	0x74
 534 0074 04       		.uleb128 0x4
 535 0075 04       		.byte	0x4
 536 0076 05       		.byte	0x5
 537 0077 45030000 		.4byte	.LASF8
 538 007b 03       		.uleb128 0x3
 539 007c 15010000 		.4byte	.LASF9
 540 0080 04       		.byte	0x4
 541 0081 50       		.byte	0x50
 542 0082 86000000 		.4byte	0x86
 543 0086 04       		.uleb128 0x4
 544 0087 04       		.byte	0x4
 545 0088 07       		.byte	0x7
 546 0089 D2030000 		.4byte	.LASF10
 547 008d 04       		.uleb128 0x4
 548 008e 08       		.byte	0x8
 549 008f 05       		.byte	0x5
ARM GAS  /tmp/ccxHztRu.s 			page 24


 550 0090 97020000 		.4byte	.LASF11
 551 0094 03       		.uleb128 0x3
 552 0095 86030000 		.4byte	.LASF12
 553 0099 04       		.byte	0x4
 554 009a 78       		.byte	0x78
 555 009b 9F000000 		.4byte	0x9f
 556 009f 04       		.uleb128 0x4
 557 00a0 08       		.byte	0x8
 558 00a1 07       		.byte	0x7
 559 00a2 6A010000 		.4byte	.LASF13
 560 00a6 03       		.uleb128 0x3
 561 00a7 0B030000 		.4byte	.LASF14
 562 00ab 05       		.byte	0x5
 563 00ac 39       		.byte	0x39
 564 00ad 7B000000 		.4byte	0x7b
 565 00b1 03       		.uleb128 0x3
 566 00b2 F8020000 		.4byte	.LASF15
 567 00b6 05       		.byte	0x5
 568 00b7 3C       		.byte	0x3c
 569 00b8 49000000 		.4byte	0x49
 570 00bc 03       		.uleb128 0x3
 571 00bd 3F020000 		.4byte	.LASF16
 572 00c1 05       		.byte	0x5
 573 00c2 3D       		.byte	0x3d
 574 00c3 49000000 		.4byte	0x49
 575 00c7 03       		.uleb128 0x3
 576 00c8 CA030000 		.4byte	.LASF17
 577 00cc 05       		.byte	0x5
 578 00cd 3E       		.byte	0x3e
 579 00ce 49000000 		.4byte	0x49
 580 00d2 03       		.uleb128 0x3
 581 00d3 51010000 		.4byte	.LASF18
 582 00d7 05       		.byte	0x5
 583 00d8 40       		.byte	0x40
 584 00d9 7B000000 		.4byte	0x7b
 585 00dd 03       		.uleb128 0x3
 586 00de B5020000 		.4byte	.LASF19
 587 00e2 05       		.byte	0x5
 588 00e3 41       		.byte	0x41
 589 00e4 69000000 		.4byte	0x69
 590 00e8 03       		.uleb128 0x3
 591 00e9 1E010000 		.4byte	.LASF20
 592 00ed 05       		.byte	0x5
 593 00ee 43       		.byte	0x43
 594 00ef 7B000000 		.4byte	0x7b
 595 00f3 03       		.uleb128 0x3
 596 00f4 81010000 		.4byte	.LASF21
 597 00f8 05       		.byte	0x5
 598 00f9 45       		.byte	0x45
 599 00fa 69000000 		.4byte	0x69
 600 00fe 03       		.uleb128 0x3
 601 00ff 57000000 		.4byte	.LASF22
 602 0103 06       		.byte	0x6
 603 0104 33       		.byte	0x33
 604 0105 7B000000 		.4byte	0x7b
 605 0109 03       		.uleb128 0x3
 606 010a C6010000 		.4byte	.LASF23
ARM GAS  /tmp/ccxHztRu.s 			page 25


 607 010e 06       		.byte	0x6
 608 010f 3F       		.byte	0x3f
 609 0110 14010000 		.4byte	0x114
 610 0114 05       		.uleb128 0x5
 611 0115 7E020000 		.4byte	.LASF43
 612 0119 44       		.byte	0x44
 613 011a 07       		.byte	0x7
 614 011b C2       		.byte	0xc2
 615 011c 25020000 		.4byte	0x225
 616 0120 06       		.uleb128 0x6
 617 0121 7F030000 		.4byte	.LASF24
 618 0125 07       		.byte	0x7
 619 0126 C3       		.byte	0xc3
 620 0127 30020000 		.4byte	0x230
 621 012b 02       		.byte	0x2
 622 012c 23       		.byte	0x23
 623 012d 00       		.uleb128 0
 624 012e 06       		.uleb128 0x6
 625 012f BA030000 		.4byte	.LASF25
 626 0133 07       		.byte	0x7
 627 0134 C5       		.byte	0xc5
 628 0135 30020000 		.4byte	0x230
 629 0139 02       		.byte	0x2
 630 013a 23       		.byte	0x23
 631 013b 04       		.uleb128 0x4
 632 013c 06       		.uleb128 0x6
 633 013d 50000000 		.4byte	.LASF26
 634 0141 07       		.byte	0x7
 635 0142 C7       		.byte	0xc7
 636 0143 D2000000 		.4byte	0xd2
 637 0147 02       		.byte	0x2
 638 0148 23       		.byte	0x23
 639 0149 08       		.uleb128 0x8
 640 014a 06       		.uleb128 0x6
 641 014b 8F030000 		.4byte	.LASF27
 642 014f 07       		.byte	0x7
 643 0150 C8       		.byte	0xc8
 644 0151 93040000 		.4byte	0x493
 645 0155 02       		.byte	0x2
 646 0156 23       		.byte	0x23
 647 0157 0C       		.uleb128 0xc
 648 0158 06       		.uleb128 0x6
 649 0159 A1010000 		.4byte	.LASF28
 650 015d 07       		.byte	0x7
 651 015e CA       		.byte	0xca
 652 015f 30020000 		.4byte	0x230
 653 0163 02       		.byte	0x2
 654 0164 23       		.byte	0x23
 655 0165 10       		.uleb128 0x10
 656 0166 06       		.uleb128 0x6
 657 0167 48020000 		.4byte	.LASF29
 658 016b 07       		.byte	0x7
 659 016c CB       		.byte	0xcb
 660 016d 30020000 		.4byte	0x230
 661 0171 02       		.byte	0x2
 662 0172 23       		.byte	0x23
 663 0173 14       		.uleb128 0x14
ARM GAS  /tmp/ccxHztRu.s 			page 26


 664 0174 06       		.uleb128 0x6
 665 0175 10020000 		.4byte	.LASF30
 666 0179 07       		.byte	0x7
 667 017a D2       		.byte	0xd2
 668 017b 32060000 		.4byte	0x632
 669 017f 02       		.byte	0x2
 670 0180 23       		.byte	0x23
 671 0181 18       		.uleb128 0x18
 672 0182 06       		.uleb128 0x6
 673 0183 50020000 		.4byte	.LASF31
 674 0187 07       		.byte	0x7
 675 0188 DD       		.byte	0xdd
 676 0189 BC000000 		.4byte	0xbc
 677 018d 02       		.byte	0x2
 678 018e 23       		.byte	0x23
 679 018f 1C       		.uleb128 0x1c
 680 0190 06       		.uleb128 0x6
 681 0191 C3020000 		.4byte	.LASF32
 682 0195 07       		.byte	0x7
 683 0196 E1       		.byte	0xe1
 684 0197 B1000000 		.4byte	0xb1
 685 019b 02       		.byte	0x2
 686 019c 23       		.byte	0x23
 687 019d 1D       		.uleb128 0x1d
 688 019e 06       		.uleb128 0x6
 689 019f 2C040000 		.4byte	.LASF33
 690 01a3 07       		.byte	0x7
 691 01a4 E6       		.byte	0xe6
 692 01a5 C7000000 		.4byte	0xc7
 693 01a9 02       		.byte	0x2
 694 01aa 23       		.byte	0x23
 695 01ab 1E       		.uleb128 0x1e
 696 01ac 07       		.uleb128 0x7
 697 01ad 705F7500 		.ascii	"p_u\000"
 698 01b1 07       		.byte	0x7
 699 01b2 3101     		.2byte	0x131
 700 01b4 63050000 		.4byte	0x563
 701 01b8 02       		.byte	0x2
 702 01b9 23       		.byte	0x23
 703 01ba 20       		.uleb128 0x20
 704 01bb 08       		.uleb128 0x8
 705 01bc 20000000 		.4byte	.LASF34
 706 01c0 07       		.byte	0x7
 707 01c1 3601     		.2byte	0x136
 708 01c3 36020000 		.4byte	0x236
 709 01c7 02       		.byte	0x2
 710 01c8 23       		.byte	0x23
 711 01c9 24       		.uleb128 0x24
 712 01ca 08       		.uleb128 0x8
 713 01cb 71000000 		.4byte	.LASF35
 714 01cf 07       		.byte	0x7
 715 01d0 3C01     		.2byte	0x13c
 716 01d2 5C020000 		.4byte	0x25c
 717 01d6 02       		.byte	0x2
 718 01d7 23       		.byte	0x23
 719 01d8 28       		.uleb128 0x28
 720 01d9 08       		.uleb128 0x8
ARM GAS  /tmp/ccxHztRu.s 			page 27


 721 01da F2020000 		.4byte	.LASF36
 722 01de 07       		.byte	0x7
 723 01df 4001     		.2byte	0x140
 724 01e1 DD000000 		.4byte	0xdd
 725 01e5 02       		.byte	0x2
 726 01e6 23       		.byte	0x23
 727 01e7 30       		.uleb128 0x30
 728 01e8 08       		.uleb128 0x8
 729 01e9 32030000 		.4byte	.LASF37
 730 01ed 07       		.byte	0x7
 731 01ee 4601     		.2byte	0x146
 732 01f0 E8000000 		.4byte	0xe8
 733 01f4 02       		.byte	0x2
 734 01f5 23       		.byte	0x23
 735 01f6 34       		.uleb128 0x34
 736 01f7 08       		.uleb128 0x8
 737 01f8 74020000 		.4byte	.LASF38
 738 01fc 07       		.byte	0x7
 739 01fd 4D01     		.2byte	0x14d
 740 01ff 2C060000 		.4byte	0x62c
 741 0203 02       		.byte	0x2
 742 0204 23       		.byte	0x23
 743 0205 38       		.uleb128 0x38
 744 0206 08       		.uleb128 0x8
 745 0207 13030000 		.4byte	.LASF39
 746 020b 07       		.byte	0x7
 747 020c 5101     		.2byte	0x151
 748 020e D2000000 		.4byte	0xd2
 749 0212 02       		.byte	0x2
 750 0213 23       		.byte	0x23
 751 0214 3C       		.uleb128 0x3c
 752 0215 08       		.uleb128 0x8
 753 0216 6C020000 		.4byte	.LASF40
 754 021a 07       		.byte	0x7
 755 021b 5801     		.2byte	0x158
 756 021d 20030000 		.4byte	0x320
 757 0221 02       		.byte	0x2
 758 0222 23       		.byte	0x23
 759 0223 40       		.uleb128 0x40
 760 0224 00       		.byte	0
 761 0225 03       		.uleb128 0x3
 762 0226 20020000 		.4byte	.LASF41
 763 022a 06       		.byte	0x6
 764 022b 44       		.byte	0x44
 765 022c 30020000 		.4byte	0x230
 766 0230 09       		.uleb128 0x9
 767 0231 04       		.byte	0x4
 768 0232 09010000 		.4byte	0x109
 769 0236 03       		.uleb128 0x3
 770 0237 89000000 		.4byte	.LASF42
 771 023b 06       		.byte	0x6
 772 023c 49       		.byte	0x49
 773 023d 41020000 		.4byte	0x241
 774 0241 05       		.uleb128 0x5
 775 0242 00000000 		.4byte	.LASF44
 776 0246 04       		.byte	0x4
 777 0247 07       		.byte	0x7
ARM GAS  /tmp/ccxHztRu.s 			page 28


 778 0248 B0       		.byte	0xb0
 779 0249 5C020000 		.4byte	0x25c
 780 024d 06       		.uleb128 0x6
 781 024e 7F030000 		.4byte	.LASF24
 782 0252 07       		.byte	0x7
 783 0253 B1       		.byte	0xb1
 784 0254 30020000 		.4byte	0x230
 785 0258 02       		.byte	0x2
 786 0259 23       		.byte	0x23
 787 025a 00       		.uleb128 0
 788 025b 00       		.byte	0
 789 025c 03       		.uleb128 0x3
 790 025d 10000000 		.4byte	.LASF45
 791 0261 06       		.byte	0x6
 792 0262 50       		.byte	0x50
 793 0263 67020000 		.4byte	0x267
 794 0267 05       		.uleb128 0x5
 795 0268 D4000000 		.4byte	.LASF46
 796 026c 08       		.byte	0x8
 797 026d 07       		.byte	0x7
 798 026e B7       		.byte	0xb7
 799 026f 90020000 		.4byte	0x290
 800 0273 06       		.uleb128 0x6
 801 0274 7F030000 		.4byte	.LASF24
 802 0278 07       		.byte	0x7
 803 0279 B8       		.byte	0xb8
 804 027a 30020000 		.4byte	0x230
 805 027e 02       		.byte	0x2
 806 027f 23       		.byte	0x23
 807 0280 00       		.uleb128 0
 808 0281 06       		.uleb128 0x6
 809 0282 BA030000 		.4byte	.LASF25
 810 0286 07       		.byte	0x7
 811 0287 B9       		.byte	0xb9
 812 0288 30020000 		.4byte	0x230
 813 028c 02       		.byte	0x2
 814 028d 23       		.byte	0x23
 815 028e 04       		.uleb128 0x4
 816 028f 00       		.byte	0
 817 0290 03       		.uleb128 0x3
 818 0291 E4030000 		.4byte	.LASF47
 819 0295 06       		.byte	0x6
 820 0296 57       		.byte	0x57
 821 0297 9B020000 		.4byte	0x29b
 822 029b 0A       		.uleb128 0xa
 823 029c B0000000 		.4byte	.LASF48
 824 02a0 1C       		.byte	0x1c
 825 02a1 07       		.byte	0x7
 826 02a2 9001     		.2byte	0x190
 827 02a4 03030000 		.4byte	0x303
 828 02a8 08       		.uleb128 0x8
 829 02a9 A5020000 		.4byte	.LASF49
 830 02ad 07       		.byte	0x7
 831 02ae 9101     		.2byte	0x191
 832 02b0 5C020000 		.4byte	0x25c
 833 02b4 02       		.byte	0x2
 834 02b5 23       		.byte	0x23
ARM GAS  /tmp/ccxHztRu.s 			page 29


 835 02b6 00       		.uleb128 0
 836 02b7 08       		.uleb128 0x8
 837 02b8 2A010000 		.4byte	.LASF50
 838 02bc 07       		.byte	0x7
 839 02bd 9201     		.2byte	0x192
 840 02bf D2000000 		.4byte	0xd2
 841 02c3 02       		.byte	0x2
 842 02c4 23       		.byte	0x23
 843 02c5 08       		.uleb128 0x8
 844 02c6 08       		.uleb128 0x8
 845 02c7 CC040000 		.4byte	.LASF51
 846 02cb 07       		.byte	0x7
 847 02cc 9401     		.2byte	0x194
 848 02ce 93040000 		.4byte	0x493
 849 02d2 02       		.byte	0x2
 850 02d3 23       		.byte	0x23
 851 02d4 0C       		.uleb128 0xc
 852 02d5 08       		.uleb128 0x8
 853 02d6 AD020000 		.4byte	.LASF52
 854 02da 07       		.byte	0x7
 855 02db 9701     		.2byte	0x197
 856 02dd 30020000 		.4byte	0x230
 857 02e1 02       		.byte	0x2
 858 02e2 23       		.byte	0x23
 859 02e3 10       		.uleb128 0x10
 860 02e4 08       		.uleb128 0x8
 861 02e5 E0020000 		.4byte	.LASF53
 862 02e9 07       		.byte	0x7
 863 02ea 9801     		.2byte	0x198
 864 02ec 30020000 		.4byte	0x230
 865 02f0 02       		.byte	0x2
 866 02f1 23       		.byte	0x23
 867 02f2 14       		.uleb128 0x14
 868 02f3 08       		.uleb128 0x8
 869 02f4 28030000 		.4byte	.LASF54
 870 02f8 07       		.byte	0x7
 871 02f9 9B01     		.2byte	0x19b
 872 02fb 30020000 		.4byte	0x230
 873 02ff 02       		.byte	0x2
 874 0300 23       		.byte	0x23
 875 0301 18       		.uleb128 0x18
 876 0302 00       		.byte	0
 877 0303 03       		.uleb128 0x3
 878 0304 E5000000 		.4byte	.LASF55
 879 0308 06       		.byte	0x6
 880 0309 5C       		.byte	0x5c
 881 030a 0E030000 		.4byte	0x30e
 882 030e 09       		.uleb128 0x9
 883 030f 04       		.byte	0x4
 884 0310 14030000 		.4byte	0x314
 885 0314 0B       		.uleb128 0xb
 886 0315 01       		.byte	0x1
 887 0316 20030000 		.4byte	0x320
 888 031a 0C       		.uleb128 0xc
 889 031b 20030000 		.4byte	0x320
 890 031f 00       		.byte	0
 891 0320 0D       		.uleb128 0xd
ARM GAS  /tmp/ccxHztRu.s 			page 30


 892 0321 04       		.byte	0x4
 893 0322 03       		.uleb128 0x3
 894 0323 CB020000 		.4byte	.LASF56
 895 0327 06       		.byte	0x6
 896 0328 61       		.byte	0x61
 897 0329 2D030000 		.4byte	0x32d
 898 032d 0A       		.uleb128 0xa
 899 032e 59010000 		.4byte	.LASF57
 900 0332 14       		.byte	0x14
 901 0333 07       		.byte	0x7
 902 0334 6B01     		.2byte	0x16b
 903 0336 86030000 		.4byte	0x386
 904 033a 08       		.uleb128 0x8
 905 033b 33040000 		.4byte	.LASF58
 906 033f 07       		.byte	0x7
 907 0340 6C01     		.2byte	0x16c
 908 0342 44060000 		.4byte	0x644
 909 0346 02       		.byte	0x2
 910 0347 23       		.byte	0x23
 911 0348 00       		.uleb128 0
 912 0349 08       		.uleb128 0x8
 913 034a F8040000 		.4byte	.LASF59
 914 034e 07       		.byte	0x7
 915 034f 6D01     		.2byte	0x16d
 916 0351 44060000 		.4byte	0x644
 917 0355 02       		.byte	0x2
 918 0356 23       		.byte	0x23
 919 0357 04       		.uleb128 0x4
 920 0358 08       		.uleb128 0x8
 921 0359 17020000 		.4byte	.LASF60
 922 035d 07       		.byte	0x7
 923 035e 6E01     		.2byte	0x16e
 924 0360 FE000000 		.4byte	0xfe
 925 0364 02       		.byte	0x2
 926 0365 23       		.byte	0x23
 927 0366 08       		.uleb128 0x8
 928 0367 08       		.uleb128 0x8
 929 0368 E4040000 		.4byte	.LASF61
 930 036c 07       		.byte	0x7
 931 036d 6F01     		.2byte	0x16f
 932 036f 03030000 		.4byte	0x303
 933 0373 02       		.byte	0x2
 934 0374 23       		.byte	0x23
 935 0375 0C       		.uleb128 0xc
 936 0376 08       		.uleb128 0x8
 937 0377 3D010000 		.4byte	.LASF62
 938 037b 07       		.byte	0x7
 939 037c 7101     		.2byte	0x171
 940 037e 20030000 		.4byte	0x320
 941 0382 02       		.byte	0x2
 942 0383 23       		.byte	0x23
 943 0384 10       		.uleb128 0x10
 944 0385 00       		.byte	0
 945 0386 03       		.uleb128 0x3
 946 0387 16040000 		.4byte	.LASF63
 947 038b 06       		.byte	0x6
 948 038c 66       		.byte	0x66
ARM GAS  /tmp/ccxHztRu.s 			page 31


 949 038d 91030000 		.4byte	0x391
 950 0391 0A       		.uleb128 0xa
 951 0392 AF010000 		.4byte	.LASF64
 952 0396 10       		.byte	0x10
 953 0397 07       		.byte	0x7
 954 0398 7B01     		.2byte	0x17b
 955 039a DB030000 		.4byte	0x3db
 956 039e 08       		.uleb128 0x8
 957 039f 33040000 		.4byte	.LASF58
 958 03a3 07       		.byte	0x7
 959 03a4 7C01     		.2byte	0x17c
 960 03a6 44060000 		.4byte	0x644
 961 03aa 02       		.byte	0x2
 962 03ab 23       		.byte	0x23
 963 03ac 00       		.uleb128 0
 964 03ad 08       		.uleb128 0x8
 965 03ae F8040000 		.4byte	.LASF59
 966 03b2 07       		.byte	0x7
 967 03b3 7E01     		.2byte	0x17e
 968 03b5 44060000 		.4byte	0x644
 969 03b9 02       		.byte	0x2
 970 03ba 23       		.byte	0x23
 971 03bb 04       		.uleb128 0x4
 972 03bc 08       		.uleb128 0x8
 973 03bd 17020000 		.4byte	.LASF60
 974 03c1 07       		.byte	0x7
 975 03c2 8001     		.2byte	0x180
 976 03c4 FE000000 		.4byte	0xfe
 977 03c8 02       		.byte	0x2
 978 03c9 23       		.byte	0x23
 979 03ca 08       		.uleb128 0x8
 980 03cb 08       		.uleb128 0x8
 981 03cc 33020000 		.4byte	.LASF65
 982 03d0 07       		.byte	0x7
 983 03d1 8801     		.2byte	0x188
 984 03d3 FE000000 		.4byte	0xfe
 985 03d7 02       		.byte	0x2
 986 03d8 23       		.byte	0x23
 987 03d9 0C       		.uleb128 0xc
 988 03da 00       		.byte	0
 989 03db 03       		.uleb128 0x3
 990 03dc 88020000 		.4byte	.LASF66
 991 03e0 06       		.byte	0x6
 992 03e1 6B       		.byte	0x6b
 993 03e2 E6030000 		.4byte	0x3e6
 994 03e6 0A       		.uleb128 0xa
 995 03e7 05010000 		.4byte	.LASF67
 996 03eb 04       		.byte	0x4
 997 03ec 07       		.byte	0x7
 998 03ed A201     		.2byte	0x1a2
 999 03ef 03040000 		.4byte	0x403
 1000 03f3 08       		.uleb128 0x8
 1001 03f4 E8020000 		.4byte	.LASF68
 1002 03f8 07       		.byte	0x7
 1003 03f9 AA01     		.2byte	0x1aa
 1004 03fb 4A060000 		.4byte	0x64a
 1005 03ff 02       		.byte	0x2
ARM GAS  /tmp/ccxHztRu.s 			page 32


 1006 0400 23       		.byte	0x23
 1007 0401 00       		.uleb128 0
 1008 0402 00       		.byte	0
 1009 0403 03       		.uleb128 0x3
 1010 0404 94040000 		.4byte	.LASF69
 1011 0408 06       		.byte	0x6
 1012 0409 70       		.byte	0x70
 1013 040a 0E040000 		.4byte	0x40e
 1014 040e 0E       		.uleb128 0xe
 1015 040f 67030000 		.4byte	.LASF70
 1016 0413 5001     		.2byte	0x150
 1017 0415 07       		.byte	0x7
 1018 0416 C201     		.2byte	0x1c2
 1019 0418 76040000 		.4byte	0x476
 1020 041c 08       		.uleb128 0x8
 1021 041d 95030000 		.4byte	.LASF71
 1022 0421 07       		.byte	0x7
 1023 0422 C601     		.2byte	0x1c6
 1024 0424 90020000 		.4byte	0x290
 1025 0428 02       		.byte	0x2
 1026 0429 23       		.byte	0x23
 1027 042a 00       		.uleb128 0
 1028 042b 08       		.uleb128 0x8
 1029 042c A9000000 		.4byte	.LASF72
 1030 0430 07       		.byte	0x7
 1031 0431 CA01     		.2byte	0x1ca
 1032 0433 86030000 		.4byte	0x386
 1033 0437 02       		.byte	0x2
 1034 0438 23       		.byte	0x23
 1035 0439 1C       		.uleb128 0x1c
 1036 043a 07       		.uleb128 0x7
 1037 043b 64626700 		.ascii	"dbg\000"
 1038 043f 07       		.byte	0x7
 1039 0440 CE01     		.2byte	0x1ce
 1040 0442 DB030000 		.4byte	0x3db
 1041 0446 02       		.byte	0x2
 1042 0447 23       		.byte	0x23
 1043 0448 2C       		.uleb128 0x2c
 1044 0449 08       		.uleb128 0x8
 1045 044a 00030000 		.4byte	.LASF73
 1046 044e 07       		.byte	0x7
 1047 044f D201     		.2byte	0x1d2
 1048 0451 09010000 		.4byte	0x109
 1049 0455 02       		.byte	0x2
 1050 0456 23       		.byte	0x23
 1051 0457 30       		.uleb128 0x30
 1052 0458 07       		.uleb128 0x7
 1053 0459 746D00   		.ascii	"tm\000"
 1054 045c 07       		.byte	0x7
 1055 045d D701     		.2byte	0x1d7
 1056 045f 58050000 		.4byte	0x558
 1057 0463 02       		.byte	0x2
 1058 0464 23       		.byte	0x23
 1059 0465 74       		.uleb128 0x74
 1060 0466 08       		.uleb128 0x8
 1061 0467 BE000000 		.4byte	.LASF74
 1062 046b 07       		.byte	0x7
ARM GAS  /tmp/ccxHztRu.s 			page 33


 1063 046c E301     		.2byte	0x1e3
 1064 046e 4F060000 		.4byte	0x64f
 1065 0472 02       		.byte	0x2
 1066 0473 23       		.byte	0x23
 1067 0474 78       		.uleb128 0x78
 1068 0475 00       		.byte	0
 1069 0476 04       		.uleb128 0x4
 1070 0477 04       		.byte	0x4
 1071 0478 07       		.byte	0x7
 1072 0479 C1030000 		.4byte	.LASF75
 1073 047d 03       		.uleb128 0x3
 1074 047e 47000000 		.4byte	.LASF76
 1075 0482 08       		.byte	0x8
 1076 0483 65       		.byte	0x65
 1077 0484 20030000 		.4byte	0x320
 1078 0488 03       		.uleb128 0x3
 1079 0489 D2040000 		.4byte	.LASF77
 1080 048d 08       		.byte	0x8
 1081 048e 6D       		.byte	0x6d
 1082 048f 94000000 		.4byte	0x94
 1083 0493 05       		.uleb128 0x5
 1084 0494 BB020000 		.4byte	.LASF78
 1085 0498 04       		.byte	0x4
 1086 0499 08       		.byte	0x8
 1087 049a 89       		.byte	0x89
 1088 049b AE040000 		.4byte	0x4ae
 1089 049f 0F       		.uleb128 0xf
 1090 04a0 72313300 		.ascii	"r13\000"
 1091 04a4 08       		.byte	0x8
 1092 04a5 8A       		.byte	0x8a
 1093 04a6 3B050000 		.4byte	0x53b
 1094 04aa 02       		.byte	0x2
 1095 04ab 23       		.byte	0x23
 1096 04ac 00       		.uleb128 0
 1097 04ad 00       		.byte	0
 1098 04ae 05       		.uleb128 0x5
 1099 04af 4E030000 		.4byte	.LASF79
 1100 04b3 24       		.byte	0x24
 1101 04b4 09       		.byte	0x9
 1102 04b5 FD       		.byte	0xfd
 1103 04b6 3B050000 		.4byte	0x53b
 1104 04ba 07       		.uleb128 0x7
 1105 04bb 723400   		.ascii	"r4\000"
 1106 04be 09       		.byte	0x9
 1107 04bf 1001     		.2byte	0x110
 1108 04c1 7D040000 		.4byte	0x47d
 1109 04c5 02       		.byte	0x2
 1110 04c6 23       		.byte	0x23
 1111 04c7 00       		.uleb128 0
 1112 04c8 07       		.uleb128 0x7
 1113 04c9 723500   		.ascii	"r5\000"
 1114 04cc 09       		.byte	0x9
 1115 04cd 1101     		.2byte	0x111
 1116 04cf 7D040000 		.4byte	0x47d
 1117 04d3 02       		.byte	0x2
 1118 04d4 23       		.byte	0x23
 1119 04d5 04       		.uleb128 0x4
ARM GAS  /tmp/ccxHztRu.s 			page 34


 1120 04d6 07       		.uleb128 0x7
 1121 04d7 723600   		.ascii	"r6\000"
 1122 04da 09       		.byte	0x9
 1123 04db 1201     		.2byte	0x112
 1124 04dd 7D040000 		.4byte	0x47d
 1125 04e1 02       		.byte	0x2
 1126 04e2 23       		.byte	0x23
 1127 04e3 08       		.uleb128 0x8
 1128 04e4 07       		.uleb128 0x7
 1129 04e5 723700   		.ascii	"r7\000"
 1130 04e8 09       		.byte	0x9
 1131 04e9 1301     		.2byte	0x113
 1132 04eb 7D040000 		.4byte	0x47d
 1133 04ef 02       		.byte	0x2
 1134 04f0 23       		.byte	0x23
 1135 04f1 0C       		.uleb128 0xc
 1136 04f2 07       		.uleb128 0x7
 1137 04f3 723800   		.ascii	"r8\000"
 1138 04f6 09       		.byte	0x9
 1139 04f7 1401     		.2byte	0x114
 1140 04f9 7D040000 		.4byte	0x47d
 1141 04fd 02       		.byte	0x2
 1142 04fe 23       		.byte	0x23
 1143 04ff 10       		.uleb128 0x10
 1144 0500 07       		.uleb128 0x7
 1145 0501 723900   		.ascii	"r9\000"
 1146 0504 09       		.byte	0x9
 1147 0505 1501     		.2byte	0x115
 1148 0507 7D040000 		.4byte	0x47d
 1149 050b 02       		.byte	0x2
 1150 050c 23       		.byte	0x23
 1151 050d 14       		.uleb128 0x14
 1152 050e 07       		.uleb128 0x7
 1153 050f 72313000 		.ascii	"r10\000"
 1154 0513 09       		.byte	0x9
 1155 0514 1601     		.2byte	0x116
 1156 0516 7D040000 		.4byte	0x47d
 1157 051a 02       		.byte	0x2
 1158 051b 23       		.byte	0x23
 1159 051c 18       		.uleb128 0x18
 1160 051d 07       		.uleb128 0x7
 1161 051e 72313100 		.ascii	"r11\000"
 1162 0522 09       		.byte	0x9
 1163 0523 1701     		.2byte	0x117
 1164 0525 7D040000 		.4byte	0x47d
 1165 0529 02       		.byte	0x2
 1166 052a 23       		.byte	0x23
 1167 052b 1C       		.uleb128 0x1c
 1168 052c 07       		.uleb128 0x7
 1169 052d 6C7200   		.ascii	"lr\000"
 1170 0530 09       		.byte	0x9
 1171 0531 1801     		.2byte	0x118
 1172 0533 7D040000 		.4byte	0x47d
 1173 0537 02       		.byte	0x2
 1174 0538 23       		.byte	0x23
 1175 0539 20       		.uleb128 0x20
 1176 053a 00       		.byte	0
ARM GAS  /tmp/ccxHztRu.s 			page 35


 1177 053b 09       		.uleb128 0x9
 1178 053c 04       		.byte	0x4
 1179 053d AE040000 		.4byte	0x4ae
 1180 0541 10       		.uleb128 0x10
 1181 0542 04       		.byte	0x4
 1182 0543 0A       		.byte	0xa
 1183 0544 38       		.byte	0x38
 1184 0545 58050000 		.4byte	0x558
 1185 0549 06       		.uleb128 0x6
 1186 054a F6010000 		.4byte	.LASF80
 1187 054e 0A       		.byte	0xa
 1188 054f 3C       		.byte	0x3c
 1189 0550 A6000000 		.4byte	0xa6
 1190 0554 02       		.byte	0x2
 1191 0555 23       		.byte	0x23
 1192 0556 00       		.uleb128 0
 1193 0557 00       		.byte	0
 1194 0558 03       		.uleb128 0x3
 1195 0559 31000000 		.4byte	.LASF81
 1196 055d 0A       		.byte	0xa
 1197 055e 3D       		.byte	0x3d
 1198 055f 41050000 		.4byte	0x541
 1199 0563 11       		.uleb128 0x11
 1200 0564 04       		.byte	0x4
 1201 0565 07       		.byte	0x7
 1202 0566 FA       		.byte	0xfa
 1203 0567 C0050000 		.4byte	0x5c0
 1204 056b 12       		.uleb128 0x12
 1205 056c EF010000 		.4byte	.LASF82
 1206 0570 07       		.byte	0x7
 1207 0571 0101     		.2byte	0x101
 1208 0573 DD000000 		.4byte	0xdd
 1209 0577 12       		.uleb128 0x12
 1210 0578 15050000 		.4byte	.LASF83
 1211 057c 07       		.byte	0x7
 1212 057d 0801     		.2byte	0x108
 1213 057f DD000000 		.4byte	0xdd
 1214 0583 12       		.uleb128 0x12
 1215 0584 98000000 		.4byte	.LASF84
 1216 0588 07       		.byte	0x7
 1217 0589 0F01     		.2byte	0x10f
 1218 058b 20030000 		.4byte	0x320
 1219 058f 12       		.uleb128 0x12
 1220 0590 A0040000 		.4byte	.LASF85
 1221 0594 07       		.byte	0x7
 1222 0595 1601     		.2byte	0x116
 1223 0597 C0050000 		.4byte	0x5c0
 1224 059b 12       		.uleb128 0x12
 1225 059c F9030000 		.4byte	.LASF86
 1226 05a0 07       		.byte	0x7
 1227 05a1 1E01     		.2byte	0x11e
 1228 05a3 EF050000 		.4byte	0x5ef
 1229 05a7 12       		.uleb128 0x12
 1230 05a8 2A000000 		.4byte	.LASF87
 1231 05ac 07       		.byte	0x7
 1232 05ad 2701     		.2byte	0x127
 1233 05af 2C060000 		.4byte	0x62c
ARM GAS  /tmp/ccxHztRu.s 			page 36


 1234 05b3 12       		.uleb128 0x12
 1235 05b4 CD000000 		.4byte	.LASF88
 1236 05b8 07       		.byte	0x7
 1237 05b9 2F01     		.2byte	0x12f
 1238 05bb E8000000 		.4byte	0xe8
 1239 05bf 00       		.byte	0
 1240 05c0 09       		.uleb128 0x9
 1241 05c1 04       		.byte	0x4
 1242 05c2 25020000 		.4byte	0x225
 1243 05c6 05       		.uleb128 0x5
 1244 05c7 44010000 		.4byte	.LASF89
 1245 05cb 0C       		.byte	0xc
 1246 05cc 0B       		.byte	0xb
 1247 05cd 34       		.byte	0x34
 1248 05ce EF050000 		.4byte	0x5ef
 1249 05d2 06       		.uleb128 0x6
 1250 05d3 69000000 		.4byte	.LASF90
 1251 05d7 0B       		.byte	0xb
 1252 05d8 35       		.byte	0x35
 1253 05d9 5C020000 		.4byte	0x25c
 1254 05dd 02       		.byte	0x2
 1255 05de 23       		.byte	0x23
 1256 05df 00       		.uleb128 0
 1257 05e0 06       		.uleb128 0x6
 1258 05e1 FF000000 		.4byte	.LASF91
 1259 05e5 0B       		.byte	0xb
 1260 05e6 37       		.byte	0x37
 1261 05e7 F3000000 		.4byte	0xf3
 1262 05eb 02       		.byte	0x2
 1263 05ec 23       		.byte	0x23
 1264 05ed 08       		.uleb128 0x8
 1265 05ee 00       		.byte	0
 1266 05ef 09       		.uleb128 0x9
 1267 05f0 04       		.byte	0x4
 1268 05f1 C6050000 		.4byte	0x5c6
 1269 05f5 05       		.uleb128 0x5
 1270 05f6 FD010000 		.4byte	.LASF92
 1271 05fa 10       		.byte	0x10
 1272 05fb 0C       		.byte	0xc
 1273 05fc 39       		.byte	0x39
 1274 05fd 2C060000 		.4byte	0x62c
 1275 0601 06       		.uleb128 0x6
 1276 0602 3D030000 		.4byte	.LASF93
 1277 0606 0C       		.byte	0xc
 1278 0607 3A       		.byte	0x3a
 1279 0608 5C020000 		.4byte	0x25c
 1280 060c 02       		.byte	0x2
 1281 060d 23       		.byte	0x23
 1282 060e 00       		.uleb128 0
 1283 060f 06       		.uleb128 0x6
 1284 0610 61000000 		.4byte	.LASF94
 1285 0614 0C       		.byte	0xc
 1286 0615 3C       		.byte	0x3c
 1287 0616 30020000 		.4byte	0x230
 1288 061a 02       		.byte	0x2
 1289 061b 23       		.byte	0x23
 1290 061c 08       		.uleb128 0x8
ARM GAS  /tmp/ccxHztRu.s 			page 37


 1291 061d 06       		.uleb128 0x6
 1292 061e A6040000 		.4byte	.LASF95
 1293 0622 0C       		.byte	0xc
 1294 0623 3E       		.byte	0x3e
 1295 0624 6A060000 		.4byte	0x66a
 1296 0628 02       		.byte	0x2
 1297 0629 23       		.byte	0x23
 1298 062a 0C       		.uleb128 0xc
 1299 062b 00       		.byte	0
 1300 062c 09       		.uleb128 0x9
 1301 062d 04       		.byte	0x4
 1302 062e F5050000 		.4byte	0x5f5
 1303 0632 09       		.uleb128 0x9
 1304 0633 04       		.byte	0x4
 1305 0634 38060000 		.4byte	0x638
 1306 0638 13       		.uleb128 0x13
 1307 0639 3D060000 		.4byte	0x63d
 1308 063d 04       		.uleb128 0x4
 1309 063e 01       		.byte	0x1
 1310 063f 08       		.byte	0x8
 1311 0640 42000000 		.4byte	.LASF96
 1312 0644 09       		.uleb128 0x9
 1313 0645 04       		.byte	0x4
 1314 0646 22030000 		.4byte	0x322
 1315 064a 14       		.uleb128 0x14
 1316 064b 32060000 		.4byte	0x632
 1317 064f 15       		.uleb128 0x15
 1318 0650 88040000 		.4byte	0x488
 1319 0654 5F060000 		.4byte	0x65f
 1320 0658 16       		.uleb128 0x16
 1321 0659 76040000 		.4byte	0x476
 1322 065d 1A       		.byte	0x1a
 1323 065e 00       		.byte	0
 1324 065f 03       		.uleb128 0x3
 1325 0660 00040000 		.4byte	.LASF97
 1326 0664 0C       		.byte	0xc
 1327 0665 34       		.byte	0x34
 1328 0666 F5050000 		.4byte	0x5f5
 1329 066a 09       		.uleb128 0x9
 1330 066b 04       		.byte	0x4
 1331 066c 5F060000 		.4byte	0x65f
 1332 0670 09       		.uleb128 0x9
 1333 0671 04       		.byte	0x4
 1334 0672 49000000 		.4byte	0x49
 1335 0676 17       		.uleb128 0x17
 1336 0677 71030000 		.4byte	.LASF103
 1337 067b 02       		.byte	0x2
 1338 067c 2202     		.2byte	0x222
 1339 067e 01       		.byte	0x1
 1340 067f 03       		.byte	0x3
 1341 0680 91060000 		.4byte	0x691
 1342 0684 18       		.uleb128 0x18
 1343 0685 A9010000 		.4byte	.LASF101
 1344 0689 02       		.byte	0x2
 1345 068a 2202     		.2byte	0x222
 1346 068c 7B000000 		.4byte	0x7b
 1347 0690 00       		.byte	0
ARM GAS  /tmp/ccxHztRu.s 			page 38


 1348 0691 19       		.uleb128 0x19
 1349 0692 9F000000 		.4byte	.LASF98
 1350 0696 09       		.byte	0x9
 1351 0697 C801     		.2byte	0x1c8
 1352 0699 01       		.byte	0x1
 1353 069a 03       		.byte	0x3
 1354 069b 19       		.uleb128 0x19
 1355 069c EC040000 		.4byte	.LASF99
 1356 06a0 09       		.byte	0x9
 1357 06a1 E001     		.2byte	0x1e0
 1358 06a3 01       		.byte	0x1
 1359 06a4 03       		.byte	0x3
 1360 06a5 19       		.uleb128 0x19
 1361 06a6 06020000 		.4byte	.LASF100
 1362 06aa 0D       		.byte	0xd
 1363 06ab 5A01     		.2byte	0x15a
 1364 06ad 01       		.byte	0x1
 1365 06ae 03       		.byte	0x3
 1366 06af 1A       		.uleb128 0x1a
 1367 06b0 01       		.byte	0x1
 1368 06b1 00050000 		.4byte	.LASF114
 1369 06b5 01       		.byte	0x1
 1370 06b6 83       		.byte	0x83
 1371 06b7 01       		.byte	0x1
 1372 06b8 20030000 		.4byte	0x320
 1373 06bc 01       		.byte	0x1
 1374 06bd D6060000 		.4byte	0x6d6
 1375 06c1 1B       		.uleb128 0x1b
 1376 06c2 DB020000 		.4byte	.LASF102
 1377 06c6 01       		.byte	0x1
 1378 06c7 83       		.byte	0x83
 1379 06c8 30000000 		.4byte	0x30
 1380 06cc 1C       		.uleb128 0x1c
 1381 06cd 7000     		.ascii	"p\000"
 1382 06cf 01       		.byte	0x1
 1383 06d0 84       		.byte	0x84
 1384 06d1 20030000 		.4byte	0x320
 1385 06d5 00       		.byte	0
 1386 06d6 17       		.uleb128 0x17
 1387 06d7 95010000 		.4byte	.LASF104
 1388 06db 0D       		.byte	0xd
 1389 06dc 6601     		.2byte	0x166
 1390 06de 01       		.byte	0x1
 1391 06df 03       		.byte	0x3
 1392 06e0 F3060000 		.4byte	0x6f3
 1393 06e4 1D       		.uleb128 0x1d
 1394 06e5 87010000 		.4byte	.LASF105
 1395 06e9 03070000 		.4byte	0x703
 1396 06ed 01       		.byte	0x1
 1397 06ee 95010000 		.4byte	.LASF104
 1398 06f2 00       		.byte	0
 1399 06f3 15       		.uleb128 0x15
 1400 06f4 3D060000 		.4byte	0x63d
 1401 06f8 03070000 		.4byte	0x703
 1402 06fc 16       		.uleb128 0x16
 1403 06fd 76040000 		.4byte	0x476
 1404 0701 0B       		.byte	0xb
ARM GAS  /tmp/ccxHztRu.s 			page 39


 1405 0702 00       		.byte	0
 1406 0703 13       		.uleb128 0x13
 1407 0704 F3060000 		.4byte	0x6f3
 1408 0708 1E       		.uleb128 0x1e
 1409 0709 01       		.byte	0x1
 1410 070a CF010000 		.4byte	.LASF115
 1411 070e 01       		.byte	0x1
 1412 070f 4E       		.byte	0x4e
 1413 0710 01       		.byte	0x1
 1414 0711 00000000 		.4byte	.LFB241
 1415 0715 2C000000 		.4byte	.LFE241
 1416 0719 02       		.byte	0x2
 1417 071a 7D       		.byte	0x7d
 1418 071b 00       		.sleb128 0
 1419 071c 01       		.byte	0x1
 1420 071d 3C070000 		.4byte	0x73c
 1421 0721 1F       		.uleb128 0x1f
 1422 0722 DA010000 		.4byte	.LASF106
 1423 0726 01       		.byte	0x1
 1424 0727 50       		.byte	0x50
 1425 0728 3C070000 		.4byte	0x73c
 1426 072c 01       		.byte	0x1
 1427 072d 01       		.byte	0x1
 1428 072e 1F       		.uleb128 0x1f
 1429 072f 1E050000 		.4byte	.LASF107
 1430 0733 01       		.byte	0x1
 1431 0734 51       		.byte	0x51
 1432 0735 3C070000 		.4byte	0x73c
 1433 0739 01       		.byte	0x1
 1434 073a 01       		.byte	0x1
 1435 073b 00       		.byte	0
 1436 073c 15       		.uleb128 0x15
 1437 073d 49000000 		.4byte	0x49
 1438 0741 47070000 		.4byte	0x747
 1439 0745 20       		.uleb128 0x20
 1440 0746 00       		.byte	0
 1441 0747 21       		.uleb128 0x21
 1442 0748 01       		.byte	0x1
 1443 0749 58020000 		.4byte	.LASF116
 1444 074d 01       		.byte	0x1
 1445 074e 6D       		.byte	0x6d
 1446 074f 01       		.byte	0x1
 1447 0750 20030000 		.4byte	0x320
 1448 0754 00000000 		.4byte	.LFB242
 1449 0758 34000000 		.4byte	.LFE242
 1450 075c 02       		.byte	0x2
 1451 075d 7D       		.byte	0x7d
 1452 075e 00       		.sleb128 0
 1453 075f 01       		.byte	0x1
 1454 0760 32080000 		.4byte	0x832
 1455 0764 22       		.uleb128 0x22
 1456 0765 DB020000 		.4byte	.LASF102
 1457 0769 01       		.byte	0x1
 1458 076a 6D       		.byte	0x6d
 1459 076b 30000000 		.4byte	0x30
 1460 076f 00000000 		.4byte	.LLST0
 1461 0773 23       		.uleb128 0x23
ARM GAS  /tmp/ccxHztRu.s 			page 40


 1462 0774 7000     		.ascii	"p\000"
 1463 0776 01       		.byte	0x1
 1464 0777 6E       		.byte	0x6e
 1465 0778 20030000 		.4byte	0x320
 1466 077c 01       		.byte	0x1
 1467 077d 53       		.byte	0x53
 1468 077e 24       		.uleb128 0x24
 1469 077f A5060000 		.4byte	0x6a5
 1470 0783 00000000 		.4byte	.LBB26
 1471 0787 06000000 		.4byte	.LBE26
 1472 078b 01       		.byte	0x1
 1473 078c 70       		.byte	0x70
 1474 078d BA070000 		.4byte	0x7ba
 1475 0791 25       		.uleb128 0x25
 1476 0792 91060000 		.4byte	0x691
 1477 0796 00000000 		.4byte	.LBB27
 1478 079a 06000000 		.4byte	.LBE27
 1479 079e 0D       		.byte	0xd
 1480 079f 5C01     		.2byte	0x15c
 1481 07a1 25       		.uleb128 0x25
 1482 07a2 76060000 		.4byte	0x676
 1483 07a6 00000000 		.4byte	.LBB28
 1484 07aa 06000000 		.4byte	.LBE28
 1485 07ae 09       		.byte	0x9
 1486 07af D001     		.2byte	0x1d0
 1487 07b1 26       		.uleb128 0x26
 1488 07b2 84060000 		.4byte	0x684
 1489 07b6 20       		.byte	0x20
 1490 07b7 00       		.byte	0
 1491 07b8 00       		.byte	0
 1492 07b9 00       		.byte	0
 1493 07ba 24       		.uleb128 0x24
 1494 07bb AF060000 		.4byte	0x6af
 1495 07bf 06000000 		.4byte	.LBB30
 1496 07c3 20000000 		.4byte	.LBE30
 1497 07c7 01       		.byte	0x1
 1498 07c8 71       		.byte	0x71
 1499 07c9 EA070000 		.4byte	0x7ea
 1500 07cd 27       		.uleb128 0x27
 1501 07ce C1060000 		.4byte	0x6c1
 1502 07d2 2E000000 		.4byte	.LLST1
 1503 07d6 28       		.uleb128 0x28
 1504 07d7 06000000 		.4byte	.LBB31
 1505 07db 20000000 		.4byte	.LBE31
 1506 07df 29       		.uleb128 0x29
 1507 07e0 CC060000 		.4byte	0x6cc
 1508 07e4 6C000000 		.4byte	.LLST2
 1509 07e8 00       		.byte	0
 1510 07e9 00       		.byte	0
 1511 07ea 2A       		.uleb128 0x2a
 1512 07eb D6060000 		.4byte	0x6d6
 1513 07ef 20000000 		.4byte	.LBB32
 1514 07f3 26000000 		.4byte	.LBE32
 1515 07f7 01       		.byte	0x1
 1516 07f8 72       		.byte	0x72
 1517 07f9 28       		.uleb128 0x28
 1518 07fa 20000000 		.4byte	.LBB33
ARM GAS  /tmp/ccxHztRu.s 			page 41


 1519 07fe 26000000 		.4byte	.LBE33
 1520 0802 2B       		.uleb128 0x2b
 1521 0803 E4060000 		.4byte	0x6e4
 1522 0807 25       		.uleb128 0x25
 1523 0808 9B060000 		.4byte	0x69b
 1524 080c 20000000 		.4byte	.LBB34
 1525 0810 26000000 		.4byte	.LBE34
 1526 0814 0D       		.byte	0xd
 1527 0815 7301     		.2byte	0x173
 1528 0817 25       		.uleb128 0x25
 1529 0818 76060000 		.4byte	0x676
 1530 081c 20000000 		.4byte	.LBB35
 1531 0820 26000000 		.4byte	.LBE35
 1532 0824 09       		.byte	0x9
 1533 0825 E301     		.2byte	0x1e3
 1534 0827 26       		.uleb128 0x26
 1535 0828 84060000 		.4byte	0x684
 1536 082c 00       		.byte	0
 1537 082d 00       		.byte	0
 1538 082e 00       		.byte	0
 1539 082f 00       		.byte	0
 1540 0830 00       		.byte	0
 1541 0831 00       		.byte	0
 1542 0832 2C       		.uleb128 0x2c
 1543 0833 AF060000 		.4byte	0x6af
 1544 0837 00000000 		.4byte	.LFB243
 1545 083b 28000000 		.4byte	.LFE243
 1546 083f 02       		.byte	0x2
 1547 0840 7D       		.byte	0x7d
 1548 0841 00       		.sleb128 0
 1549 0842 01       		.byte	0x1
 1550 0843 5A080000 		.4byte	0x85a
 1551 0847 27       		.uleb128 0x27
 1552 0848 C1060000 		.4byte	0x6c1
 1553 084c 8E000000 		.4byte	.LLST3
 1554 0850 29       		.uleb128 0x29
 1555 0851 CC060000 		.4byte	0x6cc
 1556 0855 CC000000 		.4byte	.LLST4
 1557 0859 00       		.byte	0
 1558 085a 2D       		.uleb128 0x2d
 1559 085b 01       		.byte	0x1
 1560 085c EE000000 		.4byte	.LASF117
 1561 0860 01       		.byte	0x1
 1562 0861 9B       		.byte	0x9b
 1563 0862 01       		.byte	0x1
 1564 0863 30000000 		.4byte	0x30
 1565 0867 00000000 		.4byte	.LFB244
 1566 086b 18000000 		.4byte	.LFE244
 1567 086f 02       		.byte	0x2
 1568 0870 7D       		.byte	0x7d
 1569 0871 00       		.sleb128 0
 1570 0872 01       		.byte	0x1
 1571 0873 2E       		.uleb128 0x2e
 1572 0874 0D050000 		.4byte	.LASF108
 1573 0878 01       		.byte	0x1
 1574 0879 3E       		.byte	0x3e
 1575 087a 70060000 		.4byte	0x670
ARM GAS  /tmp/ccxHztRu.s 			page 42


 1576 087e 05       		.byte	0x5
 1577 087f 03       		.byte	0x3
 1578 0880 00000000 		.4byte	nextmem
 1579 0884 2E       		.uleb128 0x2e
 1580 0885 DD040000 		.4byte	.LASF109
 1581 0889 01       		.byte	0x1
 1582 088a 3F       		.byte	0x3f
 1583 088b 70060000 		.4byte	0x670
 1584 088f 05       		.byte	0x5
 1585 0890 03       		.byte	0x3
 1586 0891 00000000 		.4byte	endmem
 1587 0895 2F       		.uleb128 0x2f
 1588 0896 5A030000 		.4byte	.LASF110
 1589 089a 0E       		.byte	0xe
 1590 089b FA06     		.2byte	0x6fa
 1591 089d A3080000 		.4byte	0x8a3
 1592 08a1 01       		.byte	0x1
 1593 08a2 01       		.byte	0x1
 1594 08a3 14       		.uleb128 0x14
 1595 08a4 69000000 		.4byte	0x69
 1596 08a8 30       		.uleb128 0x30
 1597 08a9 636800   		.ascii	"ch\000"
 1598 08ac 07       		.byte	0x7
 1599 08ad 0902     		.2byte	0x209
 1600 08af 03040000 		.4byte	0x403
 1601 08b3 01       		.byte	0x1
 1602 08b4 01       		.byte	0x1
 1603 08b5 1F       		.uleb128 0x1f
 1604 08b6 DA010000 		.4byte	.LASF106
 1605 08ba 01       		.byte	0x1
 1606 08bb 50       		.byte	0x50
 1607 08bc 3C070000 		.4byte	0x73c
 1608 08c0 01       		.byte	0x1
 1609 08c1 01       		.byte	0x1
 1610 08c2 1F       		.uleb128 0x1f
 1611 08c3 1E050000 		.4byte	.LASF107
 1612 08c7 01       		.byte	0x1
 1613 08c8 51       		.byte	0x51
 1614 08c9 3C070000 		.4byte	0x73c
 1615 08cd 01       		.byte	0x1
 1616 08ce 01       		.byte	0x1
 1617 08cf 00       		.byte	0
 1618              		.section	.debug_abbrev,"",%progbits
 1619              	.Ldebug_abbrev0:
 1620 0000 01       		.uleb128 0x1
 1621 0001 11       		.uleb128 0x11
 1622 0002 01       		.byte	0x1
 1623 0003 25       		.uleb128 0x25
 1624 0004 0E       		.uleb128 0xe
 1625 0005 13       		.uleb128 0x13
 1626 0006 0B       		.uleb128 0xb
 1627 0007 03       		.uleb128 0x3
 1628 0008 0E       		.uleb128 0xe
 1629 0009 1B       		.uleb128 0x1b
 1630 000a 0E       		.uleb128 0xe
 1631 000b 55       		.uleb128 0x55
 1632 000c 06       		.uleb128 0x6
ARM GAS  /tmp/ccxHztRu.s 			page 43


 1633 000d 11       		.uleb128 0x11
 1634 000e 01       		.uleb128 0x1
 1635 000f 52       		.uleb128 0x52
 1636 0010 01       		.uleb128 0x1
 1637 0011 10       		.uleb128 0x10
 1638 0012 06       		.uleb128 0x6
 1639 0013 00       		.byte	0
 1640 0014 00       		.byte	0
 1641 0015 02       		.uleb128 0x2
 1642 0016 24       		.uleb128 0x24
 1643 0017 00       		.byte	0
 1644 0018 0B       		.uleb128 0xb
 1645 0019 0B       		.uleb128 0xb
 1646 001a 3E       		.uleb128 0x3e
 1647 001b 0B       		.uleb128 0xb
 1648 001c 03       		.uleb128 0x3
 1649 001d 08       		.uleb128 0x8
 1650 001e 00       		.byte	0
 1651 001f 00       		.byte	0
 1652 0020 03       		.uleb128 0x3
 1653 0021 16       		.uleb128 0x16
 1654 0022 00       		.byte	0
 1655 0023 03       		.uleb128 0x3
 1656 0024 0E       		.uleb128 0xe
 1657 0025 3A       		.uleb128 0x3a
 1658 0026 0B       		.uleb128 0xb
 1659 0027 3B       		.uleb128 0x3b
 1660 0028 0B       		.uleb128 0xb
 1661 0029 49       		.uleb128 0x49
 1662 002a 13       		.uleb128 0x13
 1663 002b 00       		.byte	0
 1664 002c 00       		.byte	0
 1665 002d 04       		.uleb128 0x4
 1666 002e 24       		.uleb128 0x24
 1667 002f 00       		.byte	0
 1668 0030 0B       		.uleb128 0xb
 1669 0031 0B       		.uleb128 0xb
 1670 0032 3E       		.uleb128 0x3e
 1671 0033 0B       		.uleb128 0xb
 1672 0034 03       		.uleb128 0x3
 1673 0035 0E       		.uleb128 0xe
 1674 0036 00       		.byte	0
 1675 0037 00       		.byte	0
 1676 0038 05       		.uleb128 0x5
 1677 0039 13       		.uleb128 0x13
 1678 003a 01       		.byte	0x1
 1679 003b 03       		.uleb128 0x3
 1680 003c 0E       		.uleb128 0xe
 1681 003d 0B       		.uleb128 0xb
 1682 003e 0B       		.uleb128 0xb
 1683 003f 3A       		.uleb128 0x3a
 1684 0040 0B       		.uleb128 0xb
 1685 0041 3B       		.uleb128 0x3b
 1686 0042 0B       		.uleb128 0xb
 1687 0043 01       		.uleb128 0x1
 1688 0044 13       		.uleb128 0x13
 1689 0045 00       		.byte	0
ARM GAS  /tmp/ccxHztRu.s 			page 44


 1690 0046 00       		.byte	0
 1691 0047 06       		.uleb128 0x6
 1692 0048 0D       		.uleb128 0xd
 1693 0049 00       		.byte	0
 1694 004a 03       		.uleb128 0x3
 1695 004b 0E       		.uleb128 0xe
 1696 004c 3A       		.uleb128 0x3a
 1697 004d 0B       		.uleb128 0xb
 1698 004e 3B       		.uleb128 0x3b
 1699 004f 0B       		.uleb128 0xb
 1700 0050 49       		.uleb128 0x49
 1701 0051 13       		.uleb128 0x13
 1702 0052 38       		.uleb128 0x38
 1703 0053 0A       		.uleb128 0xa
 1704 0054 00       		.byte	0
 1705 0055 00       		.byte	0
 1706 0056 07       		.uleb128 0x7
 1707 0057 0D       		.uleb128 0xd
 1708 0058 00       		.byte	0
 1709 0059 03       		.uleb128 0x3
 1710 005a 08       		.uleb128 0x8
 1711 005b 3A       		.uleb128 0x3a
 1712 005c 0B       		.uleb128 0xb
 1713 005d 3B       		.uleb128 0x3b
 1714 005e 05       		.uleb128 0x5
 1715 005f 49       		.uleb128 0x49
 1716 0060 13       		.uleb128 0x13
 1717 0061 38       		.uleb128 0x38
 1718 0062 0A       		.uleb128 0xa
 1719 0063 00       		.byte	0
 1720 0064 00       		.byte	0
 1721 0065 08       		.uleb128 0x8
 1722 0066 0D       		.uleb128 0xd
 1723 0067 00       		.byte	0
 1724 0068 03       		.uleb128 0x3
 1725 0069 0E       		.uleb128 0xe
 1726 006a 3A       		.uleb128 0x3a
 1727 006b 0B       		.uleb128 0xb
 1728 006c 3B       		.uleb128 0x3b
 1729 006d 05       		.uleb128 0x5
 1730 006e 49       		.uleb128 0x49
 1731 006f 13       		.uleb128 0x13
 1732 0070 38       		.uleb128 0x38
 1733 0071 0A       		.uleb128 0xa
 1734 0072 00       		.byte	0
 1735 0073 00       		.byte	0
 1736 0074 09       		.uleb128 0x9
 1737 0075 0F       		.uleb128 0xf
 1738 0076 00       		.byte	0
 1739 0077 0B       		.uleb128 0xb
 1740 0078 0B       		.uleb128 0xb
 1741 0079 49       		.uleb128 0x49
 1742 007a 13       		.uleb128 0x13
 1743 007b 00       		.byte	0
 1744 007c 00       		.byte	0
 1745 007d 0A       		.uleb128 0xa
 1746 007e 13       		.uleb128 0x13
ARM GAS  /tmp/ccxHztRu.s 			page 45


 1747 007f 01       		.byte	0x1
 1748 0080 03       		.uleb128 0x3
 1749 0081 0E       		.uleb128 0xe
 1750 0082 0B       		.uleb128 0xb
 1751 0083 0B       		.uleb128 0xb
 1752 0084 3A       		.uleb128 0x3a
 1753 0085 0B       		.uleb128 0xb
 1754 0086 3B       		.uleb128 0x3b
 1755 0087 05       		.uleb128 0x5
 1756 0088 01       		.uleb128 0x1
 1757 0089 13       		.uleb128 0x13
 1758 008a 00       		.byte	0
 1759 008b 00       		.byte	0
 1760 008c 0B       		.uleb128 0xb
 1761 008d 15       		.uleb128 0x15
 1762 008e 01       		.byte	0x1
 1763 008f 27       		.uleb128 0x27
 1764 0090 0C       		.uleb128 0xc
 1765 0091 01       		.uleb128 0x1
 1766 0092 13       		.uleb128 0x13
 1767 0093 00       		.byte	0
 1768 0094 00       		.byte	0
 1769 0095 0C       		.uleb128 0xc
 1770 0096 05       		.uleb128 0x5
 1771 0097 00       		.byte	0
 1772 0098 49       		.uleb128 0x49
 1773 0099 13       		.uleb128 0x13
 1774 009a 00       		.byte	0
 1775 009b 00       		.byte	0
 1776 009c 0D       		.uleb128 0xd
 1777 009d 0F       		.uleb128 0xf
 1778 009e 00       		.byte	0
 1779 009f 0B       		.uleb128 0xb
 1780 00a0 0B       		.uleb128 0xb
 1781 00a1 00       		.byte	0
 1782 00a2 00       		.byte	0
 1783 00a3 0E       		.uleb128 0xe
 1784 00a4 13       		.uleb128 0x13
 1785 00a5 01       		.byte	0x1
 1786 00a6 03       		.uleb128 0x3
 1787 00a7 0E       		.uleb128 0xe
 1788 00a8 0B       		.uleb128 0xb
 1789 00a9 05       		.uleb128 0x5
 1790 00aa 3A       		.uleb128 0x3a
 1791 00ab 0B       		.uleb128 0xb
 1792 00ac 3B       		.uleb128 0x3b
 1793 00ad 05       		.uleb128 0x5
 1794 00ae 01       		.uleb128 0x1
 1795 00af 13       		.uleb128 0x13
 1796 00b0 00       		.byte	0
 1797 00b1 00       		.byte	0
 1798 00b2 0F       		.uleb128 0xf
 1799 00b3 0D       		.uleb128 0xd
 1800 00b4 00       		.byte	0
 1801 00b5 03       		.uleb128 0x3
 1802 00b6 08       		.uleb128 0x8
 1803 00b7 3A       		.uleb128 0x3a
ARM GAS  /tmp/ccxHztRu.s 			page 46


 1804 00b8 0B       		.uleb128 0xb
 1805 00b9 3B       		.uleb128 0x3b
 1806 00ba 0B       		.uleb128 0xb
 1807 00bb 49       		.uleb128 0x49
 1808 00bc 13       		.uleb128 0x13
 1809 00bd 38       		.uleb128 0x38
 1810 00be 0A       		.uleb128 0xa
 1811 00bf 00       		.byte	0
 1812 00c0 00       		.byte	0
 1813 00c1 10       		.uleb128 0x10
 1814 00c2 13       		.uleb128 0x13
 1815 00c3 01       		.byte	0x1
 1816 00c4 0B       		.uleb128 0xb
 1817 00c5 0B       		.uleb128 0xb
 1818 00c6 3A       		.uleb128 0x3a
 1819 00c7 0B       		.uleb128 0xb
 1820 00c8 3B       		.uleb128 0x3b
 1821 00c9 0B       		.uleb128 0xb
 1822 00ca 01       		.uleb128 0x1
 1823 00cb 13       		.uleb128 0x13
 1824 00cc 00       		.byte	0
 1825 00cd 00       		.byte	0
 1826 00ce 11       		.uleb128 0x11
 1827 00cf 17       		.uleb128 0x17
 1828 00d0 01       		.byte	0x1
 1829 00d1 0B       		.uleb128 0xb
 1830 00d2 0B       		.uleb128 0xb
 1831 00d3 3A       		.uleb128 0x3a
 1832 00d4 0B       		.uleb128 0xb
 1833 00d5 3B       		.uleb128 0x3b
 1834 00d6 0B       		.uleb128 0xb
 1835 00d7 01       		.uleb128 0x1
 1836 00d8 13       		.uleb128 0x13
 1837 00d9 00       		.byte	0
 1838 00da 00       		.byte	0
 1839 00db 12       		.uleb128 0x12
 1840 00dc 0D       		.uleb128 0xd
 1841 00dd 00       		.byte	0
 1842 00de 03       		.uleb128 0x3
 1843 00df 0E       		.uleb128 0xe
 1844 00e0 3A       		.uleb128 0x3a
 1845 00e1 0B       		.uleb128 0xb
 1846 00e2 3B       		.uleb128 0x3b
 1847 00e3 05       		.uleb128 0x5
 1848 00e4 49       		.uleb128 0x49
 1849 00e5 13       		.uleb128 0x13
 1850 00e6 00       		.byte	0
 1851 00e7 00       		.byte	0
 1852 00e8 13       		.uleb128 0x13
 1853 00e9 26       		.uleb128 0x26
 1854 00ea 00       		.byte	0
 1855 00eb 49       		.uleb128 0x49
 1856 00ec 13       		.uleb128 0x13
 1857 00ed 00       		.byte	0
 1858 00ee 00       		.byte	0
 1859 00ef 14       		.uleb128 0x14
 1860 00f0 35       		.uleb128 0x35
ARM GAS  /tmp/ccxHztRu.s 			page 47


 1861 00f1 00       		.byte	0
 1862 00f2 49       		.uleb128 0x49
 1863 00f3 13       		.uleb128 0x13
 1864 00f4 00       		.byte	0
 1865 00f5 00       		.byte	0
 1866 00f6 15       		.uleb128 0x15
 1867 00f7 01       		.uleb128 0x1
 1868 00f8 01       		.byte	0x1
 1869 00f9 49       		.uleb128 0x49
 1870 00fa 13       		.uleb128 0x13
 1871 00fb 01       		.uleb128 0x1
 1872 00fc 13       		.uleb128 0x13
 1873 00fd 00       		.byte	0
 1874 00fe 00       		.byte	0
 1875 00ff 16       		.uleb128 0x16
 1876 0100 21       		.uleb128 0x21
 1877 0101 00       		.byte	0
 1878 0102 49       		.uleb128 0x49
 1879 0103 13       		.uleb128 0x13
 1880 0104 2F       		.uleb128 0x2f
 1881 0105 0B       		.uleb128 0xb
 1882 0106 00       		.byte	0
 1883 0107 00       		.byte	0
 1884 0108 17       		.uleb128 0x17
 1885 0109 2E       		.uleb128 0x2e
 1886 010a 01       		.byte	0x1
 1887 010b 03       		.uleb128 0x3
 1888 010c 0E       		.uleb128 0xe
 1889 010d 3A       		.uleb128 0x3a
 1890 010e 0B       		.uleb128 0xb
 1891 010f 3B       		.uleb128 0x3b
 1892 0110 05       		.uleb128 0x5
 1893 0111 27       		.uleb128 0x27
 1894 0112 0C       		.uleb128 0xc
 1895 0113 20       		.uleb128 0x20
 1896 0114 0B       		.uleb128 0xb
 1897 0115 01       		.uleb128 0x1
 1898 0116 13       		.uleb128 0x13
 1899 0117 00       		.byte	0
 1900 0118 00       		.byte	0
 1901 0119 18       		.uleb128 0x18
 1902 011a 05       		.uleb128 0x5
 1903 011b 00       		.byte	0
 1904 011c 03       		.uleb128 0x3
 1905 011d 0E       		.uleb128 0xe
 1906 011e 3A       		.uleb128 0x3a
 1907 011f 0B       		.uleb128 0xb
 1908 0120 3B       		.uleb128 0x3b
 1909 0121 05       		.uleb128 0x5
 1910 0122 49       		.uleb128 0x49
 1911 0123 13       		.uleb128 0x13
 1912 0124 00       		.byte	0
 1913 0125 00       		.byte	0
 1914 0126 19       		.uleb128 0x19
 1915 0127 2E       		.uleb128 0x2e
 1916 0128 00       		.byte	0
 1917 0129 03       		.uleb128 0x3
ARM GAS  /tmp/ccxHztRu.s 			page 48


 1918 012a 0E       		.uleb128 0xe
 1919 012b 3A       		.uleb128 0x3a
 1920 012c 0B       		.uleb128 0xb
 1921 012d 3B       		.uleb128 0x3b
 1922 012e 05       		.uleb128 0x5
 1923 012f 27       		.uleb128 0x27
 1924 0130 0C       		.uleb128 0xc
 1925 0131 20       		.uleb128 0x20
 1926 0132 0B       		.uleb128 0xb
 1927 0133 00       		.byte	0
 1928 0134 00       		.byte	0
 1929 0135 1A       		.uleb128 0x1a
 1930 0136 2E       		.uleb128 0x2e
 1931 0137 01       		.byte	0x1
 1932 0138 3F       		.uleb128 0x3f
 1933 0139 0C       		.uleb128 0xc
 1934 013a 03       		.uleb128 0x3
 1935 013b 0E       		.uleb128 0xe
 1936 013c 3A       		.uleb128 0x3a
 1937 013d 0B       		.uleb128 0xb
 1938 013e 3B       		.uleb128 0x3b
 1939 013f 0B       		.uleb128 0xb
 1940 0140 27       		.uleb128 0x27
 1941 0141 0C       		.uleb128 0xc
 1942 0142 49       		.uleb128 0x49
 1943 0143 13       		.uleb128 0x13
 1944 0144 20       		.uleb128 0x20
 1945 0145 0B       		.uleb128 0xb
 1946 0146 01       		.uleb128 0x1
 1947 0147 13       		.uleb128 0x13
 1948 0148 00       		.byte	0
 1949 0149 00       		.byte	0
 1950 014a 1B       		.uleb128 0x1b
 1951 014b 05       		.uleb128 0x5
 1952 014c 00       		.byte	0
 1953 014d 03       		.uleb128 0x3
 1954 014e 0E       		.uleb128 0xe
 1955 014f 3A       		.uleb128 0x3a
 1956 0150 0B       		.uleb128 0xb
 1957 0151 3B       		.uleb128 0x3b
 1958 0152 0B       		.uleb128 0xb
 1959 0153 49       		.uleb128 0x49
 1960 0154 13       		.uleb128 0x13
 1961 0155 00       		.byte	0
 1962 0156 00       		.byte	0
 1963 0157 1C       		.uleb128 0x1c
 1964 0158 34       		.uleb128 0x34
 1965 0159 00       		.byte	0
 1966 015a 03       		.uleb128 0x3
 1967 015b 08       		.uleb128 0x8
 1968 015c 3A       		.uleb128 0x3a
 1969 015d 0B       		.uleb128 0xb
 1970 015e 3B       		.uleb128 0x3b
 1971 015f 0B       		.uleb128 0xb
 1972 0160 49       		.uleb128 0x49
 1973 0161 13       		.uleb128 0x13
 1974 0162 00       		.byte	0
ARM GAS  /tmp/ccxHztRu.s 			page 49


 1975 0163 00       		.byte	0
 1976 0164 1D       		.uleb128 0x1d
 1977 0165 34       		.uleb128 0x34
 1978 0166 00       		.byte	0
 1979 0167 03       		.uleb128 0x3
 1980 0168 0E       		.uleb128 0xe
 1981 0169 49       		.uleb128 0x49
 1982 016a 13       		.uleb128 0x13
 1983 016b 34       		.uleb128 0x34
 1984 016c 0C       		.uleb128 0xc
 1985 016d 1C       		.uleb128 0x1c
 1986 016e 0E       		.uleb128 0xe
 1987 016f 00       		.byte	0
 1988 0170 00       		.byte	0
 1989 0171 1E       		.uleb128 0x1e
 1990 0172 2E       		.uleb128 0x2e
 1991 0173 01       		.byte	0x1
 1992 0174 3F       		.uleb128 0x3f
 1993 0175 0C       		.uleb128 0xc
 1994 0176 03       		.uleb128 0x3
 1995 0177 0E       		.uleb128 0xe
 1996 0178 3A       		.uleb128 0x3a
 1997 0179 0B       		.uleb128 0xb
 1998 017a 3B       		.uleb128 0x3b
 1999 017b 0B       		.uleb128 0xb
 2000 017c 27       		.uleb128 0x27
 2001 017d 0C       		.uleb128 0xc
 2002 017e 11       		.uleb128 0x11
 2003 017f 01       		.uleb128 0x1
 2004 0180 12       		.uleb128 0x12
 2005 0181 01       		.uleb128 0x1
 2006 0182 40       		.uleb128 0x40
 2007 0183 0A       		.uleb128 0xa
 2008 0184 9742     		.uleb128 0x2117
 2009 0186 0C       		.uleb128 0xc
 2010 0187 01       		.uleb128 0x1
 2011 0188 13       		.uleb128 0x13
 2012 0189 00       		.byte	0
 2013 018a 00       		.byte	0
 2014 018b 1F       		.uleb128 0x1f
 2015 018c 34       		.uleb128 0x34
 2016 018d 00       		.byte	0
 2017 018e 03       		.uleb128 0x3
 2018 018f 0E       		.uleb128 0xe
 2019 0190 3A       		.uleb128 0x3a
 2020 0191 0B       		.uleb128 0xb
 2021 0192 3B       		.uleb128 0x3b
 2022 0193 0B       		.uleb128 0xb
 2023 0194 49       		.uleb128 0x49
 2024 0195 13       		.uleb128 0x13
 2025 0196 3F       		.uleb128 0x3f
 2026 0197 0C       		.uleb128 0xc
 2027 0198 3C       		.uleb128 0x3c
 2028 0199 0C       		.uleb128 0xc
 2029 019a 00       		.byte	0
 2030 019b 00       		.byte	0
 2031 019c 20       		.uleb128 0x20
ARM GAS  /tmp/ccxHztRu.s 			page 50


 2032 019d 21       		.uleb128 0x21
 2033 019e 00       		.byte	0
 2034 019f 00       		.byte	0
 2035 01a0 00       		.byte	0
 2036 01a1 21       		.uleb128 0x21
 2037 01a2 2E       		.uleb128 0x2e
 2038 01a3 01       		.byte	0x1
 2039 01a4 3F       		.uleb128 0x3f
 2040 01a5 0C       		.uleb128 0xc
 2041 01a6 03       		.uleb128 0x3
 2042 01a7 0E       		.uleb128 0xe
 2043 01a8 3A       		.uleb128 0x3a
 2044 01a9 0B       		.uleb128 0xb
 2045 01aa 3B       		.uleb128 0x3b
 2046 01ab 0B       		.uleb128 0xb
 2047 01ac 27       		.uleb128 0x27
 2048 01ad 0C       		.uleb128 0xc
 2049 01ae 49       		.uleb128 0x49
 2050 01af 13       		.uleb128 0x13
 2051 01b0 11       		.uleb128 0x11
 2052 01b1 01       		.uleb128 0x1
 2053 01b2 12       		.uleb128 0x12
 2054 01b3 01       		.uleb128 0x1
 2055 01b4 40       		.uleb128 0x40
 2056 01b5 0A       		.uleb128 0xa
 2057 01b6 9742     		.uleb128 0x2117
 2058 01b8 0C       		.uleb128 0xc
 2059 01b9 01       		.uleb128 0x1
 2060 01ba 13       		.uleb128 0x13
 2061 01bb 00       		.byte	0
 2062 01bc 00       		.byte	0
 2063 01bd 22       		.uleb128 0x22
 2064 01be 05       		.uleb128 0x5
 2065 01bf 00       		.byte	0
 2066 01c0 03       		.uleb128 0x3
 2067 01c1 0E       		.uleb128 0xe
 2068 01c2 3A       		.uleb128 0x3a
 2069 01c3 0B       		.uleb128 0xb
 2070 01c4 3B       		.uleb128 0x3b
 2071 01c5 0B       		.uleb128 0xb
 2072 01c6 49       		.uleb128 0x49
 2073 01c7 13       		.uleb128 0x13
 2074 01c8 02       		.uleb128 0x2
 2075 01c9 06       		.uleb128 0x6
 2076 01ca 00       		.byte	0
 2077 01cb 00       		.byte	0
 2078 01cc 23       		.uleb128 0x23
 2079 01cd 34       		.uleb128 0x34
 2080 01ce 00       		.byte	0
 2081 01cf 03       		.uleb128 0x3
 2082 01d0 08       		.uleb128 0x8
 2083 01d1 3A       		.uleb128 0x3a
 2084 01d2 0B       		.uleb128 0xb
 2085 01d3 3B       		.uleb128 0x3b
 2086 01d4 0B       		.uleb128 0xb
 2087 01d5 49       		.uleb128 0x49
 2088 01d6 13       		.uleb128 0x13
ARM GAS  /tmp/ccxHztRu.s 			page 51


 2089 01d7 02       		.uleb128 0x2
 2090 01d8 0A       		.uleb128 0xa
 2091 01d9 00       		.byte	0
 2092 01da 00       		.byte	0
 2093 01db 24       		.uleb128 0x24
 2094 01dc 1D       		.uleb128 0x1d
 2095 01dd 01       		.byte	0x1
 2096 01de 31       		.uleb128 0x31
 2097 01df 13       		.uleb128 0x13
 2098 01e0 11       		.uleb128 0x11
 2099 01e1 01       		.uleb128 0x1
 2100 01e2 12       		.uleb128 0x12
 2101 01e3 01       		.uleb128 0x1
 2102 01e4 58       		.uleb128 0x58
 2103 01e5 0B       		.uleb128 0xb
 2104 01e6 59       		.uleb128 0x59
 2105 01e7 0B       		.uleb128 0xb
 2106 01e8 01       		.uleb128 0x1
 2107 01e9 13       		.uleb128 0x13
 2108 01ea 00       		.byte	0
 2109 01eb 00       		.byte	0
 2110 01ec 25       		.uleb128 0x25
 2111 01ed 1D       		.uleb128 0x1d
 2112 01ee 01       		.byte	0x1
 2113 01ef 31       		.uleb128 0x31
 2114 01f0 13       		.uleb128 0x13
 2115 01f1 11       		.uleb128 0x11
 2116 01f2 01       		.uleb128 0x1
 2117 01f3 12       		.uleb128 0x12
 2118 01f4 01       		.uleb128 0x1
 2119 01f5 58       		.uleb128 0x58
 2120 01f6 0B       		.uleb128 0xb
 2121 01f7 59       		.uleb128 0x59
 2122 01f8 05       		.uleb128 0x5
 2123 01f9 00       		.byte	0
 2124 01fa 00       		.byte	0
 2125 01fb 26       		.uleb128 0x26
 2126 01fc 05       		.uleb128 0x5
 2127 01fd 00       		.byte	0
 2128 01fe 31       		.uleb128 0x31
 2129 01ff 13       		.uleb128 0x13
 2130 0200 1C       		.uleb128 0x1c
 2131 0201 0B       		.uleb128 0xb
 2132 0202 00       		.byte	0
 2133 0203 00       		.byte	0
 2134 0204 27       		.uleb128 0x27
 2135 0205 05       		.uleb128 0x5
 2136 0206 00       		.byte	0
 2137 0207 31       		.uleb128 0x31
 2138 0208 13       		.uleb128 0x13
 2139 0209 02       		.uleb128 0x2
 2140 020a 06       		.uleb128 0x6
 2141 020b 00       		.byte	0
 2142 020c 00       		.byte	0
 2143 020d 28       		.uleb128 0x28
 2144 020e 0B       		.uleb128 0xb
 2145 020f 01       		.byte	0x1
ARM GAS  /tmp/ccxHztRu.s 			page 52


 2146 0210 11       		.uleb128 0x11
 2147 0211 01       		.uleb128 0x1
 2148 0212 12       		.uleb128 0x12
 2149 0213 01       		.uleb128 0x1
 2150 0214 00       		.byte	0
 2151 0215 00       		.byte	0
 2152 0216 29       		.uleb128 0x29
 2153 0217 34       		.uleb128 0x34
 2154 0218 00       		.byte	0
 2155 0219 31       		.uleb128 0x31
 2156 021a 13       		.uleb128 0x13
 2157 021b 02       		.uleb128 0x2
 2158 021c 06       		.uleb128 0x6
 2159 021d 00       		.byte	0
 2160 021e 00       		.byte	0
 2161 021f 2A       		.uleb128 0x2a
 2162 0220 1D       		.uleb128 0x1d
 2163 0221 01       		.byte	0x1
 2164 0222 31       		.uleb128 0x31
 2165 0223 13       		.uleb128 0x13
 2166 0224 11       		.uleb128 0x11
 2167 0225 01       		.uleb128 0x1
 2168 0226 12       		.uleb128 0x12
 2169 0227 01       		.uleb128 0x1
 2170 0228 58       		.uleb128 0x58
 2171 0229 0B       		.uleb128 0xb
 2172 022a 59       		.uleb128 0x59
 2173 022b 0B       		.uleb128 0xb
 2174 022c 00       		.byte	0
 2175 022d 00       		.byte	0
 2176 022e 2B       		.uleb128 0x2b
 2177 022f 34       		.uleb128 0x34
 2178 0230 00       		.byte	0
 2179 0231 31       		.uleb128 0x31
 2180 0232 13       		.uleb128 0x13
 2181 0233 00       		.byte	0
 2182 0234 00       		.byte	0
 2183 0235 2C       		.uleb128 0x2c
 2184 0236 2E       		.uleb128 0x2e
 2185 0237 01       		.byte	0x1
 2186 0238 31       		.uleb128 0x31
 2187 0239 13       		.uleb128 0x13
 2188 023a 11       		.uleb128 0x11
 2189 023b 01       		.uleb128 0x1
 2190 023c 12       		.uleb128 0x12
 2191 023d 01       		.uleb128 0x1
 2192 023e 40       		.uleb128 0x40
 2193 023f 0A       		.uleb128 0xa
 2194 0240 9742     		.uleb128 0x2117
 2195 0242 0C       		.uleb128 0xc
 2196 0243 01       		.uleb128 0x1
 2197 0244 13       		.uleb128 0x13
 2198 0245 00       		.byte	0
 2199 0246 00       		.byte	0
 2200 0247 2D       		.uleb128 0x2d
 2201 0248 2E       		.uleb128 0x2e
 2202 0249 00       		.byte	0
ARM GAS  /tmp/ccxHztRu.s 			page 53


 2203 024a 3F       		.uleb128 0x3f
 2204 024b 0C       		.uleb128 0xc
 2205 024c 03       		.uleb128 0x3
 2206 024d 0E       		.uleb128 0xe
 2207 024e 3A       		.uleb128 0x3a
 2208 024f 0B       		.uleb128 0xb
 2209 0250 3B       		.uleb128 0x3b
 2210 0251 0B       		.uleb128 0xb
 2211 0252 27       		.uleb128 0x27
 2212 0253 0C       		.uleb128 0xc
 2213 0254 49       		.uleb128 0x49
 2214 0255 13       		.uleb128 0x13
 2215 0256 11       		.uleb128 0x11
 2216 0257 01       		.uleb128 0x1
 2217 0258 12       		.uleb128 0x12
 2218 0259 01       		.uleb128 0x1
 2219 025a 40       		.uleb128 0x40
 2220 025b 0A       		.uleb128 0xa
 2221 025c 9742     		.uleb128 0x2117
 2222 025e 0C       		.uleb128 0xc
 2223 025f 00       		.byte	0
 2224 0260 00       		.byte	0
 2225 0261 2E       		.uleb128 0x2e
 2226 0262 34       		.uleb128 0x34
 2227 0263 00       		.byte	0
 2228 0264 03       		.uleb128 0x3
 2229 0265 0E       		.uleb128 0xe
 2230 0266 3A       		.uleb128 0x3a
 2231 0267 0B       		.uleb128 0xb
 2232 0268 3B       		.uleb128 0x3b
 2233 0269 0B       		.uleb128 0xb
 2234 026a 49       		.uleb128 0x49
 2235 026b 13       		.uleb128 0x13
 2236 026c 02       		.uleb128 0x2
 2237 026d 0A       		.uleb128 0xa
 2238 026e 00       		.byte	0
 2239 026f 00       		.byte	0
 2240 0270 2F       		.uleb128 0x2f
 2241 0271 34       		.uleb128 0x34
 2242 0272 00       		.byte	0
 2243 0273 03       		.uleb128 0x3
 2244 0274 0E       		.uleb128 0xe
 2245 0275 3A       		.uleb128 0x3a
 2246 0276 0B       		.uleb128 0xb
 2247 0277 3B       		.uleb128 0x3b
 2248 0278 05       		.uleb128 0x5
 2249 0279 49       		.uleb128 0x49
 2250 027a 13       		.uleb128 0x13
 2251 027b 3F       		.uleb128 0x3f
 2252 027c 0C       		.uleb128 0xc
 2253 027d 3C       		.uleb128 0x3c
 2254 027e 0C       		.uleb128 0xc
 2255 027f 00       		.byte	0
 2256 0280 00       		.byte	0
 2257 0281 30       		.uleb128 0x30
 2258 0282 34       		.uleb128 0x34
 2259 0283 00       		.byte	0
ARM GAS  /tmp/ccxHztRu.s 			page 54


 2260 0284 03       		.uleb128 0x3
 2261 0285 08       		.uleb128 0x8
 2262 0286 3A       		.uleb128 0x3a
 2263 0287 0B       		.uleb128 0xb
 2264 0288 3B       		.uleb128 0x3b
 2265 0289 05       		.uleb128 0x5
 2266 028a 49       		.uleb128 0x49
 2267 028b 13       		.uleb128 0x13
 2268 028c 3F       		.uleb128 0x3f
 2269 028d 0C       		.uleb128 0xc
 2270 028e 3C       		.uleb128 0x3c
 2271 028f 0C       		.uleb128 0xc
 2272 0290 00       		.byte	0
 2273 0291 00       		.byte	0
 2274 0292 00       		.byte	0
 2275              		.section	.debug_loc,"",%progbits
 2276              	.Ldebug_loc0:
 2277              	.LLST0:
 2278 0000 00000000 		.4byte	.LVL0
 2279 0004 10000000 		.4byte	.LVL2
 2280 0008 0100     		.2byte	0x1
 2281 000a 50       		.byte	0x50
 2282 000b 10000000 		.4byte	.LVL2
 2283 000f 14000000 		.4byte	.LVL3
 2284 0013 0300     		.2byte	0x3
 2285 0015 70       		.byte	0x70
 2286 0016 79       		.sleb128 -7
 2287 0017 9F       		.byte	0x9f
 2288 0018 14000000 		.4byte	.LVL3
 2289 001c 34000000 		.4byte	.LFE242
 2290 0020 0400     		.2byte	0x4
 2291 0022 F3       		.byte	0xf3
 2292 0023 01       		.uleb128 0x1
 2293 0024 50       		.byte	0x50
 2294 0025 9F       		.byte	0x9f
 2295 0026 00000000 		.4byte	0
 2296 002a 00000000 		.4byte	0
 2297              	.LLST1:
 2298 002e 06000000 		.4byte	.LVL1
 2299 0032 10000000 		.4byte	.LVL2
 2300 0036 0100     		.2byte	0x1
 2301 0038 50       		.byte	0x50
 2302 0039 10000000 		.4byte	.LVL2
 2303 003d 14000000 		.4byte	.LVL3
 2304 0041 0300     		.2byte	0x3
 2305 0043 70       		.byte	0x70
 2306 0044 79       		.sleb128 -7
 2307 0045 9F       		.byte	0x9f
 2308 0046 14000000 		.4byte	.LVL3
 2309 004a 1C000000 		.4byte	.LVL5
 2310 004e 0100     		.2byte	0x1
 2311 0050 50       		.byte	0x50
 2312 0051 1C000000 		.4byte	.LVL5
 2313 0055 34000000 		.4byte	.LFE242
 2314 0059 0900     		.2byte	0x9
 2315 005b F3       		.byte	0xf3
 2316 005c 01       		.uleb128 0x1
ARM GAS  /tmp/ccxHztRu.s 			page 55


 2317 005d 50       		.byte	0x50
 2318 005e 23       		.byte	0x23
 2319 005f 07       		.uleb128 0x7
 2320 0060 09       		.byte	0x9
 2321 0061 F8       		.byte	0xf8
 2322 0062 1A       		.byte	0x1a
 2323 0063 9F       		.byte	0x9f
 2324 0064 00000000 		.4byte	0
 2325 0068 00000000 		.4byte	0
 2326              	.LLST2:
 2327 006c 18000000 		.4byte	.LVL4
 2328 0070 20000000 		.4byte	.LVL6
 2329 0074 0100     		.2byte	0x1
 2330 0076 53       		.byte	0x53
 2331 0077 20000000 		.4byte	.LVL6
 2332 007b 34000000 		.4byte	.LFE242
 2333 007f 0500     		.2byte	0x5
 2334 0081 03       		.byte	0x3
 2335 0082 00000000 		.4byte	nextmem
 2336 0086 00000000 		.4byte	0
 2337 008a 00000000 		.4byte	0
 2338              	.LLST3:
 2339 008e 00000000 		.4byte	.LVL7
 2340 0092 0A000000 		.4byte	.LVL8
 2341 0096 0100     		.2byte	0x1
 2342 0098 50       		.byte	0x50
 2343 0099 0A000000 		.4byte	.LVL8
 2344 009d 0E000000 		.4byte	.LVL9
 2345 00a1 0300     		.2byte	0x3
 2346 00a3 70       		.byte	0x70
 2347 00a4 79       		.sleb128 -7
 2348 00a5 9F       		.byte	0x9f
 2349 00a6 0E000000 		.4byte	.LVL9
 2350 00aa 16000000 		.4byte	.LVL11
 2351 00ae 0100     		.2byte	0x1
 2352 00b0 50       		.byte	0x50
 2353 00b1 16000000 		.4byte	.LVL11
 2354 00b5 28000000 		.4byte	.LFE243
 2355 00b9 0900     		.2byte	0x9
 2356 00bb F3       		.byte	0xf3
 2357 00bc 01       		.uleb128 0x1
 2358 00bd 50       		.byte	0x50
 2359 00be 23       		.byte	0x23
 2360 00bf 07       		.uleb128 0x7
 2361 00c0 09       		.byte	0x9
 2362 00c1 F8       		.byte	0xf8
 2363 00c2 1A       		.byte	0x1a
 2364 00c3 9F       		.byte	0x9f
 2365 00c4 00000000 		.4byte	0
 2366 00c8 00000000 		.4byte	0
 2367              	.LLST4:
 2368 00cc 12000000 		.4byte	.LVL10
 2369 00d0 1A000000 		.4byte	.LVL12
 2370 00d4 0100     		.2byte	0x1
 2371 00d6 53       		.byte	0x53
 2372 00d7 1A000000 		.4byte	.LVL12
 2373 00db 28000000 		.4byte	.LFE243
ARM GAS  /tmp/ccxHztRu.s 			page 56


 2374 00df 0500     		.2byte	0x5
 2375 00e1 03       		.byte	0x3
 2376 00e2 00000000 		.4byte	nextmem
 2377 00e6 00000000 		.4byte	0
 2378 00ea 00000000 		.4byte	0
 2379              		.section	.debug_aranges,"",%progbits
 2380 0000 34000000 		.4byte	0x34
 2381 0004 0200     		.2byte	0x2
 2382 0006 00000000 		.4byte	.Ldebug_info0
 2383 000a 04       		.byte	0x4
 2384 000b 00       		.byte	0
 2385 000c 0000     		.2byte	0
 2386 000e 0000     		.2byte	0
 2387 0010 00000000 		.4byte	.LFB241
 2388 0014 2C000000 		.4byte	.LFE241-.LFB241
 2389 0018 00000000 		.4byte	.LFB242
 2390 001c 34000000 		.4byte	.LFE242-.LFB242
 2391 0020 00000000 		.4byte	.LFB243
 2392 0024 28000000 		.4byte	.LFE243-.LFB243
 2393 0028 00000000 		.4byte	.LFB244
 2394 002c 18000000 		.4byte	.LFE244-.LFB244
 2395 0030 00000000 		.4byte	0
 2396 0034 00000000 		.4byte	0
 2397              		.section	.debug_ranges,"",%progbits
 2398              	.Ldebug_ranges0:
 2399 0000 00000000 		.4byte	.LFB241
 2400 0004 2C000000 		.4byte	.LFE241
 2401 0008 00000000 		.4byte	.LFB242
 2402 000c 34000000 		.4byte	.LFE242
 2403 0010 00000000 		.4byte	.LFB243
 2404 0014 28000000 		.4byte	.LFE243
 2405 0018 00000000 		.4byte	.LFB244
 2406 001c 18000000 		.4byte	.LFE244
 2407 0020 00000000 		.4byte	0
 2408 0024 00000000 		.4byte	0
 2409              		.section	.debug_line,"",%progbits
 2410              	.Ldebug_line0:
 2411 0000 4F020000 		.section	.debug_str,"MS",%progbits,1
 2411      0200DD01 
 2411      00000201 
 2411      FB0E0D00 
 2411      01010101 
 2412              	.LASF44:
 2413 0000 63685F74 		.ascii	"ch_threads_list\000"
 2413      68726561 
 2413      64735F6C 
 2413      69737400 
 2414              	.LASF45:
 2415 0010 74687265 		.ascii	"threads_queue_t\000"
 2415      6164735F 
 2415      71756575 
 2415      655F7400 
 2416              	.LASF34:
 2417 0020 705F7761 		.ascii	"p_waiting\000"
 2417      6974696E 
 2417      6700
 2418              	.LASF87:
ARM GAS  /tmp/ccxHztRu.s 			page 57


 2419 002a 77746D74 		.ascii	"wtmtxp\000"
 2419      787000
 2420              	.LASF81:
 2421 0031 746D5F63 		.ascii	"tm_calibration_t\000"
 2421      616C6962 
 2421      72617469 
 2421      6F6E5F74 
 2421      00
 2422              	.LASF96:
 2423 0042 63686172 		.ascii	"char\000"
 2423      00
 2424              	.LASF76:
 2425 0047 72656761 		.ascii	"regarm_t\000"
 2425      726D5F74 
 2425      00
 2426              	.LASF26:
 2427 0050 705F7072 		.ascii	"p_prio\000"
 2427      696F00
 2428              	.LASF22:
 2429 0057 73797374 		.ascii	"systime_t\000"
 2429      696D655F 
 2429      7400
 2430              	.LASF94:
 2431 0061 6D5F6F77 		.ascii	"m_owner\000"
 2431      6E657200 
 2432              	.LASF90:
 2433 0069 735F7175 		.ascii	"s_queue\000"
 2433      65756500 
 2434              	.LASF35:
 2435 0071 705F6D73 		.ascii	"p_msgqueue\000"
 2435      67717565 
 2435      756500
 2436              	.LASF0:
 2437 007c 756E7369 		.ascii	"unsigned int\000"
 2437      676E6564 
 2437      20696E74 
 2437      00
 2438              	.LASF42:
 2439 0089 74687265 		.ascii	"threads_list_t\000"
 2439      6164735F 
 2439      6C697374 
 2439      5F7400
 2440              	.LASF84:
 2441 0098 77746F62 		.ascii	"wtobjp\000"
 2441      6A7000
 2442              	.LASF98:
 2443 009f 706F7274 		.ascii	"port_lock\000"
 2443      5F6C6F63 
 2443      6B00
 2444              	.LASF72:
 2445 00a9 76746C69 		.ascii	"vtlist\000"
 2445      737400
 2446              	.LASF48:
 2447 00b0 63685F72 		.ascii	"ch_ready_list\000"
 2447      65616479 
 2447      5F6C6973 
 2447      7400
ARM GAS  /tmp/ccxHztRu.s 			page 58


 2448              	.LASF74:
 2449 00be 69646C65 		.ascii	"idle_thread_wa\000"
 2449      5F746872 
 2449      6561645F 
 2449      776100
 2450              	.LASF88:
 2451 00cd 65776D61 		.ascii	"ewmask\000"
 2451      736B00
 2452              	.LASF46:
 2453 00d4 63685F74 		.ascii	"ch_threads_queue\000"
 2453      68726561 
 2453      64735F71 
 2453      75657565 
 2453      00
 2454              	.LASF55:
 2455 00e5 76746675 		.ascii	"vtfunc_t\000"
 2455      6E635F74 
 2455      00
 2456              	.LASF117:
 2457 00ee 6368436F 		.ascii	"chCoreGetStatusX\000"
 2457      72654765 
 2457      74537461 
 2457      74757358 
 2457      00
 2458              	.LASF91:
 2459 00ff 735F636E 		.ascii	"s_cnt\000"
 2459      7400
 2460              	.LASF67:
 2461 0105 63685F73 		.ascii	"ch_system_debug\000"
 2461      79737465 
 2461      6D5F6465 
 2461      62756700 
 2462              	.LASF9:
 2463 0115 75696E74 		.ascii	"uint32_t\000"
 2463      33325F74 
 2463      00
 2464              	.LASF20:
 2465 011e 6576656E 		.ascii	"eventmask_t\000"
 2465      746D6173 
 2465      6B5F7400 
 2466              	.LASF50:
 2467 012a 725F7072 		.ascii	"r_prio\000"
 2467      696F00
 2468              	.LASF111:
 2469 0131 474E5520 		.ascii	"GNU C 4.7.2\000"
 2469      4320342E 
 2469      372E3200 
 2470              	.LASF62:
 2471 013d 76745F70 		.ascii	"vt_par\000"
 2471      617200
 2472              	.LASF89:
 2473 0144 63685F73 		.ascii	"ch_semaphore\000"
 2473      656D6170 
 2473      686F7265 
 2473      00
 2474              	.LASF18:
 2475 0151 74707269 		.ascii	"tprio_t\000"
ARM GAS  /tmp/ccxHztRu.s 			page 59


 2475      6F5F7400 
 2476              	.LASF57:
 2477 0159 63685F76 		.ascii	"ch_virtual_timer\000"
 2477      69727475 
 2477      616C5F74 
 2477      696D6572 
 2477      00
 2478              	.LASF13:
 2479 016a 6C6F6E67 		.ascii	"long long unsigned int\000"
 2479      206C6F6E 
 2479      6720756E 
 2479      7369676E 
 2479      65642069 
 2480              	.LASF21:
 2481 0181 636E745F 		.ascii	"cnt_t\000"
 2481      7400
 2482              	.LASF105:
 2483 0187 5F5F6675 		.ascii	"__func__.5650\000"
 2483      6E635F5F 
 2483      2E353635 
 2483      3000
 2484              	.LASF104:
 2485 0195 63685379 		.ascii	"chSysUnlock\000"
 2485      73556E6C 
 2485      6F636B00 
 2486              	.LASF28:
 2487 01a1 705F6E65 		.ascii	"p_newer\000"
 2487      77657200 
 2488              	.LASF101:
 2489 01a9 76616C75 		.ascii	"value\000"
 2489      6500
 2490              	.LASF64:
 2491 01af 63685F76 		.ascii	"ch_virtual_timers_list\000"
 2491      69727475 
 2491      616C5F74 
 2491      696D6572 
 2491      735F6C69 
 2492              	.LASF23:
 2493 01c6 74687265 		.ascii	"thread_t\000"
 2493      61645F74 
 2493      00
 2494              	.LASF115:
 2495 01cf 5F636F72 		.ascii	"_core_init\000"
 2495      655F696E 
 2495      697400
 2496              	.LASF106:
 2497 01da 5F5F6865 		.ascii	"__heap_base__\000"
 2497      61705F62 
 2497      6173655F 
 2497      5F00
 2498              	.LASF2:
 2499 01e8 73697A65 		.ascii	"size_t\000"
 2499      5F7400
 2500              	.LASF82:
 2501 01ef 7264796D 		.ascii	"rdymsg\000"
 2501      736700
 2502              	.LASF80:
ARM GAS  /tmp/ccxHztRu.s 			page 60


 2503 01f6 6F666673 		.ascii	"offset\000"
 2503      657400
 2504              	.LASF92:
 2505 01fd 63685F6D 		.ascii	"ch_mutex\000"
 2505      75746578 
 2505      00
 2506              	.LASF100:
 2507 0206 63685379 		.ascii	"chSysLock\000"
 2507      734C6F63 
 2507      6B00
 2508              	.LASF30:
 2509 0210 705F6E61 		.ascii	"p_name\000"
 2509      6D6500
 2510              	.LASF60:
 2511 0217 76745F64 		.ascii	"vt_delta\000"
 2511      656C7461 
 2511      00
 2512              	.LASF41:
 2513 0220 74687265 		.ascii	"thread_reference_t\000"
 2513      61645F72 
 2513      65666572 
 2513      656E6365 
 2513      5F7400
 2514              	.LASF65:
 2515 0233 76745F6C 		.ascii	"vt_lasttime\000"
 2515      61737474 
 2515      696D6500 
 2516              	.LASF16:
 2517 023f 74737461 		.ascii	"tstate_t\000"
 2517      74655F74 
 2517      00
 2518              	.LASF29:
 2519 0248 705F6F6C 		.ascii	"p_older\000"
 2519      64657200 
 2520              	.LASF31:
 2521 0250 705F7374 		.ascii	"p_state\000"
 2521      61746500 
 2522              	.LASF116:
 2523 0258 6368436F 		.ascii	"chCoreAlloc\000"
 2523      7265416C 
 2523      6C6F6300 
 2524              	.LASF3:
 2525 0264 75696E74 		.ascii	"uint8_t\000"
 2525      385F7400 
 2526              	.LASF40:
 2527 026c 705F6D70 		.ascii	"p_mpool\000"
 2527      6F6F6C00 
 2528              	.LASF38:
 2529 0274 705F6D74 		.ascii	"p_mtxlist\000"
 2529      786C6973 
 2529      7400
 2530              	.LASF43:
 2531 027e 63685F74 		.ascii	"ch_thread\000"
 2531      68726561 
 2531      6400
 2532              	.LASF66:
 2533 0288 73797374 		.ascii	"system_debug_t\000"
ARM GAS  /tmp/ccxHztRu.s 			page 61


 2533      656D5F64 
 2533      65627567 
 2533      5F7400
 2534              	.LASF11:
 2535 0297 6C6F6E67 		.ascii	"long long int\000"
 2535      206C6F6E 
 2535      6720696E 
 2535      7400
 2536              	.LASF49:
 2537 02a5 725F7175 		.ascii	"r_queue\000"
 2537      65756500 
 2538              	.LASF52:
 2539 02ad 725F6E65 		.ascii	"r_newer\000"
 2539      77657200 
 2540              	.LASF19:
 2541 02b5 6D73675F 		.ascii	"msg_t\000"
 2541      7400
 2542              	.LASF78:
 2543 02bb 636F6E74 		.ascii	"context\000"
 2543      65787400 
 2544              	.LASF32:
 2545 02c3 705F666C 		.ascii	"p_flags\000"
 2545      61677300 
 2546              	.LASF56:
 2547 02cb 76697274 		.ascii	"virtual_timer_t\000"
 2547      75616C5F 
 2547      74696D65 
 2547      725F7400 
 2548              	.LASF102:
 2549 02db 73697A65 		.ascii	"size\000"
 2549      00
 2550              	.LASF53:
 2551 02e0 725F6F6C 		.ascii	"r_older\000"
 2551      64657200 
 2552              	.LASF68:
 2553 02e8 70616E69 		.ascii	"panic_msg\000"
 2553      635F6D73 
 2553      6700
 2554              	.LASF36:
 2555 02f2 705F6D73 		.ascii	"p_msg\000"
 2555      6700
 2556              	.LASF15:
 2557 02f8 746D6F64 		.ascii	"tmode_t\000"
 2557      655F7400 
 2558              	.LASF73:
 2559 0300 6D61696E 		.ascii	"mainthread\000"
 2559      74687265 
 2559      616400
 2560              	.LASF14:
 2561 030b 7274636E 		.ascii	"rtcnt_t\000"
 2561      745F7400 
 2562              	.LASF39:
 2563 0313 705F7265 		.ascii	"p_realprio\000"
 2563      616C7072 
 2563      696F00
 2564              	.LASF5:
 2565 031e 73686F72 		.ascii	"short int\000"
ARM GAS  /tmp/ccxHztRu.s 			page 62


 2565      7420696E 
 2565      7400
 2566              	.LASF54:
 2567 0328 725F6375 		.ascii	"r_current\000"
 2567      7272656E 
 2567      7400
 2568              	.LASF37:
 2569 0332 705F6570 		.ascii	"p_epending\000"
 2569      656E6469 
 2569      6E6700
 2570              	.LASF93:
 2571 033d 6D5F7175 		.ascii	"m_queue\000"
 2571      65756500 
 2572              	.LASF8:
 2573 0345 6C6F6E67 		.ascii	"long int\000"
 2573      20696E74 
 2573      00
 2574              	.LASF79:
 2575 034e 706F7274 		.ascii	"port_intctx\000"
 2575      5F696E74 
 2575      63747800 
 2576              	.LASF110:
 2577 035a 49544D5F 		.ascii	"ITM_RxBuffer\000"
 2577      52784275 
 2577      66666572 
 2577      00
 2578              	.LASF70:
 2579 0367 63685F73 		.ascii	"ch_system\000"
 2579      79737465 
 2579      6D00
 2580              	.LASF103:
 2581 0371 5F5F7365 		.ascii	"__set_BASEPRI\000"
 2581      745F4241 
 2581      53455052 
 2581      4900
 2582              	.LASF24:
 2583 037f 705F6E65 		.ascii	"p_next\000"
 2583      787400
 2584              	.LASF12:
 2585 0386 75696E74 		.ascii	"uint64_t\000"
 2585      36345F74 
 2585      00
 2586              	.LASF27:
 2587 038f 705F6374 		.ascii	"p_ctx\000"
 2587      7800
 2588              	.LASF71:
 2589 0395 726C6973 		.ascii	"rlist\000"
 2589      7400
 2590              	.LASF112:
 2591 039b 2E2E2F2E 		.ascii	"../../../os/rt/src/chmemcore.c\000"
 2591      2E2F2E2E 
 2591      2F6F732F 
 2591      72742F73 
 2591      72632F63 
 2592              	.LASF25:
 2593 03ba 705F7072 		.ascii	"p_prev\000"
 2593      657600
ARM GAS  /tmp/ccxHztRu.s 			page 63


 2594              	.LASF75:
 2595 03c1 73697A65 		.ascii	"sizetype\000"
 2595      74797065 
 2595      00
 2596              	.LASF17:
 2597 03ca 74726566 		.ascii	"trefs_t\000"
 2597      735F7400 
 2598              	.LASF10:
 2599 03d2 6C6F6E67 		.ascii	"long unsigned int\000"
 2599      20756E73 
 2599      69676E65 
 2599      6420696E 
 2599      7400
 2600              	.LASF47:
 2601 03e4 72656164 		.ascii	"ready_list_t\000"
 2601      795F6C69 
 2601      73745F74 
 2601      00
 2602              	.LASF7:
 2603 03f1 696E7433 		.ascii	"int32_t\000"
 2603      325F7400 
 2604              	.LASF86:
 2605 03f9 77747365 		.ascii	"wtsemp\000"
 2605      6D7000
 2606              	.LASF97:
 2607 0400 6D757465 		.ascii	"mutex_t\000"
 2607      785F7400 
 2608              	.LASF4:
 2609 0408 756E7369 		.ascii	"unsigned char\000"
 2609      676E6564 
 2609      20636861 
 2609      7200
 2610              	.LASF63:
 2611 0416 76697274 		.ascii	"virtual_timers_list_t\000"
 2611      75616C5F 
 2611      74696D65 
 2611      72735F6C 
 2611      6973745F 
 2612              	.LASF33:
 2613 042c 705F7265 		.ascii	"p_refs\000"
 2613      667300
 2614              	.LASF58:
 2615 0433 76745F6E 		.ascii	"vt_next\000"
 2615      65787400 
 2616              	.LASF113:
 2617 043b 2F686F6D 		.ascii	"/home/sylvain/Documents/TelecomRobotics/ChibiOS_16."
 2617      652F7379 
 2617      6C766169 
 2617      6E2F446F 
 2617      63756D65 
 2618 046e 312E372F 		.ascii	"1.7/demos/STM32/RT-STM32F302R8-NUCLEO\000"
 2618      64656D6F 
 2618      732F5354 
 2618      4D33322F 
 2618      52542D53 
 2619              	.LASF69:
 2620 0494 63685F73 		.ascii	"ch_system_t\000"
ARM GAS  /tmp/ccxHztRu.s 			page 64


 2620      79737465 
 2620      6D5F7400 
 2621              	.LASF85:
 2622 04a0 77747472 		.ascii	"wttrp\000"
 2622      7000
 2623              	.LASF95:
 2624 04a6 6D5F6E65 		.ascii	"m_next\000"
 2624      787400
 2625              	.LASF1:
 2626 04ad 7369676E 		.ascii	"signed char\000"
 2626      65642063 
 2626      68617200 
 2627              	.LASF6:
 2628 04b9 73686F72 		.ascii	"short unsigned int\000"
 2628      7420756E 
 2628      7369676E 
 2628      65642069 
 2628      6E7400
 2629              	.LASF51:
 2630 04cc 725F6374 		.ascii	"r_ctx\000"
 2630      7800
 2631              	.LASF77:
 2632 04d2 73746B61 		.ascii	"stkalign_t\000"
 2632      6C69676E 
 2632      5F7400
 2633              	.LASF109:
 2634 04dd 656E646D 		.ascii	"endmem\000"
 2634      656D00
 2635              	.LASF61:
 2636 04e4 76745F66 		.ascii	"vt_func\000"
 2636      756E6300 
 2637              	.LASF99:
 2638 04ec 706F7274 		.ascii	"port_unlock\000"
 2638      5F756E6C 
 2638      6F636B00 
 2639              	.LASF59:
 2640 04f8 76745F70 		.ascii	"vt_prev\000"
 2640      72657600 
 2641              	.LASF114:
 2642 0500 6368436F 		.ascii	"chCoreAllocI\000"
 2642      7265416C 
 2642      6C6F6349 
 2642      00
 2643              	.LASF108:
 2644 050d 6E657874 		.ascii	"nextmem\000"
 2644      6D656D00 
 2645              	.LASF83:
 2646 0515 65786974 		.ascii	"exitcode\000"
 2646      636F6465 
 2646      00
 2647              	.LASF107:
 2648 051e 5F5F6865 		.ascii	"__heap_end__\000"
 2648      61705F65 
 2648      6E645F5F 
 2648      00
 2649              		.comm	__gnu_lto_v1,1,1
 2650              		.ident	"GCC: (GNU) 4.7.2"
ARM GAS  /tmp/ccxHztRu.s 			page 65


ARM GAS  /tmp/ccxHztRu.s 			page 66


DEFINED SYMBOLS
                            *ABS*:00000000 chmemcore.c
     /tmp/ccxHztRu.s:252    .text._core_init:00000000 $t
     /tmp/ccxHztRu.s:258    .text._core_init:00000000 _core_init
     /tmp/ccxHztRu.s:461    .bss.nextmem:00000000 .LANCHOR0
     /tmp/ccxHztRu.s:454    .bss.endmem:00000000 .LANCHOR1
     /tmp/ccxHztRu.s:289    .text._core_init:00000028 $d
     /tmp/ccxHztRu.s:294    .text.chCoreAlloc:00000000 $t
     /tmp/ccxHztRu.s:300    .text.chCoreAlloc:00000000 chCoreAlloc
     /tmp/ccxHztRu.s:372    .text.chCoreAlloc:0000002c $d
     /tmp/ccxHztRu.s:378    .text.chCoreAllocI:00000000 $t
     /tmp/ccxHztRu.s:384    .text.chCoreAllocI:00000000 chCoreAllocI
     /tmp/ccxHztRu.s:420    .text.chCoreAllocI:00000020 $d
     /tmp/ccxHztRu.s:426    .text.chCoreGetStatusX:00000000 $t
     /tmp/ccxHztRu.s:432    .text.chCoreGetStatusX:00000000 chCoreGetStatusX
     /tmp/ccxHztRu.s:453    .bss.endmem:00000000 $d
     /tmp/ccxHztRu.s:457    .bss.endmem:00000000 endmem
     /tmp/ccxHztRu.s:460    .bss.nextmem:00000000 $d
     /tmp/ccxHztRu.s:464    .bss.nextmem:00000000 nextmem
                            *COM*:00000001 __gnu_lto_v1
                     .debug_frame:00000010 $d
     /tmp/ccxHztRu.s:293    .text._core_init:0000002c $t
     /tmp/ccxHztRu.s:377    .text.chCoreAlloc:00000034 $t
     /tmp/ccxHztRu.s:425    .text.chCoreAllocI:00000028 $t

UNDEFINED SYMBOLS
__heap_end__
__heap_base__
