ARM GAS  /tmp/cc1d6xpg.s 			page 1


   1              		.syntax unified
   2              		.cpu cortex-m4
   3              		.fpu softvfp
   4              		.eabi_attribute 20, 1
   5              		.eabi_attribute 21, 1
   6              		.eabi_attribute 23, 3
   7              		.eabi_attribute 24, 1
   8              		.eabi_attribute 25, 1
   9              		.eabi_attribute 26, 1
  10              		.eabi_attribute 30, 2
  11              		.eabi_attribute 34, 1
  12              		.eabi_attribute 18, 4
  13              		.thumb
  14              		.file	"chmsg.c"
  15              		.text
  16              	.Ltext0:
  17              		.section	.gnu.lto_.jmpfuncs.abc06d86ef5200cd,"",%progbits
  18 0000 789C6362 		.ascii	"x\234cb`d`g\300\016T\24143\0033#\223$C*#\003\003\017"
  18      60646067 
  18      C00E54A1 
  18      34330333 
  18      23932443 
  19 0019 50391042 		.ascii	"P9\020By|\014L\314L\014,\014\014\214%\014\000%\200\001"
  19      797C0C4C 
  19      CC4C0C2C 
  19      0C0C8C25 
  19      0C002580 
  20 002e D6       		.ascii	"\326"
  21              		.text
  22              		.section	.gnu.lto_.inline.abc06d86ef5200cd,"",%progbits
  23 0000 789C6362 		.ascii	"x\234cb`d\340e\300\016\"\24143\003\203\230\034##P%\003"
  23      6064E065 
  23      C00E22A1 
  23      34330383 
  23      981C2323 
  24 0017 B3E48AC3 		.ascii	"\263\344\212\303\214\014\2347\314\230\030\230.\360\263"
  24      8C0C9C37 
  24      CC981898 
  24      2EF0B3
  25 0026 30307133 		.ascii	"00q3\000\205\301\344\004?F\006aA G\346\301-F\006\266"
  25      0085C1E4 
  25      043F4606 
  25      61412047 
  25      E6C12D46 
  26 003c 05F24C30 		.ascii	"\005\362L0Y\006\016\001 \311\262@\036\"\312\314\303"
  26      59060E01 
  26      20C9B240 
  26      1E22CACC 
  26      C3
  27 004d C0C034C1 		.ascii	"\300\3004\301o\202\037\003\000\375U\013l"
  27      6F821F03 
  27      00FD550B 
  27      6C
  28              		.text
  29              		.section	.gnu.lto_.pureconst.abc06d86ef5200cd,"",%progbits
  30 0000 789C6362 		.ascii	"x\234cb`d`f```g\200\000f\006+F+&+\000\003#\000\302"
  30      60646066 
ARM GAS  /tmp/cc1d6xpg.s 			page 2


  30      60606067 
  30      80006606 
  30      2B462B26 
  31              		.text
  32              		.section	.gnu.lto_chMsgSend.abc06d86ef5200cd,"",%progbits
  33 0000 789C8D54 		.ascii	"x\234\215T]HTA\024>g\346\356\217e\256\331\257\004\333"
  33      5D485441 
  33      143E67E6 
  33      EE8F65AE 
  33      D9AF04DB 
  34 0014 2205FD98 		.ascii	"\"\005\375\230\033\275\324S\024B\364\203\017)A\0107"
  34      1BBDD453 
  34      1442F483 
  34      0F294108 
  34      37
  35 0025 B1DBAD15 		.ascii	"\261\333\255\025\332\334vW\261^\274m=\364\022YO\246"
  35      DADC7657 
  35      B15EBC6D 
  35      3DF41259 
  35      4FA6
  36 0037 06A5FD90 		.ascii	"\006\245\375\220B\345C\261\024\375\333\022[\330K\240"
  36      42E543B1 
  36      14FDDB12 
  36      5BD84BA0 
  37 0047 8454B011 		.ascii	"\204T\260\021\321C\364\320\213\020\330\231\231{\267"
  37      D143F4D0 
  37      8B10D899 
  37      997BB7
  38 0056 5D77D71C 		.ascii	"]w\327\034\365\3168s\276\357;s\316\231\303\000\351\247"
  38      F5CE3873 
  38      BEEF3B73 
  38      CE99C300 
  38      E9A7
  39 0068 706CA1BF 		.ascii	"pl\241\277G\036\200\024\315\350\002d=\343\000g\002\214"
  39      471E8014 
  39      CDE80264 
  39      3DE30067 
  39      028C
  40 007a F1940FAC 		.ascii	"\361\224\017\254uZz;X\2339jj[C\024\013b\352f\\\303\356"
  40      755A7A3B 
  40      589B396A 
  40      6A5B4314 
  40      0B62EA66 
  41 0091 039252AB 		.ascii	"\003\222R\253\201\353\226u\271\347Ubw\342\313\314\314"
  41      81EB9675 
  41      B9E75562 
  41      77E2CBCC 
  41      CC
  42 00a2 6A53ECB6 		.ascii	"jS\354\266 \244\237f\226W\203\211\010\001\0203\003-"
  42      20A49F66 
  42      96578389 
  42      08011033 
  42      032D
  43 00b4 5F5CE17E 		.ascii	"_\\\341~\275L\254\264q\\\342\306\006\216*\230\327\206"
  43      BD4CACB4 
  43      715CE2C6 
  43      068E2A98 
ARM GAS  /tmp/cc1d6xpg.s 			page 3


  43      D786
  44 00c6 613158CF 		.ascii	"a1X\317Y\313\221\323\030\370Q\"\373;\347!\230\343\250"
  44      59CB91D3 
  44      18F85122 
  44      FB3BE721 
  44      98E3A8
  45 00d9 26058787 		.ascii	"&\005\207\207'R\033\347\004\246\357\015m\032\273\352"
  45      27521BE7 
  45      04A6EF0D 
  45      6D1ABBEA 
  46 00e9 7EC69E7F 		.ascii	"~\306\236\177\231\351^\003C\266\276\224\256\227\322"
  46      99E95E03 
  46      43B6BE94 
  46      AE97D2
  47 00f8 7FFA7E62 		.ascii	"\177\372~b!\005J\333\036e\353b\260K\332N\226\025\021"
  47      21054ADB 
  47      1E65EB62 
  47      B04BDA4E 
  47      961511
  48 010b A373100E 		.ascii	"\243s\020\016U#\3508\2105\300P\307\333D\300i\276I\263"
  48      5523E838 
  48      8835C050 
  48      C7DB44C0 
  48      69BE49B3 
  49 011f 46FBD768 		.ascii	"F\373\327h\337M\363u\232=\240\316\253h\276A\377\323"
  49      DF4DF375 
  49      9A3DA0CE 
  49      AB68BE41 
  49      FFD3
  50 0131 70C139CB 		.ascii	"p\3019\313\252d\012\337&\265\344\330/f\221\271FR\023"
  50      AA640ADF 
  50      26B5E4D8 
  50      2F6691B9 
  50      465213
  51 0144 0B9E8644 		.ascii	"\013\236\206D3EK\307;$k n\204\015$\316\345\344\346}"
  51      33454BC7 
  51      3B246B20 
  51      6E840D24 
  51      CEE5E4E6 
  52 0159 70054DF4 		.ascii	"p\005M\364\260\3230myM\364b\033\242\240\020\356ze\376"
  52      B0D3306D 
  52      794DF462 
  52      1BA2A010 
  52      EE7A65FE 
  53 016d 010E894F 		.ascii	"\001\016\211O\322%W\331\004\245\200MrE\252\2340\304"
  53      D22557D9 
  53      04A5804D 
  53      7245AA9C 
  53      30C4
  54 017f 19EDA272 		.ascii	"\031\355\242r\315\366\020\224\311\034)-c\260W\372?x"
  54      CDF61094 
  54      C91C292D 
  54      63B057FA 
  54      3F78
  55 0191 61F453ED 		.ascii	"a\364S\355\234\271\021\233et\010\360\026\022\370\343"
  55      9CB9119B 
  55      657408F0 
ARM GAS  /tmp/cc1d6xpg.s 			page 4


  55      1612F8E3 
  56 01a1 E295CCB6 		.ascii	"\342\225\314\266<1\012\337}\362D\307\273y\222\342=\334"
  56      3C310ADF 
  56      7DF244C7 
  56      BB7992E2 
  56      3DDC
  57 01b3 A68AA380 		.ascii	"\246\212\243\200\310\017\200\037\222x\325\352\335a\342"
  57      C80F801F 
  57      9278D5EA 
  57      DD61E2
  58 01c2 823CDAEC 		.ascii	"\202<\332\354\361c\373x\241\252\011H\354K?\031\362\251"
  58      F163FB78 
  58      A1AA0948 
  58      EC4B3F19 
  58      F2A9
  59 01d4 BBC8C8B9 		.ascii	"\273\310\310\271\354\310\2253\272w\265L'@H\206\210)"
  59      ECC89533 
  59      BA77B54C 
  59      27404886 
  59      8829
  60 01e6 55432C08 		.ascii	"UC,\0109\315\177\367?D'\374\332i8E\257FeaQ\016\011w"
  60      39CD7FF7 
  60      3F4427FC 
  60      DA693845 
  60      AF466561 
  61 01fe 48CE7B24 		.ascii	"H\316{$\013W,\223.\307\203=IW\216~\205J\240\257\264"
  61      0B572C93 
  61      2EC7833D 
  61      49578E7E 
  61      854AA0AF 
  62 0213 1B76EC0E 		.ascii	"\033v\354\016\211P$\271tH\223\011\372\323_\241\210\012"
  62      895024B9 
  62      74489309 
  62      FAD35FA1 
  62      880A
  63 0225 5F978EB7 		.ascii	"_\227\216\267\310kY\343\37693\341$\2734\027E\362\025"
  63      C86B59E3 
  63      FE3933E1 
  63      24BB3417 
  63      45F215
  64 0238 E2FCB834 		.ascii	"\342\374\2704\025\342\341\276\211\224?/\241T\337/eB"
  64      15E2E1BE 
  64      89943F2F 
  64      A154DF2F 
  64      6542
  65 024a 5FC86F7E 		.ascii	"_\310o~%\331\205\\$\000\252h\335\000\007s\350\233?\214"
  65      25D9855C 
  65      2400AA68 
  65      DD000773 
  65      E89B3F8C 
  66 025e 6496E938 		.ascii	"d\226\3518&\323P\225\007^\344\304\037`\235\015\366d"
  66      26D35095 
  66      075EE4C4 
  66      1F609D0D 
  66      F664
  67 0270 FB0145FE 		.ascii	"\373\001E\376;W\270\377)z\035\305*u\241\251\221\241"
  67      3B57B8FF 
ARM GAS  /tmp/cc1d6xpg.s 			page 5


  67      297A1DC5 
  67      2A75A1A9 
  67      91A1
  68 0282 15259055 		.ascii	"\025%\220U\005\276Nr'\256\002\372u$\343+\002-\356i("
  68      05BE4E72 
  68      27AE02FA 
  68      7524E32B 
  68      022DEE69 
  69 0297 07D99C7E 		.ascii	"\007\331\234~\223)w\252\315-\301\225\305\312L\325F\231"
  69      932977AA 
  69      CD2DC195 
  69      C5CA4CD5 
  69      4699
  70 02a9 73CDD730 		.ascii	"s\315\3270\366\015CY\234\260\342P\221\023\355FQ\221"
  70      F60D4359 
  70      9CB0E250 
  70      9113ED46 
  70      5191
  71 02bb 291F7F07 		.ascii	")\037\177\007\332\273\201\345N.\354\266\261\030[\320"
  71      DABB81E5 
  71      4E2EECB6 
  71      B1185BD0 
  72 02cb 6E0D2461 		.ascii	"n\015$a\212\373+\214\246z\020\201\246\006\006q\026j"
  72      8AFB2B8C 
  72      A67A1081 
  72      A6060671 
  72      166A
  73 02dd 09A11866 		.ascii	"\011\241\030f_6\207r\372.U\267\370:\340w\234\361\330"
  73      5F368772 
  73      FA2E55B7 
  73      F83AE077 
  73      9CF1D8
  74 02f0 0FAE74C1 		.ascii	"\017\256t\301\277\341\371\025O\217\272WU\012\225h\227"
  74      BFE1F915 
  74      4F8FBA57 
  74      550A9568 
  74      97
  75 0301 D3A44407 		.ascii	"\323\244D\0075\320S\254I\225\350Ur\0246,\035G\325+\031"
  75      35D053AC 
  75      4995E855 
  75      7214362C 
  75      1D47D52B 
  76 0316 BC70E9F3 		.ascii	"\274p\351\363|:\226\030%;\326GY\332\023\245:\226\216"
  76      7C3A9618 
  76      253BD647 
  76      59DA13A5 
  76      3A968E
  77 0329 0F68F18F 		.ascii	"\017h\361\217\307nQ:&\321/7\306\001\323\357y6X\212`"
  77      C76E513A 
  77      26D12F37 
  77      C601D3EF 
  77      7936588A 
  78 033e BFC80645 		.ascii	"\277\310\006E^\330\256\252\253\013\252\337\366X0\032"
  78      5ED8AEAA 
  78      AB0BAADF 
  78      F658301A 
  79 034e 0FC6A246 		.ascii	"\017\306\242F\320\010\205c\307\352\014\340F<\022\230"
ARM GAS  /tmp/cc1d6xpg.s 			page 6


  79      D0088563 
  79      C7EA0CE0 
  79      463C1298 
  80 035e 75DE76C2 		.ascii	"u\336v\3028\336q\304$\233\230\021:R\027\002\026\217"
  80      38DE71C4 
  80      249B9811 
  80      3A521702 
  80      168F
  81 0370 70327775 		.ascii	"p2wu\266\036\3570\327\317\262\216\264G\343\261\340\316"
  81      B61EEF30 
  81      D7CFB28E 
  81      B447E3B1 
  81      E0CE
  82 0382 C686FA86 		.ascii	"\306\206\372\206.\202\030\355Q\263\245sk\230`\265\271"
  82      2E8218ED 
  82      51B3A573 
  82      6B9860B5 
  82      B9
  83 0393 9666573C 		.ascii	"\226fW<X\337\320\264\247\351\037\275\2604\302\273:N"
  83      58DFD0B4 
  83      A7E91FBD 
  83      B034C2BB 
  83      3A4E
  84 03a5 18645CD9 		.ascii	"\030d\\\331\320\324\0308\334\0323#\321\266\332\300\332"
  84      D0D41838 
  84      DC1A3323 
  84      D1B6DAC0 
  84      DA
  85 03b6 CDC0A2E0 		.ascii	"\315\300\242\340\011\233\341\366\350)\340\361\223\221"
  85      099BE1F6 
  85      E829E0F1 
  85      9391
  86 03c4 BFAE9DA2 		.ascii	"\277\256\235\242)"
  86      29
  87              		.text
  88              		.section	.gnu.lto_chMsgWait.abc06d86ef5200cd,"",%progbits
  89 0000 789C9D54 		.ascii	"x\234\235T]HTQ\020\236\271?\356\366\243\273(\321\037"
  89      5D485451 
  89      109EB93F 
  89      EEF6A3BB 
  89      28D11F
  90 0013 D9120456 		.ascii	"\331\022\004V\342\012=\344c!E\022>\244\004\021l\222"
  90      E20A3DE4 
  90      63214512 
  90      3EA40411 
  90      6C92
  91 0025 D74B2BB8 		.ascii	"\327K+\270j\273\253\250\017y\333z\020\022\261 0#\266"
  91      6ABBABA8 
  91      0F79DB7A 
  91      1012B120 
  91      3023B6
  92 0038 3FCCC41E 		.ascii	"?\314\304\036\204\002\363\305(\363a3\011\362\301H,2"
  92      8402F3C5 
  92      28F36133 
  92      09F2C148 
  92      2C32
  93 004a 4228A217 		.ascii	"B(\242\027a\205\005\233s\316\275\353\376\270\333\342"
ARM GAS  /tmp/cc1d6xpg.s 			page 7


  93      6185059B 
  93      73CEBDEB 
  93      FEB8DBE2 
  94 005a D1BD7338 		.ascii	"\321\275s8g\346\233\231o\346\214\004H\177\351\353(\375"
  94      67E69B99 
  94      6FE68C04 
  94      487FE9EB 
  94      28FD
  95 006c 4EDA0116 		.ascii	"N\332\001\026I\242\012(\365\317\002\\sI\222\274b\003"
  95      49A20A28 
  95      F5CF025C 
  95      734992BC 
  95      6203
  96 007e A344B937 		.ascii	"\243D\2717\015`\224\313\250\210s\005\221m\010\252[\222"
  96      0D6094CB 
  96      A8887305 
  96      916D08AA 
  96      5B92
  97 0090 15EC3EC7 		.ascii	"\025\354>\3071\355\007\340\241a\334\356\177\033:\035"
  97      31ED07E0 
  97      A161DCEE 
  97      7F1B3A1D 
  98 00a0 FAB6B6B6 		.ascii	"\372\266\266\266_g\247u\010\221\330\322\316\335\240"
  98      5F67A775 
  98      0891D8D2 
  98      CEDDA0
  99 00af 23820B98 		.ascii	"#\202\013\230\224@I\366.\354\376\276\011\3552\355dn"
  99      944049F6 
  99      2EECFEBE 
  99      09ED32ED 
  99      646E
 100 00c1 D7218CEC 		.ascii	"\327!\214\354\246\021nd\224\340L\341F\261\360O\314\301"
 100      A6116E64 
 100      94E04CE1 
 100      46B1F04F 
 100      CCC1
 101 00d3 59FF7523 		.ascii	"Y\377u#\036\244\004\305\310Lg\302\355\377\267\034L\013"
 101      1EA404C5 
 101      C84C67C2 
 101      EDFFB71C 
 101      4C0B
 102 00e5 732ADCBC 		.ascii	"s*\334\274\231@\207&^\316\251\271D\232Jg\324\266\031"
 102      99408726 
 102      5ECEA9B9 
 102      449A4A67 
 102      D4B619
 103 00f8 ABA1DE3B 		.ascii	"\253\241\336;\277\306\263\373\213D\227\366\375\030\316"
 103      BFC6B3FB 
 103      8B4497F6 
 103      FD18CE
 104 0107 9B945E7F 		.ascii	"\233\224^\177[\353\006\330\203\340\301\007x\200\324"
 104      5BEB06D8 
 104      83E0C107 
 104      7880D4
 105 0116 8454493E 		.ascii	"\204TI>\"\351 \371\224\244\223\344\020\311B\222\217"
 105      22E920F9 
 105      94A493E4 
ARM GAS  /tmp/cc1d6xpg.s 			page 8


 105      10C94292 
 105      8F
 106 0127 4916911C 		.ascii	"I\026\221\034&IK\205\033\206\341Dq^g\022r\226I\3267"
 106      26494B85 
 106      1B86E144 
 106      715E6712 
 106      729649D6 
 107 013c 35E49B6D 		.ascii	"5\344\233m\344i\220P\250\232\026\204\360\214N\262TK"
 107      E4699050 
 107      A89A1684 
 107      F08C4EB2 
 107      544B
 108 014e 95A09E57 		.ascii	"\225\240\236W\353{\337\330bi\326|\330\241J\227\000\357"
 108      EB7BDFD8 
 108      6269D67C 
 108      D8A14A97 
 108      00EF
 109 0160 21842377 		.ascii	"!\204#w\356.U$9\243\360F)<\017\216$\271d/d\222jK1\362"
 109      EE2E5524 
 109      39A3F046 
 109      293C0F8E 
 109      24B9642F 
 110 017a 0F40317C 		.ascii	"\017@1|\304\373\306\300q\035\363\222`\343\327\237\314"
 110      C4FBC6C0 
 110      711DF392 
 110      60E3D79F 
 110      CC
 111 018b 6B9BE011 		.ascii	"k\233\340\021B\027X\317\213\\4\304#p\230\312 sa\227"
 111      421758CF 
 111      8B5C34C4 
 111      237098CA 
 111      20736197 
 112 019f 07E12EEA 		.ascii	"\007\341.\352\270E\352\202U\303\256\343Vl\024o\222\341"
 112      B845EA82 
 112      55C3AEE3 
 112      566C146F 
 112      92E1
 113 01b1 6EE5FE01 		.ascii	"n\345\376\001.\262O\217\215\357h\033\025\361\021]&A"
 113      2EB24F8F 
 113      8DEF681B 
 113      15F1115D 
 113      2641
 114 01c3 E94DECC1 		.ascii	"\351M\354\301'\304@b;f`Ec\200,Dj\300\230\234J\310+N"
 114      27C44062 
 114      3B666045 
 114      63802C44 
 114      6AC0989C 
 115 01db 48720D34 		.ascii	"Hr\0154t$f\260\315\314`\273DP\314\005\304\203&:\306"
 115      742466B0 
 115      CDCC60BB 
 115      4450CC05 
 115      C483263A 
 116 01f0 55BEA3A7 		.ascii	"U\276\243\247\021\215\263\261*/\347{p\202\223\341\354"
 116      118DB3B1 
 116      2A2FE77B 
 116      708293E1 
 116      EC
ARM GAS  /tmp/cc1d6xpg.s 			page 9


 117 0201 824E7A02 		.ascii	"\202Nz\002\230\003\324\200\203v\313\371\034\345\035"
 117      9803D480 
 117      8376CBF9 
 117      1CE51D
 118 0210 4CFDC448 		.ascii	"L\375\304H\354\261l\221\352 \250\365\020k\230\303\025"
 118      ECB16C91 
 118      EA20A8F5 
 118      106B98C3 
 118      15
 119 0221 9B3C03CA 		.ascii	"\233<\003\312\357\360\010Z\031\230\024\347c\035\"\306"
 119      EFF0085A 
 119      199814E7 
 119      631D22C6 
 120 0231 7BA2000A 		.ascii	"{\242\000\012\350\353\260,\025\321\213\214\222X\370"
 120      E8EBB02C 
 120      15D18B8C 
 120      9258F8
 121 0240 0F5A0E94 		.ascii	"\017Z\016\224MV\015\254\242\301z\372\0036\013U\315\224"
 121      4D560DAC 
 121      A2C17AFA 
 121      03360B55 
 121      CD94
 122 0252 BE62A5DF 		.ascii	"\276b\245\337\263\305\312\237\255\001\333\377*\257H"
 122      B3C5CA9F 
 122      AD01DBFF 
 122      2AAF48
 123 0261 F00531B7 		.ascii	"\360\0051\267\312\253f\345{o\375\2327K\217YZ\011\262"
 123      CAAB66E5 
 123      7B6FFD9A 
 123      374B8F59 
 123      5A09B2
 124 0274 C2C57B26 		.ascii	"\302\305{&\262a\317\024\232\374\211\024\267Y)*PbrE\025"
 124      B261CF14 
 124      9AFC8914 
 124      B759292A 
 124      50627245 
 125 0289 9B8FF7F5 		.ascii	"\233\217\367\365<\025v\006\331\204\371@hd-\"\235\033"
 125      3C157606 
 125      D984F940 
 125      68642D22 
 125      9D1B
 126 029b 5DDA212E 		.ascii	"]\332!.4,J\002d\234\025&\267L<>\262\254\212\232\200"
 126      342C4A02 
 126      649C1526 
 126      B74C3C3E 
 126      B2AC8A9A 
 127 02b0 3944E1E5 		.ascii	"9D\341\345\361\026q\2733\013\243\354\341\246Y2wE\311"
 127      F11671BB 
 127      330BA3EC 
 127      E1A65932 
 127      7745C9
 128 02c3 EE28F665 		.ascii	"\356(\366e\331\242\225R\210\254Y\335)\306\236\031I\305"
 128      D9A29552 
 128      88AC59DD 
 128      29C69E19 
 128      49C5
 129 02d5 D4F05571 		.ascii	"\324\360Uq\314\001\235\033\305\177\236\003\346AB\213"
ARM GAS  /tmp/cc1d6xpg.s 			page 10


 129      CC019D1B 
 129      C57F9E03 
 129      E641428B 
 130 02e5 E60B5E52 		.ascii	"\346\013^R\306c\206)\311W\372\250\364\340sQ\310\357"
 130      C6638629 
 130      C957FAA8 
 130      F4E07351 
 130      C8EF
 131 02f7 7DB7BEE6 		.ascii	"}\267\276\3462+\331\3128+\027x\231?g\232\225\036\034"
 131      322BD9CA 
 131      382B1778 
 131      993F679A 
 131      951E1C
 132 030a A3CD3A8E 		.ascii	"\243\315:\2169\034=\370\002\213\371\301,`\344\246j="
 132      391C3DF8 
 132      028BF9C1 
 132      2C60E4A6 
 132      6A3D
 133 031c 84420170 		.ascii	"\204B\001p\226\275\024z~LwoY\231[\374\267\004\334\376"
 133      96BD147A 
 133      7E4C776F 
 133      59995BFC 
 133      B704DCFE 
 134 0330 A03BE0D7 		.ascii	"\240;\340\327\334\232\327\027\270\\\246\201\024l\335"
 134      DC9AD717 
 134      B85CA681 
 134      146CDD
 135 033f 9F72DDD8 		.ascii	"\237r\335\330\2545\2655\350\246\212\027\\\031\357\003"
 135      AC35B535 
 135      E8A68A17 
 135      5C19EF03 
 136 034f 9AB78114 		.ascii	"\232\267\201\024\324\366KMm\372\241\024\265\326\026"
 136      D4F64B4D 
 136      6DFAA114 
 136      B5D616
 137 035e 7F30E03E 		.ascii	"\1770\340>QS]Y\335A\272Z\213_\257k?\346#\375\322DM\275"
 137      51535D59 
 137      DD41BA5A 
 137      8B5FAF6B 
 137      3FE623FD 
 138 0376 23E8AEAC 		.ascii	"#\350\256\254\256\255\252]\307e\232\232\357T[\263F\312"
 138      AEADAA5D 
 138      C7659A9A 
 138      EF545BB3 
 138      46CA
 139 0388 CEEADA1A 		.ascii	"\316\352\332\032W\375\245\200\336\352o,u\035,\007\311"
 139      57FDA580 
 139      DEEA6F2C 
 139      751D2C07 
 139      C9
 140 0399 0F369FEE 		.ascii	"\0176\237\356k\361w\202\034\274\322\372\017\003T\316"
 140      6BF17782 
 140      1CBCD2FA 
 140      0F0354CE 
 141 03a9 54       		.ascii	"T"
 142              		.text
 143              		.section	.gnu.lto_chMsgRelease.abc06d86ef5200cd,"",%progbits
ARM GAS  /tmp/cc1d6xpg.s 			page 11


 144 0000 789C8D52 		.ascii	"x\234\215RMH\033Q\020\376\346\255Q\333\223W)$\251\324"
 144      4D481B51 
 144      10FEE6AD 
 144      51DB9357 
 144      2924A9D4 
 145 0014 4341767B 		.ascii	"CAv{k\217\212 z\310\301\204\036\227`\267\217&\340\232"
 145      6B8F8A20 
 145      7AC8C184 
 145      1E9760B7 
 145      8F26E09A 
 146 0028 B09B88ED 		.ascii	"\260\233\210\355%k\352I(\204\212E\017\202\326JEJ\177"
 146      256BEA49 
 146      28848A45 
 146      0F82D64A 
 146      454A7F
 147 003b 0E2DBD14 		.ascii	"\016-\275\024=\224\026l\361\332\253Pz\365\322Rj/q\336"
 147      3D94166C 
 147      F1DAAB50 
 147      7AF5D252 
 147      6A2F71DE 
 148 004f DBD464D5 		.ascii	"\333\324d\325h\337\356\333\031\336|\363\3157oV\200\370"
 148      68DFEEDB 
 148      19DE7CF3 
 148      CD376F56 
 148      80F8
 149 0061 39BD7A79 		.ascii	"9\275zy\217\031\300\007\266d\200Dm\017\230M\012\"\345"
 149      8F19C007 
 149      B6648044 
 149      6D0F984D 
 149      0A22E5
 150 0074 704A4550 		.ascii	"pJEP\345v\230\271\273\271a\376\332\352\334\026;\373"
 150      E57698B9 
 150      BBB961FE 
 150      DAEADC16 
 150      3BFB
 151 0086 F5CA35AC 		.ascii	"\365\3125\254\007\301\343\332\303`T\022\004\342\204"
 151      07C1E3DA 
 151      C3605412 
 151      04E284
 152 0095 2CE1E3D6 		.ascii	",\341\343\326o\352\205$B\022\312\012t(\022\215\255\205"
 152      6FEA8524 
 152      4212CA0A 
 152      7428128D 
 152      AD85
 153 00a7 5843E0AA 		.ascii	"XC\340\252\306\376\271t\032\311\216\301\033\270Ld\323"
 153      C6FEB974 
 153      1AC98EC1 
 153      1BB84C64 
 153      D3
 154 00b8 2A270AB6 		.ascii	"*'\012\266O\331\362\212a.\010z(\257\263\365\032WV\351"
 154      4FD9F28A 
 154      612E087A 
 154      28AFB3F5 
 154      1A5756E9 
 155 00cc 4C73BE72 		.ascii	"Ls\276r\214O\234\020\342\032p\330\364\214O\232\253\017"
 155      8C4F9C10 
 155      E21A70D8 
ARM GAS  /tmp/cc1d6xpg.s 			page 12


 155      F48C4F9A 
 155      AB0F
 156 00de 6B0DDDD5 		.ascii	"k\015\335\325\375z=!\251C\240_S\036\314\377\374!\316"
 156      FD7A3D21 
 156      A943A05F 
 156      531ECCFF 
 156      FC21CE
 157 00f1 D0D47A59 		.ascii	"\320\324zY\014\347 \360\005Uz\367h\371\373\255H1\326"
 157      0CE720F0 
 157      05557AF7 
 157      68F9FBAD 
 157      4831D6
 158 0104 FA9CFAB8 		.ascii	"\372\234\372\270\344F\244\244\272\371*7\306\032\365"
 158      E446A4A4 
 158      BAF92A37 
 158      C61AF5
 159 0113 07886381 		.ascii	"\007\210c\201V\202\245A\251qM\332\343\360\223F\270S"
 159      5682A541 
 159      A9714DDA 
 159      E3F09346 
 159      B853
 160 0125 13A8AECE 		.ascii	"\023\250\256\316P\316\205\326X$K\347\311\030\347*w8"
 160      50CE85D6 
 160      58244BE7 
 160      C918E72A 
 160      7738
 161 0137 D44A536B 		.ascii	"\324JSk\2411lZ\017ip\001\007\213\373\212\330\337\305"
 161      A1316C5A 
 161      0F697001 
 161      078BFB8A 
 161      D8DFC5
 162 014a 6F9F1391 		.ascii	"o\237\023\221\276\205Mot\337\257\3657z\341\300\003\034"
 162      BE854D6F 
 162      74DFAFF5 
 162      377AE1C0 
 162      031C
 163 015c 06DD92BA 		.ascii	"\006\335\222\272(KD\377\3440\233\244\356PTtbm\006\327"
 163      284B44FF 
 163      E4309BA4 
 163      EE505474 
 163      626D06D7 
 164 0170 667A366D 		.ascii	"fz6m\206\342\017\346\017\377k|8o|\357u\003o\333\215"
 164      86E20FE6 
 164      0FFF6B7C 
 164      386F7CEF 
 164      75036FDB 
 165 0185 CFA617EC 		.ascii	"\317\246\027\3544y\032\363\262\351\025\305\365\301\036"
 165      34791AF3 
 165      B2E915C5 
 165      F5C11E
 166 0194 68F7A58C 		.ascii	"h\367\245\214J\037WM\363\317\251\240WL\323\012\337\202"
 166      4A1F574D 
 166      F3CFA9A0 
 166      574CD30A 
 166      DF82
 167 01a6 6F7925CB 		.ascii	"oy%\313\367\034\313\311\271\376=\323\201(\025\015\366"
 167      F71CCBC9 
ARM GAS  /tmp/cc1d6xpg.s 			page 13


 167      B9FE3DD3 
 167      8128150D 
 167      F6
 168 01b7 62D31393 		.ascii	"b\323\023\223ey\375\004\260X\360J\2765\224N\015\247"
 168      6579FD04 
 168      B058F04A 
 168      BE35944E 
 168      0DA7
 169 01c9 6638C329 		.ascii	"f8\303)x2;}\3235s\030hE\312\231\2225\234\312\214e\254"
 169      78323B7D 
 169      D3357318 
 169      6845CA99 
 169      92359CCA 
 170 01e0 FC943359 		.ascii	"\374\2243Y\276+-\215t\334\221\362\224\303\340\236T&"
 170      BE2B2D8D 
 170      74DC91F2 
 170      94C3E09E 
 170      5426
 171 01f2 9DBC33E1 		.ascii	"\235\2743\341\313\242\227\037H\366\337\200\360\320\345"
 171      CBA2971F 
 171      48F6DF80 
 171      F0D0E5
 172 0201 4AB7E0DD 		.ascii	"J\267\340\335G\342D\311c\006\255/\207#+\257\323\023"
 172      47E244C9 
 172      6306AD2F 
 172      87232BAF 
 172      D313
 173              		.text
 174              		.section	.gnu.lto_.cgraph.abc06d86ef5200cd,"",%progbits
 175 0000 789C6362 		.ascii	"x\234cb`d`f``(b\200\002\246\217\214\365\014\014\023"
 175      60646066 
 175      60602862 
 175      8002A68F 
 175      8CF50C0C 
 176 0015 CE31D4D7 		.ascii	"\3161\324\327\317\353`d\372\304X\317\210\340}f\254g"
 176      CFEB6064 
 176      FAC458CF 
 176      88E07D66 
 176      AC67
 177 0027 82F3187F 		.ascii	"\202\363\030\1770\3263\203y\015\015\214\214?\031\353"
 177      30D63383 
 177      790D0D8C 
 177      8C3F19EB 
 178 0037 59E09CAF 		.ascii	"Y\340\234\257\214\365\2540\0163\003\013C\363\251\343"
 178      8CF5AC30 
 178      0E33030B 
 178      43F3A9E3 
 179 0047 CCCC407B 		.ascii	"\314\314@{\026w\275\221g\006\212<\336\312\307\314\304"
 179      1677BD91 
 179      67068A3C 
 179      DECAC7CC 
 179      C4
 180 0058 CAD0FCF0 		.ascii	"\312\320\374\360\037#\003\000\275/$\346"
 180      1F230300 
 180      BD2F24E6 
 181              		.text
 182              		.section	.gnu.lto_.vars.abc06d86ef5200cd,"",%progbits
ARM GAS  /tmp/cc1d6xpg.s 			page 14


 183 0000 789C6362 		.ascii	"x\234cb`d`f```g\200\000\306\357\214\014\014\365\014"
 183      60646066 
 183      60606067 
 183      8000C6EF 
 183      8C0C0CF5 
 184 0015 0007D001 		.ascii	"\000\007\320\001\206"
 184      86
 185              		.text
 186              		.section	.gnu.lto_.refs.abc06d86ef5200cd,"",%progbits
 187 0000 789C6362 		.ascii	"x\234cb`d`f``\340a\200\000F db\004\221\014\014\000\001"
 187      60646066 
 187      6060E061 
 187      80004620 
 187      64620491 
 188 0018 DD001A   		.ascii	"\335\000\032"
 189              		.text
 190              		.section	.gnu.lto_.statics.abc06d86ef5200cd,"",%progbits
 191 0000 789C6362 		.ascii	"x\234cb`d`b\300\016@\342\214\020&\000\000\375\000\011"
 191      60646062 
 191      C00E40E2 
 191      8C102600 
 191      00FD0009 
 192              		.text
 193              		.section	.gnu.lto_.decls.abc06d86ef5200cd,"",%progbits
 194 0000 789CB55A 		.ascii	"x\234\265Z\177p\024\325\035\337\267K\356rI\010\210\205"
 194      7F7014D5 
 194      1DDFB74B 
 194      EE724908 
 194      8885
 195 0012 49AD2369 		.ascii	"I\255#iG:\352T\316\037\200\350Tj\2133B;ZGt\2643\336"
 195      473AEA54 
 195      CE1F80E8 
 195      546A8B33 
 195      423B5A47 
 196 002a 9CC76549 		.ascii	"\234\307eIN\356\227{\033\010\375\243sD\301\2102\305"
 196      4EEE977B 
 196      1B08FDA3 
 196      7344C188 
 196      32C5
 197 003c 4014CAC4 		.ascii	"@\024\312\304\0041\250\210\" B\264\010H\232\240F$\020"
 197      0431A888 
 197      222042B4 
 197      08489AA0 
 197      462410
 198 004f 04F91584 		.ascii	"\004\371\025\204\210\230F\020\213\024\003&\375\276\267"
 198      88984610 
 198      8B140326 
 198      FDBEB7
 199 005e BB6FDFDE 		.ascii	"\273o\337\336\355\336\336^\350\316\275\267{\357\336"
 199      EDDEDE5E 
 199      E8CEBDB7 
 199      7BEFDE
 200 006d FBBCEF8F 		.ascii	"\373\274\357\217\317\367\375\272\3459\304\341\253\023"
 200      CFF7FDBA 
 200      E539C4E1 
 200      AB13
 201 007b 6E037035 		.ascii	"n\003p5\216\347\270\246<\216\033\002ewBBj\302\227\013"
ARM GAS  /tmp/cc1d6xpg.s 			page 15


 201      8EE7B8A6 
 201      3C8E1B02 
 201      65774242 
 201      6AC2970B 
 202 008f 5223A4FB 		.ascii	"R#\244\373\241\340AH\217Bz\014R\031R\352\314\320*\252"
 202      A1E04148 
 202      8F427A0C 
 202      521952EA 
 202      CCD02AAA 
 203 00a3 17AE3B12 		.ascii	"\027\256;\022R;\224\027\303\275H\305Z\015\351eHQ\370"
 203      523B9417 
 203      C3BD48C5 
 203      5A0DE965 
 203      4851F8
 204 00b6 520EE953 		.ascii	"R\016\351SH\315\360}\027\334wCz\003\236\207\301}\022"
 204      48CDF07D 
 204      17DC7743 
 204      7A039E87 
 204      C17D12
 205 00c9 DC2F42FA 		.ascii	"\334/B\372\006\322\036\370\036\200\264\027\222\017R"
 205      06D21EF8 
 205      1E80B417 
 205      920F52
 206 00d8 219445E0 		.ascii	"!\224E\340\3767H\277\203t'\244>\214\017\367up\037\005"
 206      FE3748BF 
 206      837427A4 
 206      3E8C0FF7 
 206      75701F05 
 207 00ec F70D703F 		.ascii	"\367\015p?\005\351'H\202*\317c\252\334\274\252s\252"
 207      05E92748 
 207      822ACF63 
 207      AADCBCAA 
 207      73AA
 208 00fe CC58B72B 		.ascii	"\314X\267+T\0315\231\017\"E\007VFV\366a\252\314{U;`"
 208      54193599 
 208      0F224507 
 208      564656F6 
 208      61AACC7B 
 209 0115 F9B0CC6E 		.ascii	"\371\260\314nFF,\337HU6M.^\355\357Q\013\373a\033{Rd"
 209      46462CDF 
 209      4855364D 
 209      2E5EEDEF 
 209      510BFB61 
 210 012d C17663E5 		.ascii	"\301vc\3458\002\351!\265\035\257\266\321\374q4\005o"
 210      3802E921 
 210      B51DAFB6 
 210      D1FC7134 
 210      056F
 211 013f 34F752B2 		.ascii	"4\367R\262\361\330\242'\223S.\014\014\270GquI\270\032"
 211      F1D8A227 
 211      93532E0C 
 211      0CB84771 
 211      7549B81A 
 212 0153 E7279348 		.ascii	"\347'\223H\366p5\352\227);\241\253\237\203\016\305\320"
 212      F67035EA 
 212      97293BA1 
 212      AB9F830E 
ARM GAS  /tmp/cc1d6xpg.s 			page 16


 212      C5D0
 213 0165 7529792A 		.ascii	"u)y*\362(|\030\303\275\222L.\202j\310\207^F\036\350"
 213      F2287C18 
 213      C3BD924C 
 213      2E826AC8 
 213      875E461E 
 214 017a 8F47DC0D 		.ascii	"\217G\334\015\334\353Ir\251\235\251\267|\256\177\351"
 214      DCEB4972 
 214      A99DA9B7 
 214      7CAE7FE9 
 215 018a BA5E41F9 		.ascii	"\272^A\371\342\030}\025A\277\033\301\317M\350\006\356"
 215      E2187D15 
 215      41BF1BC1 
 215      CF4DE806 
 215      EE
 216 019b FBE7B6B6 		.ascii	"\373\347\266\266\336\250@\371\220\313\303\352D\276+"
 216      DEA840F9 
 216      90CBC3EA 
 216      44BE2B
 217 01aa B51460FC 		.ascii	"\265\024`\3743\356\354\002f3\032\320.\244\375\206\277"
 217      33EEEC02 
 217      66331AD0 
 217      2EA4FD86 
 217      BF
 218 01bb B8B9CB01 		.ascii	"\270\271\313\001a\256\006\306[\201F\221'\201\270\004"
 218      61AE06C6 
 218      5B814691 
 218      2781B804 
 219 01cb B8BA2099 		.ascii	"\270\272 \231\254V\325\037\301=\217\261KYC4\016\241"
 219      AC56D51F 
 219      C13D8FB1 
 219      4B594334 
 219      0EA1
 220 01dd 1077A758 		.ascii	"\020w\247X\342\0154\002@V!\315\024\375/\014\354S\255"
 220      E20D3402 
 220      405621CD 
 220      14FD2F0C 
 220      EC53AD
 221 01f0 9A05120F 		.ascii	"\232\005\022\017\034\307-\337\002\024\245=\301N*\330"
 221      1CC72DDF 
 221      0214A53D 
 221      C14E2AD8 
 222 0200 B89453CB 		.ascii	"\270\224S\313\373\352\353v\225p\351\327\210_r\215 <"
 222      FBEAEB76 
 222      9570E9D7 
 222      885F728D 
 222      203C
 223 0212 268DCB87 		.ascii	"&\215\313\207V\243B\300\034\240\230\2077\367 s3h\317"
 223      56A342C0 
 223      1CA09887 
 223      37F72073 
 223      3368CF
 224 0225 CAA5D551 		.ascii	"\312\245\325Q/\023\314\371\274\206\331;\321\011bi\032"
 224      2F13CCF9 
 224      BC86D93B 
 224      D1096269 
 224      1A
ARM GAS  /tmp/cc1d6xpg.s 			page 17


 225 0236 22215BB5 		.ascii	"\"![\265\003\262\275K\310\266\220\247&\2561\022\327"
 225      03B2BD4B 
 225      C8B690A7 
 225      26AE3112 
 225      D7
 226 0247 095633C1 		.ascii	"\011V3\301\252\343u\346v\264z5\232\271S\230\3536\322"
 226      AAE375E6 
 226      76B47A35 
 226      9AB95398 
 226      EB36D2
 227 025a 4EF9597B 		.ascii	"N\371Y{\302$\033\3069o\300s/QS\366\3257\354\272=\263"
 227      C2241BC6 
 227      396FC073 
 227      2F5153F6 
 227      D537ECBA 
 228 0270 35F32DFD 		.ascii	"5\363-\375\223$\326TI\326\350\262\326\237\347\232H\217"
 228      9324D654 
 228      49D6E8B2 
 228      D69FE79A 
 228      488F
 229 0282 1F9892EC 		.ascii	"\037\230\222\354\003\206d\347Wm\370\330\214d\210q\237"
 229      038664E7 
 229      576DF8D8 
 229      8C648871 
 229      9F
 230 0293 7DB0F0B4 		.ascii	"}\260\360\264\367kI\357{I\357;L{\337\301\364\336\377"
 230      F76B49EF 
 230      7B49EF3B 
 230      4C7BDFC1 
 230      F4DEFF
 231 02a6 E6C56126 		.ascii	"\346\305a&\235{\254:\367\241;Gf\341\3626\302\337g\004"
 231      9D7BAC3A 
 231      F7A13B47 
 231      66E1F236 
 231      C2DF6704 
 232 02ba 44955CDE 		.ascii	"D\225\\\3366Z\363\330\244B\243\007\341\273\346A\"{\255"
 232      365AF3D8 
 232      A442A307 
 232      E1BBE641 
 232      227BAD
 233 02cd A0C9DEFF 		.ascii	"\240\311\336\377f\307\236\353\007\033K\212,u\024\264"
 233      66C79EEB 
 233      071B4B8A 
 233      2C7514B4 
 234 02dd FD8F838B 		.ascii	"\375\217\203\213%\015q)E\354\264A\264\346\223\021q9"
 234      250D7129 
 234      45ECB441 
 234      B4E69311 
 234      7139
 235 02ef 453CEC08 		.ascii	"E<\354\010\321Z\306\227(b\267\015\342\360,e\\A\021{"
 235      D15AC697 
 235      2862B70D 
 235      E2F02C65 
 235      5C41117B 
 236 0303 1D215ACB 		.ascii	"\035!Z\313\370\012E<g\203X\222\245\214\257Q\304K\216"
 236      F80A453C 
 236      67835892 
ARM GAS  /tmp/cc1d6xpg.s 			page 18


 236      A58CAF51 
 236      C44B8E
 237 0316 10AD655C 		.ascii	"\020\255e\\C\021[\376\224\031\261\324L\3064N\245N\216"
 237      43115BFE 
 237      9419B1D4 
 237      4CC6344E 
 237      A54E8E
 238 0329 1F221A13 		.ascii	"\037\"\032\023<\267V\320F\216\363\2536~\354\315\201"
 238      3CB756D0 
 238      468EF3AB 
 238      367EECCD 
 238      81
 239 033a FF146A83 		.ascii	"\377\024j\203\240\017{\353\234\015{f\306P\246\245f\012"
 239      A00F7BEB 
 239      9C0D7B66 
 239      C650A6A5 
 239      660A
 240 034c DAD96C37 		.ascii	"\332\331l7\325\331\323J\301\334N1\017\333HiG+\303p\245"
 240      D5D9D34A 
 240      C1DC4E31 
 240      0FDB4869 
 240      472BC370 
 241 0361 CE55C79A 		.ascii	"\316U\307\232\266\225,e\206\313|\212\206Wf\372\330H"
 241      B6952C65 
 241      86CB7C8A 
 241      865766FA 
 241      D848
 242 0373 AB274B4A 		.ascii	"\253'KJ\254j\373P7\032\003\371W\310C%Q\237\351\343\000"
 242      AC6AFB50 
 242      371A03F9 
 242      57C84325 
 242      519FE9E3 
 243 0388 594C7F24 		.ascii	"YL\177$\260\033\005\366\262omM\225\343,Uv\351\256\270"
 243      B01B05F6 
 243      B26F6D4D 
 243      95E32C55 
 243      76E9AEB8 
 244 039c 23E7D8F9 		.ascii	"#\347\330\371\256:Y\342bT\267\261\224:\304\177Cf\365"
 244      AE3A59E2 
 244      6254B7B1 
 244      943AC47F 
 244      4366F5
 245 03af 7D7488EF 		.ascii	"}t\210\357?p\346\032\005\3251T/\201:*\350\013\204\215"
 245      3F70E61A 
 245      05D53154 
 245      2F813A2A 
 245      E80B848D 
 246 03c3 3FF19AA5 		.ascii	"?\361\232\245P\312\002\001\031\347{\335v\232\351\234"
 246      50CA0201 
 246      19E77BDD 
 246      769AE99C 
 247 03d3 D5E6B993 		.ascii	"\325\346\271\223L\214\\\324c\304(n\026\003Fnf<Kt?\255"
 247      4C8C5CD4 
 247      63C4286E 
 247      1603466E 
 247      663C4B74 
 248 03e9 9B71A766 		.ascii	"\233q\247fF\305.N\2659\317h\263\3703G\332\\7xm\316\023"
ARM GAS  /tmp/cc1d6xpg.s 			page 19


 248      46C52E4E 
 248      B539CF68 
 248      B3F83347 
 248      DA5C3778 
 249 0400 6DFA756D 		.ascii	"m\372umN\015N\233\371Ctm\352\235is\023\243\215\262l"
 249      4E0D4E9B 
 249      F943746D 
 249      EA9D6973 
 249      13A38DB2 
 250 0415 BB92ABB5 		.ascii	"\273\222\253\265[\266a\261.\242+\271\364E\023.\325\026"
 250      5BB661B1 
 250      2EA22BB9 
 250      F445132E 
 250      D516
 251 0427 4D9D5B8B 		.ascii	"M\235[\213\271\364\313\315t\245\355\005\027\022\371"
 251      B9F4CBCD 
 251      74A5ED05 
 251      1712F9
 252 0436 71DBF69D 		.ascii	"q\333\366\235's\336\025\0301\227P\314\226\251\203]\033"
 252      2773DE15 
 252      18319750 
 252      CC96A983 
 252      5D1B
 253 0448 4DC2636F 		.ascii	"M\302co=\005\274\364\321`\267.\206\3217e\345\210\267"
 253      3D05BCF4 
 253      D160B72E 
 253      86D13765 
 253      E588B7
 254 045b 6DF64BC7 		.ascii	"m\366K\307y<Y\024\014\3217w\313Z\177\243Qf5JY;\342\002"
 254      793C5914 
 254      0CD13777 
 254      CB5A7FA3 
 254      5166354A 
 255 0473 66F168ED 		.ascii	"f\361h\355\325\247xf\330\334D5\356\253?\262\307f\344"
 255      D5A77866 
 255      D8DC4435 
 255      EEAB3FB2 
 255      C766E4
 256 0486 74A4B2D9 		.ascii	"t\244\262\331\342\3741\012UDz\337Bz\177\2267[\233\343"
 256      E2FC310A 
 256      55447ADF 
 256      427A7F96 
 256      375B9BE3 
 257 049a 528D663D 		.ascii	"R\215f=\355\317\037\272\316\204h\274J\212\244\276\025"
 257      EDCF1FBA 
 257      CE8468BC 
 257      4A8AA4BE 
 257      15
 258 04ab 31F47797 		.ascii	"1\364w\227aFgm\373w\036o\234{\030\333v\264NU@\265=\315"
 258      6146676D 
 258      FB771E6F 
 258      9C7B18DB 
 258      76B44E55 
 259 04c3 5DD6483C 		.ascii	"]\326H<\327GZ\326\232J^\313\263\033\347\256O\314\366"
 259      D7475AD6 
 259      9A4A5ECB 
 259      B31BE7AE 
ARM GAS  /tmp/cc1d6xpg.s 			page 20


 259      4FCCF6
 260 04d6 347CDACC 		.ascii	"4|\332\314\357C\353\021\257b\266\254\275<\033g\037z"
 260      EF43EB11 
 260      AF62B6AC 
 260      BD3C1B67 
 260      1F7A
 261 04e8 8762B63B 		.ascii	"\207b\266;Z>\225\232\310\254\362GW\332\207\226\360c"
 261      5A3E959A 
 261      C8ACF247 
 261      57DA8796 
 261      F063
 262 04fa 38DE87EA 		.ascii	"8\336\207\352@\035\037z\001rJ\254g\3634\327\366\264"
 262      401D1F7A 
 262      01724AAC 
 262      67F334D7 
 262      F6B4
 263 050c AF3B74BB 		.ascii	"\257;t\273\271\035\263\015x\307'D\313x<>,\316\323\247"
 263      B91DB30D 
 263      78C72744 
 263      CB783C3E 
 263      2CCED3A7 
 264 0520 64BA6957 		.ascii	"d\272iW\216\217\014\032\345v\300\303s\313\030\035\317"
 264      8E8F0C1A 
 264      E576C0C3 
 264      73CB181D 
 264      CF
 265 0531 1ECA652B 		.ascii	"\036\312e+\235f\365\324`]\300\006kC\236\036\254?\375"
 265      9D66F5D4 
 265      605DC006 
 265      6B439E1E 
 265      AC3FFD
 266 0544 DF833589 		.ascii	"\337\2035\211\014+M\236[E\272o4\345|#\303\371\376\317"
 266      0C2B4D9E 
 266      5B45BA6F 
 266      34E57C23 
 266      C3F9FECF 
 267 0558 D71D35E3 		.ascii	"\327\0355\343\274\300D\253\026\201\237Q\314\316M\305"
 267      BCC044AB 
 267      16819F51 
 267      CCCE4DC5 
 268 0568 B992C4B8 		.ascii	"\271\222\304\270\200\336O!\273\367\027\347\340\223A"
 268      80DE4F21 
 268      BBF717E7 
 268      E09341
 269 0577 D888A5E0 		.ascii	"\330\210\245\340\353D\277.J\301\356w\2135\276)\306b"
 269      EB44BF2E 
 269      4AC1EE77 
 269      8B35BE29 
 269      C662
 270 0589 08D8C884 		.ascii	"\010\330\310\204\324\313\020R\202\017\255$!\325D\362"
 270      D4CB1052 
 270      820FAD24 
 270      21D544F2 
 271 0599 57F5C0B2 		.ascii	"W\365\300\262f\312k,S\276\24668\347\314\006\245Y\362"
 271      66CA6B2C 
 271      53BEA636 
 271      38E7CC06 
ARM GAS  /tmp/cc1d6xpg.s 			page 21


 271      A559F2
 272 05ac B281EDED 		.ascii	"\262\201\355\3554\303\313\206+\007GK\307gjkI\250\377"
 272      34C3CB86 
 272      2B07474B 
 272      C7676A6B 
 272      49A8FF
 273 05bf A087FA66 		.ascii	"\240\207\372f&\324\233SC=\2733\262\271.]\241\255{m\002"
 273      26D49B53 
 273      433DBB33 
 273      B2B92E5D 
 273      A1AD7B6D 
 274 05d4 DB54236A 		.ascii	"\333T#j\233\032\227\266nk\277/3N\251\245e\262>kc\355"
 274      9B1A97B6 
 274      6E6BBF2F 
 274      334EA9A5 
 274      65B23E6B 
 275 05ea B291F0EF 		.ascii	"\262\221\360\3579\227>\303mh\235\242\200fuj\267\234"
 275      39973EC3 
 275      6D689DA2 
 275      8066756A 
 275      B79C
 276 05fc B4DC6C1A 		.ascii	"\264\334l\032\355\233\0153\\\207\351\014\207,g8\334"
 276      ED9B0D33 
 276      5C87E90C 
 276      872C6738 
 276      DC
 277 060d BAFDAD9C 		.ascii	"\272\375\255\234f\270\364\213\025\321\207\336\203\340"
 277      66B8F48B 
 277      15D187DE 
 277      83E0
 278 061b 01F9DE67 		.ascii	"\001\371\336gg\2427\250\007\316\355\262[y\032}Pj\360"
 278      67A237A8 
 278      07CEEDB2 
 278      5B791A7D 
 278      506AF0
 279 062e 013B6C6D 		.ascii	"\001;lm\244\230\335\177\316<j]g\343Um-\273\215\"\266"
 279      A498DD7F 
 279      CE3C6A5D 
 279      67E3556D 
 279      2DBB8D22 
 280 0643 3C9259C6 		.ascii	"<\222Y\306\233,\0215c+!\321\252\353\355\010\261\324"
 280      9B2C1135 
 280      632B21D1 
 280      AAEBED08 
 280      B1D4
 281 0655 04B1812C 		.ascii	"\004\261\201,E;(b\357\027v\356\233h+\245r\260~H\217"
 281      453B2862 
 281      EF1776EE 
 281      9B682BA5 
 281      72B07E48 
 282 066a 8F8376DE 		.ascii	"\217\203v\336\231h+'Y\305\237\324My\310N\314\273\262"
 282      99682B27 
 282      59C59FD4 
 282      4D79C84E 
 282      CCBBB2
 283 067d 6599FE1F 		.ascii	"e\231\376\037\211\017\275\215\306p#|h\035\302\203\363"
 283      890FBD8D 
ARM GAS  /tmp/cc1d6xpg.s 			page 22


 283      C670237C 
 283      681DC283 
 283      F3
 284 068e 06926F24 		.ascii	"\006\222o$\371\026\222\037!y\027\311\277$\371)\222\177"
 284      F916921F 
 284      217917C9 
 284      BF24F929 
 284      927F
 285 06a0 47F21F48 		.ascii	"G\362\037H\336G\362w\310\360\276\205\344[I\276\235\344"
 285      DE47F277 
 285      C8F0BE85 
 285      E45B49BE 
 285      9DE4
 286 06b2 3B48FE2F 		.ascii	";H\376/\222\267e3\370\247,\376y\365\257%\205\\\370\376"
 286      92B76533 
 286      F8A72CFE 
 286      79F5AF25 
 286      855CF8FE 
 287 06c6 A040E3E1 		.ascii	"\240@\343\3414\035\022\216\2379\373\357*\245\370Zne"
 287      341D128E 
 287      9F39FBEF 
 287      2AA5F85A 
 287      6E65
 288 06d8 32598BAD 		.ascii	"2Y\213\255\250M\243K\334d\012A\243\271\315n\363\216"
 288      A84DA34B 
 288      DC640A41 
 288      A3B9CD6E 
 288      F38E
 289 06ea 1169B448 		.ascii	"\021i\264Hi\244\260\370E\332\350\200\307BZU&u\007\363"
 289      69A4B0F8 
 289      45DAE880 
 289      C7425A55 
 289      267507F3 
 290 06fe 6BAE0947 		.ascii	"k\256\011G\302\216\352)\272\254\270y\225\225\256\244"
 290      C28EEA29 
 290      BAACB879 
 290      9595AEA4 
 291 070e C6C73CCF 		.ascii	"\306\307<\317z'\303?\227J7\326\206\353\340G\251O\232"
 291      7A27C33F 
 291      974A37D6 
 291      86EBE047 
 291      A94F9A
 292 0721 8560E473 		.ascii	"\205`\344sk\006ji\210j}\020A\253\025A\225\275\227\017"
 292      6B066A69 
 292      886A7D10 
 292      41AB1541 
 292      95BD970F 
 293 0735 EDE6475B 		.ascii	"\355\346G[;\205\324\330\343@P\313\277\0230\320>\336"
 293      3B85D4D8 
 293      E34050CB 
 293      BF1330D0 
 293      3EDE
 294 0747 F09FA1EA 		.ascii	"\360\237\241\352\244Lnn\322\265X}\225\271\223}\250\235"
 294      A44C6E6E 
 294      D2B5587D 
 294      95B9937D 
 294      A89D
ARM GAS  /tmp/cc1d6xpg.s 			page 23


 295 0759 C7037227 		.ascii	"\307\003r'\350q ['\373\320.\332\350\202\023''\267U\227"
 295      E871205B 
 295      27FBD02E 
 295      DAE88213 
 295      2727B755 
 296 076e 102D39B5 		.ascii	"\020-9\265u\205!\300\016\244\233\352\030t\333\350\330"
 296      758521C0 
 296      0EA49BEA 
 296      1874DBE8 
 296      D8
 297 077f 5447524D 		.ascii	"TGRM\205\317\347\220\3016\353\251m\372\352\2778^#\260"
 297      85CFE790 
 297      C136EBA9 
 297      6DFAEABF 
 297      385E23B0 
 298 0793 1D43E43A 		.ascii	"\035C\344:\220$3\273\2764\363\232Q\224mT\224\303\013"
 298      902433BB 
 298      BE34F39A 
 298      51946D54 
 298      94C30B
 299 07a6 4E180E53 		.ascii	"N\030\016S|\350D&A\024N\360\\;\0058\267`e\221\021\340"
 299      7CE84426 
 299      41144EF0 
 299      5C3B0538 
 299      B7606591 
 300 07bc 2B23C0AF 		.ascii	"+#\300\257\270\025\030 \331X#$\223\227\006\006\004m"
 300      B8151820 
 300      D9582324 
 300      93970606 
 300      046D
 301 07ce 495B     		.ascii	"I["
 302 07d0 73823968 		.ascii	"s\2029hM\216\244z\354\306\315\331E\305\327d\366\373"
 302      4D8EA47A 
 302      ECC6CDD9 
 302      45C5D764 
 302      F6FB
 303 07e2 827609DB 		.ascii	"\202v\011\333\346\266;\024\360\254\260x\356+\322\266"
 303      E6B63B14 
 303      F0ACB078 
 303      EE2BD2B6 
 304 07f2 C77459D1 		.ascii	"\307tY\321cXV\324\231n\"\\6[\376c\372\212\374\352\024"
 304      635856D4 
 304      996E225C 
 304      365BFE63 
 304      FA8AFCEA 
 305 0807 E14F13E1 		.ascii	"\341O\023\341\3170\302w\265N2\012\237\001\211\347.\221"
 305      CF30C277 
 305      B54E320A 
 305      9F0189E7 
 305      2E91
 306 0819 96674D45 		.ascii	"\226gME?k\\\021\035\264\023][H,\310\3270\333{\364\351"
 306      3F6B5C11 
 306      1DB4135D 
 306      5B482CC8 
 306      D730DB7B 
 307 082f 2FD70D90 		.ascii	"/\327\015\2202\245\326R\314\316\307s\335\377h\213\223"
 307      32A5D652 
ARM GAS  /tmp/cc1d6xpg.s 			page 24


 307      CCCEC773 
 307      DDFF688B 
 307      93
 308 0840 0FC80B06 		.ascii	"\017\310\013\006\313(b\267#\304R\023\031\225\331\245"
 308      CB2862B7 
 308      23C45213 
 308      1995D9A5 
 309 0850 81225EEA 		.ascii	"\201\"^\352\271\\\377\234\274J1[f:A\264\226r-E<l\203"
 309      B95CFF9C 
 309      BC4A315B 
 309      663A41B4 
 309      96722D45 
 310 0867 68FAA742 		.ascii	"h\372\247B\372\305\322\307\207\376\003\253U\350\353"
 310      FAC5D2C7 
 310      87FE03AB 
 310      55E8EB
 311 0876 1C99E7CF 		.ascii	"\034\231\347\317\223\374\002\311\373H~\211\344\375\354"
 311      93FC02C9 
 311      FB487E89 
 311      E4FDEC
 312 0885 5AB6395F 		.ascii	"Z\2669_\213\236s\027t\272\2440\325\236/\326\341\223"
 312      8B9E7317 
 312      74BAA430 
 312      D59E2FD6 
 312      E193
 313 0897 61435B2D 		.ascii	"aC[-`*l\315\327\303\247\276\355\021\353\360I;>\330G"
 313      602A6CCD 
 313      D7C3A7BE 
 313      ED11EBF0 
 313      493B3ED8 
 314 08ac 5ACE13CC 		.ascii	"Z\316\023\314\302\007\227\352\341\363\337\375f\3413"
 314      C20797EA 
 314      E1F3DFFD 
 314      66E133
 315 08bb C4D16B00 		.ascii	"\304\321k\000z\357?K\321c\001\321\243\227\321cq\333"
 315      7AEF3F4B 
 315      D16301D1 
 315      A397D163 
 315      71DB
 316 08cd 546B3D52 		.ascii	"Tk=R\220`\030 -\027\232\352\261\320\240\307&S=\362\014"
 316      90601820 
 316      2D179AEA 
 316      B1D0A0C7 
 316      26533DF2 
 317 08e2 447B46C0 		.ascii	"D{F\300D[\350\3210\273\217\014\376\350O\301\254\243"
 317      445BE8D1 
 317      30BB8F0C 
 317      FEE84FC1 
 317      ACA3
 318 08f4 98BD3E27 		.ascii	"\230\275>'\210\351\341\340xO^'\340q\250\336\243\233"
 318      88E9E1E0 
 318      784F5E27 
 318      E071A8DE 
 318      A39B
 319 0906 78FF3EFA 		.ascii	"x\377>\3727V\216{\362W\251:}\365[\366\347\374\336\212"
 319      37568E7B 
 319      F257A93A 
ARM GAS  /tmp/cc1d6xpg.s 			page 25


 319      7DF55BF6 
 319      E7FCDE8A 
 320 091a 097F9C2C 		.ascii	"\011\177\234,.\226\013)3\372$\343\204no\233\177\020"
 320      2E960B29 
 320      33FA24E3 
 320      846E6F9B 
 320      7F10
 321 092c E7BCCDD8 		.ascii	"\347\274\315\330\346\307V\365l;\345_\002\334\227\265"
 321      E6C756F5 
 321      6C3BE55F 
 321      02DC97B5 
 322 093c 240D8261 		.ascii	"$\015\202a\311o\260h\312o0n0\306\333\352\314x\351tP"
 322      C96FB068 
 322      CA6F306E 
 322      30C6DBEA 
 322      CC78E974 
 323 0951 B759DB29 		.ascii	"\267Y\333)f\373\321\234\206\360\364\213\015+\230!\205"
 323      66FBD19C 
 323      86F0F48B 
 323      0D2B9821 
 323      85
 324 0962 315C9E0F 		.ascii	"1\\\236\017-\022\3600XK\362%$_F\362\025B\026\033#\034"
 324      2D12F030 
 324      584BF225 
 324      245F46F2 
 324      1542161B 
 325 0978 0A14FC79 		.ascii	"\012\024\374y\201WG\240n\377\345\2101\037ZL\021\317"
 325      815747A0 
 325      6EFFE588 
 325      311F5A4C 
 325      11CF
 326 098a 39423433 		.ascii	"9B43*\016\032\037ZJ\021[N\331\355\207\355\337\246Q\002"
 326      2A0E1A1F 
 326      5A4A115B 
 326      4ED9ED87 
 326      EDDFA651 
 327 099f 71A7471B 		.ascii	"q\247G\033y[B9\270\336\314O\363\030?=\015~\032\342C"
 327      795B4239 
 327      B8DECC4F 
 327      F3183F3D 
 327      0D7E1AE2 
 328 09b4 35C42B2B 		.ascii	"5\304++I\376\012\311\233\004f\352\352\364hSW\347\034"
 328      49FE0AC9 
 328      9B0466EA 
 328      EAF46853 
 328      57E71C
 329 09c7 8B39C27C 		.ascii	"\2139\302|2em\225\323I\330\353d\300?\304D\334\2466'"
 329      32656D95 
 329      D349D8EB 
 329      64C03FC4 
 329      44DCA636 
 330 09dc 27613DA4 		.ascii	"'a=\244\345\032\323\001\177\215a\300\257;dy\022\366"
 330      E51AD301 
 330      7F8D61C0 
 330      AF3B6479 
 330      12F6
 331 09ee D493FAC0 		.ascii	"\324\223\372\300\363$\015\361\0230\026Z\223\327\360"
ARM GAS  /tmp/cc1d6xpg.s 			page 26


 331      F3240DF1 
 331      1330165A 
 331      93D7F0
 332 09fd 82431F95 		.ascii	"\202C\037\225\242\363\333\365|\016\3645s\343\032\306"
 332      A2F3DBF5 
 332      7C0EF435 
 332      73E31AC6 
 333 0a0d 8D6F09E4 		.ascii	"\215o\011\344\354l-\353\264\247\012\350z\343G;6\032"
 333      EC6C2DEB 
 333      B4A70AE8 
 333      7AE3473B 
 333      361A
 334 0a1f 4FBA8C5E 		.ascii	"O\272\214^S\226\274\312\333\2525\024\263\363\257t\222"
 334      5396BCCA 
 334      DBAA3514 
 334      B3F3AF74 
 334      92
 335 0a30 35BE98AA 		.ascii	"5\276\230\252=[\037u\345D\204w\011\021\026\027hDX\177"
 335      3D5B1F75 
 335      E5448477 
 335      09111617 
 335      6844587F 
 336 0a44 727D97F1 		.ascii	"r}\227\361mY\273\177\304\233MI\320\314\220\240e\223"
 336      6D59BB7F 
 336      C49B4D49 
 336      D0CC90A0 
 336      6593
 337 0a56 CB8A02B9 		.ascii	"\313\212\002\271\316\246\377$A\274\203\212\335\277T"
 337      CEA6FF24 
 337      41BC838A 
 337      DDBF54
 338 0a65 7F9520C7 		.ascii	"\177\225 \307\311\364\023\002\206\345^\177\262\266k"
 338      C9F41302 
 338      86E55E7F 
 338      B2B66B
 339 0a74 1007DC86 		.ascii	"\020\007\334\206\276\233\0316\275\247\260\351}\226M"
 339      BE9B1936 
 339      BDA7B0E9 
 339      7D964D
 340 0a83 7BA8E7FB 		.ascii	"{\250\347\373\352\273\256\311\334i<#\233j\004\327\025"
 340      EABBAEC9 
 340      DC693C23 
 340      9B6A04D7 
 340      15
 341 0a94 DC22E231 		.ascii	"\334\"\3421l\243\245\305\252Q\267\315O\326\240\271\353"
 341      6CA3A5C5 
 341      AA51B7CD 
 341      4FD6A0B9 
 341      EB
 342 0aa5 AED65B1A 		.ascii	"\256\326[\032\267R\254Yw\020\263\356\243f=\277\352\375"
 342      B752AC59 
 342      7710B3EE 
 342      A3663DBF 
 342      EAFD
 343 0ab7 3675C2CC 		.ascii	"6u\302\314\001\255\225\240\035\243h\337?w\266\355\267"
 343      01AD95A0 
 343      1DA368DF 
ARM GAS  /tmp/cc1d6xpg.s 			page 27


 343      3F77B6ED 
 343      B7
 344 0ac8 9A613C29 		.ascii	"\232a<)N\362\030\235\344\241N\362\250NR\376p\344rl\245"
 344      4EF2189D 
 344      E4A14EF2 
 344      A84E52FE 
 344      70E4726C 
 345 0add 49BB6D28 		.ascii	"I\273m(\025\367\000RA>\024\256\320UL\322\201\250(\323"
 345      15F70052 
 345      413E14AE 
 345      D0554CD2 
 345      81A828D3 
 346 0af1 38F491E0 		.ascii	"8\364\221\340\241\336(\362\260OWQ\337~\303\370\366\305"
 346      A1DE28F2 
 346      B04F5751 
 346      DF7EC3F8 
 346      F6C5
 347 0b03 2EC14A04 		.ascii	".\301J\004\355KU\266\234\352a\366K\275\312~\351[\262"
 347      ED4B55B6 
 347      9CEA61F6 
 347      4BBDCA7E 
 347      E95BB2
 348 0b16 2F9A4BA6 		.ascii	"/\232K\246\230\327H\276\201\344\033I\276\235e\334\005"
 348      98D748BE 
 348      81E41B49 
 348      BE9D65DC 
 348      05
 349 0b27 EA8FF667 		.ascii	"\352\217\366gV\216\242\323N\312\251\004\356\347\023"
 349      568EA2D3 
 349      4ECAA904 
 349      EEE713
 350 0b36 811E95A4 		.ascii	"\201\036\225\244,\303\360F\335\3326\355\372\002#\245"
 350      2CC3F046 
 350      DDDA36ED 
 350      FA0223A5 
 351 0b46 DDD719DB 		.ascii	"\335\327\031\333}\252\267\323\230\274\015\210\364\204"
 351      7DAAB7D3 
 351      98BC0D88 
 351      F484
 352 0b54 F2E69BD6 		.ascii	"\362\346\233\326n8m\247\311\271+\007\377}f\351?\224"
 352      6E386DA7 
 352      C9B92B07 
 352      FF7D66E9 
 352      3F94
 353 0b66 2242325D 		.ascii	"\"B2]\204\211\264\262[\205\333\235\203\010\035\226\""
 353      8489B4B2 
 353      5B85DB9D 
 353      83081D96 
 353      22
 354 0b77 68C3658A 		.ascii	"h\303e\212\365\360\321\2315\334\036K\253\037\311\330"
 354      F5F0D199 
 354      35DC1E4B 
 354      AB1FC9D8 
 355 0b87 6EAFDE0E 		.ascii	"n\257\336\016\037\206\355\336\275(Y]R}l``t\212\005\330"
 355      1F86EDDE 
 355      BD28595D 
 355      527D6C60 
ARM GAS  /tmp/cc1d6xpg.s 			page 28


 355      60748A05 
 356 0b9c 89F97E0A 		.ascii	"\211\371~\012S`g\254\324\252>\364y\016\306\332oi,6V"
 356      536067AC 
 356      D4AA3EF4 
 356      790EC6DA 
 356      6F692C36 
 357 0bb1 F47A408E 		.ascii	"\364z@\216\213\005\332\301\373\3613\035\247'Z\311\003"
 357      8B05DAC1 
 357      FBF1331D 
 357      A7275AC9 
 357      03
 358 0bc2 337AA136 		.ascii	"3z\2416\022@\013\030\305\236&\257\265\315K\316EO\350"
 358      12400B18 
 358      C59E26AF 
 358      B5CD4BCE 
 358      454FE8
 359 0bd5 F168F556 		.ascii	"\361h\365V\250\017\035\024\362\361\011\023\0011\216"
 359      A80F1D14 
 359      F2F10913 
 359      01318E
 360 0be4 4F9A50B8 		.ascii	"O\232P\270\206&\262\372L\037Q\232\273\366et\327\221"
 360      8626B2FA 
 360      4C1F519A 
 360      BBF66574 
 360      D791
 361 0bf6 5CDC5541 		.ascii	"\\\334UAa\206\332\271+\265\252\017\035\313\301]_Z\272"
 361      6186DAB9 
 361      2BB5AA0F 
 361      1DCBC15D 
 361      5F5ABA
 362 0c09 8B3D8ED5 		.ascii	"\213=\216\325\353\301\343\001A;B?|\203\2250<\267\324"
 362      EBC1E301 
 362      413B423F 
 362      7C839530 
 362      3CB7D4
 363 0c1c E02B2E2F 		.ascii	"\340+./\222(\367\313\256{\356{\250t27n\354X\257\362"
 363      9228F7CB 
 363      AE7BEE7B 
 363      A8743237 
 363      6EEC58AF 
 364 0c31 8925BC92 		.ascii	"\211%\274\222\354\215\307$9\341\375\375\003\367N\276"
 364      EC8DC724 
 364      39E1FDFD 
 364      03F74EBE 
 365 0c41 B7CA1B8C 		.ascii	"\267\312\033\214E\342\241\260(%\274\367L\236\354\015"
 365      45E2A1B0 
 365      2825BCF7 
 365      4C9EEC0D 
 366 0c51 56C873E2 		.ascii	"V\310s\342bbl\005\347\016E\345[o\361\313\177\361V&$"
 366      62626C05 
 366      E70E45E5 
 366      5B6FF1CB 
 366      7FF15626 
 367 0c66 6F38160C 		.ascii	"o8\026\014\204\275\323CQ\214\022\016M\367\226\007\203"
 367      84BDD343 
 367      518C120E 
 367      4DF79607 
ARM GAS  /tmp/cc1d6xpg.s 			page 29


 367      83
 368 0c77 DE8014B9 		.ascii	"\336\200\024\2711\032\213\2127\212\201\351!\357\270"
 368      311A8B8A 
 368      378A81E9 
 368      21EFB8
 369 0c86 B1B78DBD 		.ascii	"\261\267\215\275\305K\273\202\217\361\367P4\030\256"
 369      C54BBB82 
 369      8FF1F750 
 369      3418AE
 370 0c95 2C13BD09 		.ascii	",\023\275\011\271\014\240\241\207|\271B\022\003e~\371"
 370      B90CA0A1 
 370      877CB942 
 370      1203657E 
 370      F9
 371 0ca6 DA14F9B4 		.ascii	"\332\024\371\264\232\301\212\304\234\204&\217'X\341"
 371      9AC18AC4 
 371      9C84268F 
 371      2758E1
 372 0cb5 571A945A 		.ascii	"W\032\224ZW\017V\224AUW\334\037\025\253d\270\305%q\226"
 372      570F5694 
 372      415557DC 
 372      1F15AB64 
 372      B8C52571 
 373 0cca 5B8E4BA1 		.ascii	"[\216K\241\230_\316\257T5\"\345\241\230;\030\213\312"
 373      985FCEAF 
 373      543522E5 
 373      A1983B18 
 373      8BCA
 374 0cdc 506D4C46 		.ascii	"PmLF\353T\004c\222\010\230\205\270\330\017\010A\271"
 374      EB540463 
 374      92089885 
 374      B8D80F08 
 374      41B9
 375 0cee EA7AFB16 		.ascii	"\352z\373\026\376Y\267E\260\212\222X\016V\360\313\274"
 375      FE59B745 
 375      B08A9258 
 375      0E56F0CB 
 375      BC
 376 0cff 348E97C6 		.ascii	"4\216\227\306\363\322\004^\272\215\227&\362\322\355"
 376      F3D2045E 
 376      BA8D9726 
 376      F2D2ED
 377 0d0e 8274F34D 		.ascii	"\202t\363M\220n\346\303\022\334n\315\213\373\001\331"
 377      906EE6C3 
 377      12DC6ECD 
 377      8BFB01D9 
 378 0d1e 8D259F2D 		.ascii	"\215%\237-Jp\217\205\313DiH\260\" au\002\0211_N\310"
 378      4A708F85 
 378      CB446948 
 378      B0222061 
 378      75021131 
 379 0d35 0159F4CB 		.ascii	"\001Y\364\313n\254\310D\270\307\375\244\304-Gbe\"\371"
 379      6EACC844 
 379      B8C7FDA4 
 379      C42D4762 
 379      6522F9
 380 0d48 3E231C28 		.ascii	">#\034(O\270eI\234\221 z\342\007\227T6\007\330\220/"
ARM GAS  /tmp/cc1d6xpg.s 			page 30


 380      4FB86549 
 380      9C91207A 
 380      E2079754 
 380      3607D890 
 381 0d5d 5685E420 		.ascii	"V\205\344 Tt\315\226c\323\037\217\217P\255\017UDI\214"
 381      5474CD96 
 381      63D31F8F 
 381      8F50AD0F 
 381      5544498C 
 382 0d71 0601206F 		.ascii	"\006\001 o\266,K\361\"0tB\214\004\342\025\240\307hk"
 382      B62C4BF1 
 382      22307442 
 382      8C04E215 
 382      A0C7686B 
 383 0d85 5B8B58C1 		.ascii	"[\213X\301a\012J\302\377D\245X\011\020\303\251\227\324"
 383      610A4AC2 
 383      FF44A558 
 383      0910C3A9 
 383      97D4
 384 0d97 22B77ACF 		.ascii	"\"\267z\317\013Fe\350!\341\207;H\000\255\343\371P7R"
 384      0B4665E8 
 384      21E1873B 
 384      4800ADE3 
 384      F9503752 
 385 0dab 092EB0EE 		.ascii	"\011.\260\356$\"Wa*FT\254\210?6;\012\326!\255@\301\210"
 385      24225761 
 385      2A4654AC 
 385      883F363B 
 385      0AD621AD 
 386 0dc2 E2E7D932 		.ascii	"\342\347\3312\324\213\027\212\263\304\250\034\011$f"
 386      D48B178A 
 386      B3C4A81C 
 386      092466
 387 0dd1 C22FE26C 		.ascii	"\302/\342l\374 \304\375\225\305\2328\341P\002$\030\306"
 387      FC20C4FD 
 387      95C59A38 
 387      E1500224 
 387      18C6
 388 0de3 08884B3C 		.ascii	"\010\210K<q\377\354@H\016E\313\013\342~0\223\",y\204"
 388      71FFEC40 
 388      480E45CB 
 388      0BE27E30 
 388      93222C79 
 389 0df8 02312E46 		.ascii	"\0021.F\201\255\345P\013\272\300\365\013\260Q\003aB"
 389      81ADE550 
 389      0BBAC0F5 
 389      0BB05103 
 389      6142
 390 0e0a 20288CC7 		.ascii	" (\214\307ba`\346\275\211\362iP\363\027)\212$\244 V"
 390      626160E6 
 390      BD89F269 
 390      50F31729 
 390      8A24A420 
 391 0e1f 22513E36 		.ascii	"\"Q>6\310\361r\\\200'\245\362\303\320e\021yz@\014\213"
 391      C8F1725C 
 391      8027A5F2 
 391      C3D06511 
ARM GAS  /tmp/cc1d6xpg.s 			page 31


 391      797A400C 
 392 0e34 81843834 		.ascii	"\201\20484X1-XqOlZX\024\343\323\012\311\267\007@\310"
 392      58312D58 
 392      714F6C5A 
 392      5814E3D3 
 392      0AC9B707 
 393 0e4a 39538BC8 		.ascii	"9S\213\310\363\303\201\231b%\371\301\217cB\004Jy\350"
 393      F3C38199 
 393      6225F9C1 
 393      8F634204 
 393      4A79E8
 394 0e5d 73115667 		.ascii	"s\021Vg\216\252  \371\365\357nI1\235K\"\234\317\223"
 394      8EAA2020 
 394      F9F5EF6E 
 394      49319D4B 
 394      229CCF93 
 395 0e71 08CB2495 		.ascii	"\010\313$\225e\222\3022\017\224VJ@\0029O\302\215F\316"
 395      6592C232 
 395      0F94564A 
 395      4002394F 
 395      C28D46CE 
 396 0e85 0A497265 		.ascii	"\012Ire \354\227C\021\030\030T\340Q\000l\362\3030C\231"
 396      20EC9743 
 396      11181854 
 396      E051006C 
 396      F2C33043 
 397 0e9a C2004391 		.ascii	"\302\000C\221{\226L\334\204\3578\036=Xh\370\001\"\022"
 397      7B964CDC 
 397      84EF381E 
 397      3D5868F8 
 397      012212
 398 0ead 4ACAC4B0 		.ascii	"J\312\304\260\034\200\207\031\225\321\240\237\324\301"
 398      1C808719 
 398      95D1A09F 
 398      D4C1
 399 0ebb 4F2E5C37 		.ascii	"O.\\7 \025\302-\034H\310\270:\024\341\356\212U\365\313"
 399      2015C22D 
 399      1C48C8B8 
 399      3A14E1EE 
 399      8A55F5CB 
 400 0ecf C4E995E5 		.ascii	"\304\351\225\345\212;\331\022O<\020\015\005\261\367"
 400      8A3BD912 
 400      4F3C100D 
 400      05B1F7
 401 0ede 84B2E9E5 		.ascii	"\204\262\351\345\005\221\000\204\012\361\366p9\342\207"
 401      05910084 
 401      0AF1F670 
 401      39E287
 402 0eed 212C345D 		.ascii	"!,4]\012\310\241X\324/_cI:\031\023\333-\311\204\261"
 402      0AC8A158 
 402      D42F5F63 
 402      493A1913 
 402      DB2DC984 
 403 0f02 AED88C19 		.ascii	"\256\330\214\031\011Q\346\345HAB\236\011\000\345Qu("
 403      0951E6E5 
 403      4841429E 
 403      0900E551 
ARM GAS  /tmp/cc1d6xpg.s 			page 32


 403      7528
 404 0f14 9930CE2F 		.ascii	"\2310\316/\027\207\312\302\242\312'\340\021\037\254"
 404      1787CAC2 
 404      A2CA27E0 
 404      111FAC
 405 0f23 C8F71305 		.ascii	"\310\367\023\005\374\376\241\332\303\330\011\267\216"
 405      FCFEA1DA 
 405      C3D809B7 
 405      8E
 406 0f30 9B90E7FF 		.ascii	"\233\220\347\377\0030\205-\033?\376\177`Z\352\026"
 406      0330852D 
 406      1B3FFE7F 
 406      605AEA16 
 407              		.text
 408              		.section	.gnu.lto_.symtab.abc06d86ef5200cd,"",%progbits
 409 0000 63684D73 		.ascii	"chMsgSend\000\000\000\000\000\000\000\000\000\000\000"
 409      6753656E 
 409      64000000 
 409      00000000 
 409      00000000 
 410 0014 00A00000 		.ascii	"\000\240\000\000\000chMsgWait\000\000\000\000\000\000"
 410      0063684D 
 410      73675761 
 410      69740000 
 410      00000000 
 411 0028 00000000 		.ascii	"\000\000\000\000\000\000P\001\000\000chMsgRelease\000"
 411      00005001 
 411      00006368 
 411      4D736752 
 411      656C6561 
 412 003f 00000000 		.ascii	"\000\000\000\000\000\000\000\000\000\000\000T\001\000"
 412      00000000 
 412      00000054 
 412      0100
 413 004d 00636853 		.ascii	"\000chSchGoSleepS\000\000\002\000\000\000\000\000\000"
 413      6368476F 
 413      536C6565 
 413      70530000 
 413      02000000 
 414 0064 0000005C 		.ascii	"\000\000\000\\\001\000\000chSchReadyI\000\000\002\000"
 414      01000063 
 414      68536368 
 414      52656164 
 414      79490000 
 415 007a 00000000 		.ascii	"\000\000\000\000\000\000\000\000`\001\000\000chSchW"
 415      00000000 
 415      60010000 
 415      63685363 
 415      6857
 416 008c 616B6575 		.ascii	"akeupS\000\000\002\000\000\000\000\000\000\000\000\000"
 416      70530000 
 416      02000000 
 416      00000000 
 416      0000
 417 009e 64010000 		.ascii	"d\001\000\000ch\000\000\002\000\000\000\000\000\000"
 417      63680000 
 417      02000000 
ARM GAS  /tmp/cc1d6xpg.s 			page 33


 417      000000
 418 00ad 00000066 		.ascii	"\000\000\000f\001\000\000"
 418      010000
 419              		.text
 420              		.section	.gnu.lto_.opts,"",%progbits
 421 0000 272D6D63 		.ascii	"'-mcpu=cortex-m4''-mno-thumb-interwork''-mthumb''-g"
 421      70753D63 
 421      6F727465 
 421      782D6D34 
 421      27272D6D 
 422 0033 67646227 		.ascii	"gdb''-O2''-fomit-frame-pointer''-falign-functions=1"
 422      272D4F32 
 422      27272D66 
 422      6F6D6974 
 422      2D667261 
 423 0066 3627272D 		.ascii	"6''-ffunction-sections''-fdata-sections''-fno-commo"
 423      6666756E 
 423      6374696F 
 423      6E2D7365 
 423      6374696F 
 424 0099 6E27272D 		.ascii	"n''-flto'\000"
 424      666C746F 
 424      2700
 425              		.text
 426              		.cfi_sections	.debug_frame
 427              		.section	.text.chMsgSend,"ax",%progbits
 428              		.align	2
 429              		.p2align 4,,15
 430              		.global	chMsgSend
 431              		.thumb
 432              		.thumb_func
 433              		.type	chMsgSend, %function
 434              	chMsgSend:
 435              	.LFB241:
 436              		.file 1 "../../../os/rt/src/chmsg.c"
 437              		.loc 1 87 0
 438              		.cfi_startproc
 439              		@ args = 0, pretend = 0, frame = 0
 440              		@ frame_needed = 0, uses_anonymous_args = 0
 441              	.LVL0:
 442 0000 70B5     		push	{r4, r5, r6, lr}
 443              	.LCFI0:
 444              		.cfi_def_cfa_offset 16
 445              		.cfi_offset 4, -16
 446              		.cfi_offset 5, -12
 447              		.cfi_offset 6, -8
 448              		.cfi_offset 14, -4
 449              		.loc 1 88 0
 450 0002 0E4A     		ldr	r2, .L5
 451 0004 9469     		ldr	r4, [r2, #24]
 452              	.LVL1:
 453              	.LBB52:
 454              	.LBB53:
 455              	.LBB54:
 456              	.LBB55:
 457              		.file 2 "../../../os/ext/CMSIS/include/core_cmFunc.h"
 458              		.loc 2 548 0
ARM GAS  /tmp/cc1d6xpg.s 			page 34


 459 0006 2022     		movs	r2, #32
 460              	@ 548 "../../../os/ext/CMSIS/include/core_cmFunc.h" 1
 461 0008 82F31188 		MSR basepri, r2
 462              	@ 0 "" 2
 463              		.thumb
 464              	.LBE55:
 465              	.LBE54:
 466              	.LBE53:
 467              	.LBE52:
 468              		.loc 1 94 0
 469 000c 00F12805 		add	r5, r0, #40
 470 0010 2562     		str	r5, [r4, #32]
 471              	.LVL2:
 472              		.loc 1 96 0
 473 0012 067F     		ldrb	r6, [r0, #28]	@ zero_extendqisi2
 474              	.LBB56:
 475              	.LBB57:
 476              		.file 3 "../../../os/rt/include/chschd.h"
 477              		.loc 3 666 0
 478 0014 C26A     		ldr	r2, [r0, #44]
 479              		.loc 3 665 0
 480 0016 2560     		str	r5, [r4, #0]
 481              	.LBE57:
 482              	.LBE56:
 483              		.loc 1 96 0
 484 0018 0E2E     		cmp	r6, #14
 485              		.loc 1 93 0
 486 001a 2163     		str	r1, [r4, #48]
 487              	.LBB59:
 488              	.LBB58:
 489              		.loc 3 666 0
 490 001c 6260     		str	r2, [r4, #4]
 491              		.loc 3 667 0
 492 001e 1460     		str	r4, [r2, #0]
 493              		.loc 3 668 0
 494 0020 C462     		str	r4, [r0, #44]
 495              	.LBE58:
 496              	.LBE59:
 497              		.loc 1 96 0
 498 0022 07D0     		beq	.L4
 499              	.LVL3:
 500              	.L2:
 501              		.loc 1 99 0
 502 0024 0C20     		movs	r0, #12
 503 0026 FFF7FEFF 		bl	chSchGoSleepS
 504              	.LVL4:
 505              		.loc 1 100 0
 506 002a 206A     		ldr	r0, [r4, #32]
 507              	.LVL5:
 508              	.LBB60:
 509              	.LBB61:
 510              	.LBB62:
 511              	.LBB63:
 512              	.LBB64:
 513              		.loc 2 548 0
 514 002c 0023     		movs	r3, #0
 515              	@ 548 "../../../os/ext/CMSIS/include/core_cmFunc.h" 1
ARM GAS  /tmp/cc1d6xpg.s 			page 35


 516 002e 83F31188 		MSR basepri, r3
 517              	@ 0 "" 2
 518              		.thumb
 519              	.LBE64:
 520              	.LBE63:
 521              	.LBE62:
 522              	.LBE61:
 523              	.LBE60:
 524              		.loc 1 104 0
 525 0032 70BD     		pop	{r4, r5, r6, pc}
 526              	.LVL6:
 527              	.L4:
 528              		.loc 1 97 0
 529 0034 FFF7FEFF 		bl	chSchReadyI
 530              	.LVL7:
 531 0038 F4E7     		b	.L2
 532              	.L6:
 533 003a 00BF     		.align	2
 534              	.L5:
 535 003c 00000000 		.word	ch
 536              		.cfi_endproc
 537              	.LFE241:
 538              		.size	chMsgSend, .-chMsgSend
 539              		.section	.text.chMsgWait,"ax",%progbits
 540              		.align	2
 541              		.p2align 4,,15
 542              		.global	chMsgWait
 543              		.thumb
 544              		.thumb_func
 545              		.type	chMsgWait, %function
 546              	chMsgWait:
 547              	.LFB242:
 548              		.loc 1 120 0
 549              		.cfi_startproc
 550              		@ args = 0, pretend = 0, frame = 0
 551              		@ frame_needed = 0, uses_anonymous_args = 0
 552              	.LVL8:
 553 0000 10B5     		push	{r4, lr}
 554              	.LCFI1:
 555              		.cfi_def_cfa_offset 8
 556              		.cfi_offset 4, -8
 557              		.cfi_offset 14, -4
 558              	.LBB65:
 559              	.LBB66:
 560              	.LBB67:
 561              	.LBB68:
 562              		.loc 2 548 0
 563 0002 2023     		movs	r3, #32
 564              	@ 548 "../../../os/ext/CMSIS/include/core_cmFunc.h" 1
 565 0004 83F31188 		MSR basepri, r3
 566              	@ 0 "" 2
 567              		.thumb
 568              	.LBE68:
 569              	.LBE67:
 570              	.LBE66:
 571              	.LBE65:
 572              		.loc 1 124 0
ARM GAS  /tmp/cc1d6xpg.s 			page 36


 573 0008 0B4C     		ldr	r4, .L10
 574 000a A269     		ldr	r2, [r4, #24]
 575              	.LVL9:
 576              	.LBB69:
 577              	.LBB70:
 578              		.file 4 "../../../os/rt/include/chmsg.h"
 579              		.loc 4 83 0
 580 000c 1346     		mov	r3, r2
 581 000e 53F8280F 		ldr	r0, [r3, #40]!
 582              	.LBE70:
 583              	.LBE69:
 584              		.loc 1 124 0
 585 0012 9842     		cmp	r0, r3
 586 0014 08D0     		beq	.L9
 587              	.LVL10:
 588              	.L8:
 589              	.LBB71:
 590              	.LBB72:
 591              		.loc 3 674 0
 592 0016 0168     		ldr	r1, [r0, #0]
 593 0018 9162     		str	r1, [r2, #40]
 594              		.loc 3 675 0
 595 001a 4B60     		str	r3, [r1, #4]
 596              	.LBE72:
 597              	.LBE71:
 598              		.loc 1 128 0
 599 001c 0D23     		movs	r3, #13
 600 001e 0377     		strb	r3, [r0, #28]
 601              	.LVL11:
 602              	.LBB73:
 603              	.LBB74:
 604              	.LBB75:
 605              	.LBB76:
 606              	.LBB77:
 607              		.loc 2 548 0
 608 0020 0023     		movs	r3, #0
 609              	@ 548 "../../../os/ext/CMSIS/include/core_cmFunc.h" 1
 610 0022 83F31188 		MSR basepri, r3
 611              	@ 0 "" 2
 612              		.thumb
 613              	.LBE77:
 614              	.LBE76:
 615              	.LBE75:
 616              	.LBE74:
 617              	.LBE73:
 618              		.loc 1 132 0
 619 0026 10BD     		pop	{r4, pc}
 620              	.LVL12:
 621              	.L9:
 622              		.loc 1 125 0
 623 0028 0E20     		movs	r0, #14
 624 002a FFF7FEFF 		bl	chSchGoSleepS
 625              	.LVL13:
 626 002e A269     		ldr	r2, [r4, #24]
 627 0030 1346     		mov	r3, r2
 628 0032 53F8280F 		ldr	r0, [r3, #40]!
 629 0036 EEE7     		b	.L8
ARM GAS  /tmp/cc1d6xpg.s 			page 37


 630              	.L11:
 631              		.align	2
 632              	.L10:
 633 0038 00000000 		.word	ch
 634              		.cfi_endproc
 635              	.LFE242:
 636              		.size	chMsgWait, .-chMsgWait
 637 003c AFF30080 		.section	.text.chMsgRelease,"ax",%progbits
 638              		.align	2
 639              		.p2align 4,,15
 640              		.global	chMsgRelease
 641              		.thumb
 642              		.thumb_func
 643              		.type	chMsgRelease, %function
 644              	chMsgRelease:
 645              	.LFB243:
 646              		.loc 1 144 0
 647              		.cfi_startproc
 648              		@ args = 0, pretend = 0, frame = 0
 649              		@ frame_needed = 0, uses_anonymous_args = 0
 650              	.LVL14:
 651 0000 08B5     		push	{r3, lr}
 652              	.LCFI2:
 653              		.cfi_def_cfa_offset 8
 654              		.cfi_offset 3, -8
 655              		.cfi_offset 14, -4
 656              	.LBB78:
 657              	.LBB79:
 658              	.LBB80:
 659              	.LBB81:
 660              		.loc 2 548 0
 661 0002 2023     		movs	r3, #32
 662              	@ 548 "../../../os/ext/CMSIS/include/core_cmFunc.h" 1
 663 0004 83F31188 		MSR basepri, r3
 664              	@ 0 "" 2
 665              		.thumb
 666              	.LBE81:
 667              	.LBE80:
 668              	.LBE79:
 669              	.LBE78:
 670              	.LBB82:
 671              	.LBB83:
 672              		.loc 4 115 0
 673 0008 FFF7FEFF 		bl	chSchWakeupS
 674              	.LVL15:
 675              	.LBE83:
 676              	.LBE82:
 677              	.LBB84:
 678              	.LBB85:
 679              	.LBB86:
 680              	.LBB87:
 681              	.LBB88:
 682              		.loc 2 548 0
 683 000c 0023     		movs	r3, #0
 684              	@ 548 "../../../os/ext/CMSIS/include/core_cmFunc.h" 1
 685 000e 83F31188 		MSR basepri, r3
 686              	@ 0 "" 2
ARM GAS  /tmp/cc1d6xpg.s 			page 38


 687              		.thumb
 688 0012 08BD     		pop	{r3, pc}
 689              	.LBE88:
 690              	.LBE87:
 691              	.LBE86:
 692              	.LBE85:
 693              	.LBE84:
 694              		.cfi_endproc
 695              	.LFE243:
 696              		.size	chMsgRelease, .-chMsgRelease
 697 0014 AFF30080 		.text
 697      AFF30080 
 697      AFF30080 
 698              	.Letext0:
 699              		.file 5 "/usr/local/bin/../lib/gcc/arm-none-eabi/4.7.2/../../../../arm-none-eabi/include/stdint.h"
 700              		.file 6 "../../../os/rt/ports/ARMCMx/compilers/GCC/chtypes.h"
 701              		.file 7 "../../../os/rt/include/chsystypes.h"
 702              		.file 8 "../../../os/rt/ports/ARMCMx/chcore.h"
 703              		.file 9 "../../../os/rt/ports/ARMCMx/chcore_v7m.h"
 704              		.file 10 "../../../os/rt/include/chtm.h"
 705              		.file 11 "../../../os/rt/include/chsem.h"
 706              		.file 12 "../../../os/rt/include/chmtx.h"
 707              		.file 13 "../../../os/rt/include/chsys.h"
 708              		.file 14 "../../../os/ext/CMSIS/include/core_cm4.h"