ARM GAS  /tmp/cc1d6xpg.s 			page 1


   1              		.syntax unified
   2              		.cpu cortex-m4
   3              		.fpu softvfp
   4              		.eabi_attribute 20, 1
   5              		.eabi_attribute 21, 1
   6              		.eabi_attribute 23, 3
   7              		.eabi_attribute 24, 1
   8              		.eabi_attribute 25, 1
   9              		.eabi_attribute 26, 1
  10              		.eabi_attribute 30, 2
  11              		.eabi_attribute 34, 1
  12              		.eabi_attribute 18, 4
  13              		.thumb
  14              		.file	"chmsg.c"
  15              		.text
  16              	.Ltext0:
  17              		.section	.gnu.lto_.jmpfuncs.abc06d86ef5200cd,"",%progbits
  18 0000 789C6362 		.ascii	"x\234cb`d`g\300\016T\24143\0033#\223$C*#\003\003\017"
  18      60646067 
  18      C00E54A1 
  18      34330333 
  18      23932443 
  19 0019 50391042 		.ascii	"P9\020By|\014L\314L\014,\014\014\214%\014\000%\200\001"
  19      797C0C4C 
  19      CC4C0C2C 
  19      0C0C8C25 
  19      0C002580 
  20 002e D6       		.ascii	"\326"
  21              		.text
  22              		.section	.gnu.lto_.inline.abc06d86ef5200cd,"",%progbits
  23 0000 789C6362 		.ascii	"x\234cb`d\340e\300\016\"\24143\003\203\230\034##P%\003"
  23      6064E065 
  23      C00E22A1 
  23      34330383 
  23      981C2323 
  24 0017 B3E48AC3 		.ascii	"\263\344\212\303\214\014\2347\314\230\030\230.\360\263"
  24      8C0C9C37 
  24      CC981898 
  24      2EF0B3
  25 0026 30307133 		.ascii	"00q3\000\205\301\344\004?F\006aA G\346\301-F\006\266"
  25      0085C1E4 
  25      043F4606 
  25      61412047 
  25      E6C12D46 
  26 003c 05F24C30 		.ascii	"\005\362L0Y\006\016\001 \311\262@\036\"\312\314\303"
  26      59060E01 
  26      20C9B240 
  26      1E22CACC 
  26      C3
  27 004d C0C034C1 		.ascii	"\300\3004\301o\202\037\003\000\375U\013l"
  27      6F821F03 
  27      00FD550B 
  27      6C
  28              		.text
  29              		.section	.gnu.lto_.pureconst.abc06d86ef5200cd,"",%progbits
  30 0000 789C6362 		.ascii	"x\234cb`d`f```g\200\000f\006+F+&+\000\003#\000\302"
  30      60646066 
ARM GAS  /tmp/cc1d6xpg.s 			page 2


  30      60606067 
  30      80006606 
  30      2B462B26 
  31              		.text
  32              		.section	.gnu.lto_chMsgSend.abc06d86ef5200cd,"",%progbits
  33 0000 789C8D54 		.ascii	"x\234\215T]HTA\024>g\346\356\217e\256\331\257\004\333"
  33      5D485441 
  33      143E67E6 
  33      EE8F65AE 
  33      D9AF04DB 
  34 0014 2205FD98 		.ascii	"\"\005\375\230\033\275\324S\024B\364\203\017)A\0107"
  34      1BBDD453 
  34      1442F483 
  34      0F294108 
  34      37
  35 0025 B1DBAD15 		.ascii	"\261\333\255\025\332\334vW\261^\274m=\364\022YO\246"
  35      DADC7657 
  35      B15EBC6D 
  35      3DF41259 
  35      4FA6
  36 0037 06A5FD90 		.ascii	"\006\245\375\220B\345C\261\024\375\333\022[\330K\240"
  36      42E543B1 
  36      14FDDB12 
  36      5BD84BA0 
  37 0047 8454B011 		.ascii	"\204T\260\021\321C\364\320\213\020\330\231\231{\267"
  37      D143F4D0 
  37      8B10D899 
  37      997BB7
  38 0056 5D77D71C 		.ascii	"]w\327\034\365\3168s\276\357;s\316\231\303\000\351\247"
  38      F5CE3873 
  38      BEEF3B73 
  38      CE99C300 
  38      E9A7
  39 0068 706CA1BF 		.ascii	"pl\241\277G\036\200\024\315\350\002d=\343\000g\002\214"
  39      471E8014 
  39      CDE80264 
  39      3DE30067 
  39      028C
  40 007a F1940FAC 		.ascii	"\361\224\017\254uZz;X\2339jj[C\024\013b\352f\\\303\356"
  40      755A7A3B 
  40      589B396A 
  40      6A5B4314 
  40      0B62EA66 
  41 0091 039252AB 		.ascii	"\003\222R\253\201\353\226u\271\347Ubw\342\313\314\314"
  41      81EB9675 
  41      B9E75562 
  41      77E2CBCC 
  41      CC
  42 00a2 6A53ECB6 		.ascii	"jS\354\266 \244\237f\226W\203\211\010\001\0203\003-"
  42      20A49F66 
  42      96578389 
  42      08011033 
  42      032D
  43 00b4 5F5CE17E 		.ascii	"_\\\341~\275L\254\264q\\\342\306\006\216*\230\327\206"
  43      BD4CACB4 
  43      715CE2C6 
  43      068E2A98 
ARM GAS  /tmp/cc1d6xpg.s 			page 3


  43      D786
  44 00c6 613158CF 		.ascii	"a1X\317Y\313\221\323\030\370Q\"\373;\347!\230\343\250"
  44      59CB91D3 
  44      18F85122 
  44      FB3BE721 
  44      98E3A8
  45 00d9 26058787 		.ascii	"&\005\207\207'R\033\347\004\246\357\015m\032\273\352"
  45      27521BE7 
  45      04A6EF0D 
  45      6D1ABBEA 
  46 00e9 7EC69E7F 		.ascii	"~\306\236\177\231\351^\003C\266\276\224\256\227\322"
  46      99E95E03 
  46      43B6BE94 
  46      AE97D2
  47 00f8 7FFA7E62 		.ascii	"\177\372~b!\005J\333\036e\353b\260K\332N\226\025\021"
  47      21054ADB 
  47      1E65EB62 
  47      B04BDA4E 
  47      961511
  48 010b A373100E 		.ascii	"\243s\020\016U#\3508\2105\300P\307\333D\300i\276I\263"
  48      5523E838 
  48      8835C050 
  48      C7DB44C0 
  48      69BE49B3 
  49 011f 46FBD768 		.ascii	"F\373\327h\337M\363u\232=\240\316\253h\276A\377\323"
  49      DF4DF375 
  49      9A3DA0CE 
  49      AB68BE41 
  49      FFD3
  50 0131 70C139CB 		.ascii	"p\3019\313\252d\012\337&\265\344\330/f\221\271FR\023"
  50      AA640ADF 
  50      26B5E4D8 
  50      2F6691B9 
  50      465213
  51 0144 0B9E8644 		.ascii	"\013\236\206D3EK\307;$k n\204\015$\316\345\344\346}"
  51      33454BC7 
  51      3B246B20 
  51      6E840D24 
  51      CEE5E4E6 
  52 0159 70054DF4 		.ascii	"p\005M\364\260\3230myM\364b\033\242\240\020\356ze\376"
  52      B0D3306D 
  52      794DF462 
  52      1BA2A010 
  52      EE7A65FE 
  53 016d 010E894F 		.ascii	"\001\016\211O\322%W\331\004\245\200MrE\252\2340\304"
  53      D22557D9 
  53      04A5804D 
  53      7245AA9C 
  53      30C4
  54 017f 19EDA272 		.ascii	"\031\355\242r\315\366\020\224\311\034)-c\260W\372?x"
  54      CDF61094 
  54      C91C292D 
  54      63B057FA 
  54      3F78
  55 0191 61F453ED 		.ascii	"a\364S\355\234\271\021\233et\010\360\026\022\370\343"
  55      9CB9119B 
  55      657408F0 
ARM GAS  /tmp/cc1d6xpg.s 			page 4


  55      1612F8E3 
  56 01a1 E295CCB6 		.ascii	"\342\225\314\266<1\012\337}\362D\307\273y\222\342=\334"
  56      3C310ADF 
  56      7DF244C7 
  56      BB7992E2 
  56      3DDC
  57 01b3 A68AA380 		.ascii	"\246\212\243\200\310\017\200\037\222x\325\352\335a\342"
  57      C80F801F 
  57      9278D5EA 
  57      DD61E2
  58 01c2 823CDAEC 		.ascii	"\202<\332\354\361c\373x\241\252\011H\354K?\031\362\251"
  58      F163FB78 
  58      A1AA0948 
  58      EC4B3F19 
  58      F2A9
  59 01d4 BBC8C8B9 		.ascii	"\273\310\310\271\354\310\2253\272w\265L'@H\206\210)"
  59      ECC89533 
  59      BA77B54C 
  59      27404886 
  59      8829
  60 01e6 55432C08 		.ascii	"UC,\0109\315\177\367?D'\374\332i8E\257FeaQ\016\011w"
  60      39CD7FF7 
  60      3F4427FC 
  60      DA693845 
  60      AF466561 
  61 01fe 48CE7B24 		.ascii	"H\316{$\013W,\223.\307\203=IW\216~\205J\240\257\264"
  61      0B572C93 
  61      2EC7833D 
  61      49578E7E 
  61      854AA0AF 
  62 0213 1B76EC0E 		.ascii	"\033v\354\016\211P$\271tH\223\011\372\323_\241\210\012"
  62      895024B9 
  62      74489309 
  62      FAD35FA1 
  62      880A
  63 0225 5F978EB7 		.ascii	"_\227\216\267\310kY\343\37693\341$\2734\027E\362\025"
  63      C86B59E3 
  63      FE3933E1 
  63      24BB3417 
  63      45F215
  64 0238 E2FCB834 		.ascii	"\342\374\2704\025\342\341\276\211\224?/\241T\337/eB"
  64      15E2E1BE 
  64      89943F2F 
  64      A154DF2F 
  64      6542
  65 024a 5FC86F7E 		.ascii	"_\310o~%\331\205\\$\000\252h\335\000\007s\350\233?\214"
  65      25D9855C 
  65      2400AA68 
  65      DD000773 
  65      E89B3F8C 
  66 025e 6496E938 		.ascii	"d\226\3518&\323P\225\007^\344\304\037`\235\015\366d"
  66      26D35095 
  66      075EE4C4 
  66      1F609D0D 
  66      F664
  67 0270 FB0145FE 		.ascii	"\373\001E\376;W\270\377)z\035\305*u\241\251\221\241"
  67      3B57B8FF 
ARM GAS  /tmp/cc1d6xpg.s 			page 5


  67      297A1DC5 
  67      2A75A1A9 
  67      91A1
  68 0282 15259055 		.ascii	"\025%\220U\005\276Nr'\256\002\372u$\343+\002-\356i("
  68      05BE4E72 
  68      27AE02FA 
  68      7524E32B 
  68      022DEE69 
  69 0297 07D99C7E 		.ascii	"\007\331\234~\223)w\252\315-\301\225\305\312L\325F\231"
  69      932977AA 
  69      CD2DC195 
  69      C5CA4CD5 
  69      4699
  70 02a9 73CDD730 		.ascii	"s\315\3270\366\015CY\234\260\342P\221\023\355FQ\221"
  70      F60D4359 
  70      9CB0E250 
  70      9113ED46 
  70      5191
  71 02bb 291F7F07 		.ascii	")\037\177\007\332\273\201\345N.\354\266\261\030[\320"
  71      DABB81E5 
  71      4E2EECB6 
  71      B1185BD0 
  72 02cb 6E0D2461 		.ascii	"n\015$a\212\373+\214\246z\020\201\246\006\006q\026j"
  72      8AFB2B8C 
  72      A67A1081 
  72      A6060671 
  72      166A
  73 02dd 09A11866 		.ascii	"\011\241\030f_6\207r\372.U\267\370:\340w\234\361\330"
  73      5F368772 
  73      FA2E55B7 
  73      F83AE077 
  73      9CF1D8
  74 02f0 0FAE74C1 		.ascii	"\017\256t\301\277\341\371\025O\217\272WU\012\225h\227"
  74      BFE1F915 
  74      4F8FBA57 
  74      550A9568 
  74      97
  75 0301 D3A44407 		.ascii	"\323\244D\0075\320S\254I\225\350Ur\0246,\035G\325+\031"
  75      35D053AC 
  75      4995E855 
  75      7214362C 
  75      1D47D52B 
  76 0316 BC70E9F3 		.ascii	"\274p\351\363|:\226\030%;\326GY\332\023\245:\226\216"
  76      7C3A9618 
  76      253BD647 
  76      59DA13A5 
  76      3A968E
  77 0329 0F68F18F 		.ascii	"\017h\361\217\307nQ:&\321/7\306\001\323\357y6X\212`"
  77      C76E513A 
  77      26D12F37 
  77      C601D3EF 
  77      7936588A 
  78 033e BFC80645 		.ascii	"\277\310\006E^\330\256\252\253\013\252\337\366X0\032"
  78      5ED8AEAA 
  78      AB0BAADF 
  78      F658301A 
  79 034e 0FC6A246 		.ascii	"\017\306\242F\320\010\205c\307\352\014\340F<\022\230"
ARM GAS  /tmp/cc1d6xpg.s 			page 6


  79      D0088563 
  79      C7EA0CE0 
  79      463C1298 
  80 035e 75DE76C2 		.ascii	"u\336v\3028\336q\304$\233\230\021:R\027\002\026\217"
  80      38DE71C4 
  80      249B9811 
  80      3A521702 
  80      168F
  81 0370 70327775 		.ascii	"p2wu\266\036\3570\327\317\262\216\264G\343\261\340\316"
  81      B61EEF30 
  81      D7CFB28E 
  81      B447E3B1 
  81      E0CE
  82 0382 C686FA86 		.ascii	"\306\206\372\206.\202\030\355Q\263\245sk\230`\265\271"
  82      2E8218ED 
  82      51B3A573 
  82      6B9860B5 
  82      B9
  83 0393 9666573C 		.ascii	"\226fW<X\337\320\264\247\351\037\275\2604\302\273:N"
  83      58DFD0B4 
  83      A7E91FBD 
  83      B034C2BB 
  83      3A4E
  84 03a5 18645CD9 		.ascii	"\030d\\\331\320\324\0308\334\0323#\321\266\332\300\332"
  84      D0D41838 
  84      DC1A3323 
  84      D1B6DAC0 
  84      DA
  85 03b6 CDC0A2E0 		.ascii	"\315\300\242\340\011\233\341\366\350)\340\361\223\221"
  85      099BE1F6 
  85      E829E0F1 
  85      9391
  86 03c4 BFAE9DA2 		.ascii	"\277\256\235\242)"
  86      29
  87              		.text
  88              		.section	.gnu.lto_chMsgWait.abc06d86ef5200cd,"",%progbits
  89 0000 789C9D54 		.ascii	"x\234\235T]HTQ\020\236\271?\356\366\243\273(\321\037"
  89      5D485451 
  89      109EB93F 
  89      EEF6A3BB 
  89      28D11F
  90 0013 D9120456 		.ascii	"\331\022\004V\342\012=\344c!E\022>\244\004\021l\222"
  90      E20A3DE4 
  90      63214512 
  90      3EA40411 
  90      6C92
  91 0025 D74B2BB8 		.ascii	"\327K+\270j\273\253\250\017y\333z\020\022\261 0#\266"
  91      6ABBABA8 
  91      0F79DB7A 
  91      1012B120 
  91      3023B6
  92 0038 3FCCC41E 		.ascii	"?\314\304\036\204\002\363\305(\363a3\011\362\301H,2"
  92      8402F3C5 
  92      28F36133 
  92      09F2C148 
  92      2C32
  93 004a 4228A217 		.ascii	"B(\242\027a\205\005\233s\316\275\353\376\270\333\342"
ARM GAS  /tmp/cc1d6xpg.s 			page 7


  93      6185059B 
  93      73CEBDEB 
  93      FEB8DBE2 
  94 005a D1BD7338 		.ascii	"\321\275s8g\346\233\231o\346\214\004H\177\351\353(\375"
  94      67E69B99 
  94      6FE68C04 
  94      487FE9EB 
  94      28FD
  95 006c 4EDA0116 		.ascii	"N\332\001\026I\242\012(\365\317\002\\sI\222\274b\003"
  95      49A20A28 
  95      F5CF025C 
  95      734992BC 
  95      6203
  96 007e A344B937 		.ascii	"\243D\2717\015`\224\313\250\210s\005\221m\010\252[\222"
  96      0D6094CB 
  96      A8887305 
  96      916D08AA 
  96      5B92
  97 0090 15EC3EC7 		.ascii	"\025\354>\3071\355\007\340\241a\334\356\177\033:\035"
  97      31ED07E0 
  97      A161DCEE 
  97      7F1B3A1D 
  98 00a0 FAB6B6B6 		.ascii	"\372\266\266\266_g\247u\010\221\330\322\316\335\240"
  98      5F67A775 
  98      0891D8D2 
  98      CEDDA0
  99 00af 23820B98 		.ascii	"#\202\013\230\224@I\366.\354\376\276\011\3552\355dn"
  99      944049F6 
  99      2EECFEBE 
  99      09ED32ED 
  99      646E
 100 00c1 D7218CEC 		.ascii	"\327!\214\354\246\021nd\224\340L\341F\261\360O\314\301"
 100      A6116E64 
 100      94E04CE1 
 100      46B1F04F 
 100      CCC1
 101 00d3 59FF7523 		.ascii	"Y\377u#\036\244\004\305\310Lg\302\355\377\267\034L\013"
 101      1EA404C5 
 101      C84C67C2 
 101      EDFFB71C 
 101      4C0B
 102 00e5 732ADCBC 		.ascii	"s*\334\274\231@\207&^\316\251\271D\232Jg\324\266\031"
 102      99408726 
 102      5ECEA9B9 
 102      449A4A67 
 102      D4B619
 103 00f8 ABA1DE3B 		.ascii	"\253\241\336;\277\306\263\373\213D\227\366\375\030\316"
 103      BFC6B3FB 
 103      8B4497F6 
 103      FD18CE
 104 0107 9B945E7F 		.ascii	"\233\224^\177[\353\006\330\203\340\301\007x\200\324"
 104      5BEB06D8 
 104      83E0C107 
 104      7880D4
 105 0116 8454493E 		.ascii	"\204TI>\"\351 \371\224\244\223\344\020\311B\222\217"
 105      22E920F9 
 105      94A493E4 
ARM GAS  /tmp/cc1d6xpg.s 			page 8


 105      10C94292 
 105      8F
 106 0127 4916911C 		.ascii	"I\026\221\034&IK\205\033\206\341Dq^g\022r\226I\3267"
 106      26494B85 
 106      1B86E144 
 106      715E6712 
 106      729649D6 
 107 013c 35E49B6D 		.ascii	"5\344\233m\344i\220P\250\232\026\204\360\214N\262TK"
 107      E4699050 
 107      A89A1684 
 107      F08C4EB2 
 107      544B
 108 014e 95A09E57 		.ascii	"\225\240\236W\353{\337\330bi\326|\330\241J\227\000\357"
 108      EB7BDFD8 
 108      6269D67C 
 108      D8A14A97 
 108      00EF
 109 0160 21842377 		.ascii	"!\204#w\356.U$9\243\360F)<\017\216$\271d/d\222jK1\362"
 109      EE2E5524 
 109      39A3F046 
 109      293C0F8E 
 109      24B9642F 
 110 017a 0F40317C 		.ascii	"\017@1|\304\373\306\300q\035\363\222`\343\327\237\314"
 110      C4FBC6C0 
 110      711DF392 
 110      60E3D79F 
 110      CC
 111 018b 6B9BE011 		.ascii	"k\233\340\021B\027X\317\213\\4\304#p\230\312 sa\227"
 111      421758CF 
 111      8B5C34C4 
 111      237098CA 
 111      20736197 
 112 019f 07E12EEA 		.ascii	"\007\341.\352\270E\352\202U\303\256\343Vl\024o\222\341"
 112      B845EA82 
 112      55C3AEE3 
 112      566C146F 
 112      92E1
 113 01b1 6EE5FE01 		.ascii	"n\345\376\001.\262O\217\215\357h\033\025\361\021]&A"
 113      2EB24F8F 
 113      8DEF681B 
 113      15F1115D 
 113      2641
 114 01c3 E94DECC1 		.ascii	"\351M\354\301'\304@b;f`Ec\200,Dj\300\230\234J\310+N"
 114      27C44062 
 114      3B666045 
 114      63802C44 
 114      6AC0989C 
 115 01db 48720D34 		.ascii	"Hr\0154t$f\260\315\314`\273DP\314\005\304\203&:\306"
 115      742466B0 
 115      CDCC60BB 
 115      4450CC05 
 115      C483263A 
 116 01f0 55BEA3A7 		.ascii	"U\276\243\247\021\215\263\261*/\347{p\202\223\341\354"
 116      118DB3B1 
 116      2A2FE77B 
 116      708293E1 
 116      EC
ARM GAS  /tmp/cc1d6xpg.s 			page 9


 117 0201 824E7A02 		.ascii	"\202Nz\002\230\003\324\200\203v\313\371\034\345\035"
 117      9803D480 
 117      8376CBF9 
 117      1CE51D
 118 0210 4CFDC448 		.ascii	"L\375\304H\354\261l\221\352 \250\365\020k\230\303\025"
 118      ECB16C91 
 118      EA20A8F5 
 118      106B98C3 
 118      15
 119 0221 9B3C03CA 		.ascii	"\233<\003\312\357\360\010Z\031\230\024\347c\035\"\306"
 119      EFF0085A 
 119      199814E7 
 119      631D22C6 
 120 0231 7BA2000A 		.ascii	"{\242\000\012\350\353\260,\025\321\213\214\222X\370"
 120      E8EBB02C 
 120      15D18B8C 
 120      9258F8
 121 0240 0F5A0E94 		.ascii	"\017Z\016\224MV\015\254\242\301z\372\0036\013U\315\224"
 121      4D560DAC 
 121      A2C17AFA 
 121      03360B55 
 121      CD94
 122 0252 BE62A5DF 		.ascii	"\276b\245\337\263\305\312\237\255\001\333\377*\257H"
 122      B3C5CA9F 
 122      AD01DBFF 
 122      2AAF48
 123 0261 F00531B7 		.ascii	"\360\0051\267\312\253f\345{o\375\2327K\217YZ\011\262"
 123      CAAB66E5 
 123      7B6FFD9A 
 123      374B8F59 
 123      5A09B2
 124 0274 C2C57B26 		.ascii	"\302\305{&\262a\317\024\232\374\211\024\267Y)*PbrE\025"
 124      B261CF14 
 124      9AFC8914 
 124      B759292A 
 124      50627245 
 125 0289 9B8FF7F5 		.ascii	"\233\217\367\365<\025v\006\331\204\371@hd-\"\235\033"
 125      3C157606 
 125      D984F940 
 125      68642D22 
 125      9D1B
 126 029b 5DDA212E 		.ascii	"]\332!.4,J\002d\234\025&\267L<>\262\254\212\232\200"
 126      342C4A02 
 126      649C1526 
 126      B74C3C3E 
 126      B2AC8A9A 
 127 02b0 3944E1E5 		.ascii	"9D\341\345\361\026q\2733\013\243\354\341\246Y2wE\311"
 127      F11671BB 
 127      330BA3EC 
 127      E1A65932 
 127      7745C9
 128 02c3 EE28F665 		.ascii	"\356(\366e\331\242\225R\210\254Y\335)\306\236\031I\305"
 128      D9A29552 
 128      88AC59DD 
 128      29C69E19 
 128      49C5
 129 02d5 D4F05571 		.ascii	"\324\360Uq\314\001\235\033\305\177\236\003\346AB\213"
ARM GAS  /tmp/cc1d6xpg.s 			page 10


 129      CC019D1B 
 129      C57F9E03 
 129      E641428B 
 130 02e5 E60B5E52 		.ascii	"\346\013^R\306c\206)\311W\372\250\364\340sQ\310\357"
 130      C6638629 
 130      C957FAA8 
 130      F4E07351 
 130      C8EF
 131 02f7 7DB7BEE6 		.ascii	"}\267\276\3462+\331\3128+\027x\231?g\232\225\036\034"
 131      322BD9CA 
 131      382B1778 
 131      993F679A 
 131      951E1C
 132 030a A3CD3A8E 		.ascii	"\243\315:\2169\034=\370\002\213\371\301,`\344\246j="
 132      391C3DF8 
 132      028BF9C1 
 132      2C60E4A6 
 132      6A3D
 133 031c 84420170 		.ascii	"\204B\001p\226\275\024z~LwoY\231[\374\267\004\334\376"
 133      96BD147A 
 133      7E4C776F 
 133      59995BFC 
 133      B704DCFE 
 134 0330 A03BE0D7 		.ascii	"\240;\340\327\334\232\327\027\270\\\246\201\024l\335"
 134      DC9AD717 
 134      B85CA681 
 134      146CDD
 135 033f 9F72DDD8 		.ascii	"\237r\335\330\2545\2655\350\246\212\027\\\031\357\003"
 135      AC35B535 
 135      E8A68A17 
 135      5C19EF03 
 136 034f 9AB78114 		.ascii	"\232\267\201\024\324\366KMm\372\241\024\265\326\026"
 136      D4F64B4D 
 136      6DFAA114 
 136      B5D616
 137 035e 7F30E03E 		.ascii	"\1770\340>QS]Y\335A\272Z\213_\257k?\346#\375\322DM\275"
 137      51535D59 
 137      DD41BA5A 
 137      8B5FAF6B 
 137      3FE623FD 
 138 0376 23E8AEAC 		.ascii	"#\350\256\254\256\255\252]\307e\232\232\357T[\263F\312"
 138      AEADAA5D 
 138      C7659A9A 
 138      EF545BB3 
 138      46CA
 139 0388 CEEADA1A 		.ascii	"\316\352\332\032W\375\245\200\336\352o,u\035,\007\311"
 139      57FDA580 
 139      DEEA6F2C 
 139      751D2C07 
 139      C9
 140 0399 0F369FEE 		.ascii	"\0176\237\356k\361w\202\034\274\322\372\017\003T\316"
 140      6BF17782 
 140      1CBCD2FA 
 140      0F0354CE 
 141 03a9 54       		.ascii	"T"
 142              		.text
 143              		.section	.gnu.lto_chMsgRelease.abc06d86ef5200cd,"",%progbits
ARM GAS  /tmp/cc1d6xpg.s 			page 11


 144 0000 789C8D52 		.ascii	"x\234\215RMH\033Q\020\376\346\255Q\333\223W)$\251\324"
 144      4D481B51 
 144      10FEE6AD 
 144      51DB9357 
 144      2924A9D4 
 145 0014 4341767B 		.ascii	"CAv{k\217\212 z\310\301\204\036\227`\267\217&\340\232"
 145      6B8F8A20 
 145      7AC8C184 
 145      1E9760B7 
 145      8F26E09A 
 146 0028 B09B88ED 		.ascii	"\260\233\210\355%k\352I(\204\212E\017\202\326JEJ\177"
 146      256BEA49 
 146      28848A45 
 146      0F82D64A 
 146      454A7F
 147 003b 0E2DBD14 		.ascii	"\016-\275\024=\224\026l\361\332\253Pz\365\322Rj/q\336"
 147      3D94166C 
 147      F1DAAB50 
 147      7AF5D252 
 147      6A2F71DE 
 148 004f DBD464D5 		.ascii	"\333\324d\325h\337\356\333\031\336|\363\3157oV\200\370"
 148      68DFEEDB 
 148      19DE7CF3 
 148      CD376F56 
 148      80F8
 149 0061 39BD7A79 		.ascii	"9\275zy\217\031\300\007\266d\200Dm\017\230M\012\"\345"
 149      8F19C007 
 149      B6648044 
 149      6D0F984D 
 149      0A22E5
 150 0074 704A4550 		.ascii	"pJEP\345v\230\271\273\271a\376\332\352\334\026;\373"
 150      E57698B9 
 150      BBB961FE 
 150      DAEADC16 
 150      3BFB
 151 0086 F5CA35AC 		.ascii	"\365\3125\254\007\301\343\332\303`T\022\004\342\204"
 151      07C1E3DA 
 151      C3605412 
 151      04E284
 152 0095 2CE1E3D6 		.ascii	",\341\343\326o\352\205$B\022\312\012t(\022\215\255\205"
 152      6FEA8524 
 152      4212CA0A 
 152      7428128D 
 152      AD85
 153 00a7 5843E0AA 		.ascii	"XC\340\252\306\376\271t\032\311\216\301\033\270Ld\323"
 153      C6FEB974 
 153      1AC98EC1 
 153      1BB84C64 
 153      D3
 154 00b8 2A270AB6 		.ascii	"*'\012\266O\331\362\212a.\010z(\257\263\365\032WV\351"
 154      4FD9F28A 
 154      612E087A 
 154      28AFB3F5 
 154      1A5756E9 
 155 00cc 4C73BE72 		.ascii	"Ls\276r\214O\234\020\342\032p\330\364\214O\232\253\017"
 155      8C4F9C10 
 155      E21A70D8 
ARM GAS  /tmp/cc1d6xpg.s 			page 12


 155      F48C4F9A 
 155      AB0F
 156 00de 6B0DDDD5 		.ascii	"k\015\335\325\375z=!\251C\240_S\036\314\377\374!\316"
 156      FD7A3D21 
 156      A943A05F 
 156      531ECCFF 
 156      FC21CE
 157 00f1 D0D47A59 		.ascii	"\320\324zY\014\347 \360\005Uz\367h\371\373\255H1\326"
 157      0CE720F0 
 157      05557AF7 
 157      68F9FBAD 
 157      4831D6
 158 0104 FA9CFAB8 		.ascii	"\372\234\372\270\344F\244\244\272\371*7\306\032\365"
 158      E446A4A4 
 158      BAF92A37 
 158      C61AF5
 159 0113 07886381 		.ascii	"\007\210c\201V\202\245A\251qM\332\343\360\223F\270S"
 159      5682A541 
 159      A9714DDA 
 159      E3F09346 
 159      B853
 160 0125 13A8AECE 		.ascii	"\023\250\256\316P\316\205\326X$K\347\311\030\347*w8"
 160      50CE85D6 
 160      58244BE7 
 160      C918E72A 
 160      7738
 161 0137 D44A536B 		.ascii	"\324JSk\2411lZ\017ip\001\007\213\373\212\330\337\305"
 161      A1316C5A 
 161      0F697001 
 161      078BFB8A 
 161      D8DFC5
 162 014a 6F9F1391 		.ascii	"o\237\023\221\276\205Mot\337\257\3657z\341\300\003\034"
 162      BE854D6F 
 162      74DFAFF5 
 162      377AE1C0 
 162      031C
 163 015c 06DD92BA 		.ascii	"\006\335\222\272(KD\377\3440\233\244\356PTtbm\006\327"
 163      284B44FF 
 163      E4309BA4 
 163      EE505474 
 163      626D06D7 
 164 0170 667A366D 		.ascii	"fz6m\206\342\017\346\017\377k|8o|\357u\003o\333\215"
 164      86E20FE6 
 164      0FFF6B7C 
 164      386F7CEF 
 164      75036FDB 
 165 0185 CFA617EC 		.ascii	"\317\246\027\3544y\032\363\262\351\025\305\365\301\036"
 165      34791AF3 
 165      B2E915C5 
 165      F5C11E
 166 0194 68F7A58C 		.ascii	"h\367\245\214J\037WM\363\317\251\240WL\323\012\337\202"
 166      4A1F574D 
 166      F3CFA9A0 
 166      574CD30A 
 166      DF82
 167 01a6 6F7925CB 		.ascii	"oy%\313\367\034\313\311\271\376=\323\201(\025\015\366"
 167      F71CCBC9 
ARM GAS  /tmp/cc1d6xpg.s 			page 13


 167      B9FE3DD3 
 167      8128150D 
 167      F6
 168 01b7 62D31393 		.ascii	"b\323\023\223ey\375\004\260X\360J\2765\224N\015\247"
 168      6579FD04 
 168      B058F04A 
 168      BE35944E 
 168      0DA7
 169 01c9 6638C329 		.ascii	"f8\303)x2;}\3235s\030hE\312\231\2225\234\312\214e\254"
 169      78323B7D 
 169      D3357318 
 169      6845CA99 
 169      92359CCA 
 170 01e0 FC943359 		.ascii	"\374\2243Y\276+-\215t\334\221\362\224\303\340\236T&"
 170      BE2B2D8D 
 170      74DC91F2 
 170      94C3E09E 
 170      5426
 171 01f2 9DBC33E1 		.ascii	"\235\2743\341\313\242\227\037H\366\337\200\360\320\345"
 171      CBA2971F 
 171      48F6DF80 
 171      F0D0E5
 172 0201 4AB7E0DD 		.ascii	"J\267\340\335G\342D\311c\006\255/\207#+\257\323\023"
 172      47E244C9 
 172      6306AD2F 
 172      87232BAF 
 172      D313
 173              		.text
 174              		.section	.gnu.lto_.cgraph.abc06d86ef5200cd,"",%progbits
 175 0000 789C6362 		.ascii	"x\234cb`d`f``(b\200\002\246\217\214\365\014\014\023"
 175      60646066 
 175      60602862 
 175      8002A68F 
 175      8CF50C0C 
 176 0015 CE31D4D7 		.ascii	"\3161\324\327\317\353`d\372\304X\317\210\340}f\254g"
 176      CFEB6064 
 176      FAC458CF 
 176      88E07D66 
 176      AC67
 177 0027 82F3187F 		.ascii	"\202\363\030\1770\3263\203y\015\015\214\214?\031\353"
 177      30D63383 
 177      790D0D8C 
 177      8C3F19EB 
 178 0037 59E09CAF 		.ascii	"Y\340\234\257\214\365\2540\0163\003\013C\363\251\343"
 178      8CF5AC30 
 178      0E33030B 
 178      43F3A9E3 
 179 0047 CCCC407B 		.ascii	"\314\314@{\026w\275\221g\006\212<\336\312\307\314\304"
 179      1677BD91 
 179      67068A3C 
 179      DECAC7CC 
 179      C4
 180 0058 CAD0FCF0 		.ascii	"\312\320\374\360\037#\003\000\275/$\346"
 180      1F230300 
 180      BD2F24E6 
 181              		.text
 182              		.section	.gnu.lto_.vars.abc06d86ef5200cd,"",%progbits
ARM GAS  /tmp/cc1d6xpg.s 			page 14


 183 0000 789C6362 		.ascii	"x\234cb`d`f```g\200\000\306\357\214\014\014\365\014"
 183      60646066 
 183      60606067 
 183      8000C6EF 
 183      8C0C0CF5 
 184 0015 0007D001 		.ascii	"\000\007\320\001\206"
 184      86
 185              		.text
 186              		.section	.gnu.lto_.refs.abc06d86ef5200cd,"",%progbits
 187 0000 789C6362 		.ascii	"x\234cb`d`f``\340a\200\000F db\004\221\014\014\000\001"
 187      60646066 
 187      6060E061 
 187      80004620 
 187      64620491 
 188 0018 DD001A   		.ascii	"\335\000\032"
 189              		.text
 190              		.section	.gnu.lto_.statics.abc06d86ef5200cd,"",%progbits
 191 0000 789C6362 		.ascii	"x\234cb`d`b\300\016@\342\214\020&\000\000\375\000\011"
 191      60646062 
 191      C00E40E2 
 191      8C102600 
 191      00FD0009 
 192              		.text
 193              		.section	.gnu.lto_.decls.abc06d86ef5200cd,"",%progbits
 194 0000 789CB55A 		.ascii	"x\234\265Z\177p\024\325\035\337\267K\356rI\010\210\205"
 194      7F7014D5 
 194      1DDFB74B 
 194      EE724908 
 194      8885
 195 0012 49AD2369 		.ascii	"I\255#iG:\352T\316\037\200\350Tj\2133B;ZGt\2643\336"
 195      473AEA54 
 195      CE1F80E8 
 195      546A8B33 
 195      423B5A47 
 196 002a 9CC76549 		.ascii	"\234\307eIN\356\227{\033\010\375\243sD\301\2102\305"
 196      4EEE977B 
 196      1B08FDA3 
 196      7344C188 
 196      32C5
 197 003c 4014CAC4 		.ascii	"@\024\312\304\0041\250\210\" B\264\010H\232\240F$\020"
 197      0431A888 
 197      222042B4 
 197      08489AA0 
 197      462410
 198 004f 04F91584 		.ascii	"\004\371\025\204\210\230F\020\213\024\003&\375\276\267"
 198      88984610 
 198      8B140326 
 198      FDBEB7
 199 005e BB6FDFDE 		.ascii	"\273o\337\336\355\336\336^\350\316\275\267{\357\336"
 199      EDDEDE5E 
 199      E8CEBDB7 
 199      7BEFDE
 200 006d FBBCEF8F 		.ascii	"\373\274\357\217\317\367\375\272\3459\304\341\253\023"
 200      CFF7FDBA 
 200      E539C4E1 
 200      AB13
 201 007b 6E037035 		.ascii	"n\003p5\216\347\270\246<\216\033\002ewBBj\302\227\013"
ARM GAS  /tmp/cc1d6xpg.s 			page 15


 201      8EE7B8A6 
 201      3C8E1B02 
 201      65774242 
 201      6AC2970B 
 202 008f 5223A4FB 		.ascii	"R#\244\373\241\340AH\217Bz\014R\031R\352\314\320*\252"
 202      A1E04148 
 202      8F427A0C 
 202      521952EA 
 202      CCD02AAA 
 203 00a3 17AE3B12 		.ascii	"\027\256;\022R;\224\027\303\275H\305Z\015\351eHQ\370"
 203      523B9417 
 203      C3BD48C5 
 203      5A0DE965 
 203      4851F8
 204 00b6 520EE953 		.ascii	"R\016\351SH\315\360}\027\334wCz\003\236\207\301}\022"
 204      48CDF07D 
 204      17DC7743 
 204      7A039E87 
 204      C17D12
 205 00c9 DC2F42FA 		.ascii	"\334/B\372\006\322\036\370\036\200\264\027\222\017R"
 205      06D21EF8 
 205      1E80B417 
 205      920F52
 206 00d8 219445E0 		.ascii	"!\224E\340\3767H\277\203t'\244>\214\017\367up\037\005"
 206      FE3748BF 
 206      837427A4 
 206      3E8C0FF7 
 206      75701F05 
 207 00ec F70D703F 		.ascii	"\367\015p?\005\351'H\202*\317c\252\334\274\252s\252"
 207      05E92748 
 207      822ACF63 
 207      AADCBCAA 
 207      73AA
 208 00fe CC58B72B 		.ascii	"\314X\267+T\0315\231\017\"E\007VFV\366a\252\314{U;`"
 208      54193599 
 208      0F224507 
 208      564656F6 
 208      61AACC7B 
 209 0115 F9B0CC6E 		.ascii	"\371\260\314nFF,\337HU6M.^\355\357Q\013\373a\033{Rd"
 209      46462CDF 
 209      4855364D 
 209      2E5EEDEF 
 209      510BFB61 
 210 012d C17663E5 		.ascii	"\301vc\3458\002\351!\265\035\257\266\321\374q4\005o"
 210      3802E921 
 210      B51DAFB6 
 210      D1FC7134 
 210      056F
 211 013f 34F752B2 		.ascii	"4\367R\262\361\330\242'\223S.\014\014\270GquI\270\032"
 211      F1D8A227 
 211      93532E0C 
 211      0CB84771 
 211      7549B81A 
 212 0153 E7279348 		.ascii	"\347'\223H\366p5\352\227);\241\253\237\203\016\305\320"
 212      F67035EA 
 212      97293BA1 
 212      AB9F830E 
ARM GAS  /tmp/cc1d6xpg.s 			page 16


 212      C5D0
 213 0165 7529792A 		.ascii	"u)y*\362(|\030\303\275\222L.\202j\310\207^F\036\350"
 213      F2287C18 
 213      C3BD924C 
 213      2E826AC8 
 213      875E461E 
 214 017a 8F47DC0D 		.ascii	"\217G\334\015\334\353Ir\251\235\251\267|\256\177\351"
 214      DCEB4972 
 214      A99DA9B7 
 214      7CAE7FE9 
 215 018a BA5E41F9 		.ascii	"\272^A\371\342\030}\025A\277\033\301\317M\350\006\356"
 215      E2187D15 
 215      41BF1BC1 
 215      CF4DE806 
 215      EE
 216 019b FBE7B6B6 		.ascii	"\373\347\266\266\336\250@\371\220\313\303\352D\276+"
 216      DEA840F9 
 216      90CBC3EA 
 216      44BE2B
 217 01aa B51460FC 		.ascii	"\265\024`\3743\356\354\002f3\032\320.\244\375\206\277"
 217      33EEEC02 
 217      66331AD0 
 217      2EA4FD86 
 217      BF
 218 01bb B8B9CB01 		.ascii	"\270\271\313\001a\256\006\306[\201F\221'\201\270\004"
 218      61AE06C6 
 218      5B814691 
 218      2781B804 
 219 01cb B8BA2099 		.ascii	"\270\272 \231\254V\325\037\301=\217\261KYC4\016\241"
 219      AC56D51F 
 219      C13D8FB1 
 219      4B594334 
 219      0EA1
 220 01dd 1077A758 		.ascii	"\020w\247X\342\0154\002@V!\315\024\375/\014\354S\255"
 220      E20D3402 
 220      405621CD 
 220      14FD2F0C 
 220      EC53AD
 221 01f0 9A05120F 		.ascii	"\232\005\022\017\034\307-\337\002\024\245=\301N*\330"
 221      1CC72DDF 
 221      0214A53D 
 221      C14E2AD8 
 222 0200 B89453CB 		.ascii	"\270\224S\313\373\352\353v\225p\351\327\210_r\215 <"
 222      FBEAEB76 
 222      9570E9D7 
 222      885F728D 
 222      203C
 223 0212 268DCB87 		.ascii	"&\215\313\207V\243B\300\034\240\230\2077\367 s3h\317"
 223      56A342C0 
 223      1CA09887 
 223      37F72073 
 223      3368CF
 224 0225 CAA5D551 		.ascii	"\312\245\325Q/\023\314\371\274\206\331;\321\011bi\032"
 224      2F13CCF9 
 224      BC86D93B 
 224      D1096269 
 224      1A
ARM GAS  /tmp/cc1d6xpg.s 			page 17


 225 0236 22215BB5 		.ascii	"\"![\265\003\262\275K\310\266\220\247&\2561\022\327"
 225      03B2BD4B 
 225      C8B690A7 
 225      26AE3112 
 225      D7
 226 0247 095633C1 		.ascii	"\011V3\301\252\343u\346v\264z5\232\271S\230\3536\322"
 226      AAE375E6 
 226      76B47A35 
 226      9AB95398 
 226      EB36D2
 227 025a 4EF9597B 		.ascii	"N\371Y{\302$\033\3069o\300s/QS\366\3257\354\272=\263"
 227      C2241BC6 
 227      396FC073 
 227      2F5153F6 
 227      D537ECBA 
 228 0270 35F32DFD 		.ascii	"5\363-\375\223$\326TI\326\350\262\326\237\347\232H\217"
 228      9324D654 
 228      49D6E8B2 
 228      D69FE79A 
 228      488F
 229 0282 1F9892EC 		.ascii	"\037\230\222\354\003\206d\347Wm\370\330\214d\210q\237"
 229      038664E7 
 229      576DF8D8 
 229      8C648871 
 229      9F
 230 0293 7DB0F0B4 		.ascii	"}\260\360\264\367kI\357{I\357;L{\337\301\364\336\377"
 230      F76B49EF 
 230      7B49EF3B 
 230      4C7BDFC1 
 230      F4DEFF
 231 02a6 E6C56126 		.ascii	"\346\305a&\235{\254:\367\241;Gf\341\3626\302\337g\004"
 231      9D7BAC3A 
 231      F7A13B47 
 231      66E1F236 
 231      C2DF6704 
 232 02ba 44955CDE 		.ascii	"D\225\\\3366Z\363\330\244B\243\007\341\273\346A\"{\255"
 232      365AF3D8 
 232      A442A307 
 232      E1BBE641 
 232      227BAD
 233 02cd A0C9DEFF 		.ascii	"\240\311\336\377f\307\236\353\007\033K\212,u\024\264"
 233      66C79EEB 
 233      071B4B8A 
 233      2C7514B4 
 234 02dd FD8F838B 		.ascii	"\375\217\203\213%\015q)E\354\264A\264\346\223\021q9"
 234      250D7129 
 234      45ECB441 
 234      B4E69311 
 234      7139
 235 02ef 453CEC08 		.ascii	"E<\354\010\321Z\306\227(b\267\015\342\360,e\\A\021{"
 235      D15AC697 
 235      2862B70D 
 235      E2F02C65 
 235      5C41117B 
 236 0303 1D215ACB 		.ascii	"\035!Z\313\370\012E<g\203X\222\245\214\257Q\304K\216"
 236      F80A453C 
 236      67835892 
ARM GAS  /tmp/cc1d6xpg.s 			page 18


 236      A58CAF51 
 236      C44B8E
 237 0316 10AD655C 		.ascii	"\020\255e\\C\021[\376\224\031\261\324L\3064N\245N\216"
 237      43115BFE 
 237      9419B1D4 
 237      4CC6344E 
 237      A54E8E
 238 0329 1F221A13 		.ascii	"\037\"\032\023<\267V\320F\216\363\2536~\354\315\201"
 238      3CB756D0 
 238      468EF3AB 
 238      367EECCD 
 238      81
 239 033a FF146A83 		.ascii	"\377\024j\203\240\017{\353\234\015{f\306P\246\245f\012"
 239      A00F7BEB 
 239      9C0D7B66 
 239      C650A6A5 
 239      660A
 240 034c DAD96C37 		.ascii	"\332\331l7\325\331\323J\301\334N1\017\333HiG+\303p\245"
 240      D5D9D34A 
 240      C1DC4E31 
 240      0FDB4869 
 240      472BC370 
 241 0361 CE55C79A 		.ascii	"\316U\307\232\266\225,e\206\313|\212\206Wf\372\330H"
 241      B6952C65 
 241      86CB7C8A 
 241      865766FA 
 241      D848
 242 0373 AB274B4A 		.ascii	"\253'KJ\254j\373P7\032\003\371W\310C%Q\237\351\343\000"
 242      AC6AFB50 
 242      371A03F9 
 242      57C84325 
 242      519FE9E3 
 243 0388 594C7F24 		.ascii	"YL\177$\260\033\005\366\262omM\225\343,Uv\351\256\270"
 243      B01B05F6 
 243      B26F6D4D 
 243      95E32C55 
 243      76E9AEB8 
 244 039c 23E7D8F9 		.ascii	"#\347\330\371\256:Y\342bT\267\261\224:\304\177Cf\365"
 244      AE3A59E2 
 244      6254B7B1 
 244      943AC47F 
 244      4366F5
 245 03af 7D7488EF 		.ascii	"}t\210\357?p\346\032\005\3251T/\201:*\350\013\204\215"
 245      3F70E61A 
 245      05D53154 
 245      2F813A2A 
 245      E80B848D 
 246 03c3 3FF19AA5 		.ascii	"?\361\232\245P\312\002\001\031\347{\335v\232\351\234"
 246      50CA0201 
 246      19E77BDD 
 246      769AE99C 
 247 03d3 D5E6B993 		.ascii	"\325\346\271\223L\214\\\324c\304(n\026\003Fnf<Kt?\255"
 247      4C8C5CD4 
 247      63C4286E 
 247      1603466E 
 247      663C4B74 
 248 03e9 9B71A766 		.ascii	"\233q\247fF\305.N\2659\317h\263\3703G\332\\7xm\316\023"
ARM GAS  /tmp/cc1d6xpg.s 			page 19


 248      46C52E4E 
 248      B539CF68 
 248      B3F83347 
 248      DA5C3778 
 249 0400 6DFA756D 		.ascii	"m\372umN\015N\233\371Ctm\352\235is\023\243\215\262l"
 249      4E0D4E9B 
 249      F943746D 
 249      EA9D6973 
 249      13A38DB2 
 250 0415 BB92ABB5 		.ascii	"\273\222\253\265[\266a\261.\242+\271\364E\023.\325\026"
 250      5BB661B1 
 250      2EA22BB9 
 250      F445132E 
 250      D516
 251 0427 4D9D5B8B 		.ascii	"M\235[\213\271\364\313\315t\245\355\005\027\022\371"
 251      B9F4CBCD 
 251      74A5ED05 
 251      1712F9
 252 0436 71DBF69D 		.ascii	"q\333\366\235's\336\025\0301\227P\314\226\251\203]\033"
 252      2773DE15 
 252      18319750 
 252      CC96A983 
 252      5D1B
 253 0448 4DC2636F 		.ascii	"M\302co=\005\274\364\321`\267.\206\3217e\345\210\267"
 253      3D05BCF4 
 253      D160B72E 
 253      86D13765 
 253      E588B7
 254 045b 6DF64BC7 		.ascii	"m\366K\307y<Y\024\014\3217w\313Z\177\243Qf5JY;\342\002"
 254      793C5914 
 254      0CD13777 
 254      CB5A7FA3 
 254      5166354A 
 255 0473 66F168ED 		.ascii	"f\361h\355\325\247xf\330\334D5\356\253?\262\307f\344"
 255      D5A77866 
 255      D8DC4435 
 255      EEAB3FB2 
 255      C766E4
 256 0486 74A4B2D9 		.ascii	"t\244\262\331\342\3741\012UDz\337Bz\177\2267[\233\343"
 256      E2FC310A 
 256      55447ADF 
 256      427A7F96 
 256      375B9BE3 
 257 049a 528D663D 		.ascii	"R\215f=\355\317\037\272\316\204h\274J\212\244\276\025"
 257      EDCF1FBA 
 257      CE8468BC 
 257      4A8AA4BE 
 257      15
 258 04ab 31F47797 		.ascii	"1\364w\227aFgm\373w\036o\234{\030\333v\264NU@\265=\315"
 258      6146676D 
 258      FB771E6F 
 258      9C7B18DB 
 258      76B44E55 
 259 04c3 5DD6483C 		.ascii	"]\326H<\327GZ\326\232J^\313\263\033\347\256O\314\366"
 259      D7475AD6 
 259      9A4A5ECB 
 259      B31BE7AE 
ARM GAS  /tmp/cc1d6xpg.s 			page 20


 259      4FCCF6
 260 04d6 347CDACC 		.ascii	"4|\332\314\357C\353\021\257b\266\254\275<\033g\037z"
 260      EF43EB11 
 260      AF62B6AC 
 260      BD3C1B67 
 260      1F7A
 261 04e8 8762B63B 		.ascii	"\207b\266;Z>\225\232\310\254\362GW\332\207\226\360c"
 261      5A3E959A 
 261      C8ACF247 
 261      57DA8796 
 261      F063
 262 04fa 38DE87EA 		.ascii	"8\336\207\352@\035\037z\001rJ\254g\3634\327\366\264"
 262      401D1F7A 
 262      01724AAC 
 262      67F334D7 
 262      F6B4
 263 050c AF3B74BB 		.ascii	"\257;t\273\271\035\263\015x\307'D\313x<>,\316\323\247"
 263      B91DB30D 
 263      78C72744 
 263      CB783C3E 
 263      2CCED3A7 
 264 0520 64BA6957 		.ascii	"d\272iW\216\217\014\032\345v\300\303s\313\030\035\317"
 264      8E8F0C1A 
 264      E576C0C3 
 264      73CB181D 
 264      CF
 265 0531 1ECA652B 		.ascii	"\036\312e+\235f\365\324`]\300\006kC\236\036\254?\375"
 265      9D66F5D4 
 265      605DC006 
 265      6B439E1E 
 265      AC3FFD
 266 0544 DF833589 		.ascii	"\337\2035\211\014+M\236[E\272o4\345|#\303\371\376\317"
 266      0C2B4D9E 
 266      5B45BA6F 
 266      34E57C23 
 266      C3F9FECF 
 267 0558 D71D35E3 		.ascii	"\327\0355\343\274\300D\253\026\201\237Q\314\316M\305"
 267      BCC044AB 
 267      16819F51 
 267      CCCE4DC5 
 268 0568 B992C4B8 		.ascii	"\271\222\304\270\200\336O!\273\367\027\347\340\223A"
 268      80DE4F21 
 268      BBF717E7 
 268      E09341
 269 0577 D888A5E0 		.ascii	"\330\210\245\340\353D\277.J\301\356w\2135\276)\306b"
 269      EB44BF2E 
 269      4AC1EE77 
 269      8B35BE29 
 269      C662
 270 0589 08D8C884 		.ascii	"\010\330\310\204\324\313\020R\202\017\255$!\325D\362"
 270      D4CB1052 
 270      820FAD24 
 270      21D544F2 
 271 0599 57F5C0B2 		.ascii	"W\365\300\262f\312k,S\276\24668\347\314\006\245Y\362"
 271      66CA6B2C 
 271      53BEA636 
 271      38E7CC06 
ARM GAS  /tmp/cc1d6xpg.s 			page 21


 271      A559F2
 272 05ac B281EDED 		.ascii	"\262\201\355\3554\303\313\206+\007GK\307gjkI\250\377"
 272      34C3CB86 
 272      2B07474B 
 272      C7676A6B 
 272      49A8FF
 273 05bf A087FA66 		.ascii	"\240\207\372f&\324\233SC=\2733\262\271.]\241\255{m\002"
 273      26D49B53 
 273      433DBB33 
 273      B2B92E5D 
 273      A1AD7B6D 
 274 05d4 DB54236A 		.ascii	"\333T#j\233\032\227\266nk\277/3N\251\245e\262>kc\355"
 274      9B1A97B6 
 274      6E6BBF2F 
 274      334EA9A5 
 274      65B23E6B 
 275 05ea B291F0EF 		.ascii	"\262\221\360\3579\227>\303mh\235\242\200fuj\267\234"
 275      39973EC3 
 275      6D689DA2 
 275      8066756A 
 275      B79C
 276 05fc B4DC6C1A 		.ascii	"\264\334l\032\355\233\0153\\\207\351\014\207,g8\334"
 276      ED9B0D33 
 276      5C87E90C 
 276      872C6738 
 276      DC
 277 060d BAFDAD9C 		.ascii	"\272\375\255\234f\270\364\213\025\321\207\336\203\340"
 277      66B8F48B 
 277      15D187DE 
 277      83E0
 278 061b 01F9DE67 		.ascii	"\001\371\336gg\2427\250\007\316\355\262[y\032}Pj\360"
 278      67A237A8 
 278      07CEEDB2 
 278      5B791A7D 
 278      506AF0
 279 062e 013B6C6D 		.ascii	"\001;lm\244\230\335\177\316<j]g\343Um-\273\215\"\266"
 279      A498DD7F 
 279      CE3C6A5D 
 279      67E3556D 
 279      2DBB8D22 
 280 0643 3C9259C6 		.ascii	"<\222Y\306\233,\0215c+!\321\252\353\355\010\261\324"
 280      9B2C1135 
 280      632B21D1 
 280      AAEBED08 
 280      B1D4
 281 0655 04B1812C 		.ascii	"\004\261\201,E;(b\357\027v\356\233h+\245r\260~H\217"
 281      453B2862 
 281      EF1776EE 
 281      9B682BA5 
 281      72B07E48 
 282 066a 8F8376DE 		.ascii	"\217\203v\336\231h+'Y\305\237\324My\310N\314\273\262"
 282      99682B27 
 282      59C59FD4 
 282      4D79C84E 
 282      CCBBB2
 283 067d 6599FE1F 		.ascii	"e\231\376\037\211\017\275\215\306p#|h\035\302\203\363"
 283      890FBD8D 
ARM GAS  /tmp/cc1d6xpg.s 			page 22


 283      C670237C 
 283      681DC283 
 283      F3
 284 068e 06926F24 		.ascii	"\006\222o$\371\026\222\037!y\027\311\277$\371)\222\177"
 284      F916921F 
 284      217917C9 
 284      BF24F929 
 284      927F
 285 06a0 47F21F48 		.ascii	"G\362\037H\336G\362w\310\360\276\205\344[I\276\235\344"
 285      DE47F277 
 285      C8F0BE85 
 285      E45B49BE 
 285      9DE4
 286 06b2 3B48FE2F 		.ascii	";H\376/\222\267e3\370\247,\376y\365\257%\205\\\370\376"
 286      92B76533 
 286      F8A72CFE 
 286      79F5AF25 
 286      855CF8FE 
 287 06c6 A040E3E1 		.ascii	"\240@\343\3414\035\022\216\2379\373\357*\245\370Zne"
 287      341D128E 
 287      9F39FBEF 
 287      2AA5F85A 
 287      6E65
 288 06d8 32598BAD 		.ascii	"2Y\213\255\250M\243K\334d\012A\243\271\315n\363\216"
 288      A84DA34B 
 288      DC640A41 
 288      A3B9CD6E 
 288      F38E
 289 06ea 1169B448 		.ascii	"\021i\264Hi\244\260\370E\332\350\200\307BZU&u\007\363"
 289      69A4B0F8 
 289      45DAE880 
 289      C7425A55 
 289      267507F3 
 290 06fe 6BAE0947 		.ascii	"k\256\011G\302\216\352)\272\254\270y\225\225\256\244"
 290      C28EEA29 
 290      BAACB879 
 290      9595AEA4 
 291 070e C6C73CCF 		.ascii	"\306\307<\317z'\303?\227J7\326\206\353\340G\251O\232"
 291      7A27C33F 
 291      974A37D6 
 291      86EBE047 
 291      A94F9A
 292 0721 8560E473 		.ascii	"\205`\344sk\006ji\210j}\020A\253\025A\225\275\227\017"
 292      6B066A69 
 292      886A7D10 
 292      41AB1541 
 292      95BD970F 
 293 0735 EDE6475B 		.ascii	"\355\346G[;\205\324\330\343@P\313\277\0230\320>\336"
 293      3B85D4D8 
 293      E34050CB 
 293      BF1330D0 
 293      3EDE
 294 0747 F09FA1EA 		.ascii	"\360\237\241\352\244Lnn\322\265X}\225\271\223}\250\235"
 294      A44C6E6E 
 294      D2B5587D 
 294      95B9937D 
 294      A89D
ARM GAS  /tmp/cc1d6xpg.s 			page 23


 295 0759 C7037227 		.ascii	"\307\003r'\350q ['\373\320.\332\350\202\023''\267U\227"
 295      E871205B 
 295      27FBD02E 
 295      DAE88213 
 295      2727B755 
 296 076e 102D39B5 		.ascii	"\020-9\265u\205!\300\016\244\233\352\030t\333\350\330"
 296      758521C0 
 296      0EA49BEA 
 296      1874DBE8 
 296      D8
 297 077f 5447524D 		.ascii	"TGRM\205\317\347\220\3016\353\251m\372\352\2778^#\260"
 297      85CFE790 
 297      C136EBA9 
 297      6DFAEABF 
 297      385E23B0 
 298 0793 1D43E43A 		.ascii	"\035C\344:\220$3\273\2764\363\232Q\224mT\224\303\013"
 298      902433BB 
 298      BE34F39A 
 298      51946D54 
 298      94C30B
 299 07a6 4E180E53 		.ascii	"N\030\016S|\350D&A\024N\360\\;\0058\267`e\221\021\340"
 299      7CE84426 
 299      41144EF0 
 299      5C3B0538 
 299      B7606591 
 300 07bc 2B23C0AF 		.ascii	"+#\300\257\270\025\030 \331X#$\223\227\006\006\004m"
 300      B8151820 
 300      D9582324 
 300      93970606 
 300      046D
 301 07ce 495B     		.ascii	"I["
 302 07d0 73823968 		.ascii	"s\2029hM\216\244z\354\306\315\331E\305\327d\366\373"
 302      4D8EA47A 
 302      ECC6CDD9 
 302      45C5D764 
 302      F6FB
 303 07e2 827609DB 		.ascii	"\202v\011\333\346\266;\024\360\254\260x\356+\322\266"
 303      E6B63B14 
 303      F0ACB078 
 303      EE2BD2B6 
 304 07f2 C77459D1 		.ascii	"\307tY\321cXV\324\231n\"\\6[\376c\372\212\374\352\024"
 304      635856D4 
 304      996E225C 
 304      365BFE63 
 304      FA8AFCEA 
 305 0807 E14F13E1 		.ascii	"\341O\023\341\3170\302w\265N2\012\237\001\211\347.\221"
 305      CF30C277 
 305      B54E320A 
 305      9F0189E7 
 305      2E91
 306 0819 96674D45 		.ascii	"\226gME?k\\\021\035\264\023][H,\310\3270\333{\364\351"
 306      3F6B5C11 
 306      1DB4135D 
 306      5B482CC8 
 306      D730DB7B 
 307 082f 2FD70D90 		.ascii	"/\327\015\2202\245\326R\314\316\307s\335\377h\213\223"
 307      32A5D652 
ARM GAS  /tmp/cc1d6xpg.s 			page 24


 307      CCCEC773 
 307      DDFF688B 
 307      93
 308 0840 0FC80B06 		.ascii	"\017\310\013\006\313(b\267#\304R\023\031\225\331\245"
 308      CB2862B7 
 308      23C45213 
 308      1995D9A5 
 309 0850 81225EEA 		.ascii	"\201\"^\352\271\\\377\234\274J1[f:A\264\226r-E<l\203"
 309      B95CFF9C 
 309      BC4A315B 
 309      663A41B4 
 309      96722D45 
 310 0867 68FAA742 		.ascii	"h\372\247B\372\305\322\307\207\376\003\253U\350\353"
 310      FAC5D2C7 
 310      87FE03AB 
 310      55E8EB
 311 0876 1C99E7CF 		.ascii	"\034\231\347\317\223\374\002\311\373H~\211\344\375\354"
 311      93FC02C9 
 311      FB487E89 
 311      E4FDEC
 312 0885 5AB6395F 		.ascii	"Z\2669_\213\236s\027t\272\2440\325\236/\326\341\223"
 312      8B9E7317 
 312      74BAA430 
 312      D59E2FD6 
 312      E193
 313 0897 61435B2D 		.ascii	"aC[-`*l\315\327\303\247\276\355\021\353\360I;>\330G"
 313      602A6CCD 
 313      D7C3A7BE 
 313      ED11EBF0 
 313      493B3ED8 
 314 08ac 5ACE13CC 		.ascii	"Z\316\023\314\302\007\227\352\341\363\337\375f\3413"
 314      C20797EA 
 314      E1F3DFFD 
 314      66E133
 315 08bb C4D16B00 		.ascii	"\304\321k\000z\357?K\321c\001\321\243\227\321cq\333"
 315      7AEF3F4B 
 315      D16301D1 
 315      A397D163 
 315      71DB
 316 08cd 546B3D52 		.ascii	"Tk=R\220`\030 -\027\232\352\261\320\240\307&S=\362\014"
 316      90601820 
 316      2D179AEA 
 316      B1D0A0C7 
 316      26533DF2 
 317 08e2 447B46C0 		.ascii	"D{F\300D[\350\3210\273\217\014\376\350O\301\254\243"
 317      445BE8D1 
 317      30BB8F0C 
 317      FEE84FC1 
 317      ACA3
 318 08f4 98BD3E27 		.ascii	"\230\275>'\210\351\341\340xO^'\340q\250\336\243\233"
 318      88E9E1E0 
 318      784F5E27 
 318      E071A8DE 
 318      A39B
 319 0906 78FF3EFA 		.ascii	"x\377>\3727V\216{\362W\251:}\365[\366\347\374\336\212"
 319      37568E7B 
 319      F257A93A 
ARM GAS  /tmp/cc1d6xpg.s 			page 25


 319      7DF55BF6 
 319      E7FCDE8A 
 320 091a 097F9C2C 		.ascii	"\011\177\234,.\226\013)3\372$\343\204no\233\177\020"
 320      2E960B29 
 320      33FA24E3 
 320      846E6F9B 
 320      7F10
 321 092c E7BCCDD8 		.ascii	"\347\274\315\330\346\307V\365l;\345_\002\334\227\265"
 321      E6C756F5 
 321      6C3BE55F 
 321      02DC97B5 
 322 093c 240D8261 		.ascii	"$\015\202a\311o\260h\312o0n0\306\333\352\314x\351tP"
 322      C96FB068 
 322      CA6F306E 
 322      30C6DBEA 
 322      CC78E974 
 323 0951 B759DB29 		.ascii	"\267Y\333)f\373\321\234\206\360\364\213\015+\230!\205"
 323      66FBD19C 
 323      86F0F48B 
 323      0D2B9821 
 323      85
 324 0962 315C9E0F 		.ascii	"1\\\236\017-\022\3600XK\362%$_F\362\025B\026\033#\034"
 324      2D12F030 
 324      584BF225 
 324      245F46F2 
 324      1542161B 
 325 0978 0A14FC79 		.ascii	"\012\024\374y\201WG\240n\377\345\2101\037ZL\021\317"
 325      815747A0 
 325      6EFFE588 
 325      311F5A4C 
 325      11CF
 326 098a 39423433 		.ascii	"9B43*\016\032\037ZJ\021[N\331\355\207\355\337\246Q\002"
 326      2A0E1A1F 
 326      5A4A115B 
 326      4ED9ED87 
 326      EDDFA651 
 327 099f 71A7471B 		.ascii	"q\247G\033y[B9\270\336\314O\363\030?=\015~\032\342C"
 327      795B4239 
 327      B8DECC4F 
 327      F3183F3D 
 327      0D7E1AE2 
 328 09b4 35C42B2B 		.ascii	"5\304++I\376\012\311\233\004f\352\352\364hSW\347\034"
 328      49FE0AC9 
 328      9B0466EA 
 328      EAF46853 
 328      57E71C
 329 09c7 8B39C27C 		.ascii	"\2139\302|2em\225\323I\330\353d\300?\304D\334\2466'"
 329      32656D95 
 329      D349D8EB 
 329      64C03FC4 
 329      44DCA636 
 330 09dc 27613DA4 		.ascii	"'a=\244\345\032\323\001\177\215a\300\257;dy\022\366"
 330      E51AD301 
 330      7F8D61C0 
 330      AF3B6479 
 330      12F6
 331 09ee D493FAC0 		.ascii	"\324\223\372\300\363$\015\361\0230\026Z\223\327\360"
ARM GAS  /tmp/cc1d6xpg.s 			page 26


 331      F3240DF1 
 331      1330165A 
 331      93D7F0
 332 09fd 82431F95 		.ascii	"\202C\037\225\242\363\333\365|\016\3645s\343\032\306"
 332      A2F3DBF5 
 332      7C0EF435 
 332      73E31AC6 
 333 0a0d 8D6F09E4 		.ascii	"\215o\011\344\354l-\353\264\247\012\350z\343G;6\032"
 333      EC6C2DEB 
 333      B4A70AE8 
 333      7AE3473B 
 333      361A
 334 0a1f 4FBA8C5E 		.ascii	"O\272\214^S\226\274\312\333\2525\024\263\363\257t\222"
 334      5396BCCA 
 334      DBAA3514 
 334      B3F3AF74 
 334      92
 335 0a30 35BE98AA 		.ascii	"5\276\230\252=[\037u\345D\204w\011\021\026\027hDX\177"
 335      3D5B1F75 
 335      E5448477 
 335      09111617 
 335      6844587F 
 336 0a44 727D97F1 		.ascii	"r}\227\361mY\273\177\304\233MI\320\314\220\240e\223"
 336      6D59BB7F 
 336      C49B4D49 
 336      D0CC90A0 
 336      6593
 337 0a56 CB8A02B9 		.ascii	"\313\212\002\271\316\246\377$A\274\203\212\335\277T"
 337      CEA6FF24 
 337      41BC838A 
 337      DDBF54
 338 0a65 7F9520C7 		.ascii	"\177\225 \307\311\364\023\002\206\345^\177\262\266k"
 338      C9F41302 
 338      86E55E7F 
 338      B2B66B
 339 0a74 1007DC86 		.ascii	"\020\007\334\206\276\233\0316\275\247\260\351}\226M"
 339      BE9B1936 
 339      BDA7B0E9 
 339      7D964D
 340 0a83 7BA8E7FB 		.ascii	"{\250\347\373\352\273\256\311\334i<#\233j\004\327\025"
 340      EABBAEC9 
 340      DC693C23 
 340      9B6A04D7 
 340      15
 341 0a94 DC22E231 		.ascii	"\334\"\3421l\243\245\305\252Q\267\315O\326\240\271\353"
 341      6CA3A5C5 
 341      AA51B7CD 
 341      4FD6A0B9 
 341      EB
 342 0aa5 AED65B1A 		.ascii	"\256\326[\032\267R\254Yw\020\263\356\243f=\277\352\375"
 342      B752AC59 
 342      7710B3EE 
 342      A3663DBF 
 342      EAFD
 343 0ab7 3675C2CC 		.ascii	"6u\302\314\001\255\225\240\035\243h\337?w\266\355\267"
 343      01AD95A0 
 343      1DA368DF 
ARM GAS  /tmp/cc1d6xpg.s 			page 27


 343      3F77B6ED 
 343      B7
 344 0ac8 9A613C29 		.ascii	"\232a<)N\362\030\235\344\241N\362\250NR\376p\344rl\245"
 344      4EF2189D 
 344      E4A14EF2 
 344      A84E52FE 
 344      70E4726C 
 345 0add 49BB6D28 		.ascii	"I\273m(\025\367\000RA>\024\256\320UL\322\201\250(\323"
 345      15F70052 
 345      413E14AE 
 345      D0554CD2 
 345      81A828D3 
 346 0af1 38F491E0 		.ascii	"8\364\221\340\241\336(\362\260OWQ\337~\303\370\366\305"
 346      A1DE28F2 
 346      B04F5751 
 346      DF7EC3F8 
 346      F6C5
 347 0b03 2EC14A04 		.ascii	".\301J\004\355KU\266\234\352a\366K\275\312~\351[\262"
 347      ED4B55B6 
 347      9CEA61F6 
 347      4BBDCA7E 
 347      E95BB2
 348 0b16 2F9A4BA6 		.ascii	"/\232K\246\230\327H\276\201\344\033I\276\235e\334\005"
 348      98D748BE 
 348      81E41B49 
 348      BE9D65DC 
 348      05
 349 0b27 EA8FF667 		.ascii	"\352\217\366gV\216\242\323N\312\251\004\356\347\023"
 349      568EA2D3 
 349      4ECAA904 
 349      EEE713
 350 0b36 811E95A4 		.ascii	"\201\036\225\244,\303\360F\335\3326\355\372\002#\245"
 350      2CC3F046 
 350      DDDA36ED 
 350      FA0223A5 
 351 0b46 DDD719DB 		.ascii	"\335\327\031\333}\252\267\323\230\274\015\210\364\204"
 351      7DAAB7D3 
 351      98BC0D88 
 351      F484
 352 0b54 F2E69BD6 		.ascii	"\362\346\233\326n8m\247\311\271+\007\377}f\351?\224"
 352      6E386DA7 
 352      C9B92B07 
 352      FF7D66E9 
 352      3F94
 353 0b66 2242325D 		.ascii	"\"B2]\204\211\264\262[\205\333\235\203\010\035\226\""
 353      8489B4B2 
 353      5B85DB9D 
 353      83081D96 
 353      22
 354 0b77 68C3658A 		.ascii	"h\303e\212\365\360\321\2315\334\036K\253\037\311\330"
 354      F5F0D199 
 354      35DC1E4B 
 354      AB1FC9D8 
 355 0b87 6EAFDE0E 		.ascii	"n\257\336\016\037\206\355\336\275(Y]R}l``t\212\005\330"
 355      1F86EDDE 
 355      BD28595D 
 355      527D6C60 
ARM GAS  /tmp/cc1d6xpg.s 			page 28


 355      60748A05 
 356 0b9c 89F97E0A 		.ascii	"\211\371~\012S`g\254\324\252>\364y\016\306\332oi,6V"
 356      536067AC 
 356      D4AA3EF4 
 356      790EC6DA 
 356      6F692C36 
 357 0bb1 F47A408E 		.ascii	"\364z@\216\213\005\332\301\373\3613\035\247'Z\311\003"
 357      8B05DAC1 
 357      FBF1331D 
 357      A7275AC9 
 357      03
 358 0bc2 337AA136 		.ascii	"3z\2416\022@\013\030\305\236&\257\265\315K\316EO\350"
 358      12400B18 
 358      C59E26AF 
 358      B5CD4BCE 
 358      454FE8
 359 0bd5 F168F556 		.ascii	"\361h\365V\250\017\035\024\362\361\011\023\0011\216"
 359      A80F1D14 
 359      F2F10913 
 359      01318E
 360 0be4 4F9A50B8 		.ascii	"O\232P\270\206&\262\372L\037Q\232\273\366et\327\221"
 360      8626B2FA 
 360      4C1F519A 
 360      BBF66574 
 360      D791
 361 0bf6 5CDC5541 		.ascii	"\\\334UAa\206\332\271+\265\252\017\035\313\301]_Z\272"
 361      6186DAB9 
 361      2BB5AA0F 
 361      1DCBC15D 
 361      5F5ABA
 362 0c09 8B3D8ED5 		.ascii	"\213=\216\325\353\301\343\001A;B?|\203\2250<\267\324"
 362      EBC1E301 
 362      413B423F 
 362      7C839530 
 362      3CB7D4
 363 0c1c E02B2E2F 		.ascii	"\340+./\222(\367\313\256{\356{\250t27n\354X\257\362"
 363      9228F7CB 
 363      AE7BEE7B 
 363      A8743237 
 363      6EEC58AF 
 364 0c31 8925BC92 		.ascii	"\211%\274\222\354\215\307$9\341\375\375\003\367N\276"
 364      EC8DC724 
 364      39E1FDFD 
 364      03F74EBE 
 365 0c41 B7CA1B8C 		.ascii	"\267\312\033\214E\342\241\260(%\274\367L\236\354\015"
 365      45E2A1B0 
 365      2825BCF7 
 365      4C9EEC0D 
 366 0c51 56C873E2 		.ascii	"V\310s\342bbl\005\347\016E\345[o\361\313\177\361V&$"
 366      62626C05 
 366      E70E45E5 
 366      5B6FF1CB 
 366      7FF15626 
 367 0c66 6F38160C 		.ascii	"o8\026\014\204\275\323CQ\214\022\016M\367\226\007\203"
 367      84BDD343 
 367      518C120E 
 367      4DF79607 
ARM GAS  /tmp/cc1d6xpg.s 			page 29


 367      83
 368 0c77 DE8014B9 		.ascii	"\336\200\024\2711\032\213\2127\212\201\351!\357\270"
 368      311A8B8A 
 368      378A81E9 
 368      21EFB8
 369 0c86 B1B78DBD 		.ascii	"\261\267\215\275\305K\273\202\217\361\367P4\030\256"
 369      C54BBB82 
 369      8FF1F750 
 369      3418AE
 370 0c95 2C13BD09 		.ascii	",\023\275\011\271\014\240\241\207|\271B\022\003e~\371"
 370      B90CA0A1 
 370      877CB942 
 370      1203657E 
 370      F9
 371 0ca6 DA14F9B4 		.ascii	"\332\024\371\264\232\301\212\304\234\204&\217'X\341"
 371      9AC18AC4 
 371      9C84268F 
 371      2758E1
 372 0cb5 571A945A 		.ascii	"W\032\224ZW\017V\224AUW\334\037\025\253d\270\305%q\226"
 372      570F5694 
 372      415557DC 
 372      1F15AB64 
 372      B8C52571 
 373 0cca 5B8E4BA1 		.ascii	"[\216K\241\230_\316\257T5\"\345\241\230;\030\213\312"
 373      985FCEAF 
 373      543522E5 
 373      A1983B18 
 373      8BCA
 374 0cdc 506D4C46 		.ascii	"PmLF\353T\004c\222\010\230\205\270\330\017\010A\271"
 374      EB540463 
 374      92089885 
 374      B8D80F08 
 374      41B9
 375 0cee EA7AFB16 		.ascii	"\352z\373\026\376Y\267E\260\212\222X\016V\360\313\274"
 375      FE59B745 
 375      B08A9258 
 375      0E56F0CB 
 375      BC
 376 0cff 348E97C6 		.ascii	"4\216\227\306\363\322\004^\272\215\227&\362\322\355"
 376      F3D2045E 
 376      BA8D9726 
 376      F2D2ED
 377 0d0e 8274F34D 		.ascii	"\202t\363M\220n\346\303\022\334n\315\213\373\001\331"
 377      906EE6C3 
 377      12DC6ECD 
 377      8BFB01D9 
 378 0d1e 8D259F2D 		.ascii	"\215%\237-Jp\217\205\313DiH\260\" au\002\0211_N\310"
 378      4A708F85 
 378      CB446948 
 378      B0222061 
 378      75021131 
 379 0d35 0159F4CB 		.ascii	"\001Y\364\313n\254\310D\270\307\375\244\304-Gbe\"\371"
 379      6EACC844 
 379      B8C7FDA4 
 379      C42D4762 
 379      6522F9
 380 0d48 3E231C28 		.ascii	">#\034(O\270eI\234\221 z\342\007\227T6\007\330\220/"
ARM GAS  /tmp/cc1d6xpg.s 			page 30


 380      4FB86549 
 380      9C91207A 
 380      E2079754 
 380      3607D890 
 381 0d5d 5685E420 		.ascii	"V\205\344 Tt\315\226c\323\037\217\217P\255\017UDI\214"
 381      5474CD96 
 381      63D31F8F 
 381      8F50AD0F 
 381      5544498C 
 382 0d71 0601206F 		.ascii	"\006\001 o\266,K\361\"0tB\214\004\342\025\240\307hk"
 382      B62C4BF1 
 382      22307442 
 382      8C04E215 
 382      A0C7686B 
 383 0d85 5B8B58C1 		.ascii	"[\213X\301a\012J\302\377D\245X\011\020\303\251\227\324"
 383      610A4AC2 
 383      FF44A558 
 383      0910C3A9 
 383      97D4
 384 0d97 22B77ACF 		.ascii	"\"\267z\317\013Fe\350!\341\207;H\000\255\343\371P7R"
 384      0B4665E8 
 384      21E1873B 
 384      4800ADE3 
 384      F9503752 
 385 0dab 092EB0EE 		.ascii	"\011.\260\356$\"Wa*FT\254\210?6;\012\326!\255@\301\210"
 385      24225761 
 385      2A4654AC 
 385      883F363B 
 385      0AD621AD 
 386 0dc2 E2E7D932 		.ascii	"\342\347\3312\324\213\027\212\263\304\250\034\011$f"
 386      D48B178A 
 386      B3C4A81C 
 386      092466
 387 0dd1 C22FE26C 		.ascii	"\302/\342l\374 \304\375\225\305\2328\341P\002$\030\306"
 387      FC20C4FD 
 387      95C59A38 
 387      E1500224 
 387      18C6
 388 0de3 08884B3C 		.ascii	"\010\210K<q\377\354@H\016E\313\013\342~0\223\",y\204"
 388      71FFEC40 
 388      480E45CB 
 388      0BE27E30 
 388      93222C79 
 389 0df8 02312E46 		.ascii	"\0021.F\201\255\345P\013\272\300\365\013\260Q\003aB"
 389      81ADE550 
 389      0BBAC0F5 
 389      0BB05103 
 389      6142
 390 0e0a 20288CC7 		.ascii	" (\214\307ba`\346\275\211\362iP\363\027)\212$\244 V"
 390      626160E6 
 390      BD89F269 
 390      50F31729 
 390      8A24A420 
 391 0e1f 22513E36 		.ascii	"\"Q>6\310\361r\\\200'\245\362\303\320e\021yz@\014\213"
 391      C8F1725C 
 391      8027A5F2 
 391      C3D06511 
ARM GAS  /tmp/cc1d6xpg.s 			page 31


 391      797A400C 
 392 0e34 81843834 		.ascii	"\201\20484X1-XqOlZX\024\343\323\012\311\267\007@\310"
 392      58312D58 
 392      714F6C5A 
 392      5814E3D3 
 392      0AC9B707 
 393 0e4a 39538BC8 		.ascii	"9S\213\310\363\303\201\231b%\371\301\217cB\004Jy\350"
 393      F3C38199 
 393      6225F9C1 
 393      8F634204 
 393      4A79E8
 394 0e5d 73115667 		.ascii	"s\021Vg\216\252  \371\365\357nI1\235K\"\234\317\223"
 394      8EAA2020 
 394      F9F5EF6E 
 394      49319D4B 
 394      229CCF93 
 395 0e71 08CB2495 		.ascii	"\010\313$\225e\222\3022\017\224VJ@\0029O\302\215F\316"
 395      6592C232 
 395      0F94564A 
 395      4002394F 
 395      C28D46CE 
 396 0e85 0A497265 		.ascii	"\012Ire \354\227C\021\030\030T\340Q\000l\362\3030C\231"
 396      20EC9743 
 396      11181854 
 396      E051006C 
 396      F2C33043 
 397 0e9a C2004391 		.ascii	"\302\000C\221{\226L\334\204\3578\036=Xh\370\001\"\022"
 397      7B964CDC 
 397      84EF381E 
 397      3D5868F8 
 397      012212
 398 0ead 4ACAC4B0 		.ascii	"J\312\304\260\034\200\207\031\225\321\240\237\324\301"
 398      1C808719 
 398      95D1A09F 
 398      D4C1
 399 0ebb 4F2E5C37 		.ascii	"O.\\7 \025\302-\034H\310\270:\024\341\356\212U\365\313"
 399      2015C22D 
 399      1C48C8B8 
 399      3A14E1EE 
 399      8A55F5CB 
 400 0ecf C4E995E5 		.ascii	"\304\351\225\345\212;\331\022O<\020\015\005\261\367"
 400      8A3BD912 
 400      4F3C100D 
 400      05B1F7
 401 0ede 84B2E9E5 		.ascii	"\204\262\351\345\005\221\000\204\012\361\366p9\342\207"
 401      05910084 
 401      0AF1F670 
 401      39E287
 402 0eed 212C345D 		.ascii	"!,4]\012\310\241X\324/_cI:\031\023\333-\311\204\261"
 402      0AC8A158 
 402      D42F5F63 
 402      493A1913 
 402      DB2DC984 
 403 0f02 AED88C19 		.ascii	"\256\330\214\031\011Q\346\345HAB\236\011\000\345Qu("
 403      0951E6E5 
 403      4841429E 
 403      0900E551 
ARM GAS  /tmp/cc1d6xpg.s 			page 32


 403      7528
 404 0f14 9930CE2F 		.ascii	"\2310\316/\027\207\312\302\242\312'\340\021\037\254"
 404      1787CAC2 
 404      A2CA27E0 
 404      111FAC
 405 0f23 C8F71305 		.ascii	"\310\367\023\005\374\376\241\332\303\330\011\267\216"
 405      FCFEA1DA 
 405      C3D809B7 
 405      8E
 406 0f30 9B90E7FF 		.ascii	"\233\220\347\377\0030\205-\033?\376\177`Z\352\026"
 406      0330852D 
 406      1B3FFE7F 
 406      605AEA16 
 407              		.text
 408              		.section	.gnu.lto_.symtab.abc06d86ef5200cd,"",%progbits
 409 0000 63684D73 		.ascii	"chMsgSend\000\000\000\000\000\000\000\000\000\000\000"
 409      6753656E 
 409      64000000 
 409      00000000 
 409      00000000 
 410 0014 00A00000 		.ascii	"\000\240\000\000\000chMsgWait\000\000\000\000\000\000"
 410      0063684D 
 410      73675761 
 410      69740000 
 410      00000000 
 411 0028 00000000 		.ascii	"\000\000\000\000\000\000P\001\000\000chMsgRelease\000"
 411      00005001 
 411      00006368 
 411      4D736752 
 411      656C6561 
 412 003f 00000000 		.ascii	"\000\000\000\000\000\000\000\000\000\000\000T\001\000"
 412      00000000 
 412      00000054 
 412      0100
 413 004d 00636853 		.ascii	"\000chSchGoSleepS\000\000\002\000\000\000\000\000\000"
 413      6368476F 
 413      536C6565 
 413      70530000 
 413      02000000 
 414 0064 0000005C 		.ascii	"\000\000\000\\\001\000\000chSchReadyI\000\000\002\000"
 414      01000063 
 414      68536368 
 414      52656164 
 414      79490000 
 415 007a 00000000 		.ascii	"\000\000\000\000\000\000\000\000`\001\000\000chSchW"
 415      00000000 
 415      60010000 
 415      63685363 
 415      6857
 416 008c 616B6575 		.ascii	"akeupS\000\000\002\000\000\000\000\000\000\000\000\000"
 416      70530000 
 416      02000000 
 416      00000000 
 416      0000
 417 009e 64010000 		.ascii	"d\001\000\000ch\000\000\002\000\000\000\000\000\000"
 417      63680000 
 417      02000000 
ARM GAS  /tmp/cc1d6xpg.s 			page 33


 417      000000
 418 00ad 00000066 		.ascii	"\000\000\000f\001\000\000"
 418      010000
 419              		.text
 420              		.section	.gnu.lto_.opts,"",%progbits
 421 0000 272D6D63 		.ascii	"'-mcpu=cortex-m4''-mno-thumb-interwork''-mthumb''-g"
 421      70753D63 
 421      6F727465 
 421      782D6D34 
 421      27272D6D 
 422 0033 67646227 		.ascii	"gdb''-O2''-fomit-frame-pointer''-falign-functions=1"
 422      272D4F32 
 422      27272D66 
 422      6F6D6974 
 422      2D667261 
 423 0066 3627272D 		.ascii	"6''-ffunction-sections''-fdata-sections''-fno-commo"
 423      6666756E 
 423      6374696F 
 423      6E2D7365 
 423      6374696F 
 424 0099 6E27272D 		.ascii	"n''-flto'\000"
 424      666C746F 
 424      2700
 425              		.text
 426              		.cfi_sections	.debug_frame
 427              		.section	.text.chMsgSend,"ax",%progbits
 428              		.align	2
 429              		.p2align 4,,15
 430              		.global	chMsgSend
 431              		.thumb
 432              		.thumb_func
 433              		.type	chMsgSend, %function
 434              	chMsgSend:
 435              	.LFB241:
 436              		.file 1 "../../../os/rt/src/chmsg.c"
 437              		.loc 1 87 0
 438              		.cfi_startproc
 439              		@ args = 0, pretend = 0, frame = 0
 440              		@ frame_needed = 0, uses_anonymous_args = 0
 441              	.LVL0:
 442 0000 70B5     		push	{r4, r5, r6, lr}
 443              	.LCFI0:
 444              		.cfi_def_cfa_offset 16
 445              		.cfi_offset 4, -16
 446              		.cfi_offset 5, -12
 447              		.cfi_offset 6, -8
 448              		.cfi_offset 14, -4
 449              		.loc 1 88 0
 450 0002 0E4A     		ldr	r2, .L5
 451 0004 9469     		ldr	r4, [r2, #24]
 452              	.LVL1:
 453              	.LBB52:
 454              	.LBB53:
 455              	.LBB54:
 456              	.LBB55:
 457              		.file 2 "../../../os/ext/CMSIS/include/core_cmFunc.h"
 458              		.loc 2 548 0
ARM GAS  /tmp/cc1d6xpg.s 			page 34


 459 0006 2022     		movs	r2, #32
 460              	@ 548 "../../../os/ext/CMSIS/include/core_cmFunc.h" 1
 461 0008 82F31188 		MSR basepri, r2
 462              	@ 0 "" 2
 463              		.thumb
 464              	.LBE55:
 465              	.LBE54:
 466              	.LBE53:
 467              	.LBE52:
 468              		.loc 1 94 0
 469 000c 00F12805 		add	r5, r0, #40
 470 0010 2562     		str	r5, [r4, #32]
 471              	.LVL2:
 472              		.loc 1 96 0
 473 0012 067F     		ldrb	r6, [r0, #28]	@ zero_extendqisi2
 474              	.LBB56:
 475              	.LBB57:
 476              		.file 3 "../../../os/rt/include/chschd.h"
 477              		.loc 3 666 0
 478 0014 C26A     		ldr	r2, [r0, #44]
 479              		.loc 3 665 0
 480 0016 2560     		str	r5, [r4, #0]
 481              	.LBE57:
 482              	.LBE56:
 483              		.loc 1 96 0
 484 0018 0E2E     		cmp	r6, #14
 485              		.loc 1 93 0
 486 001a 2163     		str	r1, [r4, #48]
 487              	.LBB59:
 488              	.LBB58:
 489              		.loc 3 666 0
 490 001c 6260     		str	r2, [r4, #4]
 491              		.loc 3 667 0
 492 001e 1460     		str	r4, [r2, #0]
 493              		.loc 3 668 0
 494 0020 C462     		str	r4, [r0, #44]
 495              	.LBE58:
 496              	.LBE59:
 497              		.loc 1 96 0
 498 0022 07D0     		beq	.L4
 499              	.LVL3:
 500              	.L2:
 501              		.loc 1 99 0
 502 0024 0C20     		movs	r0, #12
 503 0026 FFF7FEFF 		bl	chSchGoSleepS
 504              	.LVL4:
 505              		.loc 1 100 0
 506 002a 206A     		ldr	r0, [r4, #32]
 507              	.LVL5:
 508              	.LBB60:
 509              	.LBB61:
 510              	.LBB62:
 511              	.LBB63:
 512              	.LBB64:
 513              		.loc 2 548 0
 514 002c 0023     		movs	r3, #0
 515              	@ 548 "../../../os/ext/CMSIS/include/core_cmFunc.h" 1
ARM GAS  /tmp/cc1d6xpg.s 			page 35


 516 002e 83F31188 		MSR basepri, r3
 517              	@ 0 "" 2
 518              		.thumb
 519              	.LBE64:
 520              	.LBE63:
 521              	.LBE62:
 522              	.LBE61:
 523              	.LBE60:
 524              		.loc 1 104 0
 525 0032 70BD     		pop	{r4, r5, r6, pc}
 526              	.LVL6:
 527              	.L4:
 528              		.loc 1 97 0
 529 0034 FFF7FEFF 		bl	chSchReadyI
 530              	.LVL7:
 531 0038 F4E7     		b	.L2
 532              	.L6:
 533 003a 00BF     		.align	2
 534              	.L5:
 535 003c 00000000 		.word	ch
 536              		.cfi_endproc
 537              	.LFE241:
 538              		.size	chMsgSend, .-chMsgSend
 539              		.section	.text.chMsgWait,"ax",%progbits
 540              		.align	2
 541              		.p2align 4,,15
 542              		.global	chMsgWait
 543              		.thumb
 544              		.thumb_func
 545              		.type	chMsgWait, %function
 546              	chMsgWait:
 547              	.LFB242:
 548              		.loc 1 120 0
 549              		.cfi_startproc
 550              		@ args = 0, pretend = 0, frame = 0
 551              		@ frame_needed = 0, uses_anonymous_args = 0
 552              	.LVL8:
 553 0000 10B5     		push	{r4, lr}
 554              	.LCFI1:
 555              		.cfi_def_cfa_offset 8
 556              		.cfi_offset 4, -8
 557              		.cfi_offset 14, -4
 558              	.LBB65:
 559              	.LBB66:
 560              	.LBB67:
 561              	.LBB68:
 562              		.loc 2 548 0
 563 0002 2023     		movs	r3, #32
 564              	@ 548 "../../../os/ext/CMSIS/include/core_cmFunc.h" 1
 565 0004 83F31188 		MSR basepri, r3
 566              	@ 0 "" 2
 567              		.thumb
 568              	.LBE68:
 569              	.LBE67:
 570              	.LBE66:
 571              	.LBE65:
 572              		.loc 1 124 0
ARM GAS  /tmp/cc1d6xpg.s 			page 36


 573 0008 0B4C     		ldr	r4, .L10
 574 000a A269     		ldr	r2, [r4, #24]
 575              	.LVL9:
 576              	.LBB69:
 577              	.LBB70:
 578              		.file 4 "../../../os/rt/include/chmsg.h"
 579              		.loc 4 83 0
 580 000c 1346     		mov	r3, r2
 581 000e 53F8280F 		ldr	r0, [r3, #40]!
 582              	.LBE70:
 583              	.LBE69:
 584              		.loc 1 124 0
 585 0012 9842     		cmp	r0, r3
 586 0014 08D0     		beq	.L9
 587              	.LVL10:
 588              	.L8:
 589              	.LBB71:
 590              	.LBB72:
 591              		.loc 3 674 0
 592 0016 0168     		ldr	r1, [r0, #0]
 593 0018 9162     		str	r1, [r2, #40]
 594              		.loc 3 675 0
 595 001a 4B60     		str	r3, [r1, #4]
 596              	.LBE72:
 597              	.LBE71:
 598              		.loc 1 128 0
 599 001c 0D23     		movs	r3, #13
 600 001e 0377     		strb	r3, [r0, #28]
 601              	.LVL11:
 602              	.LBB73:
 603              	.LBB74:
 604              	.LBB75:
 605              	.LBB76:
 606              	.LBB77:
 607              		.loc 2 548 0
 608 0020 0023     		movs	r3, #0
 609              	@ 548 "../../../os/ext/CMSIS/include/core_cmFunc.h" 1
 610 0022 83F31188 		MSR basepri, r3
 611              	@ 0 "" 2
 612              		.thumb
 613              	.LBE77:
 614              	.LBE76:
 615              	.LBE75:
 616              	.LBE74:
 617              	.LBE73:
 618              		.loc 1 132 0
 619 0026 10BD     		pop	{r4, pc}
 620              	.LVL12:
 621              	.L9:
 622              		.loc 1 125 0
 623 0028 0E20     		movs	r0, #14
 624 002a FFF7FEFF 		bl	chSchGoSleepS
 625              	.LVL13:
 626 002e A269     		ldr	r2, [r4, #24]
 627 0030 1346     		mov	r3, r2
 628 0032 53F8280F 		ldr	r0, [r3, #40]!
 629 0036 EEE7     		b	.L8
ARM GAS  /tmp/cc1d6xpg.s 			page 37


 630              	.L11:
 631              		.align	2
 632              	.L10:
 633 0038 00000000 		.word	ch
 634              		.cfi_endproc
 635              	.LFE242:
 636              		.size	chMsgWait, .-chMsgWait
 637 003c AFF30080 		.section	.text.chMsgRelease,"ax",%progbits
 638              		.align	2
 639              		.p2align 4,,15
 640              		.global	chMsgRelease
 641              		.thumb
 642              		.thumb_func
 643              		.type	chMsgRelease, %function
 644              	chMsgRelease:
 645              	.LFB243:
 646              		.loc 1 144 0
 647              		.cfi_startproc
 648              		@ args = 0, pretend = 0, frame = 0
 649              		@ frame_needed = 0, uses_anonymous_args = 0
 650              	.LVL14:
 651 0000 08B5     		push	{r3, lr}
 652              	.LCFI2:
 653              		.cfi_def_cfa_offset 8
 654              		.cfi_offset 3, -8
 655              		.cfi_offset 14, -4
 656              	.LBB78:
 657              	.LBB79:
 658              	.LBB80:
 659              	.LBB81:
 660              		.loc 2 548 0
 661 0002 2023     		movs	r3, #32
 662              	@ 548 "../../../os/ext/CMSIS/include/core_cmFunc.h" 1
 663 0004 83F31188 		MSR basepri, r3
 664              	@ 0 "" 2
 665              		.thumb
 666              	.LBE81:
 667              	.LBE80:
 668              	.LBE79:
 669              	.LBE78:
 670              	.LBB82:
 671              	.LBB83:
 672              		.loc 4 115 0
 673 0008 FFF7FEFF 		bl	chSchWakeupS
 674              	.LVL15:
 675              	.LBE83:
 676              	.LBE82:
 677              	.LBB84:
 678              	.LBB85:
 679              	.LBB86:
 680              	.LBB87:
 681              	.LBB88:
 682              		.loc 2 548 0
 683 000c 0023     		movs	r3, #0
 684              	@ 548 "../../../os/ext/CMSIS/include/core_cmFunc.h" 1
 685 000e 83F31188 		MSR basepri, r3
 686              	@ 0 "" 2
ARM GAS  /tmp/cc1d6xpg.s 			page 38


 687              		.thumb
 688 0012 08BD     		pop	{r3, pc}
 689              	.LBE88:
 690              	.LBE87:
 691              	.LBE86:
 692              	.LBE85:
 693              	.LBE84:
 694              		.cfi_endproc
 695              	.LFE243:
 696              		.size	chMsgRelease, .-chMsgRelease
 697 0014 AFF30080 		.text
 697      AFF30080 
 697      AFF30080 
 698              	.Letext0:
 699              		.file 5 "/usr/local/bin/../lib/gcc/arm-none-eabi/4.7.2/../../../../arm-none-eabi/include/stdint.h"
 700              		.file 6 "../../../os/rt/ports/ARMCMx/compilers/GCC/chtypes.h"
 701              		.file 7 "../../../os/rt/include/chsystypes.h"
 702              		.file 8 "../../../os/rt/ports/ARMCMx/chcore.h"
 703              		.file 9 "../../../os/rt/ports/ARMCMx/chcore_v7m.h"
 704              		.file 10 "../../../os/rt/include/chtm.h"
 705              		.file 11 "../../../os/rt/include/chsem.h"
 706              		.file 12 "../../../os/rt/include/chmtx.h"
 707              		.file 13 "../../../os/rt/include/chsys.h"
 708              		.file 14 "../../../os/ext/CMSIS/include/core_cm4.h"
 709              		.section	.debug_info,"",%progbits
 710              	.Ldebug_info0:
 711 0000 1C0B0000 		.4byte	0xb1c
 712 0004 0200     		.2byte	0x2
 713 0006 00000000 		.4byte	.Ldebug_abbrev0
 714 000a 04       		.byte	0x4
 715 000b 01       		.uleb128 0x1
 716 000c 5E010000 		.4byte	.LASF114
 717 0010 01       		.byte	0x1
 718 0011 57000000 		.4byte	.LASF115
 719 0015 9C040000 		.4byte	.LASF116
 720 0019 18000000 		.4byte	.Ldebug_ranges0+0x18
 721 001d 00000000 		.4byte	0
 722 0021 00000000 		.4byte	0
 723 0025 00000000 		.4byte	.Ldebug_line0
 724 0029 02       		.uleb128 0x2
 725 002a 04       		.byte	0x4
 726 002b 05       		.byte	0x5
 727 002c 696E7400 		.ascii	"int\000"
 728 0030 03       		.uleb128 0x3
 729 0031 04       		.byte	0x4
 730 0032 07       		.byte	0x7
 731 0033 97000000 		.4byte	.LASF0
 732 0037 03       		.uleb128 0x3
 733 0038 01       		.byte	0x1
 734 0039 06       		.byte	0x6
 735 003a 0E050000 		.4byte	.LASF1
 736 003e 04       		.uleb128 0x4
 737 003f 6B020000 		.4byte	.LASF5
 738 0043 05       		.byte	0x5
 739 0044 2A       		.byte	0x2a
 740 0045 49000000 		.4byte	0x49
 741 0049 03       		.uleb128 0x3
ARM GAS  /tmp/cc1d6xpg.s 			page 39


 742 004a 01       		.byte	0x1
 743 004b 08       		.byte	0x8
 744 004c 3E040000 		.4byte	.LASF2
 745 0050 03       		.uleb128 0x3
 746 0051 02       		.byte	0x2
 747 0052 05       		.byte	0x5
 748 0053 58030000 		.4byte	.LASF3
 749 0057 03       		.uleb128 0x3
 750 0058 02       		.byte	0x2
 751 0059 07       		.byte	0x7
 752 005a 1A050000 		.4byte	.LASF4
 753 005e 04       		.uleb128 0x4
 754 005f 27040000 		.4byte	.LASF6
 755 0063 05       		.byte	0x5
 756 0064 4F       		.byte	0x4f
 757 0065 69000000 		.4byte	0x69
 758 0069 03       		.uleb128 0x3
 759 006a 04       		.byte	0x4
 760 006b 05       		.byte	0x5
 761 006c 7F030000 		.4byte	.LASF7
 762 0070 04       		.uleb128 0x4
 763 0071 42010000 		.4byte	.LASF8
 764 0075 05       		.byte	0x5
 765 0076 50       		.byte	0x50
 766 0077 7B000000 		.4byte	0x7b
 767 007b 03       		.uleb128 0x3
 768 007c 04       		.byte	0x4
 769 007d 07       		.byte	0x7
 770 007e 08040000 		.4byte	.LASF9
 771 0082 03       		.uleb128 0x3
 772 0083 08       		.byte	0x8
 773 0084 05       		.byte	0x5
 774 0085 9E020000 		.4byte	.LASF10
 775 0089 04       		.uleb128 0x4
 776 008a CD030000 		.4byte	.LASF11
 777 008e 05       		.byte	0x5
 778 008f 78       		.byte	0x78
 779 0090 94000000 		.4byte	0x94
 780 0094 03       		.uleb128 0x3
 781 0095 08       		.byte	0x8
 782 0096 07       		.byte	0x7
 783 0097 97010000 		.4byte	.LASF12
 784 009b 04       		.uleb128 0x4
 785 009c 37030000 		.4byte	.LASF13
 786 00a0 06       		.byte	0x6
 787 00a1 39       		.byte	0x39
 788 00a2 70000000 		.4byte	0x70
 789 00a6 04       		.uleb128 0x4
 790 00a7 24030000 		.4byte	.LASF14
 791 00ab 06       		.byte	0x6
 792 00ac 3C       		.byte	0x3c
 793 00ad 3E000000 		.4byte	0x3e
 794 00b1 04       		.uleb128 0x4
 795 00b2 52020000 		.4byte	.LASF15
 796 00b6 06       		.byte	0x6
 797 00b7 3D       		.byte	0x3d
 798 00b8 3E000000 		.4byte	0x3e
ARM GAS  /tmp/cc1d6xpg.s 			page 40


 799 00bc 04       		.uleb128 0x4
 800 00bd 00040000 		.4byte	.LASF16
 801 00c1 06       		.byte	0x6
 802 00c2 3E       		.byte	0x3e
 803 00c3 3E000000 		.4byte	0x3e
 804 00c7 04       		.uleb128 0x4
 805 00c8 7E010000 		.4byte	.LASF17
 806 00cc 06       		.byte	0x6
 807 00cd 40       		.byte	0x40
 808 00ce 70000000 		.4byte	0x70
 809 00d2 04       		.uleb128 0x4
 810 00d3 BC020000 		.4byte	.LASF18
 811 00d7 06       		.byte	0x6
 812 00d8 41       		.byte	0x41
 813 00d9 5E000000 		.4byte	0x5e
 814 00dd 04       		.uleb128 0x4
 815 00de 4B010000 		.4byte	.LASF19
 816 00e2 06       		.byte	0x6
 817 00e3 43       		.byte	0x43
 818 00e4 70000000 		.4byte	0x70
 819 00e8 04       		.uleb128 0x4
 820 00e9 AE010000 		.4byte	.LASF20
 821 00ed 06       		.byte	0x6
 822 00ee 45       		.byte	0x45
 823 00ef 5E000000 		.4byte	0x5e
 824 00f3 04       		.uleb128 0x4
 825 00f4 72000000 		.4byte	.LASF21
 826 00f8 07       		.byte	0x7
 827 00f9 33       		.byte	0x33
 828 00fa 70000000 		.4byte	0x70
 829 00fe 04       		.uleb128 0x4
 830 00ff F3010000 		.4byte	.LASF22
 831 0103 07       		.byte	0x7
 832 0104 3F       		.byte	0x3f
 833 0105 09010000 		.4byte	0x109
 834 0109 05       		.uleb128 0x5
 835 010a 85020000 		.4byte	.LASF42
 836 010e 44       		.byte	0x44
 837 010f 03       		.byte	0x3
 838 0110 C2       		.byte	0xc2
 839 0111 1A020000 		.4byte	0x21a
 840 0115 06       		.uleb128 0x6
 841 0116 C6030000 		.4byte	.LASF23
 842 011a 03       		.byte	0x3
 843 011b C3       		.byte	0xc3
 844 011c 25020000 		.4byte	0x225
 845 0120 02       		.byte	0x2
 846 0121 23       		.byte	0x23
 847 0122 00       		.uleb128 0
 848 0123 06       		.uleb128 0x6
 849 0124 F0030000 		.4byte	.LASF24
 850 0128 03       		.byte	0x3
 851 0129 C5       		.byte	0xc5
 852 012a 25020000 		.4byte	0x225
 853 012e 02       		.byte	0x2
 854 012f 23       		.byte	0x23
 855 0130 04       		.uleb128 0x4
ARM GAS  /tmp/cc1d6xpg.s 			page 41


 856 0131 06       		.uleb128 0x6
 857 0132 50000000 		.4byte	.LASF25
 858 0136 03       		.byte	0x3
 859 0137 C7       		.byte	0xc7
 860 0138 C7000000 		.4byte	0xc7
 861 013c 02       		.byte	0x2
 862 013d 23       		.byte	0x23
 863 013e 08       		.uleb128 0x8
 864 013f 06       		.uleb128 0x6
 865 0140 D6030000 		.4byte	.LASF26
 866 0144 03       		.byte	0x3
 867 0145 C8       		.byte	0xc8
 868 0146 88040000 		.4byte	0x488
 869 014a 02       		.byte	0x2
 870 014b 23       		.byte	0x23
 871 014c 0C       		.uleb128 0xc
 872 014d 06       		.uleb128 0x6
 873 014e CE010000 		.4byte	.LASF27
 874 0152 03       		.byte	0x3
 875 0153 CA       		.byte	0xca
 876 0154 25020000 		.4byte	0x225
 877 0158 02       		.byte	0x2
 878 0159 23       		.byte	0x23
 879 015a 10       		.uleb128 0x10
 880 015b 06       		.uleb128 0x6
 881 015c 5B020000 		.4byte	.LASF28
 882 0160 03       		.byte	0x3
 883 0161 CB       		.byte	0xcb
 884 0162 25020000 		.4byte	0x225
 885 0166 02       		.byte	0x2
 886 0167 23       		.byte	0x23
 887 0168 14       		.uleb128 0x14
 888 0169 06       		.uleb128 0x6
 889 016a 23020000 		.4byte	.LASF29
 890 016e 03       		.byte	0x3
 891 016f D2       		.byte	0xd2
 892 0170 27060000 		.4byte	0x627
 893 0174 02       		.byte	0x2
 894 0175 23       		.byte	0x23
 895 0176 18       		.uleb128 0x18
 896 0177 06       		.uleb128 0x6
 897 0178 63020000 		.4byte	.LASF30
 898 017c 03       		.byte	0x3
 899 017d DD       		.byte	0xdd
 900 017e B1000000 		.4byte	0xb1
 901 0182 02       		.byte	0x2
 902 0183 23       		.byte	0x23
 903 0184 1C       		.uleb128 0x1c
 904 0185 06       		.uleb128 0x6
 905 0186 D4020000 		.4byte	.LASF31
 906 018a 03       		.byte	0x3
 907 018b E1       		.byte	0xe1
 908 018c A6000000 		.4byte	0xa6
 909 0190 02       		.byte	0x2
 910 0191 23       		.byte	0x23
 911 0192 1D       		.uleb128 0x1d
 912 0193 06       		.uleb128 0x6
ARM GAS  /tmp/cc1d6xpg.s 			page 42


 913 0194 62040000 		.4byte	.LASF32
 914 0198 03       		.byte	0x3
 915 0199 E6       		.byte	0xe6
 916 019a BC000000 		.4byte	0xbc
 917 019e 02       		.byte	0x2
 918 019f 23       		.byte	0x23
 919 01a0 1E       		.uleb128 0x1e
 920 01a1 07       		.uleb128 0x7
 921 01a2 705F7500 		.ascii	"p_u\000"
 922 01a6 03       		.byte	0x3
 923 01a7 3101     		.2byte	0x131
 924 01a9 58050000 		.4byte	0x558
 925 01ad 02       		.byte	0x2
 926 01ae 23       		.byte	0x23
 927 01af 20       		.uleb128 0x20
 928 01b0 08       		.uleb128 0x8
 929 01b1 20000000 		.4byte	.LASF33
 930 01b5 03       		.byte	0x3
 931 01b6 3601     		.2byte	0x136
 932 01b8 2B020000 		.4byte	0x22b
 933 01bc 02       		.byte	0x2
 934 01bd 23       		.byte	0x23
 935 01be 24       		.uleb128 0x24
 936 01bf 08       		.uleb128 0x8
 937 01c0 8C000000 		.4byte	.LASF34
 938 01c4 03       		.byte	0x3
 939 01c5 3C01     		.2byte	0x13c
 940 01c7 51020000 		.4byte	0x251
 941 01cb 02       		.byte	0x2
 942 01cc 23       		.byte	0x23
 943 01cd 28       		.uleb128 0x28
 944 01ce 08       		.uleb128 0x8
 945 01cf 1E030000 		.4byte	.LASF35
 946 01d3 03       		.byte	0x3
 947 01d4 4001     		.2byte	0x140
 948 01d6 D2000000 		.4byte	0xd2
 949 01da 02       		.byte	0x2
 950 01db 23       		.byte	0x23
 951 01dc 30       		.uleb128 0x30
 952 01dd 08       		.uleb128 0x8
 953 01de 6C030000 		.4byte	.LASF36
 954 01e2 03       		.byte	0x3
 955 01e3 4601     		.2byte	0x146
 956 01e5 DD000000 		.4byte	0xdd
 957 01e9 02       		.byte	0x2
 958 01ea 23       		.byte	0x23
 959 01eb 34       		.uleb128 0x34
 960 01ec 08       		.uleb128 0x8
 961 01ed 7B020000 		.4byte	.LASF37
 962 01f1 03       		.byte	0x3
 963 01f2 4D01     		.2byte	0x14d
 964 01f4 21060000 		.4byte	0x621
 965 01f8 02       		.byte	0x2
 966 01f9 23       		.byte	0x23
 967 01fa 38       		.uleb128 0x38
 968 01fb 08       		.uleb128 0x8
 969 01fc 4D030000 		.4byte	.LASF38
ARM GAS  /tmp/cc1d6xpg.s 			page 43


 970 0200 03       		.byte	0x3
 971 0201 5101     		.2byte	0x151
 972 0203 C7000000 		.4byte	0xc7
 973 0207 02       		.byte	0x2
 974 0208 23       		.byte	0x23
 975 0209 3C       		.uleb128 0x3c
 976 020a 08       		.uleb128 0x8
 977 020b 73020000 		.4byte	.LASF39
 978 020f 03       		.byte	0x3
 979 0210 5801     		.2byte	0x158
 980 0212 15030000 		.4byte	0x315
 981 0216 02       		.byte	0x2
 982 0217 23       		.byte	0x23
 983 0218 40       		.uleb128 0x40
 984 0219 00       		.byte	0
 985 021a 04       		.uleb128 0x4
 986 021b 33020000 		.4byte	.LASF40
 987 021f 07       		.byte	0x7
 988 0220 44       		.byte	0x44
 989 0221 25020000 		.4byte	0x225
 990 0225 09       		.uleb128 0x9
 991 0226 04       		.byte	0x4
 992 0227 FE000000 		.4byte	0xfe
 993 022b 04       		.uleb128 0x4
 994 022c A4000000 		.4byte	.LASF41
 995 0230 07       		.byte	0x7
 996 0231 49       		.byte	0x49
 997 0232 36020000 		.4byte	0x236
 998 0236 05       		.uleb128 0x5
 999 0237 00000000 		.4byte	.LASF43
 1000 023b 04       		.byte	0x4
 1001 023c 03       		.byte	0x3
 1002 023d B0       		.byte	0xb0
 1003 023e 51020000 		.4byte	0x251
 1004 0242 06       		.uleb128 0x6
 1005 0243 C6030000 		.4byte	.LASF23
 1006 0247 03       		.byte	0x3
 1007 0248 B1       		.byte	0xb1
 1008 0249 25020000 		.4byte	0x225
 1009 024d 02       		.byte	0x2
 1010 024e 23       		.byte	0x23
 1011 024f 00       		.uleb128 0
 1012 0250 00       		.byte	0
 1013 0251 04       		.uleb128 0x4
 1014 0252 10000000 		.4byte	.LASF44
 1015 0256 07       		.byte	0x7
 1016 0257 50       		.byte	0x50
 1017 0258 5C020000 		.4byte	0x25c
 1018 025c 05       		.uleb128 0x5
 1019 025d F9000000 		.4byte	.LASF45
 1020 0261 08       		.byte	0x8
 1021 0262 03       		.byte	0x3
 1022 0263 B7       		.byte	0xb7
 1023 0264 85020000 		.4byte	0x285
 1024 0268 06       		.uleb128 0x6
 1025 0269 C6030000 		.4byte	.LASF23
 1026 026d 03       		.byte	0x3
ARM GAS  /tmp/cc1d6xpg.s 			page 44


 1027 026e B8       		.byte	0xb8
 1028 026f 25020000 		.4byte	0x225
 1029 0273 02       		.byte	0x2
 1030 0274 23       		.byte	0x23
 1031 0275 00       		.uleb128 0
 1032 0276 06       		.uleb128 0x6
 1033 0277 F0030000 		.4byte	.LASF24
 1034 027b 03       		.byte	0x3
 1035 027c B9       		.byte	0xb9
 1036 027d 25020000 		.4byte	0x225
 1037 0281 02       		.byte	0x2
 1038 0282 23       		.byte	0x23
 1039 0283 04       		.uleb128 0x4
 1040 0284 00       		.byte	0
 1041 0285 04       		.uleb128 0x4
 1042 0286 1A040000 		.4byte	.LASF46
 1043 028a 07       		.byte	0x7
 1044 028b 57       		.byte	0x57
 1045 028c 90020000 		.4byte	0x290
 1046 0290 0A       		.uleb128 0xa
 1047 0291 D5000000 		.4byte	.LASF47
 1048 0295 1C       		.byte	0x1c
 1049 0296 03       		.byte	0x3
 1050 0297 9001     		.2byte	0x190
 1051 0299 F8020000 		.4byte	0x2f8
 1052 029d 08       		.uleb128 0x8
 1053 029e AC020000 		.4byte	.LASF48
 1054 02a2 03       		.byte	0x3
 1055 02a3 9101     		.2byte	0x191
 1056 02a5 51020000 		.4byte	0x251
 1057 02a9 02       		.byte	0x2
 1058 02aa 23       		.byte	0x23
 1059 02ab 00       		.uleb128 0
 1060 02ac 08       		.uleb128 0x8
 1061 02ad 57010000 		.4byte	.LASF49
 1062 02b1 03       		.byte	0x3
 1063 02b2 9201     		.2byte	0x192
 1064 02b4 C7000000 		.4byte	0xc7
 1065 02b8 02       		.byte	0x2
 1066 02b9 23       		.byte	0x23
 1067 02ba 08       		.uleb128 0x8
 1068 02bb 08       		.uleb128 0x8
 1069 02bc 2D050000 		.4byte	.LASF50
 1070 02c0 03       		.byte	0x3
 1071 02c1 9401     		.2byte	0x194
 1072 02c3 88040000 		.4byte	0x488
 1073 02c7 02       		.byte	0x2
 1074 02c8 23       		.byte	0x23
 1075 02c9 0C       		.uleb128 0xc
 1076 02ca 08       		.uleb128 0x8
 1077 02cb B4020000 		.4byte	.LASF51
 1078 02cf 03       		.byte	0x3
 1079 02d0 9701     		.2byte	0x197
 1080 02d2 25020000 		.4byte	0x225
 1081 02d6 02       		.byte	0x2
 1082 02d7 23       		.byte	0x23
 1083 02d8 10       		.uleb128 0x10
ARM GAS  /tmp/cc1d6xpg.s 			page 45


 1084 02d9 08       		.uleb128 0x8
 1085 02da FE020000 		.4byte	.LASF52
 1086 02de 03       		.byte	0x3
 1087 02df 9801     		.2byte	0x198
 1088 02e1 25020000 		.4byte	0x225
 1089 02e5 02       		.byte	0x2
 1090 02e6 23       		.byte	0x23
 1091 02e7 14       		.uleb128 0x14
 1092 02e8 08       		.uleb128 0x8
 1093 02e9 62030000 		.4byte	.LASF53
 1094 02ed 03       		.byte	0x3
 1095 02ee 9B01     		.2byte	0x19b
 1096 02f0 25020000 		.4byte	0x225
 1097 02f4 02       		.byte	0x2
 1098 02f5 23       		.byte	0x23
 1099 02f6 18       		.uleb128 0x18
 1100 02f7 00       		.byte	0
 1101 02f8 04       		.uleb128 0x4
 1102 02f9 0A010000 		.4byte	.LASF54
 1103 02fd 07       		.byte	0x7
 1104 02fe 5C       		.byte	0x5c
 1105 02ff 03030000 		.4byte	0x303
 1106 0303 09       		.uleb128 0x9
 1107 0304 04       		.byte	0x4
 1108 0305 09030000 		.4byte	0x309
 1109 0309 0B       		.uleb128 0xb
 1110 030a 01       		.byte	0x1
 1111 030b 15030000 		.4byte	0x315
 1112 030f 0C       		.uleb128 0xc
 1113 0310 15030000 		.4byte	0x315
 1114 0314 00       		.byte	0
 1115 0315 0D       		.uleb128 0xd
 1116 0316 04       		.byte	0x4
 1117 0317 04       		.uleb128 0x4
 1118 0318 DC020000 		.4byte	.LASF55
 1119 031c 07       		.byte	0x7
 1120 031d 61       		.byte	0x61
 1121 031e 22030000 		.4byte	0x322
 1122 0322 0A       		.uleb128 0xa
 1123 0323 86010000 		.4byte	.LASF56
 1124 0327 14       		.byte	0x14
 1125 0328 03       		.byte	0x3
 1126 0329 6B01     		.2byte	0x16b
 1127 032b 7B030000 		.4byte	0x37b
 1128 032f 08       		.uleb128 0x8
 1129 0330 94040000 		.4byte	.LASF57
 1130 0334 03       		.byte	0x3
 1131 0335 6C01     		.2byte	0x16c
 1132 0337 39060000 		.4byte	0x639
 1133 033b 02       		.byte	0x2
 1134 033c 23       		.byte	0x23
 1135 033d 00       		.uleb128 0
 1136 033e 08       		.uleb128 0x8
 1137 033f 52050000 		.4byte	.LASF58
 1138 0343 03       		.byte	0x3
 1139 0344 6D01     		.2byte	0x16d
 1140 0346 39060000 		.4byte	0x639
ARM GAS  /tmp/cc1d6xpg.s 			page 46


 1141 034a 02       		.byte	0x2
 1142 034b 23       		.byte	0x23
 1143 034c 04       		.uleb128 0x4
 1144 034d 08       		.uleb128 0x8
 1145 034e 2A020000 		.4byte	.LASF59
 1146 0352 03       		.byte	0x3
 1147 0353 6E01     		.2byte	0x16e
 1148 0355 F3000000 		.4byte	0xf3
 1149 0359 02       		.byte	0x2
 1150 035a 23       		.byte	0x23
 1151 035b 08       		.uleb128 0x8
 1152 035c 08       		.uleb128 0x8
 1153 035d 3E050000 		.4byte	.LASF60
 1154 0361 03       		.byte	0x3
 1155 0362 6F01     		.2byte	0x16f
 1156 0364 F8020000 		.4byte	0x2f8
 1157 0368 02       		.byte	0x2
 1158 0369 23       		.byte	0x23
 1159 036a 0C       		.uleb128 0xc
 1160 036b 08       		.uleb128 0x8
 1161 036c 6A010000 		.4byte	.LASF61
 1162 0370 03       		.byte	0x3
 1163 0371 7101     		.2byte	0x171
 1164 0373 15030000 		.4byte	0x315
 1165 0377 02       		.byte	0x2
 1166 0378 23       		.byte	0x23
 1167 0379 10       		.uleb128 0x10
 1168 037a 00       		.byte	0
 1169 037b 04       		.uleb128 0x4
 1170 037c 4C040000 		.4byte	.LASF62
 1171 0380 07       		.byte	0x7
 1172 0381 66       		.byte	0x66
 1173 0382 86030000 		.4byte	0x386
 1174 0386 0A       		.uleb128 0xa
 1175 0387 DC010000 		.4byte	.LASF63
 1176 038b 10       		.byte	0x10
 1177 038c 03       		.byte	0x3
 1178 038d 7B01     		.2byte	0x17b
 1179 038f D0030000 		.4byte	0x3d0
 1180 0393 08       		.uleb128 0x8
 1181 0394 94040000 		.4byte	.LASF57
 1182 0398 03       		.byte	0x3
 1183 0399 7C01     		.2byte	0x17c
 1184 039b 39060000 		.4byte	0x639
 1185 039f 02       		.byte	0x2
 1186 03a0 23       		.byte	0x23
 1187 03a1 00       		.uleb128 0
 1188 03a2 08       		.uleb128 0x8
 1189 03a3 52050000 		.4byte	.LASF58
 1190 03a7 03       		.byte	0x3
 1191 03a8 7E01     		.2byte	0x17e
 1192 03aa 39060000 		.4byte	0x639
 1193 03ae 02       		.byte	0x2
 1194 03af 23       		.byte	0x23
 1195 03b0 04       		.uleb128 0x4
 1196 03b1 08       		.uleb128 0x8
 1197 03b2 2A020000 		.4byte	.LASF59
ARM GAS  /tmp/cc1d6xpg.s 			page 47


 1198 03b6 03       		.byte	0x3
 1199 03b7 8001     		.2byte	0x180
 1200 03b9 F3000000 		.4byte	0xf3
 1201 03bd 02       		.byte	0x2
 1202 03be 23       		.byte	0x23
 1203 03bf 08       		.uleb128 0x8
 1204 03c0 08       		.uleb128 0x8
 1205 03c1 46020000 		.4byte	.LASF64
 1206 03c5 03       		.byte	0x3
 1207 03c6 8801     		.2byte	0x188
 1208 03c8 F3000000 		.4byte	0xf3
 1209 03cc 02       		.byte	0x2
 1210 03cd 23       		.byte	0x23
 1211 03ce 0C       		.uleb128 0xc
 1212 03cf 00       		.byte	0
 1213 03d0 04       		.uleb128 0x4
 1214 03d1 8F020000 		.4byte	.LASF65
 1215 03d5 07       		.byte	0x7
 1216 03d6 6B       		.byte	0x6b
 1217 03d7 DB030000 		.4byte	0x3db
 1218 03db 0A       		.uleb128 0xa
 1219 03dc 32010000 		.4byte	.LASF66
 1220 03e0 04       		.byte	0x4
 1221 03e1 03       		.byte	0x3
 1222 03e2 A201     		.2byte	0x1a2
 1223 03e4 F8030000 		.4byte	0x3f8
 1224 03e8 08       		.uleb128 0x8
 1225 03e9 06030000 		.4byte	.LASF67
 1226 03ed 03       		.byte	0x3
 1227 03ee AA01     		.2byte	0x1aa
 1228 03f0 3F060000 		.4byte	0x63f
 1229 03f4 02       		.byte	0x2
 1230 03f5 23       		.byte	0x23
 1231 03f6 00       		.uleb128 0
 1232 03f7 00       		.byte	0
 1233 03f8 04       		.uleb128 0x4
 1234 03f9 F5040000 		.4byte	.LASF68
 1235 03fd 07       		.byte	0x7
 1236 03fe 70       		.byte	0x70
 1237 03ff 03040000 		.4byte	0x403
 1238 0403 0E       		.uleb128 0xe
 1239 0404 A1030000 		.4byte	.LASF69
 1240 0408 5001     		.2byte	0x150
 1241 040a 03       		.byte	0x3
 1242 040b C201     		.2byte	0x1c2
 1243 040d 6B040000 		.4byte	0x46b
 1244 0411 08       		.uleb128 0x8
 1245 0412 DC030000 		.4byte	.LASF70
 1246 0416 03       		.byte	0x3
 1247 0417 C601     		.2byte	0x1c6
 1248 0419 85020000 		.4byte	0x285
 1249 041d 02       		.byte	0x2
 1250 041e 23       		.byte	0x23
 1251 041f 00       		.uleb128 0
 1252 0420 08       		.uleb128 0x8
 1253 0421 CE000000 		.4byte	.LASF71
 1254 0425 03       		.byte	0x3
ARM GAS  /tmp/cc1d6xpg.s 			page 48


 1255 0426 CA01     		.2byte	0x1ca
 1256 0428 7B030000 		.4byte	0x37b
 1257 042c 02       		.byte	0x2
 1258 042d 23       		.byte	0x23
 1259 042e 1C       		.uleb128 0x1c
 1260 042f 07       		.uleb128 0x7
 1261 0430 64626700 		.ascii	"dbg\000"
 1262 0434 03       		.byte	0x3
 1263 0435 CE01     		.2byte	0x1ce
 1264 0437 D0030000 		.4byte	0x3d0
 1265 043b 02       		.byte	0x2
 1266 043c 23       		.byte	0x23
 1267 043d 2C       		.uleb128 0x2c
 1268 043e 08       		.uleb128 0x8
 1269 043f 2C030000 		.4byte	.LASF72
 1270 0443 03       		.byte	0x3
 1271 0444 D201     		.2byte	0x1d2
 1272 0446 FE000000 		.4byte	0xfe
 1273 044a 02       		.byte	0x2
 1274 044b 23       		.byte	0x23
 1275 044c 30       		.uleb128 0x30
 1276 044d 07       		.uleb128 0x7
 1277 044e 746D00   		.ascii	"tm\000"
 1278 0451 03       		.byte	0x3
 1279 0452 D701     		.2byte	0x1d7
 1280 0454 4D050000 		.4byte	0x54d
 1281 0458 02       		.byte	0x2
 1282 0459 23       		.byte	0x23
 1283 045a 74       		.uleb128 0x74
 1284 045b 08       		.uleb128 0x8
 1285 045c E3000000 		.4byte	.LASF73
 1286 0460 03       		.byte	0x3
 1287 0461 E301     		.2byte	0x1e3
 1288 0463 44060000 		.4byte	0x644
 1289 0467 02       		.byte	0x2
 1290 0468 23       		.byte	0x23
 1291 0469 78       		.uleb128 0x78
 1292 046a 00       		.byte	0
 1293 046b 03       		.uleb128 0x3
 1294 046c 04       		.byte	0x4
 1295 046d 07       		.byte	0x7
 1296 046e F7030000 		.4byte	.LASF74
 1297 0472 04       		.uleb128 0x4
 1298 0473 47000000 		.4byte	.LASF75
 1299 0477 08       		.byte	0x8
 1300 0478 65       		.byte	0x65
 1301 0479 15030000 		.4byte	0x315
 1302 047d 04       		.uleb128 0x4
 1303 047e 33050000 		.4byte	.LASF76
 1304 0482 08       		.byte	0x8
 1305 0483 6D       		.byte	0x6d
 1306 0484 89000000 		.4byte	0x89
 1307 0488 05       		.uleb128 0x5
 1308 0489 CC020000 		.4byte	.LASF77
 1309 048d 04       		.byte	0x4
 1310 048e 08       		.byte	0x8
 1311 048f 89       		.byte	0x89
ARM GAS  /tmp/cc1d6xpg.s 			page 49


 1312 0490 A3040000 		.4byte	0x4a3
 1313 0494 0F       		.uleb128 0xf
 1314 0495 72313300 		.ascii	"r13\000"
 1315 0499 08       		.byte	0x8
 1316 049a 8A       		.byte	0x8a
 1317 049b 30050000 		.4byte	0x530
 1318 049f 02       		.byte	0x2
 1319 04a0 23       		.byte	0x23
 1320 04a1 00       		.uleb128 0
 1321 04a2 00       		.byte	0
 1322 04a3 05       		.uleb128 0x5
 1323 04a4 88030000 		.4byte	.LASF78
 1324 04a8 24       		.byte	0x24
 1325 04a9 09       		.byte	0x9
 1326 04aa FD       		.byte	0xfd
 1327 04ab 30050000 		.4byte	0x530
 1328 04af 07       		.uleb128 0x7
 1329 04b0 723400   		.ascii	"r4\000"
 1330 04b3 09       		.byte	0x9
 1331 04b4 1001     		.2byte	0x110
 1332 04b6 72040000 		.4byte	0x472
 1333 04ba 02       		.byte	0x2
 1334 04bb 23       		.byte	0x23
 1335 04bc 00       		.uleb128 0
 1336 04bd 07       		.uleb128 0x7
 1337 04be 723500   		.ascii	"r5\000"
 1338 04c1 09       		.byte	0x9
 1339 04c2 1101     		.2byte	0x111
 1340 04c4 72040000 		.4byte	0x472
 1341 04c8 02       		.byte	0x2
 1342 04c9 23       		.byte	0x23
 1343 04ca 04       		.uleb128 0x4
 1344 04cb 07       		.uleb128 0x7
 1345 04cc 723600   		.ascii	"r6\000"
 1346 04cf 09       		.byte	0x9
 1347 04d0 1201     		.2byte	0x112
 1348 04d2 72040000 		.4byte	0x472
 1349 04d6 02       		.byte	0x2
 1350 04d7 23       		.byte	0x23
 1351 04d8 08       		.uleb128 0x8
 1352 04d9 07       		.uleb128 0x7
 1353 04da 723700   		.ascii	"r7\000"
 1354 04dd 09       		.byte	0x9
 1355 04de 1301     		.2byte	0x113
 1356 04e0 72040000 		.4byte	0x472
 1357 04e4 02       		.byte	0x2
 1358 04e5 23       		.byte	0x23
 1359 04e6 0C       		.uleb128 0xc
 1360 04e7 07       		.uleb128 0x7
 1361 04e8 723800   		.ascii	"r8\000"
 1362 04eb 09       		.byte	0x9
 1363 04ec 1401     		.2byte	0x114
 1364 04ee 72040000 		.4byte	0x472
 1365 04f2 02       		.byte	0x2
 1366 04f3 23       		.byte	0x23
 1367 04f4 10       		.uleb128 0x10
 1368 04f5 07       		.uleb128 0x7
ARM GAS  /tmp/cc1d6xpg.s 			page 50


 1369 04f6 723900   		.ascii	"r9\000"
 1370 04f9 09       		.byte	0x9
 1371 04fa 1501     		.2byte	0x115
 1372 04fc 72040000 		.4byte	0x472
 1373 0500 02       		.byte	0x2
 1374 0501 23       		.byte	0x23
 1375 0502 14       		.uleb128 0x14
 1376 0503 07       		.uleb128 0x7
 1377 0504 72313000 		.ascii	"r10\000"
 1378 0508 09       		.byte	0x9
 1379 0509 1601     		.2byte	0x116
 1380 050b 72040000 		.4byte	0x472
 1381 050f 02       		.byte	0x2
 1382 0510 23       		.byte	0x23
 1383 0511 18       		.uleb128 0x18
 1384 0512 07       		.uleb128 0x7
 1385 0513 72313100 		.ascii	"r11\000"
 1386 0517 09       		.byte	0x9
 1387 0518 1701     		.2byte	0x117
 1388 051a 72040000 		.4byte	0x472
 1389 051e 02       		.byte	0x2
 1390 051f 23       		.byte	0x23
 1391 0520 1C       		.uleb128 0x1c
 1392 0521 07       		.uleb128 0x7
 1393 0522 6C7200   		.ascii	"lr\000"
 1394 0525 09       		.byte	0x9
 1395 0526 1801     		.2byte	0x118
 1396 0528 72040000 		.4byte	0x472
 1397 052c 02       		.byte	0x2
 1398 052d 23       		.byte	0x23
 1399 052e 20       		.uleb128 0x20
 1400 052f 00       		.byte	0
 1401 0530 09       		.uleb128 0x9
 1402 0531 04       		.byte	0x4
 1403 0532 A3040000 		.4byte	0x4a3
 1404 0536 10       		.uleb128 0x10
 1405 0537 04       		.byte	0x4
 1406 0538 0A       		.byte	0xa
 1407 0539 38       		.byte	0x38
 1408 053a 4D050000 		.4byte	0x54d
 1409 053e 06       		.uleb128 0x6
 1410 053f 03020000 		.4byte	.LASF79
 1411 0543 0A       		.byte	0xa
 1412 0544 3C       		.byte	0x3c
 1413 0545 9B000000 		.4byte	0x9b
 1414 0549 02       		.byte	0x2
 1415 054a 23       		.byte	0x23
 1416 054b 00       		.uleb128 0
 1417 054c 00       		.byte	0
 1418 054d 04       		.uleb128 0x4
 1419 054e 31000000 		.4byte	.LASF80
 1420 0552 0A       		.byte	0xa
 1421 0553 3D       		.byte	0x3d
 1422 0554 36050000 		.4byte	0x536
 1423 0558 11       		.uleb128 0x11
 1424 0559 04       		.byte	0x4
 1425 055a 03       		.byte	0x3
ARM GAS  /tmp/cc1d6xpg.s 			page 51


 1426 055b FA       		.byte	0xfa
 1427 055c B5050000 		.4byte	0x5b5
 1428 0560 12       		.uleb128 0x12
 1429 0561 FC010000 		.4byte	.LASF81
 1430 0565 03       		.byte	0x3
 1431 0566 0101     		.2byte	0x101
 1432 0568 D2000000 		.4byte	0xd2
 1433 056c 12       		.uleb128 0x12
 1434 056d 5A050000 		.4byte	.LASF82
 1435 0571 03       		.byte	0x3
 1436 0572 0801     		.2byte	0x108
 1437 0574 D2000000 		.4byte	0xd2
 1438 0578 12       		.uleb128 0x12
 1439 0579 BD000000 		.4byte	.LASF83
 1440 057d 03       		.byte	0x3
 1441 057e 0F01     		.2byte	0x10f
 1442 0580 15030000 		.4byte	0x315
 1443 0584 12       		.uleb128 0x12
 1444 0585 01050000 		.4byte	.LASF84
 1445 0589 03       		.byte	0x3
 1446 058a 1601     		.2byte	0x116
 1447 058c B5050000 		.4byte	0x5b5
 1448 0590 12       		.uleb128 0x12
 1449 0591 2F040000 		.4byte	.LASF85
 1450 0595 03       		.byte	0x3
 1451 0596 1E01     		.2byte	0x11e
 1452 0598 E4050000 		.4byte	0x5e4
 1453 059c 12       		.uleb128 0x12
 1454 059d 2A000000 		.4byte	.LASF86
 1455 05a1 03       		.byte	0x3
 1456 05a2 2701     		.2byte	0x127
 1457 05a4 21060000 		.4byte	0x621
 1458 05a8 12       		.uleb128 0x12
 1459 05a9 F2000000 		.4byte	.LASF87
 1460 05ad 03       		.byte	0x3
 1461 05ae 2F01     		.2byte	0x12f
 1462 05b0 DD000000 		.4byte	0xdd
 1463 05b4 00       		.byte	0
 1464 05b5 09       		.uleb128 0x9
 1465 05b6 04       		.byte	0x4
 1466 05b7 1A020000 		.4byte	0x21a
 1467 05bb 05       		.uleb128 0x5
 1468 05bc 71010000 		.4byte	.LASF88
 1469 05c0 0C       		.byte	0xc
 1470 05c1 0B       		.byte	0xb
 1471 05c2 34       		.byte	0x34
 1472 05c3 E4050000 		.4byte	0x5e4
 1473 05c7 06       		.uleb128 0x6
 1474 05c8 84000000 		.4byte	.LASF89
 1475 05cc 0B       		.byte	0xb
 1476 05cd 35       		.byte	0x35
 1477 05ce 51020000 		.4byte	0x251
 1478 05d2 02       		.byte	0x2
 1479 05d3 23       		.byte	0x23
 1480 05d4 00       		.uleb128 0
 1481 05d5 06       		.uleb128 0x6
 1482 05d6 2C010000 		.4byte	.LASF90
ARM GAS  /tmp/cc1d6xpg.s 			page 52


 1483 05da 0B       		.byte	0xb
 1484 05db 37       		.byte	0x37
 1485 05dc E8000000 		.4byte	0xe8
 1486 05e0 02       		.byte	0x2
 1487 05e1 23       		.byte	0x23
 1488 05e2 08       		.uleb128 0x8
 1489 05e3 00       		.byte	0
 1490 05e4 09       		.uleb128 0x9
 1491 05e5 04       		.byte	0x4
 1492 05e6 BB050000 		.4byte	0x5bb
 1493 05ea 05       		.uleb128 0x5
 1494 05eb 10020000 		.4byte	.LASF91
 1495 05ef 10       		.byte	0x10
 1496 05f0 0C       		.byte	0xc
 1497 05f1 39       		.byte	0x39
 1498 05f2 21060000 		.4byte	0x621
 1499 05f6 06       		.uleb128 0x6
 1500 05f7 77030000 		.4byte	.LASF92
 1501 05fb 0C       		.byte	0xc
 1502 05fc 3A       		.byte	0x3a
 1503 05fd 51020000 		.4byte	0x251
 1504 0601 02       		.byte	0x2
 1505 0602 23       		.byte	0x23
 1506 0603 00       		.uleb128 0
 1507 0604 06       		.uleb128 0x6
 1508 0605 7C000000 		.4byte	.LASF93
 1509 0609 0C       		.byte	0xc
 1510 060a 3C       		.byte	0x3c
 1511 060b 25020000 		.4byte	0x225
 1512 060f 02       		.byte	0x2
 1513 0610 23       		.byte	0x23
 1514 0611 08       		.uleb128 0x8
 1515 0612 06       		.uleb128 0x6
 1516 0613 07050000 		.4byte	.LASF94
 1517 0617 0C       		.byte	0xc
 1518 0618 3E       		.byte	0x3e
 1519 0619 5F060000 		.4byte	0x65f
 1520 061d 02       		.byte	0x2
 1521 061e 23       		.byte	0x23
 1522 061f 0C       		.uleb128 0xc
 1523 0620 00       		.byte	0
 1524 0621 09       		.uleb128 0x9
 1525 0622 04       		.byte	0x4
 1526 0623 EA050000 		.4byte	0x5ea
 1527 0627 09       		.uleb128 0x9
 1528 0628 04       		.byte	0x4
 1529 0629 2D060000 		.4byte	0x62d
 1530 062d 13       		.uleb128 0x13
 1531 062e 32060000 		.4byte	0x632
 1532 0632 03       		.uleb128 0x3
 1533 0633 01       		.byte	0x1
 1534 0634 08       		.byte	0x8
 1535 0635 42000000 		.4byte	.LASF95
 1536 0639 09       		.uleb128 0x9
 1537 063a 04       		.byte	0x4
 1538 063b 17030000 		.4byte	0x317
 1539 063f 14       		.uleb128 0x14
ARM GAS  /tmp/cc1d6xpg.s 			page 53


 1540 0640 27060000 		.4byte	0x627
 1541 0644 15       		.uleb128 0x15
 1542 0645 7D040000 		.4byte	0x47d
 1543 0649 54060000 		.4byte	0x654
 1544 064d 16       		.uleb128 0x16
 1545 064e 6B040000 		.4byte	0x46b
 1546 0652 1A       		.byte	0x1a
 1547 0653 00       		.byte	0
 1548 0654 04       		.uleb128 0x4
 1549 0655 36040000 		.4byte	.LASF96
 1550 0659 0C       		.byte	0xc
 1551 065a 34       		.byte	0x34
 1552 065b EA050000 		.4byte	0x5ea
 1553 065f 09       		.uleb128 0x9
 1554 0660 04       		.byte	0x4
 1555 0661 54060000 		.4byte	0x654
 1556 0665 17       		.uleb128 0x17
 1557 0666 B8030000 		.4byte	.LASF100
 1558 066a 02       		.byte	0x2
 1559 066b 2202     		.2byte	0x222
 1560 066d 01       		.byte	0x1
 1561 066e 03       		.byte	0x3
 1562 066f 80060000 		.4byte	0x680
 1563 0673 18       		.uleb128 0x18
 1564 0674 D6010000 		.4byte	.LASF102
 1565 0678 02       		.byte	0x2
 1566 0679 2202     		.2byte	0x222
 1567 067b 70000000 		.4byte	0x70
 1568 067f 00       		.byte	0
 1569 0680 19       		.uleb128 0x19
 1570 0681 C4000000 		.4byte	.LASF97
 1571 0685 09       		.byte	0x9
 1572 0686 C801     		.2byte	0x1c8
 1573 0688 01       		.byte	0x1
 1574 0689 03       		.byte	0x3
 1575 068a 19       		.uleb128 0x19
 1576 068b 46050000 		.4byte	.LASF98
 1577 068f 09       		.byte	0x9
 1578 0690 E001     		.2byte	0x1e0
 1579 0692 01       		.byte	0x1
 1580 0693 03       		.byte	0x3
 1581 0694 19       		.uleb128 0x19
 1582 0695 19020000 		.4byte	.LASF99
 1583 0699 0D       		.byte	0xd
 1584 069a 5A01     		.2byte	0x15a
 1585 069c 01       		.byte	0x1
 1586 069d 03       		.byte	0x3
 1587 069e 17       		.uleb128 0x17
 1588 069f AB030000 		.4byte	.LASF101
 1589 06a3 03       		.byte	0x3
 1590 06a4 9702     		.2byte	0x297
 1591 06a6 01       		.byte	0x1
 1592 06a7 03       		.byte	0x3
 1593 06a8 C4060000 		.4byte	0x6c4
 1594 06ac 1A       		.uleb128 0x1a
 1595 06ad 747000   		.ascii	"tp\000"
 1596 06b0 03       		.byte	0x3
ARM GAS  /tmp/cc1d6xpg.s 			page 54


 1597 06b1 9702     		.2byte	0x297
 1598 06b3 25020000 		.4byte	0x225
 1599 06b7 1A       		.uleb128 0x1a
 1600 06b8 74717000 		.ascii	"tqp\000"
 1601 06bc 03       		.byte	0x3
 1602 06bd 9702     		.2byte	0x297
 1603 06bf C4060000 		.4byte	0x6c4
 1604 06c3 00       		.byte	0
 1605 06c4 09       		.uleb128 0x9
 1606 06c5 04       		.byte	0x4
 1607 06c6 51020000 		.4byte	0x251
 1608 06ca 17       		.uleb128 0x17
 1609 06cb C2010000 		.4byte	.LASF103
 1610 06cf 0D       		.byte	0xd
 1611 06d0 6601     		.2byte	0x166
 1612 06d2 01       		.byte	0x1
 1613 06d3 03       		.byte	0x3
 1614 06d4 E7060000 		.4byte	0x6e7
 1615 06d8 1B       		.uleb128 0x1b
 1616 06d9 B4010000 		.4byte	.LASF107
 1617 06dd F7060000 		.4byte	0x6f7
 1618 06e1 01       		.byte	0x1
 1619 06e2 C2010000 		.4byte	.LASF103
 1620 06e6 00       		.byte	0
 1621 06e7 15       		.uleb128 0x15
 1622 06e8 32060000 		.4byte	0x632
 1623 06ec F7060000 		.4byte	0x6f7
 1624 06f0 16       		.uleb128 0x16
 1625 06f1 6B040000 		.4byte	0x46b
 1626 06f5 0B       		.byte	0xb
 1627 06f6 00       		.byte	0
 1628 06f7 13       		.uleb128 0x13
 1629 06f8 E7060000 		.4byte	0x6e7
 1630 06fc 1C       		.uleb128 0x1c
 1631 06fd 77040000 		.4byte	.LASF105
 1632 0701 04       		.byte	0x4
 1633 0702 4F       		.byte	0x4f
 1634 0703 01       		.byte	0x1
 1635 0704 18070000 		.4byte	0x718
 1636 0708 03       		.byte	0x3
 1637 0709 18070000 		.4byte	0x718
 1638 070d 1D       		.uleb128 0x1d
 1639 070e 747000   		.ascii	"tp\000"
 1640 0711 04       		.byte	0x4
 1641 0712 4F       		.byte	0x4f
 1642 0713 25020000 		.4byte	0x225
 1643 0717 00       		.byte	0
 1644 0718 03       		.uleb128 0x3
 1645 0719 01       		.byte	0x1
 1646 071a 02       		.byte	0x2
 1647 071b 0A020000 		.4byte	.LASF104
 1648 071f 1E       		.uleb128 0x1e
 1649 0720 EC020000 		.4byte	.LASF106
 1650 0724 03       		.byte	0x3
 1651 0725 9F02     		.2byte	0x29f
 1652 0727 01       		.byte	0x1
 1653 0728 25020000 		.4byte	0x225
ARM GAS  /tmp/cc1d6xpg.s 			page 55


 1654 072c 03       		.byte	0x3
 1655 072d 49070000 		.4byte	0x749
 1656 0731 1A       		.uleb128 0x1a
 1657 0732 74717000 		.ascii	"tqp\000"
 1658 0736 03       		.byte	0x3
 1659 0737 9F02     		.2byte	0x29f
 1660 0739 C4060000 		.4byte	0x6c4
 1661 073d 1F       		.uleb128 0x1f
 1662 073e 747000   		.ascii	"tp\000"
 1663 0741 03       		.byte	0x3
 1664 0742 A002     		.2byte	0x2a0
 1665 0744 25020000 		.4byte	0x225
 1666 0748 00       		.byte	0
 1667 0749 20       		.uleb128 0x20
 1668 074a 69040000 		.4byte	.LASF108
 1669 074e 04       		.byte	0x4
 1670 074f 6F       		.byte	0x6f
 1671 0750 01       		.byte	0x1
 1672 0751 03       		.byte	0x3
 1673 0752 6C070000 		.4byte	0x76c
 1674 0756 1D       		.uleb128 0x1d
 1675 0757 747000   		.ascii	"tp\000"
 1676 075a 04       		.byte	0x4
 1677 075b 6F       		.byte	0x6f
 1678 075c 25020000 		.4byte	0x225
 1679 0760 1D       		.uleb128 0x1d
 1680 0761 6D736700 		.ascii	"msg\000"
 1681 0765 04       		.byte	0x4
 1682 0766 6F       		.byte	0x6f
 1683 0767 D2000000 		.4byte	0xd2
 1684 076b 00       		.byte	0
 1685 076c 21       		.uleb128 0x21
 1686 076d 01       		.byte	0x1
 1687 076e B3000000 		.4byte	.LASF109
 1688 0772 01       		.byte	0x1
 1689 0773 57       		.byte	0x57
 1690 0774 01       		.byte	0x1
 1691 0775 D2000000 		.4byte	0xd2
 1692 0779 00000000 		.4byte	.LFB241
 1693 077d 40000000 		.4byte	.LFE241
 1694 0781 00000000 		.4byte	.LLST0
 1695 0785 01       		.byte	0x1
 1696 0786 87080000 		.4byte	0x887
 1697 078a 22       		.uleb128 0x22
 1698 078b 747000   		.ascii	"tp\000"
 1699 078e 01       		.byte	0x1
 1700 078f 57       		.byte	0x57
 1701 0790 25020000 		.4byte	0x225
 1702 0794 20000000 		.4byte	.LLST1
 1703 0798 22       		.uleb128 0x22
 1704 0799 6D736700 		.ascii	"msg\000"
 1705 079d 01       		.byte	0x1
 1706 079e 57       		.byte	0x57
 1707 079f D2000000 		.4byte	0xd2
 1708 07a3 58000000 		.4byte	.LLST2
 1709 07a7 23       		.uleb128 0x23
 1710 07a8 63747000 		.ascii	"ctp\000"
ARM GAS  /tmp/cc1d6xpg.s 			page 56


 1711 07ac 01       		.byte	0x1
 1712 07ad 58       		.byte	0x58
 1713 07ae 25020000 		.4byte	0x225
 1714 07b2 01       		.byte	0x1
 1715 07b3 54       		.byte	0x54
 1716 07b4 24       		.uleb128 0x24
 1717 07b5 10030000 		.4byte	.LASF111
 1718 07b9 97080000 		.4byte	0x897
 1719 07bd 01       		.byte	0x1
 1720 07be 25       		.uleb128 0x25
 1721 07bf 94060000 		.4byte	0x694
 1722 07c3 06000000 		.4byte	.LBB52
 1723 07c7 0C000000 		.4byte	.LBE52
 1724 07cb 01       		.byte	0x1
 1725 07cc 5C       		.byte	0x5c
 1726 07cd FA070000 		.4byte	0x7fa
 1727 07d1 26       		.uleb128 0x26
 1728 07d2 80060000 		.4byte	0x680
 1729 07d6 06000000 		.4byte	.LBB53
 1730 07da 0C000000 		.4byte	.LBE53
 1731 07de 0D       		.byte	0xd
 1732 07df 5C01     		.2byte	0x15c
 1733 07e1 26       		.uleb128 0x26
 1734 07e2 65060000 		.4byte	0x665
 1735 07e6 06000000 		.4byte	.LBB54
 1736 07ea 0C000000 		.4byte	.LBE54
 1737 07ee 09       		.byte	0x9
 1738 07ef D001     		.2byte	0x1d0
 1739 07f1 27       		.uleb128 0x27
 1740 07f2 73060000 		.4byte	0x673
 1741 07f6 20       		.byte	0x20
 1742 07f7 00       		.byte	0
 1743 07f8 00       		.byte	0
 1744 07f9 00       		.byte	0
 1745 07fa 28       		.uleb128 0x28
 1746 07fb 9E060000 		.4byte	0x69e
 1747 07ff 14000000 		.4byte	.LBB56
 1748 0803 00000000 		.4byte	.Ldebug_ranges0+0
 1749 0807 01       		.byte	0x1
 1750 0808 5F       		.byte	0x5f
 1751 0809 1C080000 		.4byte	0x81c
 1752 080d 29       		.uleb128 0x29
 1753 080e B7060000 		.4byte	0x6b7
 1754 0812 01       		.byte	0x1
 1755 0813 55       		.byte	0x55
 1756 0814 29       		.uleb128 0x29
 1757 0815 AC060000 		.4byte	0x6ac
 1758 0819 01       		.byte	0x1
 1759 081a 54       		.byte	0x54
 1760 081b 00       		.byte	0
 1761 081c 25       		.uleb128 0x25
 1762 081d CA060000 		.4byte	0x6ca
 1763 0821 2C000000 		.4byte	.LBB60
 1764 0825 32000000 		.4byte	.LBE60
 1765 0829 01       		.byte	0x1
 1766 082a 65       		.byte	0x65
 1767 082b 6A080000 		.4byte	0x86a
ARM GAS  /tmp/cc1d6xpg.s 			page 57


 1768 082f 2A       		.uleb128 0x2a
 1769 0830 2C000000 		.4byte	.LBB61
 1770 0834 32000000 		.4byte	.LBE61
 1771 0838 2B       		.uleb128 0x2b
 1772 0839 D8060000 		.4byte	0x6d8
 1773 083d 26       		.uleb128 0x26
 1774 083e 8A060000 		.4byte	0x68a
 1775 0842 2C000000 		.4byte	.LBB62
 1776 0846 32000000 		.4byte	.LBE62
 1777 084a 0D       		.byte	0xd
 1778 084b 7301     		.2byte	0x173
 1779 084d 26       		.uleb128 0x26
 1780 084e 65060000 		.4byte	0x665
 1781 0852 2C000000 		.4byte	.LBB63
 1782 0856 32000000 		.4byte	.LBE63
 1783 085a 09       		.byte	0x9
 1784 085b E301     		.2byte	0x1e3
 1785 085d 2C       		.uleb128 0x2c
 1786 085e 73060000 		.4byte	0x673
 1787 0862 9D000000 		.4byte	.LLST3
 1788 0866 00       		.byte	0
 1789 0867 00       		.byte	0
 1790 0868 00       		.byte	0
 1791 0869 00       		.byte	0
 1792 086a 2D       		.uleb128 0x2d
 1793 086b 2A000000 		.4byte	.LVL4
 1794 086f DB0A0000 		.4byte	0xadb
 1795 0873 7D080000 		.4byte	0x87d
 1796 0877 2E       		.uleb128 0x2e
 1797 0878 01       		.byte	0x1
 1798 0879 50       		.byte	0x50
 1799 087a 01       		.byte	0x1
 1800 087b 3C       		.byte	0x3c
 1801 087c 00       		.byte	0
 1802 087d 2F       		.uleb128 0x2f
 1803 087e 38000000 		.4byte	.LVL7
 1804 0882 F00A0000 		.4byte	0xaf0
 1805 0886 00       		.byte	0
 1806 0887 15       		.uleb128 0x15
 1807 0888 32060000 		.4byte	0x632
 1808 088c 97080000 		.4byte	0x897
 1809 0890 16       		.uleb128 0x16
 1810 0891 6B040000 		.4byte	0x46b
 1811 0895 09       		.byte	0x9
 1812 0896 00       		.byte	0
 1813 0897 13       		.uleb128 0x13
 1814 0898 87080000 		.4byte	0x887
 1815 089c 21       		.uleb128 0x21
 1816 089d 01       		.byte	0x1
 1817 089e C2020000 		.4byte	.LASF110
 1818 08a2 01       		.byte	0x1
 1819 08a3 78       		.byte	0x78
 1820 08a4 01       		.byte	0x1
 1821 08a5 25020000 		.4byte	0x225
 1822 08a9 00000000 		.4byte	.LFB242
 1823 08ad 3C000000 		.4byte	.LFE242
 1824 08b1 B1000000 		.4byte	.LLST4
ARM GAS  /tmp/cc1d6xpg.s 			page 58


 1825 08b5 01       		.byte	0x1
 1826 08b6 AB090000 		.4byte	0x9ab
 1827 08ba 30       		.uleb128 0x30
 1828 08bb 747000   		.ascii	"tp\000"
 1829 08be 01       		.byte	0x1
 1830 08bf 79       		.byte	0x79
 1831 08c0 25020000 		.4byte	0x225
 1832 08c4 25       		.uleb128 0x25
 1833 08c5 94060000 		.4byte	0x694
 1834 08c9 02000000 		.4byte	.LBB65
 1835 08cd 08000000 		.4byte	.LBE65
 1836 08d1 01       		.byte	0x1
 1837 08d2 7B       		.byte	0x7b
 1838 08d3 00090000 		.4byte	0x900
 1839 08d7 26       		.uleb128 0x26
 1840 08d8 80060000 		.4byte	0x680
 1841 08dc 02000000 		.4byte	.LBB66
 1842 08e0 08000000 		.4byte	.LBE66
 1843 08e4 0D       		.byte	0xd
 1844 08e5 5C01     		.2byte	0x15c
 1845 08e7 26       		.uleb128 0x26
 1846 08e8 65060000 		.4byte	0x665
 1847 08ec 02000000 		.4byte	.LBB67
 1848 08f0 08000000 		.4byte	.LBE67
 1849 08f4 09       		.byte	0x9
 1850 08f5 D001     		.2byte	0x1d0
 1851 08f7 27       		.uleb128 0x27
 1852 08f8 73060000 		.4byte	0x673
 1853 08fc 20       		.byte	0x20
 1854 08fd 00       		.byte	0
 1855 08fe 00       		.byte	0
 1856 08ff 00       		.byte	0
 1857 0900 25       		.uleb128 0x25
 1858 0901 FC060000 		.4byte	0x6fc
 1859 0905 0C000000 		.4byte	.LBB69
 1860 0909 12000000 		.4byte	.LBE69
 1861 090d 01       		.byte	0x1
 1862 090e 7C       		.byte	0x7c
 1863 090f 1D090000 		.4byte	0x91d
 1864 0913 2C       		.uleb128 0x2c
 1865 0914 0D070000 		.4byte	0x70d
 1866 0918 D1000000 		.4byte	.LLST5
 1867 091c 00       		.byte	0
 1868 091d 25       		.uleb128 0x25
 1869 091e 1F070000 		.4byte	0x71f
 1870 0922 16000000 		.4byte	.LBB71
 1871 0926 1C000000 		.4byte	.LBE71
 1872 092a 01       		.byte	0x1
 1873 092b 7F       		.byte	0x7f
 1874 092c 4D090000 		.4byte	0x94d
 1875 0930 2C       		.uleb128 0x2c
 1876 0931 31070000 		.4byte	0x731
 1877 0935 EF000000 		.4byte	.LLST6
 1878 0939 2A       		.uleb128 0x2a
 1879 093a 16000000 		.4byte	.LBB72
 1880 093e 1C000000 		.4byte	.LBE72
 1881 0942 31       		.uleb128 0x31
ARM GAS  /tmp/cc1d6xpg.s 			page 59


 1882 0943 3D070000 		.4byte	0x73d
 1883 0947 04010000 		.4byte	.LLST7
 1884 094b 00       		.byte	0
 1885 094c 00       		.byte	0
 1886 094d 25       		.uleb128 0x25
 1887 094e CA060000 		.4byte	0x6ca
 1888 0952 20000000 		.4byte	.LBB73
 1889 0956 26000000 		.4byte	.LBE73
 1890 095a 01       		.byte	0x1
 1891 095b 81       		.byte	0x81
 1892 095c 9B090000 		.4byte	0x99b
 1893 0960 2A       		.uleb128 0x2a
 1894 0961 20000000 		.4byte	.LBB74
 1895 0965 26000000 		.4byte	.LBE74
 1896 0969 2B       		.uleb128 0x2b
 1897 096a D8060000 		.4byte	0x6d8
 1898 096e 26       		.uleb128 0x26
 1899 096f 8A060000 		.4byte	0x68a
 1900 0973 20000000 		.4byte	.LBB75
 1901 0977 26000000 		.4byte	.LBE75
 1902 097b 0D       		.byte	0xd
 1903 097c 7301     		.2byte	0x173
 1904 097e 26       		.uleb128 0x26
 1905 097f 65060000 		.4byte	0x665
 1906 0983 20000000 		.4byte	.LBB76
 1907 0987 26000000 		.4byte	.LBE76
 1908 098b 09       		.byte	0x9
 1909 098c E301     		.2byte	0x1e3
 1910 098e 2C       		.uleb128 0x2c
 1911 098f 73060000 		.4byte	0x673
 1912 0993 17010000 		.4byte	.LLST8
 1913 0997 00       		.byte	0
 1914 0998 00       		.byte	0
 1915 0999 00       		.byte	0
 1916 099a 00       		.byte	0
 1917 099b 32       		.uleb128 0x32
 1918 099c 2E000000 		.4byte	.LVL13
 1919 09a0 DB0A0000 		.4byte	0xadb
 1920 09a4 2E       		.uleb128 0x2e
 1921 09a5 01       		.byte	0x1
 1922 09a6 50       		.byte	0x50
 1923 09a7 01       		.byte	0x1
 1924 09a8 3E       		.byte	0x3e
 1925 09a9 00       		.byte	0
 1926 09aa 00       		.byte	0
 1927 09ab 33       		.uleb128 0x33
 1928 09ac 01       		.byte	0x1
 1929 09ad 13010000 		.4byte	.LASF117
 1930 09b1 01       		.byte	0x1
 1931 09b2 90       		.byte	0x90
 1932 09b3 01       		.byte	0x1
 1933 09b4 00000000 		.4byte	.LFB243
 1934 09b8 14000000 		.4byte	.LFE243
 1935 09bc 2B010000 		.4byte	.LLST9
 1936 09c0 01       		.byte	0x1
 1937 09c1 A60A0000 		.4byte	0xaa6
 1938 09c5 22       		.uleb128 0x22
ARM GAS  /tmp/cc1d6xpg.s 			page 60


 1939 09c6 747000   		.ascii	"tp\000"
 1940 09c9 01       		.byte	0x1
 1941 09ca 90       		.byte	0x90
 1942 09cb 25020000 		.4byte	0x225
 1943 09cf 4B010000 		.4byte	.LLST10
 1944 09d3 22       		.uleb128 0x22
 1945 09d4 6D736700 		.ascii	"msg\000"
 1946 09d8 01       		.byte	0x1
 1947 09d9 90       		.byte	0x90
 1948 09da D2000000 		.4byte	0xd2
 1949 09de 6C010000 		.4byte	.LLST11
 1950 09e2 24       		.uleb128 0x24
 1951 09e3 3F030000 		.4byte	.LASF112
 1952 09e7 B60A0000 		.4byte	0xab6
 1953 09eb 01       		.byte	0x1
 1954 09ec 25       		.uleb128 0x25
 1955 09ed 94060000 		.4byte	0x694
 1956 09f1 02000000 		.4byte	.LBB78
 1957 09f5 08000000 		.4byte	.LBE78
 1958 09f9 01       		.byte	0x1
 1959 09fa 92       		.byte	0x92
 1960 09fb 280A0000 		.4byte	0xa28
 1961 09ff 26       		.uleb128 0x26
 1962 0a00 80060000 		.4byte	0x680
 1963 0a04 02000000 		.4byte	.LBB79
 1964 0a08 08000000 		.4byte	.LBE79
 1965 0a0c 0D       		.byte	0xd
 1966 0a0d 5C01     		.2byte	0x15c
 1967 0a0f 26       		.uleb128 0x26
 1968 0a10 65060000 		.4byte	0x665
 1969 0a14 02000000 		.4byte	.LBB80
 1970 0a18 08000000 		.4byte	.LBE80
 1971 0a1c 09       		.byte	0x9
 1972 0a1d D001     		.2byte	0x1d0
 1973 0a1f 27       		.uleb128 0x27
 1974 0a20 73060000 		.4byte	0x673
 1975 0a24 20       		.byte	0x20
 1976 0a25 00       		.byte	0
 1977 0a26 00       		.byte	0
 1978 0a27 00       		.byte	0
 1979 0a28 25       		.uleb128 0x25
 1980 0a29 49070000 		.4byte	0x749
 1981 0a2d 08000000 		.4byte	.LBB82
 1982 0a31 0C000000 		.4byte	.LBE82
 1983 0a35 01       		.byte	0x1
 1984 0a36 94       		.byte	0x94
 1985 0a37 5E0A0000 		.4byte	0xa5e
 1986 0a3b 34       		.uleb128 0x34
 1987 0a3c 60070000 		.4byte	0x760
 1988 0a40 34       		.uleb128 0x34
 1989 0a41 56070000 		.4byte	0x756
 1990 0a45 32       		.uleb128 0x32
 1991 0a46 0C000000 		.4byte	.LVL15
 1992 0a4a 090B0000 		.4byte	0xb09
 1993 0a4e 2E       		.uleb128 0x2e
 1994 0a4f 01       		.byte	0x1
 1995 0a50 51       		.byte	0x51
ARM GAS  /tmp/cc1d6xpg.s 			page 61


 1996 0a51 03       		.byte	0x3
 1997 0a52 F3       		.byte	0xf3
 1998 0a53 01       		.uleb128 0x1
 1999 0a54 51       		.byte	0x51
 2000 0a55 2E       		.uleb128 0x2e
 2001 0a56 01       		.byte	0x1
 2002 0a57 50       		.byte	0x50
 2003 0a58 03       		.byte	0x3
 2004 0a59 F3       		.byte	0xf3
 2005 0a5a 01       		.uleb128 0x1
 2006 0a5b 50       		.byte	0x50
 2007 0a5c 00       		.byte	0
 2008 0a5d 00       		.byte	0
 2009 0a5e 35       		.uleb128 0x35
 2010 0a5f CA060000 		.4byte	0x6ca
 2011 0a63 0C000000 		.4byte	.LBB84
 2012 0a67 14000000 		.4byte	.LBE84
 2013 0a6b 01       		.byte	0x1
 2014 0a6c 95       		.byte	0x95
 2015 0a6d 2A       		.uleb128 0x2a
 2016 0a6e 0C000000 		.4byte	.LBB85
 2017 0a72 14000000 		.4byte	.LBE85
 2018 0a76 2B       		.uleb128 0x2b
 2019 0a77 D8060000 		.4byte	0x6d8
 2020 0a7b 26       		.uleb128 0x26
 2021 0a7c 8A060000 		.4byte	0x68a
 2022 0a80 0C000000 		.4byte	.LBB86
 2023 0a84 14000000 		.4byte	.LBE86
 2024 0a88 0D       		.byte	0xd
 2025 0a89 7301     		.2byte	0x173
 2026 0a8b 26       		.uleb128 0x26
 2027 0a8c 65060000 		.4byte	0x665
 2028 0a90 0C000000 		.4byte	.LBB87
 2029 0a94 14000000 		.4byte	.LBE87
 2030 0a98 09       		.byte	0x9
 2031 0a99 E301     		.2byte	0x1e3
 2032 0a9b 27       		.uleb128 0x27
 2033 0a9c 73060000 		.4byte	0x673
 2034 0aa0 00       		.byte	0
 2035 0aa1 00       		.byte	0
 2036 0aa2 00       		.byte	0
 2037 0aa3 00       		.byte	0
 2038 0aa4 00       		.byte	0
 2039 0aa5 00       		.byte	0
 2040 0aa6 15       		.uleb128 0x15
 2041 0aa7 32060000 		.4byte	0x632
 2042 0aab B60A0000 		.4byte	0xab6
 2043 0aaf 16       		.uleb128 0x16
 2044 0ab0 6B040000 		.4byte	0x46b
 2045 0ab4 0C       		.byte	0xc
 2046 0ab5 00       		.byte	0
 2047 0ab6 13       		.uleb128 0x13
 2048 0ab7 A60A0000 		.4byte	0xaa6
 2049 0abb 36       		.uleb128 0x36
 2050 0abc 94030000 		.4byte	.LASF113
 2051 0ac0 0E       		.byte	0xe
 2052 0ac1 FA06     		.2byte	0x6fa
ARM GAS  /tmp/cc1d6xpg.s 			page 62


 2053 0ac3 C90A0000 		.4byte	0xac9
 2054 0ac7 01       		.byte	0x1
 2055 0ac8 01       		.byte	0x1
 2056 0ac9 14       		.uleb128 0x14
 2057 0aca 5E000000 		.4byte	0x5e
 2058 0ace 37       		.uleb128 0x37
 2059 0acf 636800   		.ascii	"ch\000"
 2060 0ad2 03       		.byte	0x3
 2061 0ad3 0902     		.2byte	0x209
 2062 0ad5 F8030000 		.4byte	0x3f8
 2063 0ad9 01       		.byte	0x1
 2064 0ada 01       		.byte	0x1
 2065 0adb 38       		.uleb128 0x38
 2066 0adc 01       		.byte	0x1
 2067 0add E2030000 		.4byte	.LASF118
 2068 0ae1 03       		.byte	0x3
 2069 0ae2 1402     		.2byte	0x214
 2070 0ae4 01       		.byte	0x1
 2071 0ae5 01       		.byte	0x1
 2072 0ae6 F00A0000 		.4byte	0xaf0
 2073 0aea 0C       		.uleb128 0xc
 2074 0aeb B1000000 		.4byte	0xb1
 2075 0aef 00       		.byte	0
 2076 0af0 39       		.uleb128 0x39
 2077 0af1 01       		.byte	0x1
 2078 0af2 20010000 		.4byte	.LASF119
 2079 0af6 03       		.byte	0x3
 2080 0af7 1302     		.2byte	0x213
 2081 0af9 01       		.byte	0x1
 2082 0afa 25020000 		.4byte	0x225
 2083 0afe 01       		.byte	0x1
 2084 0aff 090B0000 		.4byte	0xb09
 2085 0b03 0C       		.uleb128 0xc
 2086 0b04 25020000 		.4byte	0x225
 2087 0b08 00       		.byte	0
 2088 0b09 3A       		.uleb128 0x3a
 2089 0b0a 01       		.byte	0x1
 2090 0b0b 87040000 		.4byte	.LASF120
 2091 0b0f 03       		.byte	0x3
 2092 0b10 1602     		.2byte	0x216
 2093 0b12 01       		.byte	0x1
 2094 0b13 01       		.byte	0x1
 2095 0b14 0C       		.uleb128 0xc
 2096 0b15 25020000 		.4byte	0x225
 2097 0b19 0C       		.uleb128 0xc
 2098 0b1a D2000000 		.4byte	0xd2
 2099 0b1e 00       		.byte	0
 2100 0b1f 00       		.byte	0
 2101              		.section	.debug_abbrev,"",%progbits
 2102              	.Ldebug_abbrev0:
 2103 0000 01       		.uleb128 0x1
 2104 0001 11       		.uleb128 0x11
 2105 0002 01       		.byte	0x1
 2106 0003 25       		.uleb128 0x25
 2107 0004 0E       		.uleb128 0xe
 2108 0005 13       		.uleb128 0x13
 2109 0006 0B       		.uleb128 0xb
ARM GAS  /tmp/cc1d6xpg.s 			page 63


 2110 0007 03       		.uleb128 0x3
 2111 0008 0E       		.uleb128 0xe
 2112 0009 1B       		.uleb128 0x1b
 2113 000a 0E       		.uleb128 0xe
 2114 000b 55       		.uleb128 0x55
 2115 000c 06       		.uleb128 0x6
 2116 000d 11       		.uleb128 0x11
 2117 000e 01       		.uleb128 0x1
 2118 000f 52       		.uleb128 0x52
 2119 0010 01       		.uleb128 0x1
 2120 0011 10       		.uleb128 0x10
 2121 0012 06       		.uleb128 0x6
 2122 0013 00       		.byte	0
 2123 0014 00       		.byte	0
 2124 0015 02       		.uleb128 0x2
 2125 0016 24       		.uleb128 0x24
 2126 0017 00       		.byte	0
 2127 0018 0B       		.uleb128 0xb
 2128 0019 0B       		.uleb128 0xb
 2129 001a 3E       		.uleb128 0x3e
 2130 001b 0B       		.uleb128 0xb
 2131 001c 03       		.uleb128 0x3
 2132 001d 08       		.uleb128 0x8
 2133 001e 00       		.byte	0
 2134 001f 00       		.byte	0
 2135 0020 03       		.uleb128 0x3
 2136 0021 24       		.uleb128 0x24
 2137 0022 00       		.byte	0
 2138 0023 0B       		.uleb128 0xb
 2139 0024 0B       		.uleb128 0xb
 2140 0025 3E       		.uleb128 0x3e
 2141 0026 0B       		.uleb128 0xb
 2142 0027 03       		.uleb128 0x3
 2143 0028 0E       		.uleb128 0xe
 2144 0029 00       		.byte	0
 2145 002a 00       		.byte	0
 2146 002b 04       		.uleb128 0x4
 2147 002c 16       		.uleb128 0x16
 2148 002d 00       		.byte	0
 2149 002e 03       		.uleb128 0x3
 2150 002f 0E       		.uleb128 0xe
 2151 0030 3A       		.uleb128 0x3a
 2152 0031 0B       		.uleb128 0xb
 2153 0032 3B       		.uleb128 0x3b
 2154 0033 0B       		.uleb128 0xb
 2155 0034 49       		.uleb128 0x49
 2156 0035 13       		.uleb128 0x13
 2157 0036 00       		.byte	0
 2158 0037 00       		.byte	0
 2159 0038 05       		.uleb128 0x5
 2160 0039 13       		.uleb128 0x13
 2161 003a 01       		.byte	0x1
 2162 003b 03       		.uleb128 0x3
 2163 003c 0E       		.uleb128 0xe
 2164 003d 0B       		.uleb128 0xb
 2165 003e 0B       		.uleb128 0xb
 2166 003f 3A       		.uleb128 0x3a
ARM GAS  /tmp/cc1d6xpg.s 			page 64


 2167 0040 0B       		.uleb128 0xb
 2168 0041 3B       		.uleb128 0x3b
 2169 0042 0B       		.uleb128 0xb
 2170 0043 01       		.uleb128 0x1
 2171 0044 13       		.uleb128 0x13
 2172 0045 00       		.byte	0
 2173 0046 00       		.byte	0
 2174 0047 06       		.uleb128 0x6
 2175 0048 0D       		.uleb128 0xd
 2176 0049 00       		.byte	0
 2177 004a 03       		.uleb128 0x3
 2178 004b 0E       		.uleb128 0xe
 2179 004c 3A       		.uleb128 0x3a
 2180 004d 0B       		.uleb128 0xb
 2181 004e 3B       		.uleb128 0x3b
 2182 004f 0B       		.uleb128 0xb
 2183 0050 49       		.uleb128 0x49
 2184 0051 13       		.uleb128 0x13
 2185 0052 38       		.uleb128 0x38
 2186 0053 0A       		.uleb128 0xa
 2187 0054 00       		.byte	0
 2188 0055 00       		.byte	0
 2189 0056 07       		.uleb128 0x7
 2190 0057 0D       		.uleb128 0xd
 2191 0058 00       		.byte	0
 2192 0059 03       		.uleb128 0x3
 2193 005a 08       		.uleb128 0x8
 2194 005b 3A       		.uleb128 0x3a
 2195 005c 0B       		.uleb128 0xb
 2196 005d 3B       		.uleb128 0x3b
 2197 005e 05       		.uleb128 0x5
 2198 005f 49       		.uleb128 0x49
 2199 0060 13       		.uleb128 0x13
 2200 0061 38       		.uleb128 0x38
 2201 0062 0A       		.uleb128 0xa
 2202 0063 00       		.byte	0
 2203 0064 00       		.byte	0
 2204 0065 08       		.uleb128 0x8
 2205 0066 0D       		.uleb128 0xd
 2206 0067 00       		.byte	0
 2207 0068 03       		.uleb128 0x3
 2208 0069 0E       		.uleb128 0xe
 2209 006a 3A       		.uleb128 0x3a
 2210 006b 0B       		.uleb128 0xb
 2211 006c 3B       		.uleb128 0x3b
 2212 006d 05       		.uleb128 0x5
 2213 006e 49       		.uleb128 0x49
 2214 006f 13       		.uleb128 0x13
 2215 0070 38       		.uleb128 0x38
 2216 0071 0A       		.uleb128 0xa
 2217 0072 00       		.byte	0
 2218 0073 00       		.byte	0
 2219 0074 09       		.uleb128 0x9
 2220 0075 0F       		.uleb128 0xf
 2221 0076 00       		.byte	0
 2222 0077 0B       		.uleb128 0xb
 2223 0078 0B       		.uleb128 0xb
ARM GAS  /tmp/cc1d6xpg.s 			page 65


 2224 0079 49       		.uleb128 0x49
 2225 007a 13       		.uleb128 0x13
 2226 007b 00       		.byte	0
 2227 007c 00       		.byte	0
 2228 007d 0A       		.uleb128 0xa
 2229 007e 13       		.uleb128 0x13
 2230 007f 01       		.byte	0x1
 2231 0080 03       		.uleb128 0x3
 2232 0081 0E       		.uleb128 0xe
 2233 0082 0B       		.uleb128 0xb
 2234 0083 0B       		.uleb128 0xb
 2235 0084 3A       		.uleb128 0x3a
 2236 0085 0B       		.uleb128 0xb
 2237 0086 3B       		.uleb128 0x3b
 2238 0087 05       		.uleb128 0x5
 2239 0088 01       		.uleb128 0x1
 2240 0089 13       		.uleb128 0x13
 2241 008a 00       		.byte	0
 2242 008b 00       		.byte	0
 2243 008c 0B       		.uleb128 0xb
 2244 008d 15       		.uleb128 0x15
 2245 008e 01       		.byte	0x1
 2246 008f 27       		.uleb128 0x27
 2247 0090 0C       		.uleb128 0xc
 2248 0091 01       		.uleb128 0x1
 2249 0092 13       		.uleb128 0x13
 2250 0093 00       		.byte	0
 2251 0094 00       		.byte	0
 2252 0095 0C       		.uleb128 0xc
 2253 0096 05       		.uleb128 0x5
 2254 0097 00       		.byte	0
 2255 0098 49       		.uleb128 0x49
 2256 0099 13       		.uleb128 0x13
 2257 009a 00       		.byte	0
 2258 009b 00       		.byte	0
 2259 009c 0D       		.uleb128 0xd
 2260 009d 0F       		.uleb128 0xf
 2261 009e 00       		.byte	0
 2262 009f 0B       		.uleb128 0xb
 2263 00a0 0B       		.uleb128 0xb
 2264 00a1 00       		.byte	0
 2265 00a2 00       		.byte	0
 2266 00a3 0E       		.uleb128 0xe
 2267 00a4 13       		.uleb128 0x13
 2268 00a5 01       		.byte	0x1
 2269 00a6 03       		.uleb128 0x3
 2270 00a7 0E       		.uleb128 0xe
 2271 00a8 0B       		.uleb128 0xb
 2272 00a9 05       		.uleb128 0x5
 2273 00aa 3A       		.uleb128 0x3a
 2274 00ab 0B       		.uleb128 0xb
 2275 00ac 3B       		.uleb128 0x3b
 2276 00ad 05       		.uleb128 0x5
 2277 00ae 01       		.uleb128 0x1
 2278 00af 13       		.uleb128 0x13
 2279 00b0 00       		.byte	0
 2280 00b1 00       		.byte	0
ARM GAS  /tmp/cc1d6xpg.s 			page 66


 2281 00b2 0F       		.uleb128 0xf
 2282 00b3 0D       		.uleb128 0xd
 2283 00b4 00       		.byte	0
 2284 00b5 03       		.uleb128 0x3
 2285 00b6 08       		.uleb128 0x8
 2286 00b7 3A       		.uleb128 0x3a
 2287 00b8 0B       		.uleb128 0xb
 2288 00b9 3B       		.uleb128 0x3b
 2289 00ba 0B       		.uleb128 0xb
 2290 00bb 49       		.uleb128 0x49
 2291 00bc 13       		.uleb128 0x13
 2292 00bd 38       		.uleb128 0x38
 2293 00be 0A       		.uleb128 0xa
 2294 00bf 00       		.byte	0
 2295 00c0 00       		.byte	0
 2296 00c1 10       		.uleb128 0x10
 2297 00c2 13       		.uleb128 0x13
 2298 00c3 01       		.byte	0x1
 2299 00c4 0B       		.uleb128 0xb
 2300 00c5 0B       		.uleb128 0xb
 2301 00c6 3A       		.uleb128 0x3a
 2302 00c7 0B       		.uleb128 0xb
 2303 00c8 3B       		.uleb128 0x3b
 2304 00c9 0B       		.uleb128 0xb
 2305 00ca 01       		.uleb128 0x1
 2306 00cb 13       		.uleb128 0x13
 2307 00cc 00       		.byte	0
 2308 00cd 00       		.byte	0
 2309 00ce 11       		.uleb128 0x11
 2310 00cf 17       		.uleb128 0x17
 2311 00d0 01       		.byte	0x1
 2312 00d1 0B       		.uleb128 0xb
 2313 00d2 0B       		.uleb128 0xb
 2314 00d3 3A       		.uleb128 0x3a
 2315 00d4 0B       		.uleb128 0xb
 2316 00d5 3B       		.uleb128 0x3b
 2317 00d6 0B       		.uleb128 0xb
 2318 00d7 01       		.uleb128 0x1
 2319 00d8 13       		.uleb128 0x13
 2320 00d9 00       		.byte	0
 2321 00da 00       		.byte	0
 2322 00db 12       		.uleb128 0x12
 2323 00dc 0D       		.uleb128 0xd
 2324 00dd 00       		.byte	0
 2325 00de 03       		.uleb128 0x3
 2326 00df 0E       		.uleb128 0xe
 2327 00e0 3A       		.uleb128 0x3a
 2328 00e1 0B       		.uleb128 0xb
 2329 00e2 3B       		.uleb128 0x3b
 2330 00e3 05       		.uleb128 0x5
 2331 00e4 49       		.uleb128 0x49
 2332 00e5 13       		.uleb128 0x13
 2333 00e6 00       		.byte	0
 2334 00e7 00       		.byte	0
 2335 00e8 13       		.uleb128 0x13
 2336 00e9 26       		.uleb128 0x26
 2337 00ea 00       		.byte	0
ARM GAS  /tmp/cc1d6xpg.s 			page 67


 2338 00eb 49       		.uleb128 0x49
 2339 00ec 13       		.uleb128 0x13
 2340 00ed 00       		.byte	0
 2341 00ee 00       		.byte	0
 2342 00ef 14       		.uleb128 0x14
 2343 00f0 35       		.uleb128 0x35
 2344 00f1 00       		.byte	0
 2345 00f2 49       		.uleb128 0x49
 2346 00f3 13       		.uleb128 0x13
 2347 00f4 00       		.byte	0
 2348 00f5 00       		.byte	0
 2349 00f6 15       		.uleb128 0x15
 2350 00f7 01       		.uleb128 0x1
 2351 00f8 01       		.byte	0x1
 2352 00f9 49       		.uleb128 0x49
 2353 00fa 13       		.uleb128 0x13
 2354 00fb 01       		.uleb128 0x1
 2355 00fc 13       		.uleb128 0x13
 2356 00fd 00       		.byte	0
 2357 00fe 00       		.byte	0
 2358 00ff 16       		.uleb128 0x16
 2359 0100 21       		.uleb128 0x21
 2360 0101 00       		.byte	0
 2361 0102 49       		.uleb128 0x49
 2362 0103 13       		.uleb128 0x13
 2363 0104 2F       		.uleb128 0x2f
 2364 0105 0B       		.uleb128 0xb
 2365 0106 00       		.byte	0
 2366 0107 00       		.byte	0
 2367 0108 17       		.uleb128 0x17
 2368 0109 2E       		.uleb128 0x2e
 2369 010a 01       		.byte	0x1
 2370 010b 03       		.uleb128 0x3
 2371 010c 0E       		.uleb128 0xe
 2372 010d 3A       		.uleb128 0x3a
 2373 010e 0B       		.uleb128 0xb
 2374 010f 3B       		.uleb128 0x3b
 2375 0110 05       		.uleb128 0x5
 2376 0111 27       		.uleb128 0x27
 2377 0112 0C       		.uleb128 0xc
 2378 0113 20       		.uleb128 0x20
 2379 0114 0B       		.uleb128 0xb
 2380 0115 01       		.uleb128 0x1
 2381 0116 13       		.uleb128 0x13
 2382 0117 00       		.byte	0
 2383 0118 00       		.byte	0
 2384 0119 18       		.uleb128 0x18
 2385 011a 05       		.uleb128 0x5
 2386 011b 00       		.byte	0
 2387 011c 03       		.uleb128 0x3
 2388 011d 0E       		.uleb128 0xe
 2389 011e 3A       		.uleb128 0x3a
 2390 011f 0B       		.uleb128 0xb
 2391 0120 3B       		.uleb128 0x3b
 2392 0121 05       		.uleb128 0x5
 2393 0122 49       		.uleb128 0x49
 2394 0123 13       		.uleb128 0x13
ARM GAS  /tmp/cc1d6xpg.s 			page 68


 2395 0124 00       		.byte	0
 2396 0125 00       		.byte	0
 2397 0126 19       		.uleb128 0x19
 2398 0127 2E       		.uleb128 0x2e
 2399 0128 00       		.byte	0
 2400 0129 03       		.uleb128 0x3
 2401 012a 0E       		.uleb128 0xe
 2402 012b 3A       		.uleb128 0x3a
 2403 012c 0B       		.uleb128 0xb
 2404 012d 3B       		.uleb128 0x3b
 2405 012e 05       		.uleb128 0x5
 2406 012f 27       		.uleb128 0x27
 2407 0130 0C       		.uleb128 0xc
 2408 0131 20       		.uleb128 0x20
 2409 0132 0B       		.uleb128 0xb
 2410 0133 00       		.byte	0
 2411 0134 00       		.byte	0
 2412 0135 1A       		.uleb128 0x1a
 2413 0136 05       		.uleb128 0x5
 2414 0137 00       		.byte	0
 2415 0138 03       		.uleb128 0x3
 2416 0139 08       		.uleb128 0x8
 2417 013a 3A       		.uleb128 0x3a
 2418 013b 0B       		.uleb128 0xb
 2419 013c 3B       		.uleb128 0x3b
 2420 013d 05       		.uleb128 0x5
 2421 013e 49       		.uleb128 0x49
 2422 013f 13       		.uleb128 0x13
 2423 0140 00       		.byte	0
 2424 0141 00       		.byte	0
 2425 0142 1B       		.uleb128 0x1b
 2426 0143 34       		.uleb128 0x34
 2427 0144 00       		.byte	0
 2428 0145 03       		.uleb128 0x3
 2429 0146 0E       		.uleb128 0xe
 2430 0147 49       		.uleb128 0x49
 2431 0148 13       		.uleb128 0x13
 2432 0149 34       		.uleb128 0x34
 2433 014a 0C       		.uleb128 0xc
 2434 014b 1C       		.uleb128 0x1c
 2435 014c 0E       		.uleb128 0xe
 2436 014d 00       		.byte	0
 2437 014e 00       		.byte	0
 2438 014f 1C       		.uleb128 0x1c
 2439 0150 2E       		.uleb128 0x2e
 2440 0151 01       		.byte	0x1
 2441 0152 03       		.uleb128 0x3
 2442 0153 0E       		.uleb128 0xe
 2443 0154 3A       		.uleb128 0x3a
 2444 0155 0B       		.uleb128 0xb
 2445 0156 3B       		.uleb128 0x3b
 2446 0157 0B       		.uleb128 0xb
 2447 0158 27       		.uleb128 0x27
 2448 0159 0C       		.uleb128 0xc
 2449 015a 49       		.uleb128 0x49
 2450 015b 13       		.uleb128 0x13
 2451 015c 20       		.uleb128 0x20
ARM GAS  /tmp/cc1d6xpg.s 			page 69


 2452 015d 0B       		.uleb128 0xb
 2453 015e 01       		.uleb128 0x1
 2454 015f 13       		.uleb128 0x13
 2455 0160 00       		.byte	0
 2456 0161 00       		.byte	0
 2457 0162 1D       		.uleb128 0x1d
 2458 0163 05       		.uleb128 0x5
 2459 0164 00       		.byte	0
 2460 0165 03       		.uleb128 0x3
 2461 0166 08       		.uleb128 0x8
 2462 0167 3A       		.uleb128 0x3a
 2463 0168 0B       		.uleb128 0xb
 2464 0169 3B       		.uleb128 0x3b
 2465 016a 0B       		.uleb128 0xb
 2466 016b 49       		.uleb128 0x49
 2467 016c 13       		.uleb128 0x13
 2468 016d 00       		.byte	0
 2469 016e 00       		.byte	0
 2470 016f 1E       		.uleb128 0x1e
 2471 0170 2E       		.uleb128 0x2e
 2472 0171 01       		.byte	0x1
 2473 0172 03       		.uleb128 0x3
 2474 0173 0E       		.uleb128 0xe
 2475 0174 3A       		.uleb128 0x3a
 2476 0175 0B       		.uleb128 0xb
 2477 0176 3B       		.uleb128 0x3b
 2478 0177 05       		.uleb128 0x5
 2479 0178 27       		.uleb128 0x27
 2480 0179 0C       		.uleb128 0xc
 2481 017a 49       		.uleb128 0x49
 2482 017b 13       		.uleb128 0x13
 2483 017c 20       		.uleb128 0x20
 2484 017d 0B       		.uleb128 0xb
 2485 017e 01       		.uleb128 0x1
 2486 017f 13       		.uleb128 0x13
 2487 0180 00       		.byte	0
 2488 0181 00       		.byte	0
 2489 0182 1F       		.uleb128 0x1f
 2490 0183 34       		.uleb128 0x34
 2491 0184 00       		.byte	0
 2492 0185 03       		.uleb128 0x3
 2493 0186 08       		.uleb128 0x8
 2494 0187 3A       		.uleb128 0x3a
 2495 0188 0B       		.uleb128 0xb
 2496 0189 3B       		.uleb128 0x3b
 2497 018a 05       		.uleb128 0x5
 2498 018b 49       		.uleb128 0x49
 2499 018c 13       		.uleb128 0x13
 2500 018d 00       		.byte	0
 2501 018e 00       		.byte	0
 2502 018f 20       		.uleb128 0x20
 2503 0190 2E       		.uleb128 0x2e
 2504 0191 01       		.byte	0x1
 2505 0192 03       		.uleb128 0x3
 2506 0193 0E       		.uleb128 0xe
 2507 0194 3A       		.uleb128 0x3a
 2508 0195 0B       		.uleb128 0xb
ARM GAS  /tmp/cc1d6xpg.s 			page 70


 2509 0196 3B       		.uleb128 0x3b
 2510 0197 0B       		.uleb128 0xb
 2511 0198 27       		.uleb128 0x27
 2512 0199 0C       		.uleb128 0xc
 2513 019a 20       		.uleb128 0x20
 2514 019b 0B       		.uleb128 0xb
 2515 019c 01       		.uleb128 0x1
 2516 019d 13       		.uleb128 0x13
 2517 019e 00       		.byte	0
 2518 019f 00       		.byte	0
 2519 01a0 21       		.uleb128 0x21
 2520 01a1 2E       		.uleb128 0x2e
 2521 01a2 01       		.byte	0x1
 2522 01a3 3F       		.uleb128 0x3f
 2523 01a4 0C       		.uleb128 0xc
 2524 01a5 03       		.uleb128 0x3
 2525 01a6 0E       		.uleb128 0xe
 2526 01a7 3A       		.uleb128 0x3a
 2527 01a8 0B       		.uleb128 0xb
 2528 01a9 3B       		.uleb128 0x3b
 2529 01aa 0B       		.uleb128 0xb
 2530 01ab 27       		.uleb128 0x27
 2531 01ac 0C       		.uleb128 0xc
 2532 01ad 49       		.uleb128 0x49
 2533 01ae 13       		.uleb128 0x13
 2534 01af 11       		.uleb128 0x11
 2535 01b0 01       		.uleb128 0x1
 2536 01b1 12       		.uleb128 0x12
 2537 01b2 01       		.uleb128 0x1
 2538 01b3 40       		.uleb128 0x40
 2539 01b4 06       		.uleb128 0x6
 2540 01b5 9742     		.uleb128 0x2117
 2541 01b7 0C       		.uleb128 0xc
 2542 01b8 01       		.uleb128 0x1
 2543 01b9 13       		.uleb128 0x13
 2544 01ba 00       		.byte	0
 2545 01bb 00       		.byte	0
 2546 01bc 22       		.uleb128 0x22
 2547 01bd 05       		.uleb128 0x5
 2548 01be 00       		.byte	0
 2549 01bf 03       		.uleb128 0x3
 2550 01c0 08       		.uleb128 0x8
 2551 01c1 3A       		.uleb128 0x3a
 2552 01c2 0B       		.uleb128 0xb
 2553 01c3 3B       		.uleb128 0x3b
 2554 01c4 0B       		.uleb128 0xb
 2555 01c5 49       		.uleb128 0x49
 2556 01c6 13       		.uleb128 0x13
 2557 01c7 02       		.uleb128 0x2
 2558 01c8 06       		.uleb128 0x6
 2559 01c9 00       		.byte	0
 2560 01ca 00       		.byte	0
 2561 01cb 23       		.uleb128 0x23
 2562 01cc 34       		.uleb128 0x34
 2563 01cd 00       		.byte	0
 2564 01ce 03       		.uleb128 0x3
 2565 01cf 08       		.uleb128 0x8
ARM GAS  /tmp/cc1d6xpg.s 			page 71


 2566 01d0 3A       		.uleb128 0x3a
 2567 01d1 0B       		.uleb128 0xb
 2568 01d2 3B       		.uleb128 0x3b
 2569 01d3 0B       		.uleb128 0xb
 2570 01d4 49       		.uleb128 0x49
 2571 01d5 13       		.uleb128 0x13
 2572 01d6 02       		.uleb128 0x2
 2573 01d7 0A       		.uleb128 0xa
 2574 01d8 00       		.byte	0
 2575 01d9 00       		.byte	0
 2576 01da 24       		.uleb128 0x24
 2577 01db 34       		.uleb128 0x34
 2578 01dc 00       		.byte	0
 2579 01dd 03       		.uleb128 0x3
 2580 01de 0E       		.uleb128 0xe
 2581 01df 49       		.uleb128 0x49
 2582 01e0 13       		.uleb128 0x13
 2583 01e1 34       		.uleb128 0x34
 2584 01e2 0C       		.uleb128 0xc
 2585 01e3 00       		.byte	0
 2586 01e4 00       		.byte	0
 2587 01e5 25       		.uleb128 0x25
 2588 01e6 1D       		.uleb128 0x1d
 2589 01e7 01       		.byte	0x1
 2590 01e8 31       		.uleb128 0x31
 2591 01e9 13       		.uleb128 0x13
 2592 01ea 11       		.uleb128 0x11
 2593 01eb 01       		.uleb128 0x1
 2594 01ec 12       		.uleb128 0x12
 2595 01ed 01       		.uleb128 0x1
 2596 01ee 58       		.uleb128 0x58
 2597 01ef 0B       		.uleb128 0xb
 2598 01f0 59       		.uleb128 0x59
 2599 01f1 0B       		.uleb128 0xb
 2600 01f2 01       		.uleb128 0x1
 2601 01f3 13       		.uleb128 0x13
 2602 01f4 00       		.byte	0
 2603 01f5 00       		.byte	0
 2604 01f6 26       		.uleb128 0x26
 2605 01f7 1D       		.uleb128 0x1d
 2606 01f8 01       		.byte	0x1
 2607 01f9 31       		.uleb128 0x31
 2608 01fa 13       		.uleb128 0x13
 2609 01fb 11       		.uleb128 0x11
 2610 01fc 01       		.uleb128 0x1
 2611 01fd 12       		.uleb128 0x12
 2612 01fe 01       		.uleb128 0x1
 2613 01ff 58       		.uleb128 0x58
 2614 0200 0B       		.uleb128 0xb
 2615 0201 59       		.uleb128 0x59
 2616 0202 05       		.uleb128 0x5
 2617 0203 00       		.byte	0
 2618 0204 00       		.byte	0
 2619 0205 27       		.uleb128 0x27
 2620 0206 05       		.uleb128 0x5
 2621 0207 00       		.byte	0
 2622 0208 31       		.uleb128 0x31
ARM GAS  /tmp/cc1d6xpg.s 			page 72


 2623 0209 13       		.uleb128 0x13
 2624 020a 1C       		.uleb128 0x1c
 2625 020b 0B       		.uleb128 0xb
 2626 020c 00       		.byte	0
 2627 020d 00       		.byte	0
 2628 020e 28       		.uleb128 0x28
 2629 020f 1D       		.uleb128 0x1d
 2630 0210 01       		.byte	0x1
 2631 0211 31       		.uleb128 0x31
 2632 0212 13       		.uleb128 0x13
 2633 0213 52       		.uleb128 0x52
 2634 0214 01       		.uleb128 0x1
 2635 0215 55       		.uleb128 0x55
 2636 0216 06       		.uleb128 0x6
 2637 0217 58       		.uleb128 0x58
 2638 0218 0B       		.uleb128 0xb
 2639 0219 59       		.uleb128 0x59
 2640 021a 0B       		.uleb128 0xb
 2641 021b 01       		.uleb128 0x1
 2642 021c 13       		.uleb128 0x13
 2643 021d 00       		.byte	0
 2644 021e 00       		.byte	0
 2645 021f 29       		.uleb128 0x29
 2646 0220 05       		.uleb128 0x5
 2647 0221 00       		.byte	0
 2648 0222 31       		.uleb128 0x31
 2649 0223 13       		.uleb128 0x13
 2650 0224 02       		.uleb128 0x2
 2651 0225 0A       		.uleb128 0xa
 2652 0226 00       		.byte	0
 2653 0227 00       		.byte	0
 2654 0228 2A       		.uleb128 0x2a
 2655 0229 0B       		.uleb128 0xb
 2656 022a 01       		.byte	0x1
 2657 022b 11       		.uleb128 0x11
 2658 022c 01       		.uleb128 0x1
 2659 022d 12       		.uleb128 0x12
 2660 022e 01       		.uleb128 0x1
 2661 022f 00       		.byte	0
 2662 0230 00       		.byte	0
 2663 0231 2B       		.uleb128 0x2b
 2664 0232 34       		.uleb128 0x34
 2665 0233 00       		.byte	0
 2666 0234 31       		.uleb128 0x31
 2667 0235 13       		.uleb128 0x13
 2668 0236 00       		.byte	0
 2669 0237 00       		.byte	0
 2670 0238 2C       		.uleb128 0x2c
 2671 0239 05       		.uleb128 0x5
 2672 023a 00       		.byte	0
 2673 023b 31       		.uleb128 0x31
 2674 023c 13       		.uleb128 0x13
 2675 023d 02       		.uleb128 0x2
 2676 023e 06       		.uleb128 0x6
 2677 023f 00       		.byte	0
 2678 0240 00       		.byte	0
 2679 0241 2D       		.uleb128 0x2d
ARM GAS  /tmp/cc1d6xpg.s 			page 73


 2680 0242 898201   		.uleb128 0x4109
 2681 0245 01       		.byte	0x1
 2682 0246 11       		.uleb128 0x11
 2683 0247 01       		.uleb128 0x1
 2684 0248 31       		.uleb128 0x31
 2685 0249 13       		.uleb128 0x13
 2686 024a 01       		.uleb128 0x1
 2687 024b 13       		.uleb128 0x13
 2688 024c 00       		.byte	0
 2689 024d 00       		.byte	0
 2690 024e 2E       		.uleb128 0x2e
 2691 024f 8A8201   		.uleb128 0x410a
 2692 0252 00       		.byte	0
 2693 0253 02       		.uleb128 0x2
 2694 0254 0A       		.uleb128 0xa
 2695 0255 9142     		.uleb128 0x2111
 2696 0257 0A       		.uleb128 0xa
 2697 0258 00       		.byte	0
 2698 0259 00       		.byte	0
 2699 025a 2F       		.uleb128 0x2f
 2700 025b 898201   		.uleb128 0x4109
 2701 025e 00       		.byte	0
 2702 025f 11       		.uleb128 0x11
 2703 0260 01       		.uleb128 0x1
 2704 0261 31       		.uleb128 0x31
 2705 0262 13       		.uleb128 0x13
 2706 0263 00       		.byte	0
 2707 0264 00       		.byte	0
 2708 0265 30       		.uleb128 0x30
 2709 0266 34       		.uleb128 0x34
 2710 0267 00       		.byte	0
 2711 0268 03       		.uleb128 0x3
 2712 0269 08       		.uleb128 0x8
 2713 026a 3A       		.uleb128 0x3a
 2714 026b 0B       		.uleb128 0xb
 2715 026c 3B       		.uleb128 0x3b
 2716 026d 0B       		.uleb128 0xb
 2717 026e 49       		.uleb128 0x49
 2718 026f 13       		.uleb128 0x13
 2719 0270 00       		.byte	0
 2720 0271 00       		.byte	0
 2721 0272 31       		.uleb128 0x31
 2722 0273 34       		.uleb128 0x34
 2723 0274 00       		.byte	0
 2724 0275 31       		.uleb128 0x31
 2725 0276 13       		.uleb128 0x13
 2726 0277 02       		.uleb128 0x2
 2727 0278 06       		.uleb128 0x6
 2728 0279 00       		.byte	0
 2729 027a 00       		.byte	0
 2730 027b 32       		.uleb128 0x32
 2731 027c 898201   		.uleb128 0x4109
 2732 027f 01       		.byte	0x1
 2733 0280 11       		.uleb128 0x11
 2734 0281 01       		.uleb128 0x1
 2735 0282 31       		.uleb128 0x31
 2736 0283 13       		.uleb128 0x13
ARM GAS  /tmp/cc1d6xpg.s 			page 74


 2737 0284 00       		.byte	0
 2738 0285 00       		.byte	0
 2739 0286 33       		.uleb128 0x33
 2740 0287 2E       		.uleb128 0x2e
 2741 0288 01       		.byte	0x1
 2742 0289 3F       		.uleb128 0x3f
 2743 028a 0C       		.uleb128 0xc
 2744 028b 03       		.uleb128 0x3
 2745 028c 0E       		.uleb128 0xe
 2746 028d 3A       		.uleb128 0x3a
 2747 028e 0B       		.uleb128 0xb
 2748 028f 3B       		.uleb128 0x3b
 2749 0290 0B       		.uleb128 0xb
 2750 0291 27       		.uleb128 0x27
 2751 0292 0C       		.uleb128 0xc
 2752 0293 11       		.uleb128 0x11
 2753 0294 01       		.uleb128 0x1
 2754 0295 12       		.uleb128 0x12
 2755 0296 01       		.uleb128 0x1
 2756 0297 40       		.uleb128 0x40
 2757 0298 06       		.uleb128 0x6
 2758 0299 9742     		.uleb128 0x2117
 2759 029b 0C       		.uleb128 0xc
 2760 029c 01       		.uleb128 0x1
 2761 029d 13       		.uleb128 0x13
 2762 029e 00       		.byte	0
 2763 029f 00       		.byte	0
 2764 02a0 34       		.uleb128 0x34
 2765 02a1 05       		.uleb128 0x5
 2766 02a2 00       		.byte	0
 2767 02a3 31       		.uleb128 0x31
 2768 02a4 13       		.uleb128 0x13
 2769 02a5 00       		.byte	0
 2770 02a6 00       		.byte	0
 2771 02a7 35       		.uleb128 0x35
 2772 02a8 1D       		.uleb128 0x1d
 2773 02a9 01       		.byte	0x1
 2774 02aa 31       		.uleb128 0x31
 2775 02ab 13       		.uleb128 0x13
 2776 02ac 11       		.uleb128 0x11
 2777 02ad 01       		.uleb128 0x1
 2778 02ae 12       		.uleb128 0x12
 2779 02af 01       		.uleb128 0x1
 2780 02b0 58       		.uleb128 0x58
 2781 02b1 0B       		.uleb128 0xb
 2782 02b2 59       		.uleb128 0x59
 2783 02b3 0B       		.uleb128 0xb
 2784 02b4 00       		.byte	0
 2785 02b5 00       		.byte	0
 2786 02b6 36       		.uleb128 0x36
 2787 02b7 34       		.uleb128 0x34
 2788 02b8 00       		.byte	0
 2789 02b9 03       		.uleb128 0x3
 2790 02ba 0E       		.uleb128 0xe
 2791 02bb 3A       		.uleb128 0x3a
 2792 02bc 0B       		.uleb128 0xb
 2793 02bd 3B       		.uleb128 0x3b
ARM GAS  /tmp/cc1d6xpg.s 			page 75


 2794 02be 05       		.uleb128 0x5
 2795 02bf 49       		.uleb128 0x49
 2796 02c0 13       		.uleb128 0x13
 2797 02c1 3F       		.uleb128 0x3f
 2798 02c2 0C       		.uleb128 0xc
 2799 02c3 3C       		.uleb128 0x3c
 2800 02c4 0C       		.uleb128 0xc
 2801 02c5 00       		.byte	0
 2802 02c6 00       		.byte	0
 2803 02c7 37       		.uleb128 0x37
 2804 02c8 34       		.uleb128 0x34
 2805 02c9 00       		.byte	0
 2806 02ca 03       		.uleb128 0x3
 2807 02cb 08       		.uleb128 0x8
 2808 02cc 3A       		.uleb128 0x3a
 2809 02cd 0B       		.uleb128 0xb
 2810 02ce 3B       		.uleb128 0x3b
 2811 02cf 05       		.uleb128 0x5
 2812 02d0 49       		.uleb128 0x49
 2813 02d1 13       		.uleb128 0x13
 2814 02d2 3F       		.uleb128 0x3f
 2815 02d3 0C       		.uleb128 0xc
 2816 02d4 3C       		.uleb128 0x3c
 2817 02d5 0C       		.uleb128 0xc
 2818 02d6 00       		.byte	0
 2819 02d7 00       		.byte	0
 2820 02d8 38       		.uleb128 0x38
 2821 02d9 2E       		.uleb128 0x2e
 2822 02da 01       		.byte	0x1
 2823 02db 3F       		.uleb128 0x3f
 2824 02dc 0C       		.uleb128 0xc
 2825 02dd 03       		.uleb128 0x3
 2826 02de 0E       		.uleb128 0xe
 2827 02df 3A       		.uleb128 0x3a
 2828 02e0 0B       		.uleb128 0xb
 2829 02e1 3B       		.uleb128 0x3b
 2830 02e2 05       		.uleb128 0x5
 2831 02e3 27       		.uleb128 0x27
 2832 02e4 0C       		.uleb128 0xc
 2833 02e5 3C       		.uleb128 0x3c
 2834 02e6 0C       		.uleb128 0xc
 2835 02e7 01       		.uleb128 0x1
 2836 02e8 13       		.uleb128 0x13
 2837 02e9 00       		.byte	0
 2838 02ea 00       		.byte	0
 2839 02eb 39       		.uleb128 0x39
 2840 02ec 2E       		.uleb128 0x2e
 2841 02ed 01       		.byte	0x1
 2842 02ee 3F       		.uleb128 0x3f
 2843 02ef 0C       		.uleb128 0xc
 2844 02f0 03       		.uleb128 0x3
 2845 02f1 0E       		.uleb128 0xe
 2846 02f2 3A       		.uleb128 0x3a
 2847 02f3 0B       		.uleb128 0xb
 2848 02f4 3B       		.uleb128 0x3b
 2849 02f5 05       		.uleb128 0x5
 2850 02f6 27       		.uleb128 0x27
ARM GAS  /tmp/cc1d6xpg.s 			page 76


 2851 02f7 0C       		.uleb128 0xc
 2852 02f8 49       		.uleb128 0x49
 2853 02f9 13       		.uleb128 0x13
 2854 02fa 3C       		.uleb128 0x3c
 2855 02fb 0C       		.uleb128 0xc
 2856 02fc 01       		.uleb128 0x1
 2857 02fd 13       		.uleb128 0x13
 2858 02fe 00       		.byte	0
 2859 02ff 00       		.byte	0
 2860 0300 3A       		.uleb128 0x3a
 2861 0301 2E       		.uleb128 0x2e
 2862 0302 01       		.byte	0x1
 2863 0303 3F       		.uleb128 0x3f
 2864 0304 0C       		.uleb128 0xc
 2865 0305 03       		.uleb128 0x3
 2866 0306 0E       		.uleb128 0xe
 2867 0307 3A       		.uleb128 0x3a
 2868 0308 0B       		.uleb128 0xb
 2869 0309 3B       		.uleb128 0x3b
 2870 030a 05       		.uleb128 0x5
 2871 030b 27       		.uleb128 0x27
 2872 030c 0C       		.uleb128 0xc
 2873 030d 3C       		.uleb128 0x3c
 2874 030e 0C       		.uleb128 0xc
 2875 030f 00       		.byte	0
 2876 0310 00       		.byte	0
 2877 0311 00       		.byte	0
 2878              		.section	.debug_loc,"",%progbits
 2879              	.Ldebug_loc0:
 2880              	.LLST0:
 2881 0000 00000000 		.4byte	.LFB241
 2882 0004 02000000 		.4byte	.LCFI0
 2883 0008 0200     		.2byte	0x2
 2884 000a 7D       		.byte	0x7d
 2885 000b 00       		.sleb128 0
 2886 000c 02000000 		.4byte	.LCFI0
 2887 0010 40000000 		.4byte	.LFE241
 2888 0014 0200     		.2byte	0x2
 2889 0016 7D       		.byte	0x7d
 2890 0017 10       		.sleb128 16
 2891 0018 00000000 		.4byte	0
 2892 001c 00000000 		.4byte	0
 2893              	.LLST1:
 2894 0020 00000000 		.4byte	.LVL0
 2895 0024 24000000 		.4byte	.LVL3
 2896 0028 0100     		.2byte	0x1
 2897 002a 50       		.byte	0x50
 2898 002b 24000000 		.4byte	.LVL3
 2899 002f 34000000 		.4byte	.LVL6
 2900 0033 0300     		.2byte	0x3
 2901 0035 75       		.byte	0x75
 2902 0036 58       		.sleb128 -40
 2903 0037 9F       		.byte	0x9f
 2904 0038 34000000 		.4byte	.LVL6
 2905 003c 37000000 		.4byte	.LVL7-1
 2906 0040 0100     		.2byte	0x1
 2907 0042 50       		.byte	0x50
ARM GAS  /tmp/cc1d6xpg.s 			page 77


 2908 0043 37000000 		.4byte	.LVL7-1
 2909 0047 40000000 		.4byte	.LFE241
 2910 004b 0300     		.2byte	0x3
 2911 004d 75       		.byte	0x75
 2912 004e 58       		.sleb128 -40
 2913 004f 9F       		.byte	0x9f
 2914 0050 00000000 		.4byte	0
 2915 0054 00000000 		.4byte	0
 2916              	.LLST2:
 2917 0058 00000000 		.4byte	.LVL0
 2918 005c 24000000 		.4byte	.LVL3
 2919 0060 0100     		.2byte	0x1
 2920 0062 51       		.byte	0x51
 2921 0063 24000000 		.4byte	.LVL3
 2922 0067 2C000000 		.4byte	.LVL5
 2923 006b 0400     		.2byte	0x4
 2924 006d F3       		.byte	0xf3
 2925 006e 01       		.uleb128 0x1
 2926 006f 51       		.byte	0x51
 2927 0070 9F       		.byte	0x9f
 2928 0071 2C000000 		.4byte	.LVL5
 2929 0075 34000000 		.4byte	.LVL6
 2930 0079 0100     		.2byte	0x1
 2931 007b 50       		.byte	0x50
 2932 007c 34000000 		.4byte	.LVL6
 2933 0080 37000000 		.4byte	.LVL7-1
 2934 0084 0100     		.2byte	0x1
 2935 0086 51       		.byte	0x51
 2936 0087 37000000 		.4byte	.LVL7-1
 2937 008b 40000000 		.4byte	.LFE241
 2938 008f 0400     		.2byte	0x4
 2939 0091 F3       		.byte	0xf3
 2940 0092 01       		.uleb128 0x1
 2941 0093 51       		.byte	0x51
 2942 0094 9F       		.byte	0x9f
 2943 0095 00000000 		.4byte	0
 2944 0099 00000000 		.4byte	0
 2945              	.LLST3:
 2946 009d 2C000000 		.4byte	.LVL5
 2947 00a1 34000000 		.4byte	.LVL6
 2948 00a5 0200     		.2byte	0x2
 2949 00a7 30       		.byte	0x30
 2950 00a8 9F       		.byte	0x9f
 2951 00a9 00000000 		.4byte	0
 2952 00ad 00000000 		.4byte	0
 2953              	.LLST4:
 2954 00b1 00000000 		.4byte	.LFB242
 2955 00b5 02000000 		.4byte	.LCFI1
 2956 00b9 0200     		.2byte	0x2
 2957 00bb 7D       		.byte	0x7d
 2958 00bc 00       		.sleb128 0
 2959 00bd 02000000 		.4byte	.LCFI1
 2960 00c1 3C000000 		.4byte	.LFE242
 2961 00c5 0200     		.2byte	0x2
 2962 00c7 7D       		.byte	0x7d
 2963 00c8 08       		.sleb128 8
 2964 00c9 00000000 		.4byte	0
ARM GAS  /tmp/cc1d6xpg.s 			page 78


 2965 00cd 00000000 		.4byte	0
 2966              	.LLST5:
 2967 00d1 0C000000 		.4byte	.LVL9
 2968 00d5 16000000 		.4byte	.LVL10
 2969 00d9 0100     		.2byte	0x1
 2970 00db 52       		.byte	0x52
 2971 00dc 28000000 		.4byte	.LVL12
 2972 00e0 2D000000 		.4byte	.LVL13-1
 2973 00e4 0100     		.2byte	0x1
 2974 00e6 52       		.byte	0x52
 2975 00e7 00000000 		.4byte	0
 2976 00eb 00000000 		.4byte	0
 2977              	.LLST6:
 2978 00ef 16000000 		.4byte	.LVL10
 2979 00f3 28000000 		.4byte	.LVL12
 2980 00f7 0300     		.2byte	0x3
 2981 00f9 72       		.byte	0x72
 2982 00fa 28       		.sleb128 40
 2983 00fb 9F       		.byte	0x9f
 2984 00fc 00000000 		.4byte	0
 2985 0100 00000000 		.4byte	0
 2986              	.LLST7:
 2987 0104 16000000 		.4byte	.LVL10
 2988 0108 28000000 		.4byte	.LVL12
 2989 010c 0100     		.2byte	0x1
 2990 010e 50       		.byte	0x50
 2991 010f 00000000 		.4byte	0
 2992 0113 00000000 		.4byte	0
 2993              	.LLST8:
 2994 0117 20000000 		.4byte	.LVL11
 2995 011b 28000000 		.4byte	.LVL12
 2996 011f 0200     		.2byte	0x2
 2997 0121 30       		.byte	0x30
 2998 0122 9F       		.byte	0x9f
 2999 0123 00000000 		.4byte	0
 3000 0127 00000000 		.4byte	0
 3001              	.LLST9:
 3002 012b 00000000 		.4byte	.LFB243
 3003 012f 02000000 		.4byte	.LCFI2
 3004 0133 0200     		.2byte	0x2
 3005 0135 7D       		.byte	0x7d
 3006 0136 00       		.sleb128 0
 3007 0137 02000000 		.4byte	.LCFI2
 3008 013b 14000000 		.4byte	.LFE243
 3009 013f 0200     		.2byte	0x2
 3010 0141 7D       		.byte	0x7d
 3011 0142 08       		.sleb128 8
 3012 0143 00000000 		.4byte	0
 3013 0147 00000000 		.4byte	0
 3014              	.LLST10:
 3015 014b 00000000 		.4byte	.LVL14
 3016 014f 0B000000 		.4byte	.LVL15-1
 3017 0153 0100     		.2byte	0x1
 3018 0155 50       		.byte	0x50
 3019 0156 0B000000 		.4byte	.LVL15-1
 3020 015a 14000000 		.4byte	.LFE243
 3021 015e 0400     		.2byte	0x4
ARM GAS  /tmp/cc1d6xpg.s 			page 79


 3022 0160 F3       		.byte	0xf3
 3023 0161 01       		.uleb128 0x1
 3024 0162 50       		.byte	0x50
 3025 0163 9F       		.byte	0x9f
 3026 0164 00000000 		.4byte	0
 3027 0168 00000000 		.4byte	0
 3028              	.LLST11:
 3029 016c 00000000 		.4byte	.LVL14
 3030 0170 0B000000 		.4byte	.LVL15-1
 3031 0174 0100     		.2byte	0x1
 3032 0176 51       		.byte	0x51
 3033 0177 0B000000 		.4byte	.LVL15-1
 3034 017b 14000000 		.4byte	.LFE243
 3035 017f 0400     		.2byte	0x4
 3036 0181 F3       		.byte	0xf3
 3037 0182 01       		.uleb128 0x1
 3038 0183 51       		.byte	0x51
 3039 0184 9F       		.byte	0x9f
 3040 0185 00000000 		.4byte	0
 3041 0189 00000000 		.4byte	0
 3042              		.section	.debug_aranges,"",%progbits
 3043 0000 2C000000 		.4byte	0x2c
 3044 0004 0200     		.2byte	0x2
 3045 0006 00000000 		.4byte	.Ldebug_info0
 3046 000a 04       		.byte	0x4
 3047 000b 00       		.byte	0
 3048 000c 0000     		.2byte	0
 3049 000e 0000     		.2byte	0
 3050 0010 00000000 		.4byte	.LFB241
 3051 0014 40000000 		.4byte	.LFE241-.LFB241
 3052 0018 00000000 		.4byte	.LFB242
 3053 001c 3C000000 		.4byte	.LFE242-.LFB242
 3054 0020 00000000 		.4byte	.LFB243
 3055 0024 14000000 		.4byte	.LFE243-.LFB243
 3056 0028 00000000 		.4byte	0
 3057 002c 00000000 		.4byte	0
 3058              		.section	.debug_ranges,"",%progbits
 3059              	.Ldebug_ranges0:
 3060 0000 14000000 		.4byte	.LBB56
 3061 0004 18000000 		.4byte	.LBE56
 3062 0008 1C000000 		.4byte	.LBB59
 3063 000c 22000000 		.4byte	.LBE59
 3064 0010 00000000 		.4byte	0
 3065 0014 00000000 		.4byte	0
 3066 0018 00000000 		.4byte	.LFB241
 3067 001c 40000000 		.4byte	.LFE241
 3068 0020 00000000 		.4byte	.LFB242
 3069 0024 3C000000 		.4byte	.LFE242
 3070 0028 00000000 		.4byte	.LFB243
 3071 002c 14000000 		.4byte	.LFE243
 3072 0030 00000000 		.4byte	0
 3073 0034 00000000 		.4byte	0
 3074              		.section	.debug_line,"",%progbits
 3075              	.Ldebug_line0:
 3076 0000 57020000 		.section	.debug_str,"MS",%progbits,1
 3076      0200A201 
 3076      00000201 
ARM GAS  /tmp/cc1d6xpg.s 			page 80


 3076      FB0E0D00 
 3076      01010101 
 3077              	.LASF43:
 3078 0000 63685F74 		.ascii	"ch_threads_list\000"
 3078      68726561 
 3078      64735F6C 
 3078      69737400 
 3079              	.LASF44:
 3080 0010 74687265 		.ascii	"threads_queue_t\000"
 3080      6164735F 
 3080      71756575 
 3080      655F7400 
 3081              	.LASF33:
 3082 0020 705F7761 		.ascii	"p_waiting\000"
 3082      6974696E 
 3082      6700
 3083              	.LASF86:
 3084 002a 77746D74 		.ascii	"wtmtxp\000"
 3084      787000
 3085              	.LASF80:
 3086 0031 746D5F63 		.ascii	"tm_calibration_t\000"
 3086      616C6962 
 3086      72617469 
 3086      6F6E5F74 
 3086      00
 3087              	.LASF95:
 3088 0042 63686172 		.ascii	"char\000"
 3088      00
 3089              	.LASF75:
 3090 0047 72656761 		.ascii	"regarm_t\000"
 3090      726D5F74 
 3090      00
 3091              	.LASF25:
 3092 0050 705F7072 		.ascii	"p_prio\000"
 3092      696F00
 3093              	.LASF115:
 3094 0057 2E2E2F2E 		.ascii	"../../../os/rt/src/chmsg.c\000"
 3094      2E2F2E2E 
 3094      2F6F732F 
 3094      72742F73 
 3094      72632F63 
 3095              	.LASF21:
 3096 0072 73797374 		.ascii	"systime_t\000"
 3096      696D655F 
 3096      7400
 3097              	.LASF93:
 3098 007c 6D5F6F77 		.ascii	"m_owner\000"
 3098      6E657200 
 3099              	.LASF89:
 3100 0084 735F7175 		.ascii	"s_queue\000"
 3100      65756500 
 3101              	.LASF34:
 3102 008c 705F6D73 		.ascii	"p_msgqueue\000"
 3102      67717565 
 3102      756500
 3103              	.LASF0:
 3104 0097 756E7369 		.ascii	"unsigned int\000"
ARM GAS  /tmp/cc1d6xpg.s 			page 81


 3104      676E6564 
 3104      20696E74 
 3104      00
 3105              	.LASF41:
 3106 00a4 74687265 		.ascii	"threads_list_t\000"
 3106      6164735F 
 3106      6C697374 
 3106      5F7400
 3107              	.LASF109:
 3108 00b3 63684D73 		.ascii	"chMsgSend\000"
 3108      6753656E 
 3108      6400
 3109              	.LASF83:
 3110 00bd 77746F62 		.ascii	"wtobjp\000"
 3110      6A7000
 3111              	.LASF97:
 3112 00c4 706F7274 		.ascii	"port_lock\000"
 3112      5F6C6F63 
 3112      6B00
 3113              	.LASF71:
 3114 00ce 76746C69 		.ascii	"vtlist\000"
 3114      737400
 3115              	.LASF47:
 3116 00d5 63685F72 		.ascii	"ch_ready_list\000"
 3116      65616479 
 3116      5F6C6973 
 3116      7400
 3117              	.LASF73:
 3118 00e3 69646C65 		.ascii	"idle_thread_wa\000"
 3118      5F746872 
 3118      6561645F 
 3118      776100
 3119              	.LASF87:
 3120 00f2 65776D61 		.ascii	"ewmask\000"
 3120      736B00
 3121              	.LASF45:
 3122 00f9 63685F74 		.ascii	"ch_threads_queue\000"
 3122      68726561 
 3122      64735F71 
 3122      75657565 
 3122      00
 3123              	.LASF54:
 3124 010a 76746675 		.ascii	"vtfunc_t\000"
 3124      6E635F74 
 3124      00
 3125              	.LASF117:
 3126 0113 63684D73 		.ascii	"chMsgRelease\000"
 3126      6752656C 
 3126      65617365 
 3126      00
 3127              	.LASF119:
 3128 0120 63685363 		.ascii	"chSchReadyI\000"
 3128      68526561 
 3128      64794900 
 3129              	.LASF90:
 3130 012c 735F636E 		.ascii	"s_cnt\000"
 3130      7400
ARM GAS  /tmp/cc1d6xpg.s 			page 82


 3131              	.LASF66:
 3132 0132 63685F73 		.ascii	"ch_system_debug\000"
 3132      79737465 
 3132      6D5F6465 
 3132      62756700 
 3133              	.LASF8:
 3134 0142 75696E74 		.ascii	"uint32_t\000"
 3134      33325F74 
 3134      00
 3135              	.LASF19:
 3136 014b 6576656E 		.ascii	"eventmask_t\000"
 3136      746D6173 
 3136      6B5F7400 
 3137              	.LASF49:
 3138 0157 725F7072 		.ascii	"r_prio\000"
 3138      696F00
 3139              	.LASF114:
 3140 015e 474E5520 		.ascii	"GNU C 4.7.2\000"
 3140      4320342E 
 3140      372E3200 
 3141              	.LASF61:
 3142 016a 76745F70 		.ascii	"vt_par\000"
 3142      617200
 3143              	.LASF88:
 3144 0171 63685F73 		.ascii	"ch_semaphore\000"
 3144      656D6170 
 3144      686F7265 
 3144      00
 3145              	.LASF17:
 3146 017e 74707269 		.ascii	"tprio_t\000"
 3146      6F5F7400 
 3147              	.LASF56:
 3148 0186 63685F76 		.ascii	"ch_virtual_timer\000"
 3148      69727475 
 3148      616C5F74 
 3148      696D6572 
 3148      00
 3149              	.LASF12:
 3150 0197 6C6F6E67 		.ascii	"long long unsigned int\000"
 3150      206C6F6E 
 3150      6720756E 
 3150      7369676E 
 3150      65642069 
 3151              	.LASF20:
 3152 01ae 636E745F 		.ascii	"cnt_t\000"
 3152      7400
 3153              	.LASF107:
 3154 01b4 5F5F6675 		.ascii	"__func__.5650\000"
 3154      6E635F5F 
 3154      2E353635 
 3154      3000
 3155              	.LASF103:
 3156 01c2 63685379 		.ascii	"chSysUnlock\000"
 3156      73556E6C 
 3156      6F636B00 
 3157              	.LASF27:
 3158 01ce 705F6E65 		.ascii	"p_newer\000"
ARM GAS  /tmp/cc1d6xpg.s 			page 83


 3158      77657200 
 3159              	.LASF102:
 3160 01d6 76616C75 		.ascii	"value\000"
 3160      6500
 3161              	.LASF63:
 3162 01dc 63685F76 		.ascii	"ch_virtual_timers_list\000"
 3162      69727475 
 3162      616C5F74 
 3162      696D6572 
 3162      735F6C69 
 3163              	.LASF22:
 3164 01f3 74687265 		.ascii	"thread_t\000"
 3164      61645F74 
 3164      00
 3165              	.LASF81:
 3166 01fc 7264796D 		.ascii	"rdymsg\000"
 3166      736700
 3167              	.LASF79:
 3168 0203 6F666673 		.ascii	"offset\000"
 3168      657400
 3169              	.LASF104:
 3170 020a 5F426F6F 		.ascii	"_Bool\000"
 3170      6C00
 3171              	.LASF91:
 3172 0210 63685F6D 		.ascii	"ch_mutex\000"
 3172      75746578 
 3172      00
 3173              	.LASF99:
 3174 0219 63685379 		.ascii	"chSysLock\000"
 3174      734C6F63 
 3174      6B00
 3175              	.LASF29:
 3176 0223 705F6E61 		.ascii	"p_name\000"
 3176      6D6500
 3177              	.LASF59:
 3178 022a 76745F64 		.ascii	"vt_delta\000"
 3178      656C7461 
 3178      00
 3179              	.LASF40:
 3180 0233 74687265 		.ascii	"thread_reference_t\000"
 3180      61645F72 
 3180      65666572 
 3180      656E6365 
 3180      5F7400
 3181              	.LASF64:
 3182 0246 76745F6C 		.ascii	"vt_lasttime\000"
 3182      61737474 
 3182      696D6500 
 3183              	.LASF15:
 3184 0252 74737461 		.ascii	"tstate_t\000"
 3184      74655F74 
 3184      00
 3185              	.LASF28:
 3186 025b 705F6F6C 		.ascii	"p_older\000"
 3186      64657200 
 3187              	.LASF30:
 3188 0263 705F7374 		.ascii	"p_state\000"
ARM GAS  /tmp/cc1d6xpg.s 			page 84


 3188      61746500 
 3189              	.LASF5:
 3190 026b 75696E74 		.ascii	"uint8_t\000"
 3190      385F7400 
 3191              	.LASF39:
 3192 0273 705F6D70 		.ascii	"p_mpool\000"
 3192      6F6F6C00 
 3193              	.LASF37:
 3194 027b 705F6D74 		.ascii	"p_mtxlist\000"
 3194      786C6973 
 3194      7400
 3195              	.LASF42:
 3196 0285 63685F74 		.ascii	"ch_thread\000"
 3196      68726561 
 3196      6400
 3197              	.LASF65:
 3198 028f 73797374 		.ascii	"system_debug_t\000"
 3198      656D5F64 
 3198      65627567 
 3198      5F7400
 3199              	.LASF10:
 3200 029e 6C6F6E67 		.ascii	"long long int\000"
 3200      206C6F6E 
 3200      6720696E 
 3200      7400
 3201              	.LASF48:
 3202 02ac 725F7175 		.ascii	"r_queue\000"
 3202      65756500 
 3203              	.LASF51:
 3204 02b4 725F6E65 		.ascii	"r_newer\000"
 3204      77657200 
 3205              	.LASF18:
 3206 02bc 6D73675F 		.ascii	"msg_t\000"
 3206      7400
 3207              	.LASF110:
 3208 02c2 63684D73 		.ascii	"chMsgWait\000"
 3208      67576169 
 3208      7400
 3209              	.LASF77:
 3210 02cc 636F6E74 		.ascii	"context\000"
 3210      65787400 
 3211              	.LASF31:
 3212 02d4 705F666C 		.ascii	"p_flags\000"
 3212      61677300 
 3213              	.LASF55:
 3214 02dc 76697274 		.ascii	"virtual_timer_t\000"
 3214      75616C5F 
 3214      74696D65 
 3214      725F7400 
 3215              	.LASF106:
 3216 02ec 71756575 		.ascii	"queue_fifo_remove\000"
 3216      655F6669 
 3216      666F5F72 
 3216      656D6F76 
 3216      6500
 3217              	.LASF52:
 3218 02fe 725F6F6C 		.ascii	"r_older\000"
ARM GAS  /tmp/cc1d6xpg.s 			page 85


 3218      64657200 
 3219              	.LASF67:
 3220 0306 70616E69 		.ascii	"panic_msg\000"
 3220      635F6D73 
 3220      6700
 3221              	.LASF111:
 3222 0310 5F5F6675 		.ascii	"__func__.6346\000"
 3222      6E635F5F 
 3222      2E363334 
 3222      3600
 3223              	.LASF35:
 3224 031e 705F6D73 		.ascii	"p_msg\000"
 3224      6700
 3225              	.LASF14:
 3226 0324 746D6F64 		.ascii	"tmode_t\000"
 3226      655F7400 
 3227              	.LASF72:
 3228 032c 6D61696E 		.ascii	"mainthread\000"
 3228      74687265 
 3228      616400
 3229              	.LASF13:
 3230 0337 7274636E 		.ascii	"rtcnt_t\000"
 3230      745F7400 
 3231              	.LASF112:
 3232 033f 5F5F6675 		.ascii	"__func__.6355\000"
 3232      6E635F5F 
 3232      2E363335 
 3232      3500
 3233              	.LASF38:
 3234 034d 705F7265 		.ascii	"p_realprio\000"
 3234      616C7072 
 3234      696F00
 3235              	.LASF3:
 3236 0358 73686F72 		.ascii	"short int\000"
 3236      7420696E 
 3236      7400
 3237              	.LASF53:
 3238 0362 725F6375 		.ascii	"r_current\000"
 3238      7272656E 
 3238      7400
 3239              	.LASF36:
 3240 036c 705F6570 		.ascii	"p_epending\000"
 3240      656E6469 
 3240      6E6700
 3241              	.LASF92:
 3242 0377 6D5F7175 		.ascii	"m_queue\000"
 3242      65756500 
 3243              	.LASF7:
 3244 037f 6C6F6E67 		.ascii	"long int\000"
 3244      20696E74 
 3244      00
 3245              	.LASF78:
 3246 0388 706F7274 		.ascii	"port_intctx\000"
 3246      5F696E74 
 3246      63747800 
 3247              	.LASF113:
 3248 0394 49544D5F 		.ascii	"ITM_RxBuffer\000"
ARM GAS  /tmp/cc1d6xpg.s 			page 86


 3248      52784275 
 3248      66666572 
 3248      00
 3249              	.LASF69:
 3250 03a1 63685F73 		.ascii	"ch_system\000"
 3250      79737465 
 3250      6D00
 3251              	.LASF101:
 3252 03ab 71756575 		.ascii	"queue_insert\000"
 3252      655F696E 
 3252      73657274 
 3252      00
 3253              	.LASF100:
 3254 03b8 5F5F7365 		.ascii	"__set_BASEPRI\000"
 3254      745F4241 
 3254      53455052 
 3254      4900
 3255              	.LASF23:
 3256 03c6 705F6E65 		.ascii	"p_next\000"
 3256      787400
 3257              	.LASF11:
 3258 03cd 75696E74 		.ascii	"uint64_t\000"
 3258      36345F74 
 3258      00
 3259              	.LASF26:
 3260 03d6 705F6374 		.ascii	"p_ctx\000"
 3260      7800
 3261              	.LASF70:
 3262 03dc 726C6973 		.ascii	"rlist\000"
 3262      7400
 3263              	.LASF118:
 3264 03e2 63685363 		.ascii	"chSchGoSleepS\000"
 3264      68476F53 
 3264      6C656570 
 3264      5300
 3265              	.LASF24:
 3266 03f0 705F7072 		.ascii	"p_prev\000"
 3266      657600
 3267              	.LASF74:
 3268 03f7 73697A65 		.ascii	"sizetype\000"
 3268      74797065 
 3268      00
 3269              	.LASF16:
 3270 0400 74726566 		.ascii	"trefs_t\000"
 3270      735F7400 
 3271              	.LASF9:
 3272 0408 6C6F6E67 		.ascii	"long unsigned int\000"
 3272      20756E73 
 3272      69676E65 
 3272      6420696E 
 3272      7400
 3273              	.LASF46:
 3274 041a 72656164 		.ascii	"ready_list_t\000"
 3274      795F6C69 
 3274      73745F74 
 3274      00
 3275              	.LASF6:
ARM GAS  /tmp/cc1d6xpg.s 			page 87


 3276 0427 696E7433 		.ascii	"int32_t\000"
 3276      325F7400 
 3277              	.LASF85:
 3278 042f 77747365 		.ascii	"wtsemp\000"
 3278      6D7000
 3279              	.LASF96:
 3280 0436 6D757465 		.ascii	"mutex_t\000"
 3280      785F7400 
 3281              	.LASF2:
 3282 043e 756E7369 		.ascii	"unsigned char\000"
 3282      676E6564 
 3282      20636861 
 3282      7200
 3283              	.LASF62:
 3284 044c 76697274 		.ascii	"virtual_timers_list_t\000"
 3284      75616C5F 
 3284      74696D65 
 3284      72735F6C 
 3284      6973745F 
 3285              	.LASF32:
 3286 0462 705F7265 		.ascii	"p_refs\000"
 3286      667300
 3287              	.LASF108:
 3288 0469 63684D73 		.ascii	"chMsgReleaseS\000"
 3288      6752656C 
 3288      65617365 
 3288      5300
 3289              	.LASF105:
 3290 0477 63684D73 		.ascii	"chMsgIsPendingI\000"
 3290      67497350 
 3290      656E6469 
 3290      6E674900 
 3291              	.LASF120:
 3292 0487 63685363 		.ascii	"chSchWakeupS\000"
 3292      6857616B 
 3292      65757053 
 3292      00
 3293              	.LASF57:
 3294 0494 76745F6E 		.ascii	"vt_next\000"
 3294      65787400 
 3295              	.LASF116:
 3296 049c 2F686F6D 		.ascii	"/home/sylvain/Documents/TelecomRobotics/ChibiOS_16."
 3296      652F7379 
 3296      6C766169 
 3296      6E2F446F 
 3296      63756D65 
 3297 04cf 312E372F 		.ascii	"1.7/demos/STM32/RT-STM32F302R8-NUCLEO\000"
 3297      64656D6F 
 3297      732F5354 
 3297      4D33322F 
 3297      52542D53 
 3298              	.LASF68:
 3299 04f5 63685F73 		.ascii	"ch_system_t\000"
 3299      79737465 
 3299      6D5F7400 
 3300              	.LASF84:
 3301 0501 77747472 		.ascii	"wttrp\000"
ARM GAS  /tmp/cc1d6xpg.s 			page 88


 3301      7000
 3302              	.LASF94:
 3303 0507 6D5F6E65 		.ascii	"m_next\000"
 3303      787400
 3304              	.LASF1:
 3305 050e 7369676E 		.ascii	"signed char\000"
 3305      65642063 
 3305      68617200 
 3306              	.LASF4:
 3307 051a 73686F72 		.ascii	"short unsigned int\000"
 3307      7420756E 
 3307      7369676E 
 3307      65642069 
 3307      6E7400
 3308              	.LASF50:
 3309 052d 725F6374 		.ascii	"r_ctx\000"
 3309      7800
 3310              	.LASF76:
 3311 0533 73746B61 		.ascii	"stkalign_t\000"
 3311      6C69676E 
 3311      5F7400
 3312              	.LASF60:
 3313 053e 76745F66 		.ascii	"vt_func\000"
 3313      756E6300 
 3314              	.LASF98:
 3315 0546 706F7274 		.ascii	"port_unlock\000"
 3315      5F756E6C 
 3315      6F636B00 
 3316              	.LASF58:
 3317 0552 76745F70 		.ascii	"vt_prev\000"
 3317      72657600 
 3318              	.LASF82:
 3319 055a 65786974 		.ascii	"exitcode\000"
 3319      636F6465 
 3319      00
 3320              		.comm	__gnu_lto_v1,1,1
 3321              		.ident	"GCC: (GNU) 4.7.2"
ARM GAS  /tmp/cc1d6xpg.s 			page 89


DEFINED SYMBOLS
                            *ABS*:00000000 chmsg.c
     /tmp/cc1d6xpg.s:428    .text.chMsgSend:00000000 $t
     /tmp/cc1d6xpg.s:434    .text.chMsgSend:00000000 chMsgSend
     /tmp/cc1d6xpg.s:535    .text.chMsgSend:0000003c $d
     /tmp/cc1d6xpg.s:540    .text.chMsgWait:00000000 $t
     /tmp/cc1d6xpg.s:546    .text.chMsgWait:00000000 chMsgWait
     /tmp/cc1d6xpg.s:633    .text.chMsgWait:00000038 $d
     /tmp/cc1d6xpg.s:638    .text.chMsgRelease:00000000 $t
     /tmp/cc1d6xpg.s:644    .text.chMsgRelease:00000000 chMsgRelease
                            *COM*:00000001 __gnu_lto_v1
                     .debug_frame:00000010 $d
     /tmp/cc1d6xpg.s:637    .text.chMsgWait:0000003c $t

UNDEFINED SYMBOLS
chSchGoSleepS
chSchReadyI
ch
chSchWakeupS
