ARM GAS  /tmp/ccV5D8qL.s 			page 1


   1              		.syntax unified
   2              		.cpu cortex-m4
   3              		.fpu softvfp
   4              		.eabi_attribute 20, 1
   5              		.eabi_attribute 21, 1
   6              		.eabi_attribute 23, 3
   7              		.eabi_attribute 24, 1
   8              		.eabi_attribute 25, 1
   9              		.eabi_attribute 26, 1
  10              		.eabi_attribute 30, 2
  11              		.eabi_attribute 34, 1
  12              		.eabi_attribute 18, 4
  13              		.thumb
  14              		.file	"chtm.c"
  15              		.text
  16              	.Ltext0:
  17              		.section	.gnu.lto_.jmpfuncs.e7623a7c42e0af74,"",%progbits
  18 0000 789C6362 		.ascii	"x\234cb`d`g\300\016\004\2404+\003###\023#3P)#\003\013"
  18      60646067 
  18      C00E04A0 
  18      342B0323 
  18      23231323 
  19 001a 33030004 		.ascii	"3\003\000\004n\0002"
  19      6E0032
  20              		.text
  21              		.section	.gnu.lto_.inline.e7623a7c42e0af74,"",%progbits
  22 0000 789C6362 		.ascii	"x\234cb`d\340e\300\016\022\2414+\003\003'\007#\003\023"
  22      6064E065 
  22      C00E12A1 
  22      342B0303 
  22      27072303 
  23 0015 DB073D06 		.ascii	"\333\007=\006\236\011~L@-\254,\014\014L\314;\304\031"
  23      9E097E4C 
  23      402DAC2C 
  23      0C0C4CCC 
  23      3BC419
  24 0028 D83BD499 		.ascii	"\330;\324\231\030\230\030$\305\201|\205\266\317\214"
  24      18981824 
  24      C5817C85 
  24      B6CF8C
  25 0037 0C426D65 		.ascii	"\014BmeL\014\314\022\002\212@\015B\027z\030\031\330"
  25      4C0CCC12 
  25      028A400D 
  25      42177A18 
  25      19D8
  26 0049 16C80355 		.ascii	"\026\310\003Up3\000uAH\026\006\0111\240j\331s\267\031"
  26      70330075 
  26      41481606 
  26      0931A06A 
  26      D973B719 
  27 005d 1984DFD5 		.ascii	"\031\204\337\325210\000\000s5\015+"
  27      32313000 
  27      0073350D 
  27      2B
  28              		.text
  29              		.section	.gnu.lto_.pureconst.e7623a7c42e0af74,"",%progbits
  30 0000 789C6362 		.ascii	"x\234cb`d`f``\340f\200\000V\006)F)&)f\011\026)\000\004"
ARM GAS  /tmp/ccV5D8qL.s 			page 2


  30      60646066 
  30      6060E066 
  30      80005606 
  30      29462926 
  31 001b 6300A1   		.ascii	"c\000\241"
  32              		.text
  33              		.section	.gnu.lto_chTMObjectInit.e7623a7c42e0af74,"",%progbits
  34 0000 789C6362 		.ascii	"x\234cb`\004BL \011\304\347\201\022\012@\232\221\231"
  34      6004424C 
  34      2009C4E7 
  34      81120A40 
  34      9A9199
  35 0013 819169C2 		.ascii	"\201\221i\3029\006\206F\005&FF\020\003\250\245\236\211"
  35      39068646 
  35      05264646 
  35      1003A8A5 
  35      9E89
  36 0025 B13E14A2 		.ascii	"\261>\024\242\363\324\311\305\372G\346\262\355g:\360"
  36      F3D4C9C5 
  36      FA47E6B2 
  36      ED673AF0 
  37 0035 E07FBD0A 		.ascii	"\340\177\275\012\303\342\206\206I\023\232\033<R\031"
  37      C3E28686 
  37      49139A1B 
  37      3C5219
  38 0044 19981864 		.ascii	"\031\230\030d\031\031\342\031\031\316\314y\306$\311"
  38      1919E219 
  38      19CECC79 
  38      C624C9
  39 0053 90CAC808 		.ascii	"\220\312\310\0104\017D31\260\2004\002U0p02\3062.`T\001"
  39      340F4433 
  39      31B08034 
  39      02553070 
  39      3032C632 
  40 006b F159195A 		.ascii	"\361Y\031Z\032\032\004@\032\300 \020D\203\254\013\002"
  40      1A1A0440 
  40      1AC02010 
  40      4483AC0B 
  40      02
  41 007c 6A003198 		.ascii	"j\0001\230O14Y\334\231\263\016\250c\021#+\2036\203V"
  41      4F313459 
  41      DC99B30E 
  41      A8631123 
  41      2B833683 
  42 0091 2A2333F3 		.ascii	"*#3\363,\206\231\214\251\214,L\311\214\214\222`#\031"
  42      2C86998C 
  42      A98C2C4C 
  42      C98C8C92 
  42      602319
  43 00a4 18328038 		.ascii	"\0302\2008\216\021\356\225T\240\342\377@\300\017r,\320"
  43      8E11EE95 
  43      54A0E2FF 
  43      40C00F72 
  43      2CD0
  44 00b6 8827441B 		.ascii	"\210'D\033\301\210l\004\003T\373\033\242\2653a\323\376"
  44      C1886C04 
  44      0354FB1B 
ARM GAS  /tmp/ccV5D8qL.s 			page 3


  44      A2B53361 
  44      D3FE
  45 00c8 05553B1B 		.ascii	"\005U;\033n\355\314\330\264\377A\325\316\216[;\013B"
  45      6EEDCCD8 
  45      B4FF41D5 
  45      CE8E5B3B 
  45      0B42
  46 00da 3B079875 		.ascii	";\007\230u\216\201\021\030O\020\3150\020\010\362#0l"
  46      8E811118 
  46      4F10CD30 
  46      1008F223 
  46      306C
  47 00ec 414E95D2 		.ascii	"AN\225\322\323\323\207\240\374b\375\242\022\375\342"
  47      D3D387A0 
  47      FC62FDA2 
  47      12FDE2
  48 00fb A264FDE4 		.ascii	"\242d\375\344\214\222\\\275d\006\346\222\334\002\000"
  48      8C925CBD 
  48      6406E692 
  48      DC0200
  49 010a D2B75D86 		.ascii	"\322\267]\206"
  50              		.text
  51              		.section	.gnu.lto_chTMStartMeasurementX.e7623a7c42e0af74,"",%progbits
  52 0000 789C6D50 		.ascii	"x\234mPMK\002Q\024=\367=\235Z\245[\203H\302M\0113\313"
  52      4D4B0251 
  52      143DF73D 
  52      9D5AA55B 
  52      8348C24D 
  53 0017 D6D1C682 		.ascii	"\326\321\306\202\026\012m\002s1\014\314F\224q\210v>"
  53      160A6D02 
  53      73310CCC 
  53      46947188 
  53      763E
  54 0029 CD1F20ED 		.ascii	"\315\037 \355ra\212\320\302?Q\024\264\230\205\253\026"
  54      72618AD0 
  54      C23F5114 
  54      B49885AB 
  54      16
  55 003a 2D852022 		.ascii	"-\205 \"\374\017v\357(\221\325}\037\367\362\3569\347"
  55      FC0F76EF 
  55      2891D57D 
  55      1FF7F2EE 
  55      39E7
  56 004c 1DAE02F1 		.ascii	"\035\256\002\361\372\033\031>>7\2169\223\006\251\356"
  56      FA1B193E 
  56      3E378E39 
  56      9306A9EE 
  57 005c 04686515 		.ascii	"\004he\025\221\024Li*j\236\306L\332\301\320\230^\367"
  57      91144C69 
  57      2A6A9EC6 
  57      4CDAC1D0 
  57      985EF7
  58 006f A95D684F 		.ascii	"\251]hO\347\363mO^+\204\350\363-\225\201G\204,$+$V\377"
  58      E7F36D4F 
  58      5E2B84E8 
  58      F32D9581 
  58      47842C24 
ARM GAS  /tmp/ccV5D8qL.s 			page 4


  59 0087 F848CDFA 		.ascii	"\370H\315\372\326\275z\230\316\2339\214\214\271\356"
  59      D6BD7A98 
  59      CE9B398C 
  59      8CB9EE
  60 0096 5E998247 		.ascii	"^\231\202GZa\213D\340\245\377\256\377\021`\004\326\025"
  60      5A618B44 
  60      E0A5FFAE 
  60      FF116004 
  60      D615
  61 00a8 95694839 		.ascii	"\225iH9X(\323\200\035p$\3211&-\3048\212\222\305l\211"
  61      5828D380 
  61      1D7024D1 
  61      31262DC4 
  61      388A92C5 
  62 00be 8952E808 		.ascii	"\211R\350\010\217gw\343\333g\275D.S\231F\224\374a\313"
  62      8F6777E3 
  62      DB67BD44 
  62      2E539946 
  62      94FC61CB 
  63 00d2 252B8FB1 		.ascii	"%+\217\261\351\220G\011\335\303M+\355QR\211\001\013"
  63      E9904709 
  63      DDC34D2B 
  63      ED515289 
  63      010B
  64 00e4 6660CC06 		.ascii	"f`\314\006\0265\342\301\235\313\365\252cf\204\366Q4"
  64      1635E2C1 
  64      9DCBF5AA 
  64      636684F6 
  64      5134
  65 00f6 D30BC13C 		.ascii	"\323\013\301<\366x\022\"\300Bk\312\245XB\200~L\243\357"
  65      F6781222 
  65      C0426BCA 
  65      A5584280 
  65      7E4CA3EF 
  66 010a DF800988 		.ascii	"\337\200\011\210G\261j\244(\010\266\315\346\261i\333"
  66      47B16AA4 
  66      2808B6CD 
  66      E6B169DB 
  67 011a CE62D71A 		.ascii	"\316b\327\032N\020:\215\300u\\?\254\332.tX\255\357\376"
  67      4E103A8D 
  67      C0755C3F 
  67      ACDA2E74 
  67      58ADEFFE 
  68 012e 6AD76B41 		.ascii	"j\327kA\330p\016J'\207'\227\214sk\201W\271\330\257\332"
  68      D8700E4A 
  68      27872797 
  68      8C736B81 
  68      57B9D8AF 
  69 0143 3EBE007C 		.ascii	">\276\000|E_,"
  69      455F2C
  70              		.text
  71              		.section	.gnu.lto_chTMStopMeasurementX.e7623a7c42e0af74,"",%progbits
  72 0000 789C9D55 		.ascii	"x\234\235UMH\033A\024~o&\273\3715\306\336\024\332\212"
  72      4D481B41 
  72      147E6F26 
  72      BBF935C6 
  72      DE14DA8A 
ARM GAS  /tmp/ccV5D8qL.s 			page 5


  73 0014 08B61592 		.ascii	"\010\266\025\222\336zm\351E\021)\012\036*\244\036\302"
  73      DE7A6DE9 
  73      4511290A 
  73      1E2AA41E 
  73      C2
  74 0025 4A5AB029 		.ascii	"JZ\260)&\264\245\007\263F\017\351Mzi\352\305X\253M\355"
  74      26B4A507 
  74      B3460FE9 
  74      4D7A69EA 
  74      C558AB4D 
  75 003a CF552942 		.ascii	"\317U)BK\265\"\"\236\002z\350A\212\005\017\236[\012"
  75      4BB52222 
  75      9E027AE8 
  75      418A050F 
  75      9E5B0A
  76 004d 81F4CDCC 		.ascii	"\201\364\315\314\256FS\315\222M2\337\354\314|\337|\363"
  76      AE4653CD 
  76      924D32DF 
  76      ECCC7CDF 
  76      7CF3
  77 005f DECC8401 		.ascii	"\336\314\204\001\322\247\372\351\241\337]\017\300\000"
  77      D2A7FAE9 
  77      A1DF5D0F 
  77      C000
  78 006d 21BA01D9 		.ascii	"!\272\001\331\3246\300x+c<\333\001\346\025\227(\257"
  78      D436C078 
  78      2B633CDB 
  78      01E61597 
  78      28AF
  79 007f 7374A966 		.ascii	"st\251f\027\323\212\021j\326W.Q\263\206\272j\326\021"
  79      17D38A11 
  79      6AD6572E 
  79      51B386BA 
  79      6AD611
  80 0092 45852648 		.ascii	"E\205&H3\356\322tL\017\310\271\002m0k\232/\246V3]\231"
  80      33EED274 
  80      4C0FC8B9 
  80      026D306B 
  80      9A2FA656 
  81 00a9 BD72F9B2 		.ascii	"\275r\371\262!Z\207\0206\237\31774\203\201\010\255 "
  81      215A8710 
  81      369FCF37 
  81      34838108 
  81      AD20
  82 00bb 9081EBA4 		.ascii	"\220\201\353\244+\311\233\256\340q\311+\315\214\325"
  82      2BC99BAE 
  82      E071C92B 
  82      CD8CD5
  83 00ca A6554F57 		.ascii	"\246UOW\332\361\327C\333w;`\345W3Y\2367K\34527\320%"
  83      DAF1D743 
  83      DB773B60 
  83      E5573359 
  83      9E374BE5 
  84 00e2 793FFEF8 		.ascii	"y?\376\370\024\361\246E\3648$\036h\365\361\226\235\360"
  84      14F1A645 
  84      F438241E 
  84      68F5F196 
ARM GAS  /tmp/ccV5D8qL.s 			page 6


  84      9DF0
  85 00f4 AA96575C 		.ascii	"\252\226W\\\272POT6\264zX9'\261\254bm-\351\365\320\342"
  85      BA504F54 
  85      36B47A58 
  85      3927B1AC 
  85      626D2DE9 
  86 010b E7924A33 		.ascii	"\347\222J3\277y\261\240\177a_\367\312\351v\230\023\012"
  86      BF79B1A0 
  86      7F615FF7 
  86      CAE97698 
  86      130A
  87 011d 13669781 		.ascii	"\023f\227\201\032\203\213\250\266\331O\376\037\011\032"
  87      1A838BA8 
  87      B6D94FFE 
  87      1F091A
  88 012c 012D0CA2 		.ascii	"\001-\014\242\230\3076\340\030\305\017\330\016nz\237"
  88      98C736E0 
  88      18C50FD8 
  88      0E6E7A9F 
  89 013c A5770FE1 		.ascii	"\245w\017\341{B/\341\"\241\217\360\035\241\237\260@"
  89      7B422FE1 
  89      22A18FF0 
  89      1DA19FB0 
  89      40
  90 014d 18207C4B 		.ascii	"\030 |K\330@\270@\030$\234'l$|C\030\"\234#l\"|MH\217"
  90      D840B840 
  90      18249C27 
  90      6C247C43 
  90      18229C23 
  91 0167 0693A619 		.ascii	"\006\223\246\031\022\206\344\323'P\034\263~2$*|\023"
  91      1286E4D3 
  91      27501CB3 
  91      7E32242A 
  91      7C13
  92 0179 BE0D2E2C 		.ascii	"\276\015.,\316\254sk\244\005Q\374DN\217\237\030\272"
  92      CEAC736B 
  92      A40551FC 
  92      444E8F9F 
  92      18BA
  93 018b 3B61D19C 		.ascii	";a\321\234D\003u>\015\257\306C\006\272\231X\230\007"
  93      4403753E 
  93      0DAFC643 
  93      06BA9958 
  93      9807
  94 019d CCBC6906 		.ascii	"\314\274i\006A\325A^\020\367D\261\313%s\0232\203\342"
  94      41D5415E 
  94      10F744B1 
  94      CB257313 
  94      3283E2
  95 01b0 AC2AC518 		.ascii	"\254*\305\030\262N\270Fg\221K\360\012-\322\364\261g"
  95      B24EB846 
  95      67914BF0 
  95      0A2DD2F4 
  95      B167
  96 01c2 F0D7F418 		.ascii	"\360\327\364\030\350\307\373\352\216\021r\376#9*\017"
  96      E8C7FBEA 
  96      8E1172FE 
ARM GAS  /tmp/ccV5D8qL.s 			page 7


  96      23392A0F 
  97 01d2 FCB246B6 		.ascii	"\374\262F\266\013Jx\035\230e\323J!%\300J\241\026\305"
  97      0B4A781D 
  97      9865D34A 
  97      2125C04A 
  97      A116C5
  98 01e5 8F34D2C1 		.ascii	"\2174\322\301i\217\211[\201\224\266\012\017\316\320"
  98      698F895B 
  98      8194B60A 
  98      0FCED0
  99 01f4 E20C7AD0 		.ascii	"\342\014z\320\231\224\273\266\324\035\207RL\005nk\007"
  99      9994BBB6 
  99      D41D8752 
  99      4C056E6B 
  99      07
 100 0205 4FE48547 		.ascii	"O\344\205G\3613%6\212\313\262\\\222\345\351Lydh\003"
 100      F1332536 
 100      8ACBB25C 
 100      92E5E94C 
 100      79646803 
 101 0219 56681B18 		.ascii	"Vh\033\030\255\261Yn<;\232\334\036\273\011\023\351\034"
 101      ADB1596E 
 101      3C3B9ADC 
 101      1EBB0913 
 101      E91C
 102 022b 69AEC8CC 		.ascii	"i\256\310\314x\211*\006\006\3440\232\276\033T\227\003"
 102      78892A06 
 102      06E4309A 
 102      BE1B5497 
 102      03
 103 023c BDB89CD9 		.ascii	"\275\270\234\331\253\\\027\227\202\266\246\317\312\366"
 103      AB5C1797 
 103      82B6A6CF 
 103      CAF6
 104 024a 995C5785 		.ascii	"\231\\W\205\227,\337\320l\242\237\302It\253=\347\265"
 104      972CDFD0 
 104      6CA29FC2 
 104      4974AB3D 
 104      E7B5
 105 025c DB03B24B 		.ascii	"\333\003\262K\205\247{\227W\030<\177\022e0\240\014\322"
 105      85A77B97 
 105      57183C7F 
 105      126530A0 
 105      0CD2
 106 026e ED6AEB35 		.ascii	"\355j\3535Hn\360l\256\006\326\177\036\021\017\371\301"
 106      486EF06C 
 106      AE06D67F 
 106      1E110FF9 
 106      C1
 107 027f 91C1A0A5 		.ascii	"\221\301\240\2456\221^>jk$=\352\251\016^m}\"+o\373;"
 107      36915E3E 
 107      6A6B243D 
 107      EAA90E5E 
 107      6D7D222B 
 108 0296 7E5B2E54 		.ascii	"~[.Tk]\272\035\274\357\260\366\013\343\0251\012\035"
 108      6B5DBA1D 
 108      BCEFB0F6 
ARM GAS  /tmp/ccV5D8qL.s 			page 8


 108      0BE31531 
 108      0A1D
 109 02a8 6F887E91 		.ascii	"o\210~\221\237l\007\027\236\016_\372\234E\214\224\263"
 109      9F6C0717 
 109      9E0E5FFA 
 109      9C458C94 
 109      B3
 110 02b9 DC0E9952 		.ascii	"\334\016\231Rq\331\027Ff\260t\354\261\251\226\222\273"
 110      71D91746 
 110      66B074EC 
 110      B1A99692 
 110      BB
 111 02ca C2E3FE09 		.ascii	"\302\343\376\011\217M\225\036\211P\214H\217k\2711g\036"
 111      8F4D951E 
 111      89508C48 
 111      8F6BB931 
 111      671E
 112 02dc DDD51E75 		.ascii	"\335\325\036u\345q\033\220n\347\223'\243O\\\"\324I["
 112      E5711B90 
 112      6EE79327 
 112      A34F5C22 
 112      D4495B
 113 02ef 075AC2E1 		.ascii	"\007Z\302\341\210\372&\222\221\321T$9\032\213\304\342"
 113      88FA2692 
 113      91D15424 
 113      391A8BC4 
 113      E2
 114 0300 A991700C 		.ascii	"\251\221p\014xj\344\321\325S\335\217\022\243\251d\344"
 114      786AE4D1 
 114      D553DD8F 
 114      12A3A964 
 114      E4
 115 0311 567FEFED 		.ascii	"V\177\357\355\336\2474.\226\0305\206\036\337\030\011"
 115      DEA7342E 
 115      96183586 
 115      1EDF1809 
 116 0321 C7813F4C 		.ascii	"\307\201?L<\321\023\303\303I#\365\017\304n\261A"
 116      3CD113C3 
 116      C34923F5 
 116      0FC46EB1 
 116      41
 117              		.text
 118              		.section	.gnu.lto__tm_init.e7623a7c42e0af74,"",%progbits
 119 0000 789CAD53 		.ascii	"x\234\255SMk\023Q\024=\347\275LZ?\353JlA\014u\247\220"
 119      4D6B1351 
 119      143DE7BD 
 119      4C5A3FEB 
 119      4A6C410C 
 120 0017 2CDCF813 		.ascii	",\334\370\023\352\262\202 B\232\3050P\205\240\264\331"
 120      EAB28220 
 120      429AC530 
 120      5085A0B4 
 120      D9
 121 0028 D84D9ED1 		.ascii	"\330M\236\321E\226\241\273\214.Z\013\322\"(t\341\302"
 121      4596A1BB 
 121      8C2E5A0B 
 121      D2222874 
ARM GAS  /tmp/ccV5D8qL.s 			page 9


 121      E1C2
 122 003a 85061517 		.ascii	"\205\006\025\027A\372\013\\\024\3512\313l\204\300\370"
 122      41FA0B5C 
 122      14E932CB 
 122      6C84C0F8 
 123 004a EEBC3789 		.ascii	"\356\2747\211CbW\276\371\270wf\316\271\367\236{\337"
 123      436257BE 
 123      F9B87766 
 123      CEB9F79E 
 123      7BDF
 124 005c 28D01ED3 		.ascii	"(\320\036\323k\321^\007\032\270n-5\250:G\300\263\222"
 124      6BD15E07 
 124      1AB86E2D 
 124      35A83A47 
 124      C0B392
 125 006f 22C5B194 		.ascii	"\"\305\261\224\246b\363^\312T\313\3305f\273\363\265"
 125      A662F35E 
 125      CA54CBD8 
 125      3566BBF3 
 125      B5
 126 0080 B5D23A4E 		.ascii	"\265\322:N\222k\221\274\255\021\375\367{\227\027\021"
 126      926B91BC 
 126      AD11FDF7 
 126      7B971711 
 127 0090 912841AC 		.ascii	"\221(A\254B!\237Cx\275N\307\230\266\3361\243$\321\021"
 127      42219F43 
 127      78BD4EC7 
 127      98B6DE31 
 127      A324D111 
 128 00a4 B5C2550A 		.ascii	"\265\302U\012y\330\375HG\356\321\263\257\344\331\203"
 128      79D8FD48 
 128      47EED1B3 
 128      AFE4D983 
 129 00b4 EE077E7B 		.ascii	"\356\007~{Y\374\254z\307I\023\270HT\271\303e\371\024"
 129      59FCAC7A 
 129      C74913B8 
 129      4854B9C3 
 129      65F914
 130 00c7 E0853197 		.ascii	"\340\2051\227X\345\256}\256yy\253b\245\370\2736\226"
 130      58E5AE7D 
 130      AE7979AB 
 130      62A5F8BB 
 130      3696
 131 00d9 38BA8FD6 		.ascii	"8\272\217\326\355\237\361k\213\333c\200\233\270\021"
 131      ED9FF16B 
 131      8BDB6380 
 131      9BB811
 132 00e8 B1A05313 		.ascii	"\261\240S\023\350\030]F,\252-\3746\363\021\347\370\320"
 132      E8185D46 
 132      2CAA2DFC 
 132      36F311E7 
 132      F8D0
 133 00fa F5494A99 		.ascii	"\365IJ\231K\033\000\254\311\355~\352X\257\255\375g\227"
 133      4B1B00AC 
 133      C9ED7EEA 
 133      58AFADFD 
 133      6797
ARM GAS  /tmp/ccV5D8qL.s 			page 10


 134 010c EE3B543B 		.ascii	"\356;T;p\221}\177\236\233\254?\363\012\245T\345\240"
 134      70917D7F 
 134      9E9BAC3F 
 134      F30AA554 
 134      E5A0
 135 011e BB746A87 		.ascii	"\273tj\207\266\360\324\242\275\220\223\370\215\213\235"
 135      B6F0D4A2 
 135      BD9093F8 
 135      8D8B9D
 136 012d D6FDEA1D 		.ascii	"\326\375\352\035\235\314\211\332}\013r\031'\313\253"
 136      9DCC89DA 
 136      7D0B7219 
 136      27CBAB
 137 013c 7211D644 		.ascii	"r\021\326D\371\372\270\314\304\256\005\037\357\304\306"
 137      F9FAB8CC 
 137      C4AE051F 
 137      EFC4C6
 138 014b ABF2EDA4 		.ascii	"\253\362\355\244\017\031C\377\315\310\262\017\376\205"
 138      0F1943FF 
 138      CDC8B20F 
 138      FE85
 139 0159 2ECC420F 		.ascii	".\314B\017\363\3503ct0\013=\312\243\317\216\321\305"
 139      F3E83363 
 139      74300B3D 
 139      CAA3CF8E 
 139      D1C5
 140 016b 09FA5C8A 		.ascii	"\011\372\\\212\376\201\302 \376\305L\262\037\325y\326"
 140      FE81C220 
 140      FEC54CB2 
 140      1FD579D6 
 141 017b 484EB74F 		.ascii	"HN\267OV\304\013)m\030\177\232ES\247\321lm\017F\361"
 141      56C40B29 
 141      6D187F9A 
 141      4553A7D1 
 141      6C6D0F46 
 142 0190 A1E785E4 		.ascii	"\241\347\205\344\264\364\261\210;\331\350\377\313\246"
 142      B4F4B188 
 142      3BD9E8FF 
 142      CBA6
 143 019e 0AC5EBE3 		.ascii	"\012\305\353\343\313#\237\333e\274\205C\323\266\341"
 143      CB239FDB 
 143      65BC8543 
 143      D3B6E1
 144 01ad 048123C8 		.ascii	"\004\201#\310\277\220\037\376\252\320\354>\2673\307"
 144      BF901FFE 
 144      AAD0EC3E 
 144      B733C7
 145 01bc 52B95C71 		.ascii	"R\271\\q\347\343\315\312F\243\262\271\021V\302\365F"
 145      E7E3CDCA 
 145      46A3B2B9 
 145      1156C2F5 
 145      46
 146 01cd BD1C4235 		.ascii	"\275\034B5\352\272Q\177\362\007\033\015\273:"
 146      EABA517F 
 146      F2071B0D 
 146      BB3A
 147              		.text
ARM GAS  /tmp/ccV5D8qL.s 			page 11


 148              		.section	.gnu.lto_chTMChainMeasurementToX.e7623a7c42e0af74,"",%progbits
 149 0000 789C9D55 		.ascii	"x\234\235UML\023A\024~ogw\013-\320RN\032\177\0101A!"
 149      4D4C1341 
 149      147E6F67 
 149      770B2DD0 
 149      524E1A7F 
 150 0018 69D58B57 		.ascii	"i\325\213W\215\027\214\341\000\011\007I*\207\315\222"
 150      8D178CE1 
 150      00090749 
 150      2A87CD92 
 151 0028 C6044BDA 		.ascii	"\306\004K\332F9\321\245p\350\221x\021\271XD\020+\361"
 151      4639D1A5 
 151      70E89178 
 151      11B95844 
 151      102BF1
 152 003b 668AD1A8 		.ascii	"f\212\321\250\221JL\323p\"\201\203\007L \341`\274zi"
 152      914A4CD3 
 152      70228183 
 152      074C20E1 
 152      60BC7A69 
 153 004f 52DFCCEE 		.ascii	"R\337\314\356\226\376h\273\351\264;\337f\346}\337|\373"
 153      96FE68BB 
 153      E9B43BDF 
 153      66E67DDF 
 153      7CFB
 154 0061 DECCAE04 		.ascii	"\336\314\256\004H\277\372v\227\256\237.\200\011Bt\001"
 154      48BFFA76 
 154      97AE9F2E 
 154      80094274 
 154      01
 155 0072 4A8BBB00 		.ascii	"J\213\273\000s\275\222\304R\375`\\\226y\177\225\241"
 155      73BD92C4 
 155      52FD605C 
 155      96797F95 
 155      A1
 156 0083 6C0ECB92 		.ascii	"l\016\313\222\262\027\244a\365\343\005\032VP5\207UD"
 156      B217A461 
 156      F5E3051A 
 156      56503587 
 156      5544
 157 0095 7E430B24 		.ascii	"~C\013$$&+*&\306\304Z\356>X1\214\345\305\355\344P\362"
 157      24262B2A 
 157      26C6C45A 
 157      EE3E5831 
 157      8CE5C5ED 
 158 00ac B054BAA8 		.ascii	"\260T\272\250\363\321\011\204\374\306\261\367\014\350"
 158      F3D10984 
 158      FCC6B1F7 
 158      0CE8
 159 00ba 88D00B1C 		.ascii	"\210\320\013\034%\220\253]\011\336\223\012\036\023\274"
 159      2590AB5D 
 159      09DE930A 
 159      1E13BC
 160 00c9 E2BEA715 		.ascii	"\342\276\247\025\332\221\313\001+\275\235L\261\264Q"
 160      DA91CB01 
 160      2BBD9D4C 
 160      B1B451
ARM GAS  /tmp/ccV5D8qL.s 			page 12


 161 00d8 2C95988E 		.ascii	",\225\230\216\262\340\375\370\3436\2117-b\233C\342\211"
 161      B2E0FDF8 
 161      E3368937 
 161      2D629B43 
 161      E289
 162 00ea D21A6FCB 		.ascii	"\322\032o\313\011\257\356\361\366\262\376V\262\262\344"
 162      09AFEEF1 
 162      F6B2FE56 
 162      B2B2E4
 163 00f9 242B75AC 		.ascii	"$+u\254BVm\205\026nH*d\326;ro\324\317\322\227\303R\342"
 163      42566D85 
 163      166E482A 
 163      64D63B72 
 163      6FD4CFD2 
 164 0111 12AC7285 		.ascii	"\022\254r\205ycHGE\202\363\310\371\271\314oV/\2015\261"
 164      79634847 
 164      4582F3C8 
 164      F9B9CC6F 
 164      562F8135 
 165 0126 7D22B630 		.ascii	"}\"\2660\360\217\305h^\\\347$\014\341&\021e\302\014"
 165      F08FC568 
 165      5E5CE724 
 165      0CE12611 
 165      65C20C
 166 0139 613B8430 		.ascii	"a;\2040\215}\340&|M\350!\334 \354 |E\330I\270N\350%"
 166      8D7DE026 
 166      7C4DE821 
 166      DC20EC20 
 166      7C45D849 
 167 0151 5C23F411 		.ascii	"\\#\364\021\276$\354&\\%\364\023\276 \354!\\!\244\246"
 167      BE24EC26 
 167      5C25F413 
 167      BE20EC21 
 167      5C21A4A6 
 168 0165 C08261F8 		.ascii	"\300\202a\370\270\025\321F8\362\3631Jf\370\015\313\303"
 168      B815D146 
 168      38F2F331 
 168      4A66F80D 
 168      CBC3
 169 0177 D7F14F99 		.ascii	"\327\361O\231\347;\314\212\264 \204o\311\341i\323\260"
 169      E73BCC8A 
 169      B420846F 
 169      C9E169D3 
 169      B0
 170 0188 7D1032C6 		.ascii	"}\0202\306\002\352\250\262ex6\347\323\321%\361\207j"
 170      02EAA8B2 
 170      657836E7 
 170      D3D125F1 
 170      876A
 171 019a 03236D18 		.ascii	"\003#m\030]`\336\2038\331\367yw\300\0043\017\311;\371"
 171      5D60DE83 
 171      38D9F779 
 171      77C00433 
 171      0FC93BF9 
 172 01ae CD35AFA9 		.ascii	"\3155\257\2518\010\003t\362\270\002)\265K\032\012\015"
 172      38080374 
 172      F2B80229 
ARM GAS  /tmp/ccV5D8qL.s 			page 13


 172      B54B1A0A 
 172      0D
 173 01bf BED28CE0 		.ascii	"\276\322\214\340ay9\200\035\220\212\231\007&\317\252"
 173      61793980 
 173      1D908A99 
 173      0726CFAA 
 174 01cf 2565D7AA 		.ascii	"%e\327\252%\245x\304*\307l\303\202j|C7\224\002\011\306"
 174      25A578C4 
 174      2AC76CC3 
 174      826A7C43 
 174      37940209 
 175 01e4 1C4A3573 		.ascii	"\034J5sER\367\034I\361\301r~\306\013\373X\225~\026\302"
 175      4552F71C 
 175      49F1C172 
 175      7EC60BFB 
 175      58957E16 
 176 01f9 F754BF10 		.ascii	"\367T\277\020fE\377N\364\265\005q\213\\\272+r)\333\271"
 176      6645FF4E 
 176      F4B50571 
 176      8B5CBA2B 
 176      7229DBB9 
 177 020d 346B20D9 		.ascii	"4k \331\261y\230O,\221\346\007\232\324\320CT\036\350"
 177      B179984F 
 177      2C91E607 
 177      9AD4D043 
 177      541EE8
 178 0220 1661BC3C 		.ascii	"\026a\274<`N9\320\013\213\225=\246\353\275l\227\255"
 178      604E39D0 
 178      0B8B953D 
 178      A6EBBD6C 
 178      97AD
 179 0232 D95157D7 		.ascii	"\331QW\327\032.VxI\261\357\212M\354\244\234\022\335"
 179      1A2E5678 
 179      49B1EF8A 
 179      4DECA49C 
 179      12DD
 180 0244 F471C02A 		.ascii	"\364q\300*\2144\0263\215t\232F\350\345h\353y\005\327"
 180      8C341633 
 180      8D749A46 
 180      E8E568EB 
 180      7905D7
 181 0257 F37F2E03 		.ascii	"\363\177.\003\353\333C\304_\354\244l\304g\251\315'\266"
 181      EBDB43C4 
 181      5FECA46C 
 181      C467A9CD 
 181      27B6
 182 0269 CA63DDA4 		.ascii	"\312c\335\244G3\365Ij\256Od\323\333\321\276\307\226"
 182      4733F549 
 182      6AAE4F64 
 182      D3DBD1BE 
 182      C796
 183 027b F3377BAE 		.ascii	"\3637{\256\362\036\371\006\271c\014W\344\310\177Z\370"
 183      F21EF906 
 183      B9630C57 
 183      E4C87F5A 
 183      F8
 184 028c 51BE44AA 		.ascii	"Q\276D\252\237qO\277\236\272\235e\214\224S\314N\231"
ARM GAS  /tmp/ccV5D8qL.s 			page 14


 184      9F714FBF 
 184      9EBA9D65 
 184      8C9453CC 
 184      4E99
 185 029e A922DBE7 		.ascii	"\251\"\333\347?9^<\365\330\323LI\251\360xT\345\261\247"
 185      3F395E3C 
 185      F5D8D34C 
 185      49A9F078 
 185      54E5B1A7 
 186 02b2 D22385ED 		.ascii	"\322#\205\355\005\205\307\334\322\2543\217J\275G\325"
 186      0585C7DC 
 186      D2AC338F 
 186      4ABD47D5 
 187 02c2 F4B80B48 		.ascii	"\364\270\013H\257\344\352\0230\302w\001M\362M~6\020"
 187      AFE4EA13 
 187      30C27701 
 187      4DF24D7E 
 187      3610
 188 02d4 089AFF48 		.ascii	"\010\232\377H,\030\215\007cQ-\250\205\343S\001\015\344"
 188      2C188D07 
 188      63512DA8 
 188      85E35301 
 188      0DE4
 189 02e6 F8D4F435 		.ascii	"\370\324\3645\336]\277R\0234\035\211\306c\301[\243\303"
 189      DE5DBF52 
 189      13341D89 
 189      C663C15B 
 189      A3C3
 190 02f8 B7876728 		.ascii	"\267\207g(Z\213D\365\211G7\246\002a`\024\316\036F\036"
 190      5A8B44F5 
 190      894737A6 
 190      02616014 
 190      CE1E461E 
 191 030c AB91C9C9 		.ascii	"\253\221\311\311\230\036\377\013f\245\234H"
 191      981EFF0B 
 191      66A59C48 
 192              		.text
 193              		.section	.gnu.lto_.cgraph.e7623a7c42e0af74,"",%progbits
 194 0000 789C6362 		.ascii	"x\234cb`d`f``\210`\200\002\246\317\214\365\014\014\023"
 194      60646066 
 194      60608860 
 194      8002A6CF 
 194      8CF50C0C 
 195 0015 CE31D4D7 		.ascii	"\3161\324\327\317\353`d\372\302X\317\210\340}e\254g"
 195      CFEB6064 
 195      FAC258CF 
 195      88E07D65 
 195      AC67
 196 0027 42F03E31 		.ascii	"B\360>1\3263#x\337\030\353Y\340<ffF\206G\017\377\001"
 196      D6332378 
 196      DF18EB59 
 196      E03C6666 
 196      4686470F 
 197 003d 692686A6 		.ascii	"i&\206\246\2667\362\014\000_:\036*"
 197      B637F20C 
 197      005F3A1E 
 197      2A
ARM GAS  /tmp/ccV5D8qL.s 			page 15


 198              		.text
 199              		.section	.gnu.lto_.vars.e7623a7c42e0af74,"",%progbits
 200 0000 789C6362 		.ascii	"x\234cb`d`f```g\200\000\306\357\214\014\014\365\014"
 200      60646066 
 200      60606067 
 200      8000C6EF 
 200      8C0C0CF5 
 201 0015 0007D001 		.ascii	"\000\007\320\001\206"
 201      86
 202              		.text
 203              		.section	.gnu.lto_.refs.e7623a7c42e0af74,"",%progbits
 204 0000 789C6362 		.ascii	"x\234cb`d`f``\340a\200\000F&F\006&ff\260\030\000\002"
 204      60646066 
 204      6060E061 
 204      80004626 
 204      46062666 
 205 0019 150022   		.ascii	"\025\000\""
 206              		.text
 207              		.section	.gnu.lto_.statics.e7623a7c42e0af74,"",%progbits
 208 0000 789C6362 		.ascii	"x\234cb`d`b\300\016@\342\214\020&\000\000\375\000\011"
 208      60646062 
 208      C00E40E2 
 208      8C102600 
 208      00FD0009 
 209              		.text
 210              		.section	.gnu.lto_.decls.e7623a7c42e0af74,"",%progbits
 211 0000 789CB55B 		.ascii	"x\234\265[{t\025\325\271\3373\347\235`\240(J\255\253"
 211      7B7415D5 
 211      B9DF33E7 
 211      9D60A028 
 211      4AADAB
 212 0013 A477C95D 		.ascii	"\244w\311]^W\345\360j\245\275WkW\244\205[y,\300[\272"
 212      5E57E5F0 
 212      6AA5BD57 
 212      6B57A485 
 212      5B792CC0 
 213 0029 D63DEBDC 		.ascii	"\326=\353\334\223\223!9z^\2353\341q\377\270\353\010"
 213      93932139 
 213      7A5E9D33 
 213      E171FFB8 
 213      EB08
 214 003b 2D440B16 		.ascii	"-D\013\026\004T|\021yV\254z\001\233\370\342&\366\306"
 214      04547C11 
 214      7956AC7A 
 214      019BF8E2 
 214      26F6C6
 215 004e 444AA002 		.ascii	"DJ\240\002\307 $\010\205\030\024CE\022\012b\220\356"
 215      C7202408 
 215      85181443 
 215      45120A62 
 215      90EE
 216 0060 FDCDCC9E 		.ascii	"\375\315\314\236=sf2gN\354\254\3147sf\357\375\373\236"
 216      3D736632 
 216      674EECAC 
 216      CC377366 
 216      EFFDFB9E 
 217 0074 7BEF6FEF 		.ascii	"{\357o\357\231\360\210C\344\230\317#t\015\037\376\037"
ARM GAS  /tmp/ccV5D8qL.s 			page 16


 217      99F08843 
 217      E498CF23 
 217      740D1FFE 
 217      1F
 218 0085 21F49617 		.ascii	"!\364\226\027!\374\207\356B\332\341\301g=>\333\360\271"
 218      21FC87EE 
 218      42DAE1C1 
 218      673D3EDB 
 218      F0B9
 219 0097 1F9F87F0 		.ascii	"\037\237\207\360\331\201O\322\372/H\177\220z\001|n\306"
 219      D9814FD2 
 219      FA2F487F 
 219      907A017C 
 219      6EC6
 220 00a9 67193E87 		.ascii	"g\031>\207\341\363E|n\301\247\017\237\215\370|K\251"
 220      E1F3457C 
 220      6EC1A70F 
 220      9F8DF87C 
 220      4BA9
 221 00bb 437077E0 		.ascii	"Cpw\340s\027>_\305g\003>\337Tp\353Q\376A\370\373\025"
 221      73173E5F 
 221      C567033E 
 221      DF5470EB 
 221      51FE41F8 
 222 00d1 3C159BF0 		.ascii	"<\025\233\3609\215\033t\343\363f^\346\203/\350SN\306"
 222      398D1B74 
 222      E3F3665E 
 222      E6832FE8 
 222      534EC6
 223 00e4 E49476C6 		.ascii	"\344\224v\306\203\3501\\\221\211\2253`\202y\030_O\341"
 223      83E8315C 
 223      91899533 
 223      60827918 
 223      5F4FE1
 224 00f7 67DFE265 		.ascii	"g\337\342e\371\267(:\370\025>\207\360\371\001'\313\377"
 224      F9B7283A 
 224      F8153E87 
 224      F0F90127 
 224      CBFF
 225 0109 AAA2C32E 		.ascii	"\252\242\303.E7N\341ef\253C\012oV\206-\212\034,\317"
 225      45374EE1 
 225      6566AB43 
 225      0A6F5686 
 225      2D8A1C2C 
 226 011e CD06BBDD 		.ascii	"\315\006\273\335\202\237=\257\264Sy\233\331\321\245"
 226      829F3DAF 
 226      B453799B 
 226      D9D1A5
 227 012d F050FD66 		.ascii	"\360P\375f&C\007\243\273*\203\317\302\016[\0309\274"
 227      264307A3 
 227      BB2A83CF 
 227      C20E5B18 
 227      39BC
 228 013f 8C8D557E 		.ascii	"\214\215U~\254\316\035&6\037\203\236\313\236<\277zY"
 228      ACCE1D26 
 228      361F839E 
 228      CB9E3CBF 
ARM GAS  /tmp/ccV5D8qL.s 			page 17


 228      7A59
 229 0151 76DAE56B 		.ascii	"v\332\345k\327V\214\270\021\255\317\342\243~y6\313I"
 229      D7568CB8 
 229      11ADCFE2 
 229      A37E7936 
 229      CB49
 230 0163 21EEAE51 		.ascii	"!\356\256Q\350\233(\304\225a\316\345p7\014\337\271\241"
 230      E89B28C4 
 230      9561CEE5 
 230      70370CDF 
 230      B9A1
 231 0175 61887B9E 		.ascii	"a\210{\236\273\021\356\\\340\\T\212\036\311f\227\222"
 231      BB11EE5C 
 231      E05C548A 
 231      1EC96697 
 231      92
 232 0186 A6D3DE2D 		.ascii	"\246\323\336-\033\211\326\020\234\362:\"\253\012\321"
 232      1B89D610 
 232      9CF23A22 
 232      AB0AD1
 233 0195 CC518CD1 		.ascii	"\314Q\214\321\270\301X\264%\233]\215kq!n\0137\022\243"
 233      B8C158B4 
 233      259B5D8D 
 233      6B71216E 
 233      0B3712A3 
 234 01a9 F01CBA1D 		.ascii	"\360\034\272\035\275\220\205C\356\006Jo@\243\320\205"
 234      BD908543 
 234      EE064A6F 
 234      40A3D085 
 235 01b9 4F76DF22 		.ascii	"Ov\337\"\337\027\202M\344\373\035\306\014q\333\271\333"
 235      DF17824D 
 235      E4FB1DC6 
 235      0C71DBB9 
 235      DB
 236 01ca 654E5999 		.ascii	"eNY\231\023y\212\224\347-\033\026\230\230\304\363\035"
 236      13798A94 
 236      E72D1B16 
 236      9898C4F3 
 236      1D
 237 01db 548F3521 		.ascii	"T\2175!6\361\006P\235\246\024\2620\006\253\310\213\\"
 237      36F10650 
 237      9DA614B2 
 237      3006ABC8 
 237      8B5C
 238 01ed 002BF2AF 		.ascii	"\000+\362\257\234\302\341\345\225}\347\\2\254c\250\227"
 238      9CC2E1E5 
 238      957DE75C 
 238      32AC63A8 
 238      97
 239 01fe 016AB10A 		.ascii	"\001j\261\012\265m\335\301\326 Rt\363\005X\211\341\267"
 239      B56DDDC1 
 239      D6205274 
 239      F3055889 
 239      E1B7
 240 0210 5C4B0696 		.ascii	"\\K\006\226\213\325;2\216\014G\316\033\360\250\223\343"
 240      8BD53B32 
 240      8E0C47CE 
ARM GAS  /tmp/ccV5D8qL.s 			page 18


 240      1BF0A893 
 240      E3
 241 0221 14435ED8 		.ascii	"\024C^\330\260\273\335e.\263z/\037j\035\345`l\251\032"
 241      B0BBDD65 
 241      2EB37A2F 
 241      1F6A1DE5 
 241      606CA91A 
 242 0235 E72405CD 		.ascii	"\347$\005\315}\323\011b\271%b\017E\354\262A\364\333"
 242      7DD30962 
 242      B925620F 
 242      45ECB241 
 242      F4DB
 243 0247 C8E8D849 		.ascii	"\310\350\330I\215 \300\247\234\346\360g[\357R\215L<"
 243      8D20C0A7 
 243      9CE6F067 
 243      5BEF528D 
 243      4C3C
 244 0259 5884D52F 		.ascii	"X\204\325/hV\337kku\275F:\033\325/\313\326\271T\225"
 244      6856DF6B 
 244      6B75BD46 
 244      3A1BD52F 
 244      CBD6B954 
 245 026e 9A9767EB 		.ascii	"\232\227g\353\270\207v\336\242\325\275G\207\301*\365"
 245      B88776DE 
 245      A2D5BD47 
 245      87C12AF5 
 246 027e 1628D5CF 		.ascii	"\026(\325\317(u\321\020\305N\320\232\000\355*\247\005"
 246      2875D110 
 246      C54ED09A 
 246      00ED2AA7 
 246      05
 247 028f F2E76DFF 		.ascii	"\362\347m\377\246Z$`\260P@o\241\000\265P@\261\020\034"
 247      A65A2460 
 247      B050406F 
 247      A100B550 
 247      40B1101C 
 248 02a3 1C2AB215 		.ascii	"\034*\262\025\217\226\363\324\270G\031\343\352\305W"
 248      8F96F3D4 
 248      B84719E3 
 248      EAC557
 249 02b2 EF479885 		.ascii	"\357G\230\205K\376\301\2165!\356\005n,\362\204\270\035"
 249      4BFEC18E 
 249      3521EE05 
 249      6E2CF284 
 249      B81D
 250 02c4 DC77F08F 		.ascii	"\334w\360\217]@_\005\332\000\364ML\363\"\3338\266n\346"
 250      5D405F05 
 250      DA00F44D 
 250      4CF322DB 
 250      38B66EE6 
 251 02d8 4AD54AD8 		.ascii	"J\325J\330\202\363\024\343c\361\327\360\252\0317m[\333"
 251      82F314E3 
 251      63F1D7F0 
 251      AA19376D 
 251      5BDB
 252 02ea E6951FDF 		.ascii	"\346\225\037\337\2126g\263\217\221\000\226[\362\350"
 252      8A3667B3 
ARM GAS  /tmp/ccV5D8qL.s 			page 19


 252      8F910096 
 252      5BF2E8
 253 02f9 4DA856CF 		.ascii	"M\250V\317\215AO\226ZpQ\230\3743\332JF\306\346\245\243"
 253      8D414F96 
 253      5A705198 
 253      FC33DA4A 
 253      46C6E6A5 
 254 030e 61B8474A 		.ascii	"a\270GJ\263\032\235z\377\317\361\254\276\372I\303/O"
 254      B31A9D7A 
 254      FFCFF1AC 
 254      BEFA49C3 
 254      2F4F
 255 0320 053C6AA2 		.ascii	"\005<j\242\262\345\236\373\037R\017f\006\036\275\317"
 255      B2E59EFB 
 255      1F520F66 
 255      061EBDCF 
 256 0330 73A66286 		.ascii	"s\246b\206\270w0n\210k#b\016w,&iv\331\245\223\363\335"
 256      B877306E 
 256      886B2362 
 256      0E772C26 
 256      6976D9A5 
 257 0347 82E4FC90 		.ascii	"\202\344\374\220\31290\206\212\031\342\376\2444\266"
 257      CA393086 
 257      8A19E2FE 
 257      A434B6
 258 0356 12733FE6 		.ascii	"\022s?\346W\347\\\314\375\371b\036\310\027\263\376\244"
 258      57E75CCC 
 258      FDF9621E 
 258      C817B3FE 
 258      A4
 259 0367 22A6CFC9 		.ascii	"\"\246\317\311\024|X\231\202\265\020\341Q\037\325\256"
 259      147C5899 
 259      82B510E1 
 259      511FD5AE 
 260 0377 77C3CD2A 		.ascii	"w\303\315*\013\023\271\016qc\014A\234\033D\254\025~"
 260      0B13B90E 
 260      71630C41 
 260      9C1B44AC 
 260      157E
 261 0389 27721DD1 		.ascii	"'r\035\321\247\006JT\352~\261B\343\347\003T\352\226"
 261      A7064A54 
 261      EA7EB142 
 261      E3E70354 
 261      EA96
 262 039b 1D5AEC58 		.ascii	"\035Z\354X;\205G\353\\\244E\007\326\3425\013\247p\371"
 262      3B8547EB 
 262      5CA44507 
 262      D6E2350B 
 262      A770F9
 263 03ae 8D36D046 		.ascii	"\2156\320F\355\267\017\356Ik\207\222\326\212\220\324"
 263      EDB70FEE 
 263      496B8792 
 263      D68A90D4 
 264 03be 74C7F4A6 		.ascii	"t\307\364\246\373'\364|\366\344\352\325\331\372:W6;"
 264      FB27F47C 
 264      F6E4EAD5 
 264      D9FA3A57 
ARM GAS  /tmp/ccV5D8qL.s 			page 20


 264      363B
 265 03d0 70ED9ACB 		.ascii	"p\355\232\3134g\311\216\242\234\337#\315\331A\363\024"
 265      3467C98E 
 265      A29CDF23 
 265      CDD941F3 
 265      14
 266 03e1 2444CFB9 		.ascii	"$D\317\271T\253\234m8\330\366C\031\274 ,\036\375\031"
 266      54AB9C6D 
 266      38D8F643 
 266      19BC202C 
 266      1EFD19
 267 03f4 DA7E649A 		.ascii	"\332~d\232\004}\304$A={\326\1778\032\345\037^\230D\210"
 267      047DC424 
 267      413D7BD6 
 267      7F381AE5 
 267      1F5E9844 
 268 0409 3CD3BC2A 		.ascii	"<\323\274*KvN<\251e\\\267\030\204\377\004\204\277\302"
 268      4B764E3C 
 268      A9655CB7 
 268      1884FF04 
 268      84BFC2
 269 041c 087FA2F5 		.ascii	"\010\177\242\365n\275\360\203 \361h\205\233\264\354"
 269      6EBDF083 
 269      20F16885 
 269      9BB4EC
 270 042b 3515BD57 		.ascii	"5\025\275W'\372\301c\305\210n=W\235\007\311\327\273"
 270      27FAC163 
 270      C5886E3D 
 270      579D07C9 
 270      D7BB
 271 043d 19B3B74E 		.ascii	"\031\263\267N\327I^\177\2175\022\217\266B\313>S\311"
 271      D7495E7F 
 271      8F35128F 
 271      B642CB3E 
 271      53C9
 272 044f FB74929F 		.ascii	"\373t\222\237\330g&9\317\344\"\246\0115\313\274\336"
 272      D8672639 
 272      CFE422A6 
 272      0935CBBC 
 272      DE
 273 0460 4DB9DF6B 		.ascii	"M\271\337k\320\3432\350\321\300\350q\355}\227\265\007"
 273      D0E332E8 
 273      D1C0E871 
 273      ED7D97B5 
 273      07
 274 0471 0C487828 		.ascii	"\014Hx(\207\226_\232\352\361\245>x\016\230\3511R\227"
 274      87965F9A 
 274      EAF1A53E 
 274      780E98E9 
 274      315297
 275 0484 A55D82BE 		.ascii	"\245]\202\276\267\227bv\275v\226\033j.)c\276G1{\247"
 275      B7976276 
 275      BD76961B 
 275      6A2E2963 
 275      BE47317B 
 276 0499 0C2D9774 		.ascii	"\014-\227t\234\371-\343IZs\304\255%Ik\206\234\371\235"
 276      9CF92DE3 
ARM GAS  /tmp/ccV5D8qL.s 			page 21


 276      495A73C4 
 276      AD25496B 
 276      869CF99D 
 277 04ad A0EAF4EC 		.ascii	"\240\352\364\354\331x\340\007\305\346\262Y\320H\015"
 277      D978E007 
 277      C5E6B259 
 277      D0480D
 278 04bc 58AFB53E 		.ascii	"X\257\265>8u\006\216u\274\231\243\311S\325\321W\016"
 278      3875068E 
 278      75BC99A3 
 278      C953D5D1 
 278      570E
 279 04ce ECDCF630 		.ascii	"\354\334\3660;\213\251\007\347(by\312\376V`\277\316"
 279      3B8BA907 
 279      E7286279 
 279      CAFE5660 
 279      BFCE
 280 04e0 43D8AF32 		.ascii	"C\330\2572e\277\212a\277\251c\247!\351\223\217\200\025"
 280      65BF8A61 
 280      BFA963A7 
 280      21E9938F 
 280      8015
 281 04f2 F7412628 		.ascii	"\367A&(\326\211kx\022E\177\362p\232\232}\352d\035\342"
 281      D6896B78 
 281      12457FF2 
 281      709A9A7D 
 281      EA641DE2 
 282 0506 EE2E6579 		.ascii	"\356.ey\301o\325\211 \375a*\375\246\2165;\236\362\014"
 282      C16FD589 
 282      20FD612A 
 282      FDA68E35 
 282      3B9EF20C 
 283 051a 35A66569 		.ascii	"5\246ei:(j\373\277\017u}$#\036\245\2109\033D\273\365"
 283      3A286AFB 
 283      BF0F757D 
 283      24231EA5 
 283      88391B44 
 284 0530 918AD845 		.ascii	"\221\212\330E\021\273\034!Z\313x\202\"v\333 \232&\345"
 284      11BB1C21 
 284      5ACB7882 
 284      2276DB20 
 284      9A26E5
 285 0543 2688A728 		.ascii	"&\210\247(b\257#Dk\031?\242\210\3756\210\243\013\224"
 285      62AF2344 
 285      6B193FA2 
 285      88FD3688 
 285      A30B94
 286 0556 F1138A38 		.ascii	"\361\023\2128\340\010\321Z\306s\024\261\345g\203#\226"
 286      E008D15A 
 286      C67314B1 
 286      E5678323 
 286      96
 287 0567 9BC99817 		.ascii	"\233\311\230\027S\306\324n%O;\005\217\316{\324\321\343"
 287      53C6D46E 
 287      254F3B05 
 287      8FCE7BD4 
 287      D1E3
ARM GAS  /tmp/ccV5D8qL.s 			page 22


 288 0579 CA8183DB 		.ascii	"\312\201\203\333\276(\246\003P\254~\2176\366\355t6\366"
 288      BE28A603 
 288      50AC7E8F 
 288      36F6ED74 
 288      36F6
 289 058b 9959439E 		.ascii	"\231YC\236\037\256P\320\334\353vs\216}\\\311\230K\275"
 289      1FAE50D0 
 289      DCEB7673 
 289      8E7D5CC9 
 289      984BBD
 290 059e 741EB391 		.ascii	"t\036\263\221\322.\256t#\2262\001\235\334\332<\372I"
 290      D22EAE74 
 290      23963201 
 290      9DDCDA3C 
 290      FA49
 291 05b0 66C8F453 		.ascii	"f\310\364S42\376i\343#\255\236\035=\332\2526\236\207"
 291      3432FE69 
 291      E323AD9E 
 291      1D3DDAAA 
 291      369E87
 292 05c3 F8B198BE 		.ascii	"\370\261\230\276\302\007\250$\312=\275\225W\305\217"
 292      C207A824 
 292      CA3DBD95 
 292      57C58F
 293 05d2 78497DB3 		.ascii	"xI}\263\021\326\276\265u\254\374\236\215\225\337R\263"
 293      11D6BEB5 
 293      75ACFC9E 
 293      8D95DF52 
 293      B3
 294 05e3 E57E5874 		.ascii	"\345~Xt\3479\2774;\332\313\250nc)e\224\337\015S\365"
 294      E739BF34 
 294      3BDACBA8 
 294      6E632965 
 294      94DF0D53 
 295 05f8 E35E6DAA 		.ascii	"\343^m\252\376\322\260\237Q8V\003`m\244X\333\326\375"
 295      FED2B09F 
 295      51385603 
 295      606DA458 
 295      DBD6FD
 296 060b E12AAF9A 		.ascii	"\341*\257\232\3128\353s\372Y\237\243\306\343\024\333"
 296      CA38EB73 
 296      FA599FA3 
 296      C6E314DB 
 297 061b 39ABCDA3 		.ascii	"9\253\315\243\355^\255\223|\251u\022\275\270\005\014"
 297      ED5EAD93 
 297      7CA97512 
 297      BDB8050C 
 298 062b 19C5D9F1 		.ascii	"\031\305\331\361M\320\375\025\306\216_\234\243\223e"
 298      4DD0FD15 
 298      C68E5F9C 
 298      A39365
 299 063a 03EF5479 		.ascii	"\003\357Ty\03652\352\254\375\263#un\033\272:\315\240"
 299      1E3532EA 
 299      ACFDB323 
 299      756E1BBA 
 299      3ACDA0
 300 064d 4E13A3CE 		.ascii	"N\023\243\316\325\241\251\323\306\250\363\2543u\306"
ARM GAS  /tmp/ccV5D8qL.s 			page 23


 300      D5A1A9D3 
 300      C6A8F3AC 
 300      3375C6
 301 065c 33EAC8E9 		.ascii	"3\352\310\351\333\365\3501\273\364\215\210\365\016\177"
 301      DBF5E831 
 301      BBF48D88 
 301      F50E7F
 302 066b 3DCACF9D 		.ascii	"=\312\317\235\310S5w\3125\225\241\374\303\307\260\002"
 302      C8533577 
 302      CA3595A1 
 302      FCC3C7B0 
 302      02
 303 067c CB651DE4 		.ascii	"\313e\035\344\276\357\202\345\0160\226[\253\346\276"
 303      BEEF82E5 
 303      0E30965B 
 303      ABE6BE
 304 068b 8EB1F601 		.ascii	"\216\261\366\001V\216\351PM\255w\250F\367\032\234\340"
 304      568EE950 
 304      4DAD77A8 
 304      46F71A9C 
 304      E0
 305 069c D53B8114 		.ascii	"\325;\201\024\023n\227a{O\333\350S\313\310\017\037\372"
 305      136E9761 
 305      7B4FDBE8 
 305      53CBC80F 
 305      1FFA
 306 06ae 3A2070CA 		.ascii	": p\312\003\022\022\303\342X=d3\362#\235sQ\236sU\023"
 306      031212C3 
 306      E2583D64 
 306      33F2239D 
 306      73519E73 
 307 06c4 9EA6A02D 		.ascii	"\236\246\240-\323\207\232=\336M&\247^\0128\260w\250"
 307      D3879A3D 
 307      DE4D26A7 
 307      5E0A38B0 
 307      77A8
 308 06d6 8B2CDDF4 		.ascii	"\213,\335\364d\310\256\311\002\323\336\267\357CJ\322"
 308      64C8AEC9 
 308      02D3DEB7 
 308      EF434AD2 
 309 06e6 477D7BB6 		.ascii	"G}{\266aC\353wUG\\\342\014\351\365%N\227_[\307|\216"
 309      6143EB77 
 309      55475CE2 
 309      0CE9F525 
 309      4E975F5B 
 310 06fd 9D5796FB 		.ascii	"\235W\226\3734\277\034?d3\2658R\331l\005\363_\024j\030"
 310      34BF1C3F 
 310      6433B538 
 310      52D96C05 
 310      F35F146A 
 311 0712 705F09DC 		.ascii	"p_\011\334;M\0270\235\314\002\246\347\342\232\316\333"
 311      3B4D1730 
 311      9DCC02A6 
 311      E7E29ACE 
 311      DB
 312 0723 50FEC133 		.ascii	"P\376\3013[\025\352\366\303\353\024\263\267\241Le\254"
 312      5B15EAF6 
ARM GAS  /tmp/ccV5D8qL.s 			page 24


 312      C3EB14B3 
 312      B7A14C65 
 312      AC
 313 0734 DF692834 		.ascii	"\337i(4\316\034\367\306\277@X\276\355\323z\366\323\332"
 313      CE1CF7C6 
 313      BF4058BE 
 313      EDD37AF6 
 313      D3DA
 314 0746 AA769F71 		.ascii	"\252v\237qL,\266/\265Q\015{.~\336Y\314:\327\240y~\214"
 314      4C2CB62F 
 314      B5510D7B 
 314      2E7EDE59 
 314      CC3AD7A0 
 315 075d 1C636364 		.ascii	"\034ccd?\023#W\377\3411\222\325\366\263F\000\373\034"
 315      3F132357 
 315      FFE13192 
 315      D5F6B346 
 315      00FB1C
 316 0770 B0FFD834 		.ascii	"\260\377\3304H>f\202\344oWw\232n\305\271L\202\344*\305"
 316      483E6682 
 316      E46F5777 
 316      9A6EC5B9 
 316      4C82E42A 
 317 0785 CC35161D 		.ascii	"\3145\026\035$\372\304\366\327~\025\262\373HY\021>\031"
 317      24FAC4F6 
 317      D77E15B2 
 317      FB485911 
 317      3E19
 318 0797 828DD810 		.ascii	"\202\215\330\020\374\234'\372\255\362\253!\330\335P"
 318      FC9C27FA 
 318      ADF2AB21 
 318      D8DD50
 319 07a6 A6C69B6C 		.ascii	"\246\306\233l,&\0005\233\206\270\2638\327u\205\270O"
 319      2C260035 
 319      9B86B8B3 
 319      38D77585 
 319      B84F
 320 07b8 79F296E5 		.ascii	"y\362\226\345\034\320\317\370\002\336\265\234g#e=\265"
 320      1CD0CFF8 
 320      02DEB59C 
 320      6723653D 
 320      B5
 321 07c9 41BF331B 		.ascii	"A\2773\033\224\027\030"
 321      941718
 322 07d0 9767586E 		.ascii	"\227gXn\317\370\265\270\334x\375\320\302\322\361\006"
 322      CFF8B5B8 
 322      DC78FDD0 
 322      C2D2F106 
 323 07e0 D625E8EA 		.ascii	"\326%\350\352\233\375ZW\177b\310\033X\2570\0125\035"
 323      9BFD5A57 
 323      7F62C81B 
 323      58AF300A 
 323      351D
 324 07f2 2E6692A4 		.ascii	".f\222\244\266i\360\253\311T\373\314\301q\312--S\360"
 324      B669F0AB 
 324      C954FBCC 
 324      C171CA2D 
ARM GAS  /tmp/ccV5D8qL.s 			page 25


 324      2D53F0
 325 0805 46186B97 		.ascii	"F\030k\227\253\020\177o\370\265Ikw\3534\031\264\240"
 325      AB107F6F 
 325      F8B5496B 
 325      77EB3419 
 325      B4A0
 326 0817 2DB5BDD0 		.ascii	"-\265\275\3202\3532\353\355\344)\263{m\272\007\314\345"
 326      32EB32EB 
 326      EDE429B3 
 326      7B6DBA07 
 326      CCE5
 327 0829 75CD1077 		.ascii	"u\315\020w\015\336@\221\326\355/\0275\255\347\037\254"
 327      0DDE4091 
 327      D6ED2F17 
 327      35ADE71F 
 327      AC
 328 083a 88216EA9 		.ascii	"\210!n\251k,y\323\270\314E;\014\217\216R\017\364\037"
 328      6B2C79D3 
 328      B8CC453B 
 328      0C8F8E52 
 328      0FF41F
 329 084d E8B161AA 		.ascii	"\350\261a\252\367A\271\316\007\354\260u\232bv\317\032"
 329      F741B9CE 
 329      07ECB075 
 329      9A6276CF 
 329      1A
 330 085e 7CD4BACD 		.ascii	"|\324\272\315\306\253j\012\365W\212\3302\177p\031\307"
 330      C6AB6A0A 
 330      F5578AD8 
 330      327F7019 
 330      C7
 331 086f 5B225263 		.ascii	"[\"Rc\003b\277\246\267#\304r\023\3043\220\001]\243\210"
 331      0362BFA6 
 331      B723C472 
 331      13C43390 
 331      015DA388 
 332 0883 BD47EDDC 		.ascii	"\275G\355\3347\305VJy\347\371\341\000\355\037\307\354"
 332      37C5564A 
 332      79E7F9E1 
 332      00ED1FC7 
 332      EC
 333 0894 BC33C556 		.ascii	"\2743\305VNH\036\327Q\310\226N;1\357)4\312\264\227\010"
 333      4E481ED7 
 333      51C8964E 
 333      3B31EF29 
 333      34CAB497 
 334 08a9 B86B7163 		.ascii	"\270kqc\321\310\020\367\025\274\010\317\302\020\275"
 334      D1C810F7 
 334      15BC08CF 
 334      C210BD
 335 08b8 14E80AA0 		.ascii	"\024\350\012\240\333\201\276\000\364E\240\273\200\276"
 335      DB81BE00 
 335      F445A0BB 
 335      80BE
 336 08c6 01B40968 		.ascii	"\001\264\011h\013\320\001\240\277vA[\240\017\003\375"
 336      0BD001A0 
 336      BF76415B 
ARM GAS  /tmp/ccV5D8qL.s 			page 26


 336      A00F03FD 
 337 08d6 0DD05540 		.ascii	"\015\320U@\177\353*`\3607\344\234jO#\357jZ\202C\315"
 337      7FEB2A60 
 337      F037E49C 
 337      6A4F23EF 
 337      6A5A8243 
 338 08eb C865F087 		.ascii	"\310e\360\207x\025\261\335\021b\271\265M\373\030\233"
 338      7815B1DD 
 338      1162B9B5 
 338      4DFB189B 
 339 08fb 5EC436E5 		.ascii	"^\3046\345C\334\337\300\246k\330\376\373L@}\215\326"
 339      43DCDFC0 
 339      A66BD8FE 
 339      FB4C407D 
 339      8DD6
 340 090d 7E568B90 		.ascii	"~V\213\220bs\0049\352\266P\314\334\003\305\246\010j"
 340      62730439 
 340      EAB650CC 
 340      DC03C5A6 
 340      086A
 341 091f FFAD8381 		.ascii	"\377\255\203\201\366E\212\330\355\010\321,\212\345<"
 341      F6458AD8 
 341      ED08D12C 
 341      8AE53C
 342 092e 6627451C 		.ascii	"f'E\0348\373um\372\275N1[\036t\202h-\345\333\024\261"
 342      38FB756D 
 342      FABD4E31 
 342      5B1E7482 
 342      682DE5DB 
 343 0944 CB06D174 		.ascii	"\313\006\321t?\314,,z\231\260\370+\016\013\314\3533"
 343      3FCC2C2C 
 343      7A99B0F8 
 343      2B0E0BCC 
 343      EB33
 344 0956 088BB5D0 		.ascii	"\010\213\265\320!\326\003}\002\350\006\240O\263\341"
 344      21D6037D 
 344      02E806A0 
 344      4FB3E1
 345 0965 B22FA0BE 		.ascii	"\262/\240\2760\356\277\254\205\213\341\345l!\013\017"
 345      30EEBFAC 
 345      858BE1E5 
 345      6C210B0F 
 346 0975 ABD7AE83 		.ascii	"\253\327\256\203\344|\033]$\024\016\006\2649\367\331"
 346      E47C1B5D 
 346      24140E06 
 346      B439F7D9 
 347 0985 B6F93268 		.ascii	"\266\3712hA\031\366\031h\271\311t\316\335\244\233s/"
 347      4119F619 
 347      68B9C974 
 347      CEDDA49B 
 347      732F
 348 0997 1D319B73 		.ascii	"\0351\233s\335\216\336bi\334o0\350\261\035\364\370\212"
 348      DD8EDE62 
 348      69DC6F30 
 348      E8B11DF4 
 348      F88A
 349 09a9 D1636DDB 		.ascii	"\321cm\333tk=\014H<z\264\204\264\334a\252\307\016\235"
ARM GAS  /tmp/ccV5D8qL.s 			page 27


 349      746B3D0C 
 349      483C7AB4 
 349      84B4DC61 
 349      AAC70E9D 
 350 09bd 1E8DA67A 		.ascii	"\036\215\246zxt\201\266\315E\002m#\305\354>>\364\367"
 350      787481B6 
 350      CD45026D 
 350      23C5EC3E 
 350      3EF4F7
 351 09d0 AE32E676 		.ascii	"\2562\346v\212\331\033*bL\033J\332\272\313\005\233\220"
 351      8AD91B2A 
 351      624C1B4A 
 351      DABACB05 
 351      9B90
 352 09e2 259A898F 		.ascii	"%\232\211\217\274O7`\213L[_\247\352\364\354\331s\244"
 352      BC4F3760 
 352      8B4C5B5F 
 352      A7EAF4EC 
 352      D973A4
 353 09f5 E8F7AE26 		.ascii	"\350\367\256&\361\343\344\253\231\327\\\206\257f\360"
 353      F1E3E4AB 
 353      99D75C86 
 353      AF66F0
 354 0a04 A4CC7EFD 		.ascii	"\244\314~\375eo\233Fp\316\037\031\333|\321\252\354:"
 354      656F9B46 
 354      70CE1F19 
 354      DB7CD1AA 
 354      EC3A
 355 0a16 18F66F08 		.ascii	"\030\366o\010/kI\336r\351fE\235E\015ex\334`\214\327"
 355      2F6B49DE 
 355      72E96645 
 355      9D450D65 
 355      78DC608C 
 356 0a2b E4CC78F9 		.ascii	"\344\314x\371\341\240d\"\207)f\373\207E\015\341\371"
 356      E1A06422 
 356      872966FB 
 356      87450DE1 
 356      F9
 357 0a3c 07DBAD42 		.ascii	"\007\333\255B\334\357]\360\221\336K0\014\276\002t'\320"
 357      DCEF5DF0 
 357      91DE4B30 
 357      0CBE0274 
 357      27D0
 358 0a4e 06A0FF57 		.ascii	"\006\240\377WH\356@\272\002\005\177\331\305+#Pw\370"
 358      48EE40BA 
 358      02057FD9 
 358      C52B2350 
 358      77F8
 359 0a60 EBE86321 		.ascii	"\353\350c!\356\177)b\277#D3\243\222N\023\342\376@\021"
 359      EE7F2962 
 359      BF234433 
 359      A3924E13 
 359      E2FE4011 
 360 0a74 5B3EB64B 		.ascii	"[>\266K\031\355\337\004\313\035\361X\211:\362\266\304"
 360      19EDDF04 
 360      CB1DF158 
 360      893AF2B6 
ARM GAS  /tmp/ccV5D8qL.s 			page 28


 360      C4
 361 0a85 8A70BD99 		.ascii	"\212p\275\231\23761~\332\202\375\344\016q[\301+\315"
 361      9F36317E 
 361      DA82FDE4 
 361      0E715BC1 
 361      2BCD
 362 0a97 40DF06FA 		.ascii	"@\337\006\372Gv\352\352)Q\247\256\334\022\2139\302|"
 362      4776EAEA 
 362      2951A7AE 
 362      DC128B39 
 362      C27C
 363 0aa9 32656D55 		.ascii	"2emU\324b\261\025\006\374sL\217kls\262X\034\200\226"
 363      D462B115 
 363      06FC734C 
 363      8F6B6C73 
 363      B2581C80 
 364 0abe 7B4D07FC 		.ascii	"{M\007\374\275\272\001\177}\247\345b\361W\313\264\201"
 364      BDBA017F 
 364      7DA7E562 
 364      F157CBB4 
 364      81
 365 0acf 6719EDE2 		.ascii	"g\031\355\342/\341\204\315:xu\357\346V\226\252R\344"
 365      2FE184CD 
 365      3A7875EF 
 365      E65696AA 
 365      52E4
 366 0ae1 CEEDE28B 		.ascii	"\316\355\342\213\010_37\356e\334\270O^^\266\263N{\274"
 366      085F3337 
 366      EE65DCB8 
 366      4F5E5EB6 
 366      B34E7BBC 
 367 0af5 94E61B5F 		.ascii	"\224\346\033_\330E\243~1\250\367\232\274\274\224\277"
 367      D845A37E 
 367      31A8F79A 
 367      BCBC94BF 
 368 0b05 787A8A62 		.ascii	"xz\212b\346\376\233N\262\372\217\233\314\327nh\250\201"
 368      E6FE9B4E 
 368      B2FA8F9B 
 368      CCD76E68 
 368      A881
 369 0b17 70180261 		.ascii	"p\030\002ak\251\032\010\027\216~\306\025\034\007\360"
 369      6BA91A08 
 369      178E7EC6 
 369      151C07F0 
 370 0b27 59A1690C 		.ascii	"Y\241i\014t01\320\322\350\265\212\000\303\007\361\015"
 370      743031D0 
 370      D2E8B58A 
 370      00C307F1 
 370      0D
 371 0b38 200669DB 		.ascii	" \006i\333\335h\263\213U\260;;\030w\036\221\335\371"
 371      DD68B38B 
 371      55B03B3B 
 371      18771E91 
 371      DDF9
 372 0b4a 01EBCE3D 		.ascii	"\001\353\316=\324\364={N|{p\246\351A\335Y\347\362~\003"
 372      D4F43D7B 
 372      4E7C7B70 
ARM GAS  /tmp/ccV5D8qL.s 			page 29


 372      A6E941DD 
 372      59E7F27E 
 373 0b5f AD069B11 		.ascii	"\255\006\233\021#<YV\304G\347\307apj\246\356\270r`\347"
 373      233C5956 
 373      C447E7C7 
 373      61706AA6 
 373      EEB87260 
 374 0b74 A5DF7954 		.ascii	"\245\337yT]\232\214iB\301\037\220\253\234\233\257\243"
 374      5D9A8C69 
 374      42C11F90 
 374      AB9C9BAF 
 374      A3
 375 0b85 AC3FE014 		.ascii	"\254?\340\024\220.\3277\340N\267\351\016u\254\275~\322"
 375      902ED737 
 375      E04EB7E9 
 375      0E75ACBD 
 375      7ED2
 376 0b97 15A0B618 		.ascii	"\025\240\266\030\026`\357\324ow\361\004\313X\366\211"
 376      1660EFD4 
 376      6F77F104 
 376      CB58F689 
 377 0ba7 132E2B11 		.ascii	"\023.+\021\324\037\213\013\365\350G\314r\341\214\274"
 377      D41F8B0B 
 377      F5E847CC 
 377      72E18CBC 
 378 0bb7 5CF81896 		.ascii	"\\\370\030\226\013\317\301\010\373\016\320\367\200\036"
 378      0BCFC108 
 378      FB0ED0F7 
 378      801E
 379 0bc5 02DAC9FA 		.ascii	"\002\332\311\372\373\030\265m\373\303\233o\244\243\256"
 379      FB18B56D 
 379      FBC39B6F 
 379      A4A3AE
 380 0bd4 E13B54C2 		.ascii	"\341;T\302\347\224\213~\034\013\246Yf\223\355\341\011"
 380      E7948B7E 
 380      1C0BA659 
 380      6693EDE1 
 380      09
 381 0be5 99239F2D 		.ascii	"\231#\237-\024\222\273\231~O\352\241p\377i\010\213n"
 381      1492BB99 
 381      7E4FEAA1 
 381      70FF6908 
 381      8B6E
 382 0bf7 E8A5C7A9 		.ascii	"\350\245\307\251\350o|u\341\322\243\312\033\302\002"
 382      E86F7C75 
 382      E1D2A3CA 
 382      1BC202
 383 0c06 A06003D7 		.ascii	"\240`\003\327\264\237\236a\372i\377\261\323\303L\014"
 383      B49F9E61 
 383      FA69FFB1 
 383      D3C34C0C 
 384 0c16 7E133354 		.ascii	"~\0233T\207\270\323\020\240\253\207q\012dK\347\351\033"
 384      87B8D310 
 384      A0AB8771 
 384      0A644BE7 
 384      E91B
 385 0c28 8ACC1B0C 		.ascii	"\212\314\033\014\230\353)f{\247\243\177\331)\267\204"
ARM GAS  /tmp/ccV5D8qL.s 			page 30


 385      98EB2966 
 385      7BA7A37F 
 385      D929B784 
 386 0c38 7C8642E6 		.ascii	"|\206B\346\354 -\363\006\003\344f\012\331\345\014\322"
 386      EC202DF3 
 386      0603E466 
 386      0AD9E50C 
 386      D2
 387 0c49 5ACA1D14 		.ascii	"Z\312\035\024\262\333\016\322r\331o\200\334M!{\235A"
 387      B2DB0ED2 
 387      72D96F80 
 387      DC4D217B 
 387      9D41
 388 0c5b 5A4BF906 		.ascii	"ZK\371\006\205\354\267\203\264\374\020f\3352m\355Dz"
 388      85ECB783 
 388      B4FC1066 
 388      DD326DED 
 388      447A
 389 0c6d 53F3D7D4 		.ascii	"S\363\327\324\233\360\332\201J7\340L:k\205\333\264\030"
 389      9BF0DA81 
 389      4A37E04C 
 389      3A6B85DB 
 389      B418
 390 0c7f EFB2812C 		.ascii	"\357\262\201,/\320-\373\265\020w\006i-\345a-\304\355"
 390      2FD02DFB 
 390      B5107706 
 390      692DE561 
 390      2DC4ED
 391 0c92 20ED76A6 		.ascii	" \355v\246\325\311KY\363\2215\251\365\004\360\220\333"
 391      D5C94B59 
 391      F39135A9 
 391      F504F090 
 391      DB
 392 0ca3 F9A4B1D4 		.ascii	"\371\244\261\324m5i\250\007\036\343\264\376\345L\037"
 392      6D3569A8 
 392      071EE3B4 
 392      FEE54C1F 
 393 0cb3 6B139DD1 		.ascii	"k\023\235\321\372\227\035\244ere\200<\247\365/g\220"
 393      FA971DA4 
 393      65726580 
 393      3CA7F52F 
 393      6790
 394 0cc5 D652F669 		.ascii	"\326R\366i\375\313\016\322z\253]\335\242$\336\341\321"
 394      FDCB0ED2 
 394      7AAB5DDD 
 394      A224DEE1 
 394      D1
 395 0cd6 55AD5338 		.ascii	"U\255S8\203\264\226r\305u\264S\034\267\201\274\247@"
 395      83B49672 
 395      C575B453 
 395      1CB781BC 
 395      A740
 396 0ce8 5BAEA290 		.ascii	"[\256\242\220\355\316 \255\245\\K!sv\220\323\012\264"
 396      EDCE20AD 
 396      A55C4B21 
 396      737690D3 
 396      0AB4
ARM GAS  /tmp/ccV5D8qL.s 			page 31


 397 0cfa E5B314B2 		.ascii	"\345\263\024\262\313\031\244\265\224\333)d\267\035\344"
 397      CB19A4B5 
 397      94DB2964 
 397      B71DE4
 398 0d09 EC026DF9 		.ascii	"\354\002m\371\022\205\354u\006i-\345n\012\331o\0079"
 398      1285EC75 
 398      06692DE5 
 398      6E0AD96F 
 398      0739
 399 0d1b DF4CCAFC 		.ascii	"\337L\312\374\203\315Ep\352\206s\362\233B\334'\220\251"
 399      83CD4570 
 399      EA8673F2 
 399      9B42DC27 
 399      90A9
 400 0d2d 7D0AF41C 		.ascii	"}\012\364\034\320\317\200~\016\264\017\350E\240\227"
 400      D0CF807E 
 400      0EB40FE8 
 400      45A097
 401 0d3c 805E013A 		.ascii	"\200^\001:\000\364+\240Y7\241\277\002\272\034h\035\320"
 401      00F42BA0 
 401      5937A1BF 
 401      02BA1C68 
 401      1DD0
 402 0d4e 4780AE04 		.ascii	"G\200\256\004\372(\320\325@\037\003\272\016\350\343"
 402      FA28D0D5 
 402      401F03BA 
 402      0EE8E3
 403 0d5d 409F74D3 		.ascii	"@\237t\323<\321\260\355D\362/\353q\355)w\251E\273S\226"
 403      3CD1B0ED 
 403      44F22FEB 
 403      71ED2977 
 403      A945BB53 
 404 0d72 9F1B9176 		.ascii	"\237\033\221vO[\266#\377\360g\335\356\031\255\035\032"
 404      4F5BB623 
 404      FFF067DD 
 404      EE19AD1D 
 404      1A
 405 0d83 29C51242 		.ascii	")\305\022B8!D2\265\242\220\020\222RX\362\376t\346\375"
 405      38214432 
 405      B5A29010 
 405      925258F2 
 405      FE74E6FD 
 406 0d97 E515E8DB 		.ascii	"\345\025\350\333\343\306\005\345\277T&(J\301X2\032\257"
 406      E3C605E5 
 406      BF542628 
 406      4AC15832 
 406      1AAF
 407 0da9 AD1282D1 		.ascii	"\255\022\202\321\032)1\256\006\371D)JjO6TK\247D)\023"
 407      1A2931AE 
 407      06F94429 
 407      4A6A4F36 
 407      544BA744 
 408 0dbf FCF19C19 		.ascii	"\374\361\234\031\0253\026\007\243\251D:\026\027\304"
 408      15331607 
 408      A3A9443A 
 408      1617C4
 409 0dce 4CF0A715 		.ascii	"L\360\247\025\025\244\345\222\264\220\301\215\375\265"
ARM GAS  /tmp/ccV5D8qL.s 			page 32


 409      15A4E592 
 409      B490C18D 
 409      FDB5
 410 0ddc B1A43469 		.ascii	"\261\2444ibX\372E\2606#\006\343\251h$\036\254\214%\011"
 410      6258FA45 
 410      B0362306 
 410      E3A96824 
 410      1EAC8C25 
 411 0df1 4C3C5619 		.ascii	"L<V\031\254\216F\203\0211qG2\225\024\356\020\"\225\261"
 411      AC8E4683 
 411      11317147 
 411      329514EE 
 411      102295B1 
 412 0e05 E0E47177 		.ascii	"\340\344qw\216\233\030\244\274\360\237\276\\\225.#U"
 412      8E9B18A4 
 412      BCF09FBE 
 412      5C952E23 
 412      55
 413 0e16 6168CCC2 		.ascii	"ah\314\302])d$\317\242\224\230\221\334\361HF\362\326"
 413      5D296424 
 413      CFA29498 
 413      91DCF148 
 413      46F2D6
 414 0e29 82B85CD2 		.ascii	"\202\270\\\322/J\240\263\004B|\177rX*\211\326&j\343"
 414      2F4AA0B3 
 414      04427C7F 
 414      72582A89 
 414      D6266AE3 
 415 0e3d 1129B650 		.ascii	"\021)\266P(\213\326\314\2331\253\362\001!*MO\306\244"
 415      288BD6CC 
 415      9B31ABF2 
 415      01212A4D 
 415      4FC6A4
 416 0e50 9B0DCA65 		.ascii	"\233\015\312e\304\250\254\177\024\271\244Dz\024\251"
 416      C4A8AC7F 
 416      14B9A444 
 416      7A14A9
 417 0e5f 3D578A88 		.ascii	"=W\212\210\322\014\315\200\363\375\311T,\031\217%\205"
 417      D20CCD80 
 417      F3FDC954 
 417      2C198F25 
 417      85
 418 0e70 1BE4E254 		.ascii	"\033\344\342TZW\032\226\022\341\030\306\276\211\224"
 418      5A571A96 
 418      12E118C6 
 418      BE8994
 419 0e7f 56D44462 		.ascii	"V\324DbI\246x^j\276\033\003O dbi\264&\234Y\222\221\204"
 419      49A6785E 
 419      6ABE1B03 
 419      4F206462 
 419      69B4269C 
 420 0e97 4458BAD5 		.ascii	"DX\272\325\322\033\244\206b\326\000mPn]=ZS\205\253\016"
 420      D21BA486 
 420      62D6006D 
 420      506E5D3D 
 420      5A5385AB 
 421 0eac 138548D5 		.ascii	"\023\205H\325\222p<\226\301F\271\016\267\323~\017\227"
ARM GAS  /tmp/ccV5D8qL.s 			page 33


 421      92703C96 
 421      C146B90E 
 421      B7D37E0F 
 421      97
 422 0ebd 6AC88F4C 		.ascii	"j\310\217L\370\227\265B-\266\323\010\\\252{\344\227"
 422      F897B542 
 422      2DB6D308 
 422      5CAA7BE4 
 422      97
 423 0ece 7F85A500 		.ascii	"\177\205\245\000-\361\246\303Ia\261\204/iQX\350\223"
 423      2DF1A6C3 
 423      4961B184 
 423      2F695158 
 423      E893
 424 0ee0 D2622C15 		.ascii	"\322b,\025\226\177\306R\276h*)\341\322\261\203\206J"
 424      967FC652 
 424      BE682A29 
 424      E1D2B183 
 424      864A
 425 0ef2 4D34250A 		.ascii	"M4%\012X\262R\362\030[H\212J\213\377\305\276Ex\341\235"
 425      58B252F2 
 425      185B488A 
 425      4A8BFFC5 
 425      BE4578E1 
 426 0f07 241CFDA2 		.ascii	"$\034\375\242P\215#\",\361\342d^\374\036/~\237\027\357"
 426      508D2322 
 426      2CF1E264 
 426      5EFC1E2F 
 426      7E9F17EF 
 427 0f1b E4C529BC 		.ascii	"\344\305)\274\370\003\2278a<>'\360q\021_&y\322a\214"
 427      F8039738 
 427      613C3E27 
 427      F071115F 
 427      2679D261 
 428 0f30 EC23022F 		.ascii	"\354#\002/\022D|M\305\253\004\321\035\255\211\210D\213"
 428      12447C4D 
 428      C5AB04D1 
 428      1DAD8988 
 428      448B
 429 0f42 4802EB97 		.ascii	"H\002\353\227\221\"\022\326\334G\"d\012\276\246\303"
 429      912212D6 
 429      DC472264 
 429      0ABEA6C3 
 430 0f52 F0C42725 		.ascii	"\360\304'%RU\002\374^\020\217Tg|\222(,\310\200\236\344"
 430      525502FC 
 430      5E108F54 
 430      677C9228 
 430      2CC8809E 
 431 0f67 C693C854 		.ascii	"\306\223\310T\343B%\264\275b\325\022\374\300/,\216I"
 431      E34225B4 
 431      BD62D512 
 431      FCC02F2C 
 431      8E49
 432 0f79 51DCCCBB 		.ascii	"Q\334\314\273HJU>\220\036\251\030\0177\020D!\031\305"
 432      484A553E 
 432      901EA918 
 432      0F371044 
ARM GAS  /tmp/ccV5D8qL.s 			page 34


 432      2119C5
 433 0f8c 709E4592 		.ascii	"p\236E\222$\246\207\021\347\011\211H\272\006k5\306\332"
 433      24A68711 
 433      E7098948 
 433      BA066B35 
 433      C6DA
 434 0f9e 7F02     		.ascii	"\177\002"
 435 0fa0 F43EC515 		.ascii	"\364>\305\025\036\010jO&\214\257\230\001.L\3731N\242"
 435      1E086A4F 
 435      268CAF98 
 435      012E4CFB 
 435      314EA2
 436 0fb3 16DBDB1A 		.ascii	"\026\333\333\032#!-&\030\011\031\003_S\213\222\330\024"
 436      23212D26 
 436      18091903 
 436      5F538B92 
 436      D814
 437 0fc5 D00A0B9E 		.ascii	"\320\012\013\236\220}\271H\302\365\322\245\302B\034"
 437      907DB948 
 437      C2F5D2A5 
 437      C2421C
 438 0fd4 978948E6 		.ascii	"\227\211H\346A\\\",\"7\256t\270\266L\215\0109\202\206"
 438      415C222C 
 438      2237AE74 
 438      B8B64C8D 
 438      08398286 
 439 0fe8 3331429E 		.ascii	"31B\236\004\322\341E\221\230\024KV\227\244\303\330\012"
 439      04D2E145 
 439      9198144B 
 439      5697A4C3 
 439      D80A
 440 0ffa B2B0708B 		.ascii	"\262\260p\213\037\010"
 440      1F08
 441 1000 692189BB 		.ascii	"i!\211\273i5\256\205Y\220\372%\304\202\2218D\013~\230"
 441      6935AE85 
 441      5990FA25 
 441      C4829138 
 441      440B7E98 
 442 1014 4EA5E23E 		.ascii	"N\245\342>Q\026\317+B\020yDp\233\250\270M\224\335\026"
 442      5116CF2B 
 442      42107944 
 442      709BA8B8 
 442      4D94DD16 
 443 1028 C04F6B45 		.ascii	"\300OkElG\311#\022\234Q\013c\242T\033\211\207I\027\027"
 443      6C47C923 
 443      129C510B 
 443      63A2541B 
 443      89874917 
 444 103d 55E96EC4 		.ascii	"U\351n\304\322\231\024\014\327=\223\003]\367\310\267"
 444      D299140C 
 444      D73D9303 
 444      5DF7C8B7 
 445 104d 50025390 		.ascii	"P\002S\220+\211\353\000\351\\\362\330\201\237T\011q"
 445      2B89EB00 
 445      E95CF2D8 
 445      819F5409 
 445      71
ARM GAS  /tmp/ccV5D8qL.s 			page 35


 446 105e 29826F16 		.ascii	")\202o\026\324&\243a\250C\356\274\244nD,\305\0272\354"
 446      D426A361 
 446      A843EEBC 
 446      A46E442C 
 446      C51732EC 
 447 1072 90EAF811 		.ascii	"\220\352\370\021aW\246\364\345*\241\262\266Z6\031\373"
 447      6157A6F4 
 447      E52AA1B2 
 447      B65A3619 
 447      FB
 448 1083 24908E24 		.ascii	"$\220\216$cQb!WUeuI\002\017\014\262EG\340\001\003\217"
 448      63516221 
 448      57556575 
 448      49020F0C 
 448      B24547E0 
 449 109a 8FB14A11 		.ascii	"\217\261J\021\017Q\251$vCj\301\202\214 \361R\242$#="
 449      0F51A924 
 449      76436AC1 
 449      828C20F1 
 449      52A22423 
 450 10af 884BAAF1 		.ascii	"\210K\252\361\303\262XU\\P|\200m\317Gk\374\367\376|"
 450      C3B25855 
 450      5C507C80 
 450      6DCF476B 
 450      FCF7FE7C 
 451 10c3 5E781E1E 		.ascii	"^x\036\036\032t\275\010\253\023\254\2301w\372\\-\036"
 451      1A74BD08 
 451      AB13AC98 
 451      3177FA5C 
 451      2D1E
 452 10d5 482F8A26 		.ascii	"H/\212&&\223A\263b\336\234\373\274\025\277\250\250\230"
 452      269341B3 
 452      62DE9CFB 
 452      BC15BFA8 
 452      A898
 453 10e7 39CF5B31 		.ascii	"9\317[1{:\271L\235O~\371\347\3367u\352l\362\373\276"
 453      7B3AB94C 
 453      9D4F7EF9 
 453      E7DE3775 
 453      EA6CF2FB 
 454 10fc B9F7E38B 		.ascii	"\271\367\343\213\357'\263\356\273\027_\335\263+\346"
 454      EF27B3EE 
 454      BB175FDD 
 454      B32BE6
 455 110b CEF154CC 		.ascii	"\316\361T\314\2321{\274g\306\217\347\376l|\340'\367"
 455      9A317BBC 
 455      67C68FE7 
 455      FE6C7CE0 
 455      27F7
 456 111d CFAC9837 		.ascii	"\317\254\2307}\326\314\361\2019S\347N\235\363\037S\357"
 456      7DD6CCF1 
 456      813953E7 
 456      4E9DF31F 
 456      53EF
 457 112f 1D0FE513 		.ascii	"\035\017\345\023\240|\002-\237@\313'@\371D(\237H\313"
 457      A07C022D 
 457      9F40CB27 
ARM GAS  /tmp/ccV5D8qL.s 			page 36


 457      40F94428 
 457      9F48CB
 458 1142 27D2F289 		.ascii	"'\322\362\211P>\011\312'\321\362I\177\007D\020\330\273"
 458      503E09CA 
 458      27D1F249 
 458      7F074410 
 458      D8BB
 459              		.text
 460              		.section	.gnu.lto_.symtab.e7623a7c42e0af74,"",%progbits
 461 0000 6368544D 		.ascii	"chTMObjectInit\000\000\000\000\000\000\000\000\000\000"
 461      4F626A65 
 461      6374496E 
 461      69740000 
 461      00000000 
 462 0018 0000A000 		.ascii	"\000\000\240\000\000\000chTMStartMeasurementX\000\000"
 462      00006368 
 462      544D5374 
 462      6172744D 
 462      65617375 
 463 0035 00000000 		.ascii	"\000\000\000\000\000\000\000\000\000\000\307\000\000"
 463      00000000 
 463      0000C700 
 463      00
 464 0042 00636854 		.ascii	"\000chTMStopMeasurementX\000\000\000\000\000\000\000"
 464      4D53746F 
 464      704D6561 
 464      73757265 
 464      6D656E74 
 465 005e 00000000 		.ascii	"\000\000\000\000\000\315\000\000\000_tm_init\000\000"
 465      00CD0000 
 465      005F746D 
 465      5F696E69 
 465      740000
 466 0071 00000000 		.ascii	"\000\000\000\000\000\000\000\000\000\000\322\000\000"
 466      00000000 
 466      0000D200 
 466      00
 467 007e 00636854 		.ascii	"\000chTMChainMeasurementToX\000\000\000\000\000\000"
 467      4D436861 
 467      696E4D65 
 467      61737572 
 467      656D656E 
 468 009c 00000000 		.ascii	"\000\000\000\000\000\000\326\000\000\000ch\000\000\002"
 468      0000D600 
 468      00006368 
 468      000002
 469 00ab 00000000 		.ascii	"\000\000\000\000\000\000\000\000\000\341\000\000\000"
 469      00000000 
 469      00E10000 
 469      00
 470              		.text
 471              		.section	.gnu.lto_.opts,"",%progbits
 472 0000 272D6D63 		.ascii	"'-mcpu=cortex-m4''-mno-thumb-interwork''-mthumb''-g"
 472      70753D63 
 472      6F727465 
 472      782D6D34 
 472      27272D6D 
ARM GAS  /tmp/ccV5D8qL.s 			page 37


 473 0033 67646227 		.ascii	"gdb''-O2''-fomit-frame-pointer''-falign-functions=1"
 473      272D4F32 
 473      27272D66 
 473      6F6D6974 
 473      2D667261 
 474 0066 3627272D 		.ascii	"6''-ffunction-sections''-fdata-sections''-fno-commo"
 474      6666756E 
 474      6374696F 
 474      6E2D7365 
 474      6374696F 
 475 0099 6E27272D 		.ascii	"n''-flto'\000"
 475      666C746F 
 475      2700
 476              		.text
 477              		.cfi_sections	.debug_frame
 478              		.section	.text.chTMObjectInit,"ax",%progbits
 479              		.align	2
 480              		.p2align 4,,15
 481              		.global	chTMObjectInit
 482              		.thumb
 483              		.thumb_func
 484              		.type	chTMObjectInit, %function
 485              	chTMObjectInit:
 486              	.LFB243:
 487              		.file 1 "../../../os/rt/src/chtm.c"
 488              		.loc 1 97 0
 489              		.cfi_startproc
 490              		@ args = 0, pretend = 0, frame = 0
 491              		@ frame_needed = 0, uses_anonymous_args = 0
 492              		@ link register save eliminated.
 493              	.LVL0:
 494              		.loc 1 103 0
 495 0000 0022     		movs	r2, #0
 496 0002 0023     		movs	r3, #0
 497 0004 C0E90423 		strd	r2, [r0, #16]
 498              		.loc 1 100 0
 499 0008 0023     		movs	r3, #0
 500              		.loc 1 99 0
 501 000a 4FF0FF32 		mov	r2, #-1
 502              		.loc 1 100 0
 503 000e 80E80C00 		stmia	r0, {r2, r3}
 504              		.loc 1 101 0
 505 0012 8360     		str	r3, [r0, #8]
 506              		.loc 1 102 0
 507 0014 C360     		str	r3, [r0, #12]
 508 0016 7047     		bx	lr
 509              		.cfi_endproc
 510              	.LFE243:
 511              		.size	chTMObjectInit, .-chTMObjectInit
 512 0018 AFF30080 		.section	.text.chTMStartMeasurementX,"ax",%progbits
 512      AFF30080 
 513              		.align	2
 514              		.p2align 4,,15
 515              		.global	chTMStartMeasurementX
 516              		.thumb
 517              		.thumb_func
 518              		.type	chTMStartMeasurementX, %function
ARM GAS  /tmp/ccV5D8qL.s 			page 38


 519              	chTMStartMeasurementX:
 520              	.LFB244:
 521              		.loc 1 114 0
 522              		.cfi_startproc
 523              		@ args = 0, pretend = 0, frame = 0
 524              		@ frame_needed = 0, uses_anonymous_args = 0
 525              		@ link register save eliminated.
 526              	.LVL1:
 527              	.LBB14:
 528              	.LBB15:
 529              		.file 2 "../../../os/rt/ports/ARMCMx/chcore_v7m.h"
 530              		.loc 2 570 0
 531 0000 4FF48053 		mov	r3, #4096
 532 0004 CEF20003 		movt	r3, 57344
 533 0008 5B68     		ldr	r3, [r3, #4]
 534              	.LBE15:
 535              	.LBE14:
 536              		.loc 1 116 0
 537 000a 8360     		str	r3, [r0, #8]
 538 000c 7047     		bx	lr
 539              		.cfi_endproc
 540              	.LFE244:
 541              		.size	chTMStartMeasurementX, .-chTMStartMeasurementX
 542 000e 00BF     		.section	.text.chTMStopMeasurementX,"ax",%progbits
 543              		.align	2
 544              		.p2align 4,,15
 545              		.global	chTMStopMeasurementX
 546              		.thumb
 547              		.thumb_func
 548              		.type	chTMStopMeasurementX, %function
 549              	chTMStopMeasurementX:
 550              	.LFB245:
 551              		.loc 1 127 0
 552              		.cfi_startproc
 553              		@ args = 0, pretend = 0, frame = 0
 554              		@ frame_needed = 0, uses_anonymous_args = 0
 555              		@ link register save eliminated.
 556              	.LVL2:
 557              	.LBB16:
 558              	.LBB17:
 559              		.loc 2 570 0
 560 0000 4FF48053 		mov	r3, #4096
 561 0004 CEF20003 		movt	r3, 57344
 562              	.LBE17:
 563              	.LBE16:
 564              		.loc 1 127 0
 565 0008 F0B4     		push	{r4, r5, r6, r7}
 566              	.LCFI0:
 567              		.cfi_def_cfa_offset 16
 568              		.cfi_offset 4, -16
 569              		.cfi_offset 5, -12
 570              		.cfi_offset 6, -8
 571              		.cfi_offset 7, -4
 572              	.LBB19:
 573              	.LBB18:
 574              		.loc 2 570 0
 575 000a 5968     		ldr	r1, [r3, #4]
ARM GAS  /tmp/ccV5D8qL.s 			page 39


 576              	.LBE18:
 577              	.LBE19:
 578              		.loc 1 129 0
 579 000c 0C4B     		ldr	r3, .L6
 580              	.LBB20:
 581              	.LBB21:
 582              		.loc 1 58 0
 583 000e 8668     		ldr	r6, [r0, #8]
 584              	.LBE21:
 585              	.LBE20:
 586              		.loc 1 129 0
 587 0010 5F6F     		ldr	r7, [r3, #116]
 588              	.LVL3:
 589              	.LBB23:
 590              	.LBB22:
 591              		.loc 1 57 0
 592 0012 C568     		ldr	r5, [r0, #12]
 593              		.loc 1 60 0
 594 0014 4468     		ldr	r4, [r0, #4]
 595              		.loc 1 59 0
 596 0016 D0E90423 		ldrd	r2, [r0, #16]
 597              		.loc 1 58 0
 598 001a 891B     		subs	r1, r1, r6
 599              	.LVL4:
 600 001c C91B     		subs	r1, r1, r7
 601              		.loc 1 57 0
 602 001e 0135     		adds	r5, r5, #1
 603              		.loc 1 59 0
 604 0020 5218     		adds	r2, r2, r1
 605 0022 43F10003 		adc	r3, r3, #0
 606 0026 C0E90423 		strd	r2, [r0, #16]
 607              		.loc 1 63 0
 608 002a 0368     		ldr	r3, [r0, #0]
 609              		.loc 1 57 0
 610 002c C560     		str	r5, [r0, #12]
 611              		.loc 1 60 0
 612 002e A142     		cmp	r1, r4
 613              		.loc 1 61 0
 614 0030 88BF     		it	hi
 615 0032 4160     		strhi	r1, [r0, #4]
 616              		.loc 1 63 0
 617 0034 9942     		cmp	r1, r3
 618              		.loc 1 58 0
 619 0036 8160     		str	r1, [r0, #8]
 620              		.loc 1 64 0
 621 0038 38BF     		it	cc
 622 003a 0160     		strcc	r1, [r0, #0]
 623              	.LBE22:
 624              	.LBE23:
 625              		.loc 1 130 0
 626 003c F0BC     		pop	{r4, r5, r6, r7}
 627 003e 7047     		bx	lr
 628              	.L7:
 629              		.align	2
 630              	.L6:
 631 0040 00000000 		.word	ch
 632              		.cfi_endproc
ARM GAS  /tmp/ccV5D8qL.s 			page 40


 633              	.LFE245:
 634              		.size	chTMStopMeasurementX, .-chTMStopMeasurementX
 635 0044 AFF30080 		.section	.text._tm_init,"ax",%progbits
 635      AFF30080 
 635      AFF30080 
 636              		.align	2
 637              		.p2align 4,,15
 638              		.global	_tm_init
 639              		.thumb
 640              		.thumb_func
 641              		.type	_tm_init, %function
 642              	_tm_init:
 643              	.LFB242:
 644              		.loc 1 77 0
 645              		.cfi_startproc
 646              		@ args = 0, pretend = 0, frame = 24
 647              		@ frame_needed = 0, uses_anonymous_args = 0
 648 0000 10B5     		push	{r4, lr}
 649              	.LCFI1:
 650              		.cfi_def_cfa_offset 8
 651              		.cfi_offset 4, -8
 652              		.cfi_offset 14, -4
 653              		.loc 1 83 0
 654 0002 40F20004 		movw	r4, #:lower16:ch
 655              		.loc 1 77 0
 656 0006 86B0     		sub	sp, sp, #24
 657              	.LCFI2:
 658              		.cfi_def_cfa_offset 32
 659              		.loc 1 83 0
 660 0008 C0F20004 		movt	r4, #:upper16:ch
 661 000c 0023     		movs	r3, #0
 662              	.LBB24:
 663              	.LBB25:
 664              		.loc 1 99 0
 665 000e 4FF0FF32 		mov	r2, #-1
 666              		.loc 1 100 0
 667 0012 8DE80C00 		stmia	sp, {r2, r3}
 668              	.LBE25:
 669              	.LBE24:
 670              		.loc 1 85 0
 671 0016 6846     		mov	r0, sp
 672              	.LBB28:
 673              	.LBB26:
 674              		.loc 1 103 0
 675 0018 0022     		movs	r2, #0
 676              	.LBE26:
 677              	.LBE28:
 678              		.loc 1 83 0
 679 001a 6367     		str	r3, [r4, #116]
 680              	.LVL5:
 681              	.LBB29:
 682              	.LBB27:
 683              		.loc 1 101 0
 684 001c 0293     		str	r3, [sp, #8]
 685              		.loc 1 102 0
 686 001e 0393     		str	r3, [sp, #12]
 687              		.loc 1 103 0
ARM GAS  /tmp/ccV5D8qL.s 			page 41


 688 0020 0023     		movs	r3, #0
 689 0022 CDE90423 		strd	r2, [sp, #16]
 690              	.LBE27:
 691              	.LBE29:
 692              		.loc 1 85 0
 693 0026 FFF7FEFF 		bl	chTMStartMeasurementX
 694              	.LVL6:
 695              		.loc 1 86 0
 696 002a 6846     		mov	r0, sp
 697 002c FFF7FEFF 		bl	chTMStopMeasurementX
 698              	.LVL7:
 699              		.loc 1 87 0
 700 0030 029B     		ldr	r3, [sp, #8]
 701 0032 6367     		str	r3, [r4, #116]
 702              		.loc 1 88 0
 703 0034 06B0     		add	sp, sp, #24
 704 0036 10BD     		pop	{r4, pc}
 705              		.cfi_endproc
 706              	.LFE242:
 707              		.size	_tm_init, .-_tm_init
 708 0038 AFF30080 		.section	.text.chTMChainMeasurementToX,"ax",%progbits
 708      AFF30080 
 709              		.align	2
 710              		.p2align 4,,15
 711              		.global	chTMChainMeasurementToX
 712              		.thumb
 713              		.thumb_func
 714              		.type	chTMChainMeasurementToX, %function
 715              	chTMChainMeasurementToX:
 716              	.LFB246:
 717              		.loc 1 145 0
 718              		.cfi_startproc
 719              		@ args = 0, pretend = 0, frame = 0
 720              		@ frame_needed = 0, uses_anonymous_args = 0
 721              		@ link register save eliminated.
 722              	.LVL8:
 723              	.LBB30:
 724              	.LBB31:
 725              		.loc 2 570 0
 726 0000 4FF48053 		mov	r3, #4096
 727 0004 CEF20003 		movt	r3, 57344
 728              	.LBE31:
 729              	.LBE30:
 730              		.loc 1 145 0
 731 0008 70B4     		push	{r4, r5, r6}
 732              	.LCFI3:
 733              		.cfi_def_cfa_offset 12
 734              		.cfi_offset 4, -12
 735              		.cfi_offset 5, -8
 736              		.cfi_offset 6, -4
 737              	.LBB33:
 738              	.LBB32:
 739              		.loc 2 570 0
 740 000a 5C68     		ldr	r4, [r3, #4]
 741              	.LBE32:
 742              	.LBE33:
 743              	.LBB34:
ARM GAS  /tmp/ccV5D8qL.s 			page 42


 744              	.LBB35:
 745              		.loc 1 57 0
 746 000c C668     		ldr	r6, [r0, #12]
 747              	.LBE35:
 748              	.LBE34:
 749              		.loc 1 148 0
 750 000e 8C60     		str	r4, [r1, #8]
 751              	.LVL9:
 752              	.LBB37:
 753              	.LBB36:
 754              		.loc 1 59 0
 755 0010 D0E90423 		ldrd	r2, [r0, #16]
 756              		.loc 1 58 0
 757 0014 8168     		ldr	r1, [r0, #8]
 758              	.LVL10:
 759              		.loc 1 60 0
 760 0016 4568     		ldr	r5, [r0, #4]
 761              		.loc 1 58 0
 762 0018 611A     		subs	r1, r4, r1
 763              		.loc 1 57 0
 764 001a 0136     		adds	r6, r6, #1
 765              		.loc 1 59 0
 766 001c 5218     		adds	r2, r2, r1
 767 001e 43F10003 		adc	r3, r3, #0
 768 0022 C0E90423 		strd	r2, [r0, #16]
 769              		.loc 1 63 0
 770 0026 0368     		ldr	r3, [r0, #0]
 771              		.loc 1 57 0
 772 0028 C660     		str	r6, [r0, #12]
 773              		.loc 1 60 0
 774 002a A942     		cmp	r1, r5
 775              		.loc 1 61 0
 776 002c 88BF     		it	hi
 777 002e 4160     		strhi	r1, [r0, #4]
 778              		.loc 1 63 0
 779 0030 9942     		cmp	r1, r3
 780              		.loc 1 58 0
 781 0032 8160     		str	r1, [r0, #8]
 782              		.loc 1 64 0
 783 0034 38BF     		it	cc
 784 0036 0160     		strcc	r1, [r0, #0]
 785              	.LBE36:
 786              	.LBE37:
 787              		.loc 1 152 0
 788 0038 70BC     		pop	{r4, r5, r6}
 789 003a 7047     		bx	lr
 790              		.cfi_endproc
 791              	.LFE246:
 792              		.size	chTMChainMeasurementToX, .-chTMChainMeasurementToX
 793 003c AFF30080 		.text
 794              	.Letext0:
 795              		.file 3 "/usr/local/bin/../lib/gcc/arm-none-eabi/4.7.2/../../../../arm-none-eabi/include/stdint.h"
 796              		.file 4 "../../../os/rt/ports/ARMCMx/compilers/GCC/chtypes.h"
 797              		.file 5 "../../../os/rt/include/chsystypes.h"
 798              		.file 6 "../../../os/rt/include/chschd.h"
 799              		.file 7 "../../../os/ext/CMSIS/include/core_cm4.h"
 800              		.file 8 "../../../os/rt/ports/ARMCMx/chcore.h"
ARM GAS  /tmp/ccV5D8qL.s 			page 43


 801              		.file 9 "../../../os/rt/include/chtm.h"
 802              		.file 10 "../../../os/rt/include/chsem.h"
 803              		.file 11 "../../../os/rt/include/chmtx.h"
 804              		.section	.debug_info,"",%progbits
 805              	.Ldebug_info0:
 806 0000 5A0A0000 		.4byte	0xa5a
 807 0004 0200     		.2byte	0x2
 808 0006 00000000 		.4byte	.Ldebug_abbrev0
 809 000a 04       		.byte	0x4
 810 000b 01       		.uleb128 0x1
 811 000c 6A010000 		.4byte	.LASF135
 812 0010 01       		.byte	0x1
 813 0011 41030000 		.4byte	.LASF136
 814 0015 10050000 		.4byte	.LASF137
 815 0019 80000000 		.4byte	.Ldebug_ranges0+0x80
 816 001d 00000000 		.4byte	0
 817 0021 00000000 		.4byte	0
 818 0025 00000000 		.4byte	.Ldebug_line0
 819 0029 02       		.uleb128 0x2
 820 002a 04       		.byte	0x4
 821 002b 05       		.byte	0x5
 822 002c 696E7400 		.ascii	"int\000"
 823 0030 03       		.uleb128 0x3
 824 0031 04       		.byte	0x4
 825 0032 07       		.byte	0x7
 826 0033 C5000000 		.4byte	.LASF0
 827 0037 03       		.uleb128 0x3
 828 0038 01       		.byte	0x1
 829 0039 06       		.byte	0x6
 830 003a 89050000 		.4byte	.LASF1
 831 003e 04       		.uleb128 0x4
 832 003f AA020000 		.4byte	.LASF5
 833 0043 03       		.byte	0x3
 834 0044 2A       		.byte	0x2a
 835 0045 49000000 		.4byte	0x49
 836 0049 03       		.uleb128 0x3
 837 004a 01       		.byte	0x1
 838 004b 08       		.byte	0x8
 839 004c CD040000 		.4byte	.LASF2
 840 0050 03       		.uleb128 0x3
 841 0051 02       		.byte	0x2
 842 0052 05       		.byte	0x5
 843 0053 F3030000 		.4byte	.LASF3
 844 0057 03       		.uleb128 0x3
 845 0058 02       		.byte	0x2
 846 0059 07       		.byte	0x7
 847 005a 95050000 		.4byte	.LASF4
 848 005e 04       		.uleb128 0x4
 849 005f AC040000 		.4byte	.LASF6
 850 0063 03       		.byte	0x3
 851 0064 4F       		.byte	0x4f
 852 0065 69000000 		.4byte	0x69
 853 0069 03       		.uleb128 0x3
 854 006a 04       		.byte	0x4
 855 006b 05       		.byte	0x5
 856 006c 1A040000 		.4byte	.LASF7
 857 0070 04       		.uleb128 0x4
ARM GAS  /tmp/ccV5D8qL.s 			page 44


 858 0071 4E010000 		.4byte	.LASF8
 859 0075 03       		.byte	0x3
 860 0076 50       		.byte	0x50
 861 0077 7B000000 		.4byte	0x7b
 862 007b 03       		.uleb128 0x3
 863 007c 04       		.byte	0x4
 864 007d 07       		.byte	0x7
 865 007e 8D040000 		.4byte	.LASF9
 866 0082 03       		.uleb128 0x3
 867 0083 08       		.byte	0x8
 868 0084 05       		.byte	0x5
 869 0085 F5020000 		.4byte	.LASF10
 870 0089 04       		.uleb128 0x4
 871 008a 57040000 		.4byte	.LASF11
 872 008e 03       		.byte	0x3
 873 008f 78       		.byte	0x78
 874 0090 94000000 		.4byte	0x94
 875 0094 03       		.uleb128 0x3
 876 0095 08       		.byte	0x8
 877 0096 07       		.byte	0x7
 878 0097 A3010000 		.4byte	.LASF12
 879 009b 04       		.uleb128 0x4
 880 009c B7030000 		.4byte	.LASF13
 881 00a0 04       		.byte	0x4
 882 00a1 39       		.byte	0x39
 883 00a2 70000000 		.4byte	0x70
 884 00a6 04       		.uleb128 0x4
 885 00a7 5E020000 		.4byte	.LASF14
 886 00ab 04       		.byte	0x4
 887 00ac 3A       		.byte	0x3a
 888 00ad 89000000 		.4byte	0x89
 889 00b1 04       		.uleb128 0x4
 890 00b2 94030000 		.4byte	.LASF15
 891 00b6 04       		.byte	0x4
 892 00b7 3C       		.byte	0x3c
 893 00b8 3E000000 		.4byte	0x3e
 894 00bc 04       		.uleb128 0x4
 895 00bd 73020000 		.4byte	.LASF16
 896 00c1 04       		.byte	0x4
 897 00c2 3D       		.byte	0x3d
 898 00c3 3E000000 		.4byte	0x3e
 899 00c7 04       		.uleb128 0x4
 900 00c8 85040000 		.4byte	.LASF17
 901 00cc 04       		.byte	0x4
 902 00cd 3E       		.byte	0x3e
 903 00ce 3E000000 		.4byte	0x3e
 904 00d2 04       		.uleb128 0x4
 905 00d3 8A010000 		.4byte	.LASF18
 906 00d7 04       		.byte	0x4
 907 00d8 40       		.byte	0x40
 908 00d9 70000000 		.4byte	0x70
 909 00dd 04       		.uleb128 0x4
 910 00de 13030000 		.4byte	.LASF19
 911 00e2 04       		.byte	0x4
 912 00e3 41       		.byte	0x41
 913 00e4 5E000000 		.4byte	0x5e
 914 00e8 04       		.uleb128 0x4
ARM GAS  /tmp/ccV5D8qL.s 			page 45


 915 00e9 57010000 		.4byte	.LASF20
 916 00ed 04       		.byte	0x4
 917 00ee 43       		.byte	0x43
 918 00ef 70000000 		.4byte	0x70
 919 00f3 04       		.uleb128 0x4
 920 00f4 D4010000 		.4byte	.LASF21
 921 00f8 04       		.byte	0x4
 922 00f9 45       		.byte	0x45
 923 00fa 5E000000 		.4byte	0x5e
 924 00fe 04       		.uleb128 0x4
 925 00ff 9C030000 		.4byte	.LASF22
 926 0103 04       		.byte	0x4
 927 0104 46       		.byte	0x46
 928 0105 70000000 		.4byte	0x70
 929 0109 04       		.uleb128 0x4
 930 010a 8A000000 		.4byte	.LASF23
 931 010e 05       		.byte	0x5
 932 010f 33       		.byte	0x33
 933 0110 70000000 		.4byte	0x70
 934 0114 04       		.uleb128 0x4
 935 0115 FF010000 		.4byte	.LASF24
 936 0119 05       		.byte	0x5
 937 011a 3F       		.byte	0x3f
 938 011b 1F010000 		.4byte	0x11f
 939 011f 05       		.uleb128 0x5
 940 0120 DC020000 		.4byte	.LASF44
 941 0124 44       		.byte	0x44
 942 0125 06       		.byte	0x6
 943 0126 C2       		.byte	0xc2
 944 0127 30020000 		.4byte	0x230
 945 012b 06       		.uleb128 0x6
 946 012c 50040000 		.4byte	.LASF25
 947 0130 06       		.byte	0x6
 948 0131 C3       		.byte	0xc3
 949 0132 3B020000 		.4byte	0x23b
 950 0136 02       		.byte	0x2
 951 0137 23       		.byte	0x23
 952 0138 00       		.uleb128 0
 953 0139 06       		.uleb128 0x6
 954 013a 75040000 		.4byte	.LASF26
 955 013e 06       		.byte	0x6
 956 013f C5       		.byte	0xc5
 957 0140 3B020000 		.4byte	0x23b
 958 0144 02       		.byte	0x2
 959 0145 23       		.byte	0x23
 960 0146 04       		.uleb128 0x4
 961 0147 06       		.uleb128 0x6
 962 0148 74000000 		.4byte	.LASF27
 963 014c 06       		.byte	0x6
 964 014d C7       		.byte	0xc7
 965 014e D2000000 		.4byte	0xd2
 966 0152 02       		.byte	0x2
 967 0153 23       		.byte	0x23
 968 0154 08       		.uleb128 0x8
 969 0155 06       		.uleb128 0x6
 970 0156 60040000 		.4byte	.LASF28
 971 015a 06       		.byte	0x6
ARM GAS  /tmp/ccV5D8qL.s 			page 46


 972 015b C8       		.byte	0xc8
 973 015c 27060000 		.4byte	0x627
 974 0160 02       		.byte	0x2
 975 0161 23       		.byte	0x23
 976 0162 0C       		.uleb128 0xc
 977 0163 06       		.uleb128 0x6
 978 0164 E0010000 		.4byte	.LASF29
 979 0168 06       		.byte	0x6
 980 0169 CA       		.byte	0xca
 981 016a 3B020000 		.4byte	0x23b
 982 016e 02       		.byte	0x2
 983 016f 23       		.byte	0x23
 984 0170 10       		.uleb128 0x10
 985 0171 06       		.uleb128 0x6
 986 0172 7C020000 		.4byte	.LASF30
 987 0176 06       		.byte	0x6
 988 0177 CB       		.byte	0xcb
 989 0178 3B020000 		.4byte	0x23b
 990 017c 02       		.byte	0x2
 991 017d 23       		.byte	0x23
 992 017e 14       		.uleb128 0x14
 993 017f 06       		.uleb128 0x6
 994 0180 4E020000 		.4byte	.LASF31
 995 0184 06       		.byte	0x6
 996 0185 D2       		.byte	0xd2
 997 0186 1E080000 		.4byte	0x81e
 998 018a 02       		.byte	0x2
 999 018b 23       		.byte	0x23
 1000 018c 18       		.uleb128 0x18
 1001 018d 06       		.uleb128 0x6
 1002 018e 8E020000 		.4byte	.LASF32
 1003 0192 06       		.byte	0x6
 1004 0193 DD       		.byte	0xdd
 1005 0194 BC000000 		.4byte	0xbc
 1006 0198 02       		.byte	0x2
 1007 0199 23       		.byte	0x23
 1008 019a 1C       		.uleb128 0x1c
 1009 019b 06       		.uleb128 0x6
 1010 019c 39030000 		.4byte	.LASF33
 1011 01a0 06       		.byte	0x6
 1012 01a1 E1       		.byte	0xe1
 1013 01a2 B1000000 		.4byte	0xb1
 1014 01a6 02       		.byte	0x2
 1015 01a7 23       		.byte	0x23
 1016 01a8 1D       		.uleb128 0x1d
 1017 01a9 06       		.uleb128 0x6
 1018 01aa F9040000 		.4byte	.LASF34
 1019 01ae 06       		.byte	0x6
 1020 01af E6       		.byte	0xe6
 1021 01b0 C7000000 		.4byte	0xc7
 1022 01b4 02       		.byte	0x2
 1023 01b5 23       		.byte	0x23
 1024 01b6 1E       		.uleb128 0x1e
 1025 01b7 07       		.uleb128 0x7
 1026 01b8 705F7500 		.ascii	"p_u\000"
 1027 01bc 06       		.byte	0x6
 1028 01bd 3101     		.2byte	0x131
ARM GAS  /tmp/ccV5D8qL.s 			page 47


 1029 01bf 4F070000 		.4byte	0x74f
 1030 01c3 02       		.byte	0x2
 1031 01c4 23       		.byte	0x23
 1032 01c5 20       		.uleb128 0x20
 1033 01c6 08       		.uleb128 0x8
 1034 01c7 20000000 		.4byte	.LASF35
 1035 01cb 06       		.byte	0x6
 1036 01cc 3601     		.2byte	0x136
 1037 01ce 41020000 		.4byte	0x241
 1038 01d2 02       		.byte	0x2
 1039 01d3 23       		.byte	0x23
 1040 01d4 24       		.uleb128 0x24
 1041 01d5 08       		.uleb128 0x8
 1042 01d6 BA000000 		.4byte	.LASF36
 1043 01da 06       		.byte	0x6
 1044 01db 3C01     		.2byte	0x13c
 1045 01dd 67020000 		.4byte	0x267
 1046 01e1 02       		.byte	0x2
 1047 01e2 23       		.byte	0x23
 1048 01e3 28       		.uleb128 0x28
 1049 01e4 08       		.uleb128 0x8
 1050 01e5 7D030000 		.4byte	.LASF37
 1051 01e9 06       		.byte	0x6
 1052 01ea 4001     		.2byte	0x140
 1053 01ec DD000000 		.4byte	0xdd
 1054 01f0 02       		.byte	0x2
 1055 01f1 23       		.byte	0x23
 1056 01f2 30       		.uleb128 0x30
 1057 01f3 08       		.uleb128 0x8
 1058 01f4 07040000 		.4byte	.LASF38
 1059 01f8 06       		.byte	0x6
 1060 01f9 4601     		.2byte	0x146
 1061 01fb E8000000 		.4byte	0xe8
 1062 01ff 02       		.byte	0x2
 1063 0200 23       		.byte	0x23
 1064 0201 34       		.uleb128 0x34
 1065 0202 08       		.uleb128 0x8
 1066 0203 D2020000 		.4byte	.LASF39
 1067 0207 06       		.byte	0x6
 1068 0208 4D01     		.2byte	0x14d
 1069 020a 18080000 		.4byte	0x818
 1070 020e 02       		.byte	0x2
 1071 020f 23       		.byte	0x23
 1072 0210 38       		.uleb128 0x38
 1073 0211 08       		.uleb128 0x8
 1074 0212 D4030000 		.4byte	.LASF40
 1075 0216 06       		.byte	0x6
 1076 0217 5101     		.2byte	0x151
 1077 0219 D2000000 		.4byte	0xd2
 1078 021d 02       		.byte	0x2
 1079 021e 23       		.byte	0x23
 1080 021f 3C       		.uleb128 0x3c
 1081 0220 08       		.uleb128 0x8
 1082 0221 CA020000 		.4byte	.LASF41
 1083 0225 06       		.byte	0x6
 1084 0226 5801     		.2byte	0x158
 1085 0228 2B030000 		.4byte	0x32b
ARM GAS  /tmp/ccV5D8qL.s 			page 48


 1086 022c 02       		.byte	0x2
 1087 022d 23       		.byte	0x23
 1088 022e 40       		.uleb128 0x40
 1089 022f 00       		.byte	0
 1090 0230 04       		.uleb128 0x4
 1091 0231 53000000 		.4byte	.LASF42
 1092 0235 05       		.byte	0x5
 1093 0236 44       		.byte	0x44
 1094 0237 3B020000 		.4byte	0x23b
 1095 023b 09       		.uleb128 0x9
 1096 023c 04       		.byte	0x4
 1097 023d 14010000 		.4byte	0x114
 1098 0241 04       		.uleb128 0x4
 1099 0242 D2000000 		.4byte	.LASF43
 1100 0246 05       		.byte	0x5
 1101 0247 49       		.byte	0x49
 1102 0248 4C020000 		.4byte	0x24c
 1103 024c 05       		.uleb128 0x5
 1104 024d 00000000 		.4byte	.LASF45
 1105 0251 04       		.byte	0x4
 1106 0252 06       		.byte	0x6
 1107 0253 B0       		.byte	0xb0
 1108 0254 67020000 		.4byte	0x267
 1109 0258 06       		.uleb128 0x6
 1110 0259 50040000 		.4byte	.LASF25
 1111 025d 06       		.byte	0x6
 1112 025e B1       		.byte	0xb1
 1113 025f 3B020000 		.4byte	0x23b
 1114 0263 02       		.byte	0x2
 1115 0264 23       		.byte	0x23
 1116 0265 00       		.uleb128 0
 1117 0266 00       		.byte	0
 1118 0267 04       		.uleb128 0x4
 1119 0268 10000000 		.4byte	.LASF46
 1120 026c 05       		.byte	0x5
 1121 026d 50       		.byte	0x50
 1122 026e 72020000 		.4byte	0x272
 1123 0272 05       		.uleb128 0x5
 1124 0273 1E010000 		.4byte	.LASF47
 1125 0277 08       		.byte	0x8
 1126 0278 06       		.byte	0x6
 1127 0279 B7       		.byte	0xb7
 1128 027a 9B020000 		.4byte	0x29b
 1129 027e 06       		.uleb128 0x6
 1130 027f 50040000 		.4byte	.LASF25
 1131 0283 06       		.byte	0x6
 1132 0284 B8       		.byte	0xb8
 1133 0285 3B020000 		.4byte	0x23b
 1134 0289 02       		.byte	0x2
 1135 028a 23       		.byte	0x23
 1136 028b 00       		.uleb128 0
 1137 028c 06       		.uleb128 0x6
 1138 028d 75040000 		.4byte	.LASF26
 1139 0291 06       		.byte	0x6
 1140 0292 B9       		.byte	0xb9
 1141 0293 3B020000 		.4byte	0x23b
 1142 0297 02       		.byte	0x2
ARM GAS  /tmp/ccV5D8qL.s 			page 49


 1143 0298 23       		.byte	0x23
 1144 0299 04       		.uleb128 0x4
 1145 029a 00       		.byte	0
 1146 029b 04       		.uleb128 0x4
 1147 029c 9F040000 		.4byte	.LASF48
 1148 02a0 05       		.byte	0x5
 1149 02a1 57       		.byte	0x57
 1150 02a2 A6020000 		.4byte	0x2a6
 1151 02a6 0A       		.uleb128 0xa
 1152 02a7 FA000000 		.4byte	.LASF49
 1153 02ab 1C       		.byte	0x1c
 1154 02ac 06       		.byte	0x6
 1155 02ad 9001     		.2byte	0x190
 1156 02af 0E030000 		.4byte	0x30e
 1157 02b3 08       		.uleb128 0x8
 1158 02b4 03030000 		.4byte	.LASF50
 1159 02b8 06       		.byte	0x6
 1160 02b9 9101     		.2byte	0x191
 1161 02bb 67020000 		.4byte	0x267
 1162 02bf 02       		.byte	0x2
 1163 02c0 23       		.byte	0x23
 1164 02c1 00       		.uleb128 0
 1165 02c2 08       		.uleb128 0x8
 1166 02c3 63010000 		.4byte	.LASF51
 1167 02c7 06       		.byte	0x6
 1168 02c8 9201     		.2byte	0x192
 1169 02ca D2000000 		.4byte	0xd2
 1170 02ce 02       		.byte	0x2
 1171 02cf 23       		.byte	0x23
 1172 02d0 08       		.uleb128 0x8
 1173 02d1 08       		.uleb128 0x8
 1174 02d2 A8050000 		.4byte	.LASF52
 1175 02d6 06       		.byte	0x6
 1176 02d7 9401     		.2byte	0x194
 1177 02d9 27060000 		.4byte	0x627
 1178 02dd 02       		.byte	0x2
 1179 02de 23       		.byte	0x23
 1180 02df 0C       		.uleb128 0xc
 1181 02e0 08       		.uleb128 0x8
 1182 02e1 0B030000 		.4byte	.LASF53
 1183 02e5 06       		.byte	0x6
 1184 02e6 9701     		.2byte	0x197
 1185 02e8 3B020000 		.4byte	0x23b
 1186 02ec 02       		.byte	0x2
 1187 02ed 23       		.byte	0x23
 1188 02ee 10       		.uleb128 0x10
 1189 02ef 08       		.uleb128 0x8
 1190 02f0 6B030000 		.4byte	.LASF54
 1191 02f4 06       		.byte	0x6
 1192 02f5 9801     		.2byte	0x198
 1193 02f7 3B020000 		.4byte	0x23b
 1194 02fb 02       		.byte	0x2
 1195 02fc 23       		.byte	0x23
 1196 02fd 14       		.uleb128 0x14
 1197 02fe 08       		.uleb128 0x8
 1198 02ff FD030000 		.4byte	.LASF55
 1199 0303 06       		.byte	0x6
ARM GAS  /tmp/ccV5D8qL.s 			page 50


 1200 0304 9B01     		.2byte	0x19b
 1201 0306 3B020000 		.4byte	0x23b
 1202 030a 02       		.byte	0x2
 1203 030b 23       		.byte	0x23
 1204 030c 18       		.uleb128 0x18
 1205 030d 00       		.byte	0
 1206 030e 04       		.uleb128 0x4
 1207 030f 2F010000 		.4byte	.LASF56
 1208 0313 05       		.byte	0x5
 1209 0314 5C       		.byte	0x5c
 1210 0315 19030000 		.4byte	0x319
 1211 0319 09       		.uleb128 0x9
 1212 031a 04       		.byte	0x4
 1213 031b 1F030000 		.4byte	0x31f
 1214 031f 0B       		.uleb128 0xb
 1215 0320 01       		.byte	0x1
 1216 0321 2B030000 		.4byte	0x32b
 1217 0325 0C       		.uleb128 0xc
 1218 0326 2B030000 		.4byte	0x32b
 1219 032a 00       		.byte	0
 1220 032b 0D       		.uleb128 0xd
 1221 032c 04       		.byte	0x4
 1222 032d 04       		.uleb128 0x4
 1223 032e 5B030000 		.4byte	.LASF57
 1224 0332 05       		.byte	0x5
 1225 0333 61       		.byte	0x61
 1226 0334 38030000 		.4byte	0x338
 1227 0338 0A       		.uleb128 0xa
 1228 0339 92010000 		.4byte	.LASF58
 1229 033d 14       		.byte	0x14
 1230 033e 06       		.byte	0x6
 1231 033f 6B01     		.2byte	0x16b
 1232 0341 91030000 		.4byte	0x391
 1233 0345 08       		.uleb128 0x8
 1234 0346 00050000 		.4byte	.LASF59
 1235 034a 06       		.byte	0x6
 1236 034b 6C01     		.2byte	0x16c
 1237 034d 30080000 		.4byte	0x830
 1238 0351 02       		.byte	0x2
 1239 0352 23       		.byte	0x23
 1240 0353 00       		.uleb128 0
 1241 0354 08       		.uleb128 0x8
 1242 0355 C1050000 		.4byte	.LASF60
 1243 0359 06       		.byte	0x6
 1244 035a 6D01     		.2byte	0x16d
 1245 035c 30080000 		.4byte	0x830
 1246 0360 02       		.byte	0x2
 1247 0361 23       		.byte	0x23
 1248 0362 04       		.uleb128 0x4
 1249 0363 08       		.uleb128 0x8
 1250 0364 55020000 		.4byte	.LASF61
 1251 0368 06       		.byte	0x6
 1252 0369 6E01     		.2byte	0x16e
 1253 036b 09010000 		.4byte	0x109
 1254 036f 02       		.byte	0x2
 1255 0370 23       		.byte	0x23
 1256 0371 08       		.uleb128 0x8
ARM GAS  /tmp/ccV5D8qL.s 			page 51


 1257 0372 08       		.uleb128 0x8
 1258 0373 B9050000 		.4byte	.LASF62
 1259 0377 06       		.byte	0x6
 1260 0378 6F01     		.2byte	0x16f
 1261 037a 0E030000 		.4byte	0x30e
 1262 037e 02       		.byte	0x2
 1263 037f 23       		.byte	0x23
 1264 0380 0C       		.uleb128 0xc
 1265 0381 08       		.uleb128 0x8
 1266 0382 76010000 		.4byte	.LASF63
 1267 0386 06       		.byte	0x6
 1268 0387 7101     		.2byte	0x171
 1269 0389 2B030000 		.4byte	0x32b
 1270 038d 02       		.byte	0x2
 1271 038e 23       		.byte	0x23
 1272 038f 10       		.uleb128 0x10
 1273 0390 00       		.byte	0
 1274 0391 04       		.uleb128 0x4
 1275 0392 E3040000 		.4byte	.LASF64
 1276 0396 05       		.byte	0x5
 1277 0397 66       		.byte	0x66
 1278 0398 9C030000 		.4byte	0x39c
 1279 039c 0A       		.uleb128 0xa
 1280 039d E8010000 		.4byte	.LASF65
 1281 03a1 10       		.byte	0x10
 1282 03a2 06       		.byte	0x6
 1283 03a3 7B01     		.2byte	0x17b
 1284 03a5 E6030000 		.4byte	0x3e6
 1285 03a9 08       		.uleb128 0x8
 1286 03aa 00050000 		.4byte	.LASF59
 1287 03ae 06       		.byte	0x6
 1288 03af 7C01     		.2byte	0x17c
 1289 03b1 30080000 		.4byte	0x830
 1290 03b5 02       		.byte	0x2
 1291 03b6 23       		.byte	0x23
 1292 03b7 00       		.uleb128 0
 1293 03b8 08       		.uleb128 0x8
 1294 03b9 C1050000 		.4byte	.LASF60
 1295 03bd 06       		.byte	0x6
 1296 03be 7E01     		.2byte	0x17e
 1297 03c0 30080000 		.4byte	0x830
 1298 03c4 02       		.byte	0x2
 1299 03c5 23       		.byte	0x23
 1300 03c6 04       		.uleb128 0x4
 1301 03c7 08       		.uleb128 0x8
 1302 03c8 55020000 		.4byte	.LASF61
 1303 03cc 06       		.byte	0x6
 1304 03cd 8001     		.2byte	0x180
 1305 03cf 09010000 		.4byte	0x109
 1306 03d3 02       		.byte	0x2
 1307 03d4 23       		.byte	0x23
 1308 03d5 08       		.uleb128 0x8
 1309 03d6 08       		.uleb128 0x8
 1310 03d7 67020000 		.4byte	.LASF66
 1311 03db 06       		.byte	0x6
 1312 03dc 8801     		.2byte	0x188
 1313 03de 09010000 		.4byte	0x109
ARM GAS  /tmp/ccV5D8qL.s 			page 52


 1314 03e2 02       		.byte	0x2
 1315 03e3 23       		.byte	0x23
 1316 03e4 0C       		.uleb128 0xc
 1317 03e5 00       		.byte	0
 1318 03e6 04       		.uleb128 0x4
 1319 03e7 E6020000 		.4byte	.LASF67
 1320 03eb 05       		.byte	0x5
 1321 03ec 6B       		.byte	0x6b
 1322 03ed F1030000 		.4byte	0x3f1
 1323 03f1 0A       		.uleb128 0xa
 1324 03f2 3E010000 		.4byte	.LASF68
 1325 03f6 04       		.byte	0x4
 1326 03f7 06       		.byte	0x6
 1327 03f8 A201     		.2byte	0x1a2
 1328 03fa 0E040000 		.4byte	0x40e
 1329 03fe 08       		.uleb128 0x8
 1330 03ff 73030000 		.4byte	.LASF69
 1331 0403 06       		.byte	0x6
 1332 0404 AA01     		.2byte	0x1aa
 1333 0406 36080000 		.4byte	0x836
 1334 040a 02       		.byte	0x2
 1335 040b 23       		.byte	0x23
 1336 040c 00       		.uleb128 0
 1337 040d 00       		.byte	0
 1338 040e 04       		.uleb128 0x4
 1339 040f 69050000 		.4byte	.LASF70
 1340 0413 05       		.byte	0x5
 1341 0414 70       		.byte	0x70
 1342 0415 19040000 		.4byte	0x419
 1343 0419 0E       		.uleb128 0xe
 1344 041a 46040000 		.4byte	.LASF71
 1345 041e 5001     		.2byte	0x150
 1346 0420 06       		.byte	0x6
 1347 0421 C201     		.2byte	0x1c2
 1348 0423 81040000 		.4byte	0x481
 1349 0427 08       		.uleb128 0x8
 1350 0428 66040000 		.4byte	.LASF72
 1351 042c 06       		.byte	0x6
 1352 042d C601     		.2byte	0x1c6
 1353 042f 9B020000 		.4byte	0x29b
 1354 0433 02       		.byte	0x2
 1355 0434 23       		.byte	0x23
 1356 0435 00       		.uleb128 0
 1357 0436 08       		.uleb128 0x8
 1358 0437 F3000000 		.4byte	.LASF73
 1359 043b 06       		.byte	0x6
 1360 043c CA01     		.2byte	0x1ca
 1361 043e 91030000 		.4byte	0x391
 1362 0442 02       		.byte	0x2
 1363 0443 23       		.byte	0x23
 1364 0444 1C       		.uleb128 0x1c
 1365 0445 07       		.uleb128 0x7
 1366 0446 64626700 		.ascii	"dbg\000"
 1367 044a 06       		.byte	0x6
 1368 044b CE01     		.2byte	0x1ce
 1369 044d E6030000 		.4byte	0x3e6
 1370 0451 02       		.byte	0x2
ARM GAS  /tmp/ccV5D8qL.s 			page 53


 1371 0452 23       		.byte	0x23
 1372 0453 2C       		.uleb128 0x2c
 1373 0454 08       		.uleb128 0x8
 1374 0455 A3030000 		.4byte	.LASF74
 1375 0459 06       		.byte	0x6
 1376 045a D201     		.2byte	0x1d2
 1377 045c 14010000 		.4byte	0x114
 1378 0460 02       		.byte	0x2
 1379 0461 23       		.byte	0x23
 1380 0462 30       		.uleb128 0x30
 1381 0463 07       		.uleb128 0x7
 1382 0464 746D00   		.ascii	"tm\000"
 1383 0467 06       		.byte	0x6
 1384 0468 D701     		.2byte	0x1d7
 1385 046a EC060000 		.4byte	0x6ec
 1386 046e 02       		.byte	0x2
 1387 046f 23       		.byte	0x23
 1388 0470 74       		.uleb128 0x74
 1389 0471 08       		.uleb128 0x8
 1390 0472 08010000 		.4byte	.LASF75
 1391 0476 06       		.byte	0x6
 1392 0477 E301     		.2byte	0x1e3
 1393 0479 3B080000 		.4byte	0x83b
 1394 047d 02       		.byte	0x2
 1395 047e 23       		.byte	0x23
 1396 047f 78       		.uleb128 0x78
 1397 0480 00       		.byte	0
 1398 0481 03       		.uleb128 0x3
 1399 0482 04       		.byte	0x4
 1400 0483 07       		.byte	0x7
 1401 0484 7C040000 		.4byte	.LASF76
 1402 0488 0F       		.uleb128 0xf
 1403 0489 70000000 		.4byte	0x70
 1404 048d 10       		.uleb128 0x10
 1405 048e 88040000 		.4byte	0x488
 1406 0492 11       		.uleb128 0x11
 1407 0493 70000000 		.4byte	0x70
 1408 0497 A2040000 		.4byte	0x4a2
 1409 049b 12       		.uleb128 0x12
 1410 049c 81040000 		.4byte	0x481
 1411 04a0 00       		.byte	0
 1412 04a1 00       		.byte	0
 1413 04a2 13       		.uleb128 0x13
 1414 04a3 5C       		.byte	0x5c
 1415 04a4 07       		.byte	0x7
 1416 04a5 5603     		.2byte	0x356
 1417 04a7 05060000 		.4byte	0x605
 1418 04ab 08       		.uleb128 0x8
 1419 04ac E3050000 		.4byte	.LASF77
 1420 04b0 07       		.byte	0x7
 1421 04b1 5803     		.2byte	0x358
 1422 04b3 88040000 		.4byte	0x488
 1423 04b7 02       		.byte	0x2
 1424 04b8 23       		.byte	0x23
 1425 04b9 00       		.uleb128 0
 1426 04ba 08       		.uleb128 0x8
 1427 04bb 7B050000 		.4byte	.LASF78
ARM GAS  /tmp/ccV5D8qL.s 			page 54


 1428 04bf 07       		.byte	0x7
 1429 04c0 5903     		.2byte	0x359
 1430 04c2 88040000 		.4byte	0x488
 1431 04c6 02       		.byte	0x2
 1432 04c7 23       		.byte	0x23
 1433 04c8 04       		.uleb128 0x4
 1434 04c9 08       		.uleb128 0x8
 1435 04ca 1F020000 		.4byte	.LASF79
 1436 04ce 07       		.byte	0x7
 1437 04cf 5A03     		.2byte	0x35a
 1438 04d1 88040000 		.4byte	0x488
 1439 04d5 02       		.byte	0x2
 1440 04d6 23       		.byte	0x23
 1441 04d7 08       		.uleb128 0x8
 1442 04d8 08       		.uleb128 0x8
 1443 04d9 DC050000 		.4byte	.LASF80
 1444 04dd 07       		.byte	0x7
 1445 04de 5B03     		.2byte	0x35b
 1446 04e0 88040000 		.4byte	0x488
 1447 04e4 02       		.byte	0x2
 1448 04e5 23       		.byte	0x23
 1449 04e6 0C       		.uleb128 0xc
 1450 04e7 08       		.uleb128 0x8
 1451 04e8 AE030000 		.4byte	.LASF81
 1452 04ec 07       		.byte	0x7
 1453 04ed 5C03     		.2byte	0x35c
 1454 04ef 88040000 		.4byte	0x488
 1455 04f3 02       		.byte	0x2
 1456 04f4 23       		.byte	0x23
 1457 04f5 10       		.uleb128 0x10
 1458 04f6 08       		.uleb128 0x8
 1459 04f7 34020000 		.4byte	.LASF82
 1460 04fb 07       		.byte	0x7
 1461 04fc 5D03     		.2byte	0x35d
 1462 04fe 88040000 		.4byte	0x488
 1463 0502 02       		.byte	0x2
 1464 0503 23       		.byte	0x23
 1465 0504 14       		.uleb128 0x14
 1466 0505 08       		.uleb128 0x8
 1467 0506 08050000 		.4byte	.LASF83
 1468 050a 07       		.byte	0x7
 1469 050b 5E03     		.2byte	0x35e
 1470 050d 88040000 		.4byte	0x488
 1471 0511 02       		.byte	0x2
 1472 0512 23       		.byte	0x23
 1473 0513 18       		.uleb128 0x18
 1474 0514 08       		.uleb128 0x8
 1475 0515 C3040000 		.4byte	.LASF84
 1476 0519 07       		.byte	0x7
 1477 051a 5F03     		.2byte	0x35f
 1478 051c 8D040000 		.4byte	0x48d
 1479 0520 02       		.byte	0x2
 1480 0521 23       		.byte	0x23
 1481 0522 1C       		.uleb128 0x1c
 1482 0523 08       		.uleb128 0x8
 1483 0524 3B000000 		.4byte	.LASF85
 1484 0528 07       		.byte	0x7
ARM GAS  /tmp/ccV5D8qL.s 			page 55


 1485 0529 6003     		.2byte	0x360
 1486 052b 88040000 		.4byte	0x488
 1487 052f 02       		.byte	0x2
 1488 0530 23       		.byte	0x23
 1489 0531 20       		.uleb128 0x20
 1490 0532 08       		.uleb128 0x8
 1491 0533 19030000 		.4byte	.LASF86
 1492 0537 07       		.byte	0x7
 1493 0538 6103     		.2byte	0x361
 1494 053a 88040000 		.4byte	0x488
 1495 053e 02       		.byte	0x2
 1496 053f 23       		.byte	0x23
 1497 0540 24       		.uleb128 0x24
 1498 0541 08       		.uleb128 0x8
 1499 0542 84020000 		.4byte	.LASF87
 1500 0546 07       		.byte	0x7
 1501 0547 6203     		.2byte	0x362
 1502 0549 88040000 		.4byte	0x488
 1503 054d 02       		.byte	0x2
 1504 054e 23       		.byte	0x23
 1505 054f 28       		.uleb128 0x28
 1506 0550 08       		.uleb128 0x8
 1507 0551 C9050000 		.4byte	.LASF88
 1508 0555 07       		.byte	0x7
 1509 0556 6303     		.2byte	0x363
 1510 0558 92040000 		.4byte	0x492
 1511 055c 02       		.byte	0x2
 1512 055d 23       		.byte	0x23
 1513 055e 2C       		.uleb128 0x2c
 1514 055f 08       		.uleb128 0x8
 1515 0560 41000000 		.4byte	.LASF89
 1516 0564 07       		.byte	0x7
 1517 0565 6403     		.2byte	0x364
 1518 0567 88040000 		.4byte	0x488
 1519 056b 02       		.byte	0x2
 1520 056c 23       		.byte	0x23
 1521 056d 30       		.uleb128 0x30
 1522 056e 08       		.uleb128 0x8
 1523 056f 1F030000 		.4byte	.LASF90
 1524 0573 07       		.byte	0x7
 1525 0574 6503     		.2byte	0x365
 1526 0576 88040000 		.4byte	0x488
 1527 057a 02       		.byte	0x2
 1528 057b 23       		.byte	0x23
 1529 057c 34       		.uleb128 0x34
 1530 057d 08       		.uleb128 0x8
 1531 057e 3C040000 		.4byte	.LASF91
 1532 0582 07       		.byte	0x7
 1533 0583 6603     		.2byte	0x366
 1534 0585 88040000 		.4byte	0x488
 1535 0589 02       		.byte	0x2
 1536 058a 23       		.byte	0x23
 1537 058b 38       		.uleb128 0x38
 1538 058c 08       		.uleb128 0x8
 1539 058d DF030000 		.4byte	.LASF92
 1540 0591 07       		.byte	0x7
 1541 0592 6703     		.2byte	0x367
ARM GAS  /tmp/ccV5D8qL.s 			page 56


 1542 0594 92040000 		.4byte	0x492
 1543 0598 02       		.byte	0x2
 1544 0599 23       		.byte	0x23
 1545 059a 3C       		.uleb128 0x3c
 1546 059b 08       		.uleb128 0x8
 1547 059c 47000000 		.4byte	.LASF93
 1548 05a0 07       		.byte	0x7
 1549 05a1 6803     		.2byte	0x368
 1550 05a3 88040000 		.4byte	0x488
 1551 05a7 02       		.byte	0x2
 1552 05a8 23       		.byte	0x23
 1553 05a9 40       		.uleb128 0x40
 1554 05aa 08       		.uleb128 0x8
 1555 05ab 25030000 		.4byte	.LASF94
 1556 05af 07       		.byte	0x7
 1557 05b0 6903     		.2byte	0x369
 1558 05b2 88040000 		.4byte	0x488
 1559 05b6 02       		.byte	0x2
 1560 05b7 23       		.byte	0x23
 1561 05b8 44       		.uleb128 0x44
 1562 05b9 08       		.uleb128 0x8
 1563 05ba 96020000 		.4byte	.LASF95
 1564 05be 07       		.byte	0x7
 1565 05bf 6A03     		.2byte	0x36a
 1566 05c1 88040000 		.4byte	0x488
 1567 05c5 02       		.byte	0x2
 1568 05c6 23       		.byte	0x23
 1569 05c7 48       		.uleb128 0x48
 1570 05c8 08       		.uleb128 0x8
 1571 05c9 E9030000 		.4byte	.LASF96
 1572 05cd 07       		.byte	0x7
 1573 05ce 6B03     		.2byte	0x36b
 1574 05d0 92040000 		.4byte	0x492
 1575 05d4 02       		.byte	0x2
 1576 05d5 23       		.byte	0x23
 1577 05d6 4C       		.uleb128 0x4c
 1578 05d7 08       		.uleb128 0x8
 1579 05d8 4D000000 		.4byte	.LASF97
 1580 05dc 07       		.byte	0x7
 1581 05dd 6C03     		.2byte	0x36c
 1582 05df 88040000 		.4byte	0x488
 1583 05e3 02       		.byte	0x2
 1584 05e4 23       		.byte	0x23
 1585 05e5 50       		.uleb128 0x50
 1586 05e6 08       		.uleb128 0x8
 1587 05e7 2B030000 		.4byte	.LASF98
 1588 05eb 07       		.byte	0x7
 1589 05ec 6D03     		.2byte	0x36d
 1590 05ee 88040000 		.4byte	0x488
 1591 05f2 02       		.byte	0x2
 1592 05f3 23       		.byte	0x23
 1593 05f4 54       		.uleb128 0x54
 1594 05f5 08       		.uleb128 0x8
 1595 05f6 A0020000 		.4byte	.LASF99
 1596 05fa 07       		.byte	0x7
 1597 05fb 6E03     		.2byte	0x36e
 1598 05fd 88040000 		.4byte	0x488
ARM GAS  /tmp/ccV5D8qL.s 			page 57


 1599 0601 02       		.byte	0x2
 1600 0602 23       		.byte	0x23
 1601 0603 58       		.uleb128 0x58
 1602 0604 00       		.byte	0
 1603 0605 14       		.uleb128 0x14
 1604 0606 26020000 		.4byte	.LASF100
 1605 060a 07       		.byte	0x7
 1606 060b 6F03     		.2byte	0x36f
 1607 060d A2040000 		.4byte	0x4a2
 1608 0611 04       		.uleb128 0x4
 1609 0612 6B000000 		.4byte	.LASF101
 1610 0616 08       		.byte	0x8
 1611 0617 65       		.byte	0x65
 1612 0618 2B030000 		.4byte	0x32b
 1613 061c 04       		.uleb128 0x4
 1614 061d AE050000 		.4byte	.LASF102
 1615 0621 08       		.byte	0x8
 1616 0622 6D       		.byte	0x6d
 1617 0623 89000000 		.4byte	0x89
 1618 0627 05       		.uleb128 0x5
 1619 0628 31030000 		.4byte	.LASF103
 1620 062c 04       		.byte	0x4
 1621 062d 08       		.byte	0x8
 1622 062e 89       		.byte	0x89
 1623 062f 42060000 		.4byte	0x642
 1624 0633 15       		.uleb128 0x15
 1625 0634 72313300 		.ascii	"r13\000"
 1626 0638 08       		.byte	0x8
 1627 0639 8A       		.byte	0x8a
 1628 063a CF060000 		.4byte	0x6cf
 1629 063e 02       		.byte	0x2
 1630 063f 23       		.byte	0x23
 1631 0640 00       		.uleb128 0
 1632 0641 00       		.byte	0
 1633 0642 05       		.uleb128 0x5
 1634 0643 23040000 		.4byte	.LASF104
 1635 0647 24       		.byte	0x24
 1636 0648 02       		.byte	0x2
 1637 0649 FD       		.byte	0xfd
 1638 064a CF060000 		.4byte	0x6cf
 1639 064e 07       		.uleb128 0x7
 1640 064f 723400   		.ascii	"r4\000"
 1641 0652 02       		.byte	0x2
 1642 0653 1001     		.2byte	0x110
 1643 0655 11060000 		.4byte	0x611
 1644 0659 02       		.byte	0x2
 1645 065a 23       		.byte	0x23
 1646 065b 00       		.uleb128 0
 1647 065c 07       		.uleb128 0x7
 1648 065d 723500   		.ascii	"r5\000"
 1649 0660 02       		.byte	0x2
 1650 0661 1101     		.2byte	0x111
 1651 0663 11060000 		.4byte	0x611
 1652 0667 02       		.byte	0x2
 1653 0668 23       		.byte	0x23
 1654 0669 04       		.uleb128 0x4
 1655 066a 07       		.uleb128 0x7
ARM GAS  /tmp/ccV5D8qL.s 			page 58


 1656 066b 723600   		.ascii	"r6\000"
 1657 066e 02       		.byte	0x2
 1658 066f 1201     		.2byte	0x112
 1659 0671 11060000 		.4byte	0x611
 1660 0675 02       		.byte	0x2
 1661 0676 23       		.byte	0x23
 1662 0677 08       		.uleb128 0x8
 1663 0678 07       		.uleb128 0x7
 1664 0679 723700   		.ascii	"r7\000"
 1665 067c 02       		.byte	0x2
 1666 067d 1301     		.2byte	0x113
 1667 067f 11060000 		.4byte	0x611
 1668 0683 02       		.byte	0x2
 1669 0684 23       		.byte	0x23
 1670 0685 0C       		.uleb128 0xc
 1671 0686 07       		.uleb128 0x7
 1672 0687 723800   		.ascii	"r8\000"
 1673 068a 02       		.byte	0x2
 1674 068b 1401     		.2byte	0x114
 1675 068d 11060000 		.4byte	0x611
 1676 0691 02       		.byte	0x2
 1677 0692 23       		.byte	0x23
 1678 0693 10       		.uleb128 0x10
 1679 0694 07       		.uleb128 0x7
 1680 0695 723900   		.ascii	"r9\000"
 1681 0698 02       		.byte	0x2
 1682 0699 1501     		.2byte	0x115
 1683 069b 11060000 		.4byte	0x611
 1684 069f 02       		.byte	0x2
 1685 06a0 23       		.byte	0x23
 1686 06a1 14       		.uleb128 0x14
 1687 06a2 07       		.uleb128 0x7
 1688 06a3 72313000 		.ascii	"r10\000"
 1689 06a7 02       		.byte	0x2
 1690 06a8 1601     		.2byte	0x116
 1691 06aa 11060000 		.4byte	0x611
 1692 06ae 02       		.byte	0x2
 1693 06af 23       		.byte	0x23
 1694 06b0 18       		.uleb128 0x18
 1695 06b1 07       		.uleb128 0x7
 1696 06b2 72313100 		.ascii	"r11\000"
 1697 06b6 02       		.byte	0x2
 1698 06b7 1701     		.2byte	0x117
 1699 06b9 11060000 		.4byte	0x611
 1700 06bd 02       		.byte	0x2
 1701 06be 23       		.byte	0x23
 1702 06bf 1C       		.uleb128 0x1c
 1703 06c0 07       		.uleb128 0x7
 1704 06c1 6C7200   		.ascii	"lr\000"
 1705 06c4 02       		.byte	0x2
 1706 06c5 1801     		.2byte	0x118
 1707 06c7 11060000 		.4byte	0x611
 1708 06cb 02       		.byte	0x2
 1709 06cc 23       		.byte	0x23
 1710 06cd 20       		.uleb128 0x20
 1711 06ce 00       		.byte	0
 1712 06cf 09       		.uleb128 0x9
ARM GAS  /tmp/ccV5D8qL.s 			page 59


 1713 06d0 04       		.byte	0x4
 1714 06d1 42060000 		.4byte	0x642
 1715 06d5 16       		.uleb128 0x16
 1716 06d6 04       		.byte	0x4
 1717 06d7 09       		.byte	0x9
 1718 06d8 38       		.byte	0x38
 1719 06d9 EC060000 		.4byte	0x6ec
 1720 06dd 06       		.uleb128 0x6
 1721 06de 0F020000 		.4byte	.LASF105
 1722 06e2 09       		.byte	0x9
 1723 06e3 3C       		.byte	0x3c
 1724 06e4 9B000000 		.4byte	0x9b
 1725 06e8 02       		.byte	0x2
 1726 06e9 23       		.byte	0x23
 1727 06ea 00       		.uleb128 0
 1728 06eb 00       		.byte	0
 1729 06ec 04       		.uleb128 0x4
 1730 06ed 83030000 		.4byte	.LASF106
 1731 06f1 09       		.byte	0x9
 1732 06f2 3D       		.byte	0x3d
 1733 06f3 D5060000 		.4byte	0x6d5
 1734 06f7 16       		.uleb128 0x16
 1735 06f8 18       		.byte	0x18
 1736 06f9 09       		.byte	0x9
 1737 06fa 48       		.byte	0x48
 1738 06fb 44070000 		.4byte	0x744
 1739 06ff 06       		.uleb128 0x6
 1740 0700 C8040000 		.4byte	.LASF107
 1741 0704 09       		.byte	0x9
 1742 0705 49       		.byte	0x49
 1743 0706 9B000000 		.4byte	0x9b
 1744 070a 02       		.byte	0x2
 1745 070b 23       		.byte	0x23
 1746 070c 00       		.uleb128 0
 1747 070d 06       		.uleb128 0x6
 1748 070e DA010000 		.4byte	.LASF108
 1749 0712 09       		.byte	0x9
 1750 0713 4A       		.byte	0x4a
 1751 0714 9B000000 		.4byte	0x9b
 1752 0718 02       		.byte	0x2
 1753 0719 23       		.byte	0x23
 1754 071a 04       		.uleb128 0x4
 1755 071b 06       		.uleb128 0x6
 1756 071c 2F020000 		.4byte	.LASF109
 1757 0720 09       		.byte	0x9
 1758 0721 4B       		.byte	0x4b
 1759 0722 9B000000 		.4byte	0x9b
 1760 0726 02       		.byte	0x2
 1761 0727 23       		.byte	0x23
 1762 0728 08       		.uleb128 0x8
 1763 0729 15       		.uleb128 0x15
 1764 072a 6E00     		.ascii	"n\000"
 1765 072c 09       		.byte	0x9
 1766 072d 4C       		.byte	0x4c
 1767 072e FE000000 		.4byte	0xfe
 1768 0732 02       		.byte	0x2
 1769 0733 23       		.byte	0x23
ARM GAS  /tmp/ccV5D8qL.s 			page 60


 1770 0734 0C       		.uleb128 0xc
 1771 0735 06       		.uleb128 0x6
 1772 0736 E1000000 		.4byte	.LASF110
 1773 073a 09       		.byte	0x9
 1774 073b 4D       		.byte	0x4d
 1775 073c A6000000 		.4byte	0xa6
 1776 0740 02       		.byte	0x2
 1777 0741 23       		.byte	0x23
 1778 0742 10       		.uleb128 0x10
 1779 0743 00       		.byte	0
 1780 0744 04       		.uleb128 0x4
 1781 0745 3B020000 		.4byte	.LASF111
 1782 0749 09       		.byte	0x9
 1783 074a 4E       		.byte	0x4e
 1784 074b F7060000 		.4byte	0x6f7
 1785 074f 17       		.uleb128 0x17
 1786 0750 04       		.byte	0x4
 1787 0751 06       		.byte	0x6
 1788 0752 FA       		.byte	0xfa
 1789 0753 AC070000 		.4byte	0x7ac
 1790 0757 18       		.uleb128 0x18
 1791 0758 08020000 		.4byte	.LASF112
 1792 075c 06       		.byte	0x6
 1793 075d 0101     		.2byte	0x101
 1794 075f DD000000 		.4byte	0xdd
 1795 0763 18       		.uleb128 0x18
 1796 0764 D3050000 		.4byte	.LASF113
 1797 0768 06       		.byte	0x6
 1798 0769 0801     		.2byte	0x108
 1799 076b DD000000 		.4byte	0xdd
 1800 076f 18       		.uleb128 0x18
 1801 0770 EC000000 		.4byte	.LASF114
 1802 0774 06       		.byte	0x6
 1803 0775 0F01     		.2byte	0x10f
 1804 0777 2B030000 		.4byte	0x32b
 1805 077b 18       		.uleb128 0x18
 1806 077c 75050000 		.4byte	.LASF115
 1807 0780 06       		.byte	0x6
 1808 0781 1601     		.2byte	0x116
 1809 0783 AC070000 		.4byte	0x7ac
 1810 0787 18       		.uleb128 0x18
 1811 0788 B4040000 		.4byte	.LASF116
 1812 078c 06       		.byte	0x6
 1813 078d 1E01     		.2byte	0x11e
 1814 078f DB070000 		.4byte	0x7db
 1815 0793 18       		.uleb128 0x18
 1816 0794 34000000 		.4byte	.LASF117
 1817 0798 06       		.byte	0x6
 1818 0799 2701     		.2byte	0x127
 1819 079b 18080000 		.4byte	0x818
 1820 079f 18       		.uleb128 0x18
 1821 07a0 17010000 		.4byte	.LASF118
 1822 07a4 06       		.byte	0x6
 1823 07a5 2F01     		.2byte	0x12f
 1824 07a7 E8000000 		.4byte	0xe8
 1825 07ab 00       		.byte	0
 1826 07ac 09       		.uleb128 0x9
ARM GAS  /tmp/ccV5D8qL.s 			page 61


 1827 07ad 04       		.byte	0x4
 1828 07ae 30020000 		.4byte	0x230
 1829 07b2 05       		.uleb128 0x5
 1830 07b3 7D010000 		.4byte	.LASF119
 1831 07b7 0C       		.byte	0xc
 1832 07b8 0A       		.byte	0xa
 1833 07b9 34       		.byte	0x34
 1834 07ba DB070000 		.4byte	0x7db
 1835 07be 06       		.uleb128 0x6
 1836 07bf 9C000000 		.4byte	.LASF120
 1837 07c3 0A       		.byte	0xa
 1838 07c4 35       		.byte	0x35
 1839 07c5 67020000 		.4byte	0x267
 1840 07c9 02       		.byte	0x2
 1841 07ca 23       		.byte	0x23
 1842 07cb 00       		.uleb128 0
 1843 07cc 06       		.uleb128 0x6
 1844 07cd 38010000 		.4byte	.LASF121
 1845 07d1 0A       		.byte	0xa
 1846 07d2 37       		.byte	0x37
 1847 07d3 F3000000 		.4byte	0xf3
 1848 07d7 02       		.byte	0x2
 1849 07d8 23       		.byte	0x23
 1850 07d9 08       		.uleb128 0x8
 1851 07da 00       		.byte	0
 1852 07db 09       		.uleb128 0x9
 1853 07dc 04       		.byte	0x4
 1854 07dd B2070000 		.4byte	0x7b2
 1855 07e1 05       		.uleb128 0x5
 1856 07e2 16020000 		.4byte	.LASF122
 1857 07e6 10       		.byte	0x10
 1858 07e7 0B       		.byte	0xb
 1859 07e8 39       		.byte	0x39
 1860 07e9 18080000 		.4byte	0x818
 1861 07ed 06       		.uleb128 0x6
 1862 07ee 12040000 		.4byte	.LASF123
 1863 07f2 0B       		.byte	0xb
 1864 07f3 3A       		.byte	0x3a
 1865 07f4 67020000 		.4byte	0x267
 1866 07f8 02       		.byte	0x2
 1867 07f9 23       		.byte	0x23
 1868 07fa 00       		.uleb128 0
 1869 07fb 06       		.uleb128 0x6
 1870 07fc 94000000 		.4byte	.LASF124
 1871 0800 0B       		.byte	0xb
 1872 0801 3C       		.byte	0x3c
 1873 0802 3B020000 		.4byte	0x23b
 1874 0806 02       		.byte	0x2
 1875 0807 23       		.byte	0x23
 1876 0808 08       		.uleb128 0x8
 1877 0809 06       		.uleb128 0x6
 1878 080a 82050000 		.4byte	.LASF125
 1879 080e 0B       		.byte	0xb
 1880 080f 3E       		.byte	0x3e
 1881 0810 56080000 		.4byte	0x856
 1882 0814 02       		.byte	0x2
 1883 0815 23       		.byte	0x23
ARM GAS  /tmp/ccV5D8qL.s 			page 62


 1884 0816 0C       		.uleb128 0xc
 1885 0817 00       		.byte	0
 1886 0818 09       		.uleb128 0x9
 1887 0819 04       		.byte	0x4
 1888 081a E1070000 		.4byte	0x7e1
 1889 081e 09       		.uleb128 0x9
 1890 081f 04       		.byte	0x4
 1891 0820 24080000 		.4byte	0x824
 1892 0824 10       		.uleb128 0x10
 1893 0825 29080000 		.4byte	0x829
 1894 0829 03       		.uleb128 0x3
 1895 082a 01       		.byte	0x1
 1896 082b 08       		.byte	0x8
 1897 082c 66000000 		.4byte	.LASF126
 1898 0830 09       		.uleb128 0x9
 1899 0831 04       		.byte	0x4
 1900 0832 2D030000 		.4byte	0x32d
 1901 0836 0F       		.uleb128 0xf
 1902 0837 1E080000 		.4byte	0x81e
 1903 083b 11       		.uleb128 0x11
 1904 083c 1C060000 		.4byte	0x61c
 1905 0840 4B080000 		.4byte	0x84b
 1906 0844 12       		.uleb128 0x12
 1907 0845 81040000 		.4byte	0x481
 1908 0849 1A       		.byte	0x1a
 1909 084a 00       		.byte	0
 1910 084b 04       		.uleb128 0x4
 1911 084c BB040000 		.4byte	.LASF127
 1912 0850 0B       		.byte	0xb
 1913 0851 34       		.byte	0x34
 1914 0852 E1070000 		.4byte	0x7e1
 1915 0856 09       		.uleb128 0x9
 1916 0857 04       		.byte	0x4
 1917 0858 4B080000 		.4byte	0x84b
 1918 085c 19       		.uleb128 0x19
 1919 085d BA010000 		.4byte	.LASF138
 1920 0861 02       		.byte	0x2
 1921 0862 3802     		.2byte	0x238
 1922 0864 01       		.byte	0x1
 1923 0865 9B000000 		.4byte	0x9b
 1924 0869 03       		.byte	0x3
 1925 086a 1A       		.uleb128 0x1a
 1926 086b DB040000 		.4byte	.LASF139
 1927 086f 01       		.byte	0x1
 1928 0870 35       		.byte	0x35
 1929 0871 01       		.byte	0x1
 1930 0872 03       		.byte	0x3
 1931 0873 99080000 		.4byte	0x899
 1932 0877 1B       		.uleb128 0x1b
 1933 0878 746D7000 		.ascii	"tmp\000"
 1934 087c 01       		.byte	0x1
 1935 087d 35       		.byte	0x35
 1936 087e 99080000 		.4byte	0x899
 1937 0882 1B       		.uleb128 0x1b
 1938 0883 6E6F7700 		.ascii	"now\000"
 1939 0887 01       		.byte	0x1
 1940 0888 36       		.byte	0x36
ARM GAS  /tmp/ccV5D8qL.s 			page 63


 1941 0889 9B000000 		.4byte	0x9b
 1942 088d 1C       		.uleb128 0x1c
 1943 088e 0F020000 		.4byte	.LASF105
 1944 0892 01       		.byte	0x1
 1945 0893 37       		.byte	0x37
 1946 0894 9B000000 		.4byte	0x9b
 1947 0898 00       		.byte	0
 1948 0899 09       		.uleb128 0x9
 1949 089a 04       		.byte	0x4
 1950 089b 44070000 		.4byte	0x744
 1951 089f 1D       		.uleb128 0x1d
 1952 08a0 01       		.byte	0x1
 1953 08a1 7B000000 		.4byte	.LASF140
 1954 08a5 01       		.byte	0x1
 1955 08a6 61       		.byte	0x61
 1956 08a7 01       		.byte	0x1
 1957 08a8 01       		.byte	0x1
 1958 08a9 B9080000 		.4byte	0x8b9
 1959 08ad 1B       		.uleb128 0x1b
 1960 08ae 746D7000 		.ascii	"tmp\000"
 1961 08b2 01       		.byte	0x1
 1962 08b3 61       		.byte	0x61
 1963 08b4 99080000 		.4byte	0x899
 1964 08b8 00       		.byte	0
 1965 08b9 1E       		.uleb128 0x1e
 1966 08ba 9F080000 		.4byte	0x89f
 1967 08be 00000000 		.4byte	.LFB243
 1968 08c2 18000000 		.4byte	.LFE243
 1969 08c6 02       		.byte	0x2
 1970 08c7 7D       		.byte	0x7d
 1971 08c8 00       		.sleb128 0
 1972 08c9 01       		.byte	0x1
 1973 08ca D6080000 		.4byte	0x8d6
 1974 08ce 1F       		.uleb128 0x1f
 1975 08cf AD080000 		.4byte	0x8ad
 1976 08d3 01       		.byte	0x1
 1977 08d4 50       		.byte	0x50
 1978 08d5 00       		.byte	0
 1979 08d6 20       		.uleb128 0x20
 1980 08d7 01       		.byte	0x1
 1981 08d8 A4000000 		.4byte	.LASF128
 1982 08dc 01       		.byte	0x1
 1983 08dd 72       		.byte	0x72
 1984 08de 01       		.byte	0x1
 1985 08df 00000000 		.4byte	.LFB244
 1986 08e3 0E000000 		.4byte	.LFE244
 1987 08e7 02       		.byte	0x2
 1988 08e8 7D       		.byte	0x7d
 1989 08e9 00       		.sleb128 0
 1990 08ea 01       		.byte	0x1
 1991 08eb 0C090000 		.4byte	0x90c
 1992 08ef 21       		.uleb128 0x21
 1993 08f0 746D7000 		.ascii	"tmp\000"
 1994 08f4 01       		.byte	0x1
 1995 08f5 72       		.byte	0x72
 1996 08f6 99080000 		.4byte	0x899
 1997 08fa 01       		.byte	0x1
ARM GAS  /tmp/ccV5D8qL.s 			page 64


 1998 08fb 50       		.byte	0x50
 1999 08fc 22       		.uleb128 0x22
 2000 08fd 5C080000 		.4byte	0x85c
 2001 0901 00000000 		.4byte	.LBB14
 2002 0905 0A000000 		.4byte	.LBE14
 2003 0909 01       		.byte	0x1
 2004 090a 74       		.byte	0x74
 2005 090b 00       		.byte	0
 2006 090c 23       		.uleb128 0x23
 2007 090d 01       		.byte	0x1
 2008 090e BF030000 		.4byte	.LASF129
 2009 0912 01       		.byte	0x1
 2010 0913 7F       		.byte	0x7f
 2011 0914 01       		.byte	0x1
 2012 0915 00000000 		.4byte	.LFB245
 2013 0919 44000000 		.4byte	.LFE245
 2014 091d 00000000 		.4byte	.LLST0
 2015 0921 01       		.byte	0x1
 2016 0922 6A090000 		.4byte	0x96a
 2017 0926 21       		.uleb128 0x21
 2018 0927 746D7000 		.ascii	"tmp\000"
 2019 092b 01       		.byte	0x1
 2020 092c 7F       		.byte	0x7f
 2021 092d 99080000 		.4byte	0x899
 2022 0931 01       		.byte	0x1
 2023 0932 50       		.byte	0x50
 2024 0933 24       		.uleb128 0x24
 2025 0934 5C080000 		.4byte	0x85c
 2026 0938 00000000 		.4byte	.LBB16
 2027 093c 00000000 		.4byte	.Ldebug_ranges0+0
 2028 0940 01       		.byte	0x1
 2029 0941 81       		.byte	0x81
 2030 0942 25       		.uleb128 0x25
 2031 0943 6A080000 		.4byte	0x86a
 2032 0947 0E000000 		.4byte	.LBB20
 2033 094b 18000000 		.4byte	.Ldebug_ranges0+0x18
 2034 094f 01       		.byte	0x1
 2035 0950 81       		.byte	0x81
 2036 0951 1F       		.uleb128 0x1f
 2037 0952 8D080000 		.4byte	0x88d
 2038 0956 01       		.byte	0x1
 2039 0957 57       		.byte	0x57
 2040 0958 26       		.uleb128 0x26
 2041 0959 82080000 		.4byte	0x882
 2042 095d 20000000 		.4byte	.LLST1
 2043 0961 1F       		.uleb128 0x1f
 2044 0962 77080000 		.4byte	0x877
 2045 0966 01       		.byte	0x1
 2046 0967 50       		.byte	0x50
 2047 0968 00       		.byte	0
 2048 0969 00       		.byte	0
 2049 096a 23       		.uleb128 0x23
 2050 096b 01       		.byte	0x1
 2051 096c 6C040000 		.4byte	.LASF130
 2052 0970 01       		.byte	0x1
 2053 0971 4D       		.byte	0x4d
 2054 0972 01       		.byte	0x1
ARM GAS  /tmp/ccV5D8qL.s 			page 65


 2055 0973 00000000 		.4byte	.LFB242
 2056 0977 38000000 		.4byte	.LFE242
 2057 097b 33000000 		.4byte	.LLST2
 2058 097f 01       		.byte	0x1
 2059 0980 D3090000 		.4byte	0x9d3
 2060 0984 27       		.uleb128 0x27
 2061 0985 746D00   		.ascii	"tm\000"
 2062 0988 01       		.byte	0x1
 2063 0989 4E       		.byte	0x4e
 2064 098a 44070000 		.4byte	0x744
 2065 098e 02       		.byte	0x2
 2066 098f 91       		.byte	0x91
 2067 0990 60       		.sleb128 -32
 2068 0991 28       		.uleb128 0x28
 2069 0992 9F080000 		.4byte	0x89f
 2070 0996 0E000000 		.4byte	.LBB24
 2071 099a 30000000 		.4byte	.Ldebug_ranges0+0x30
 2072 099e 01       		.byte	0x1
 2073 099f 54       		.byte	0x54
 2074 09a0 AE090000 		.4byte	0x9ae
 2075 09a4 26       		.uleb128 0x26
 2076 09a5 AD080000 		.4byte	0x8ad
 2077 09a9 5F000000 		.4byte	.LLST3
 2078 09ad 00       		.byte	0
 2079 09ae 29       		.uleb128 0x29
 2080 09af 2A000000 		.4byte	.LVL6
 2081 09b3 D6080000 		.4byte	0x8d6
 2082 09b7 C2090000 		.4byte	0x9c2
 2083 09bb 2A       		.uleb128 0x2a
 2084 09bc 01       		.byte	0x1
 2085 09bd 50       		.byte	0x50
 2086 09be 02       		.byte	0x2
 2087 09bf 7D       		.byte	0x7d
 2088 09c0 00       		.sleb128 0
 2089 09c1 00       		.byte	0
 2090 09c2 2B       		.uleb128 0x2b
 2091 09c3 30000000 		.4byte	.LVL7
 2092 09c7 0C090000 		.4byte	0x90c
 2093 09cb 2A       		.uleb128 0x2a
 2094 09cc 01       		.byte	0x1
 2095 09cd 50       		.byte	0x50
 2096 09ce 02       		.byte	0x2
 2097 09cf 7D       		.byte	0x7d
 2098 09d0 00       		.sleb128 0
 2099 09d1 00       		.byte	0
 2100 09d2 00       		.byte	0
 2101 09d3 23       		.uleb128 0x23
 2102 09d4 01       		.byte	0x1
 2103 09d5 B2020000 		.4byte	.LASF131
 2104 09d9 01       		.byte	0x1
 2105 09da 90       		.byte	0x90
 2106 09db 01       		.byte	0x1
 2107 09dc 00000000 		.4byte	.LFB246
 2108 09e0 3C000000 		.4byte	.LFE246
 2109 09e4 7D000000 		.4byte	.LLST4
 2110 09e8 01       		.byte	0x1
 2111 09e9 3D0A0000 		.4byte	0xa3d
ARM GAS  /tmp/ccV5D8qL.s 			page 66


 2112 09ed 2C       		.uleb128 0x2c
 2113 09ee 2A000000 		.4byte	.LASF132
 2114 09f2 01       		.byte	0x1
 2115 09f3 90       		.byte	0x90
 2116 09f4 99080000 		.4byte	0x899
 2117 09f8 01       		.byte	0x1
 2118 09f9 50       		.byte	0x50
 2119 09fa 2D       		.uleb128 0x2d
 2120 09fb 2F000000 		.4byte	.LASF133
 2121 09ff 01       		.byte	0x1
 2122 0a00 91       		.byte	0x91
 2123 0a01 99080000 		.4byte	0x899
 2124 0a05 9D000000 		.4byte	.LLST5
 2125 0a09 24       		.uleb128 0x24
 2126 0a0a 5C080000 		.4byte	0x85c
 2127 0a0e 00000000 		.4byte	.LBB30
 2128 0a12 50000000 		.4byte	.Ldebug_ranges0+0x50
 2129 0a16 01       		.byte	0x1
 2130 0a17 94       		.byte	0x94
 2131 0a18 25       		.uleb128 0x25
 2132 0a19 6A080000 		.4byte	0x86a
 2133 0a1d 0C000000 		.4byte	.LBB34
 2134 0a21 68000000 		.4byte	.Ldebug_ranges0+0x68
 2135 0a25 01       		.byte	0x1
 2136 0a26 97       		.byte	0x97
 2137 0a27 2E       		.uleb128 0x2e
 2138 0a28 8D080000 		.4byte	0x88d
 2139 0a2c 00       		.byte	0
 2140 0a2d 1F       		.uleb128 0x1f
 2141 0a2e 82080000 		.4byte	0x882
 2142 0a32 01       		.byte	0x1
 2143 0a33 54       		.byte	0x54
 2144 0a34 1F       		.uleb128 0x1f
 2145 0a35 77080000 		.4byte	0x877
 2146 0a39 01       		.byte	0x1
 2147 0a3a 50       		.byte	0x50
 2148 0a3b 00       		.byte	0
 2149 0a3c 00       		.byte	0
 2150 0a3d 2F       		.uleb128 0x2f
 2151 0a3e 2F040000 		.4byte	.LASF134
 2152 0a42 07       		.byte	0x7
 2153 0a43 FA06     		.2byte	0x6fa
 2154 0a45 4B0A0000 		.4byte	0xa4b
 2155 0a49 01       		.byte	0x1
 2156 0a4a 01       		.byte	0x1
 2157 0a4b 0F       		.uleb128 0xf
 2158 0a4c 5E000000 		.4byte	0x5e
 2159 0a50 30       		.uleb128 0x30
 2160 0a51 636800   		.ascii	"ch\000"
 2161 0a54 06       		.byte	0x6
 2162 0a55 0902     		.2byte	0x209
 2163 0a57 0E040000 		.4byte	0x40e
 2164 0a5b 01       		.byte	0x1
 2165 0a5c 01       		.byte	0x1
 2166 0a5d 00       		.byte	0
 2167              		.section	.debug_abbrev,"",%progbits
 2168              	.Ldebug_abbrev0:
ARM GAS  /tmp/ccV5D8qL.s 			page 67


 2169 0000 01       		.uleb128 0x1
 2170 0001 11       		.uleb128 0x11
 2171 0002 01       		.byte	0x1
 2172 0003 25       		.uleb128 0x25
 2173 0004 0E       		.uleb128 0xe
 2174 0005 13       		.uleb128 0x13
 2175 0006 0B       		.uleb128 0xb
 2176 0007 03       		.uleb128 0x3
 2177 0008 0E       		.uleb128 0xe
 2178 0009 1B       		.uleb128 0x1b
 2179 000a 0E       		.uleb128 0xe
 2180 000b 55       		.uleb128 0x55
 2181 000c 06       		.uleb128 0x6
 2182 000d 11       		.uleb128 0x11
 2183 000e 01       		.uleb128 0x1
 2184 000f 52       		.uleb128 0x52
 2185 0010 01       		.uleb128 0x1
 2186 0011 10       		.uleb128 0x10
 2187 0012 06       		.uleb128 0x6
 2188 0013 00       		.byte	0
 2189 0014 00       		.byte	0
 2190 0015 02       		.uleb128 0x2
 2191 0016 24       		.uleb128 0x24
 2192 0017 00       		.byte	0
 2193 0018 0B       		.uleb128 0xb
 2194 0019 0B       		.uleb128 0xb
 2195 001a 3E       		.uleb128 0x3e
 2196 001b 0B       		.uleb128 0xb
 2197 001c 03       		.uleb128 0x3
 2198 001d 08       		.uleb128 0x8
 2199 001e 00       		.byte	0
 2200 001f 00       		.byte	0
 2201 0020 03       		.uleb128 0x3
 2202 0021 24       		.uleb128 0x24
 2203 0022 00       		.byte	0
 2204 0023 0B       		.uleb128 0xb
 2205 0024 0B       		.uleb128 0xb
 2206 0025 3E       		.uleb128 0x3e
 2207 0026 0B       		.uleb128 0xb
 2208 0027 03       		.uleb128 0x3
 2209 0028 0E       		.uleb128 0xe
 2210 0029 00       		.byte	0
 2211 002a 00       		.byte	0
 2212 002b 04       		.uleb128 0x4
 2213 002c 16       		.uleb128 0x16
 2214 002d 00       		.byte	0
 2215 002e 03       		.uleb128 0x3
 2216 002f 0E       		.uleb128 0xe
 2217 0030 3A       		.uleb128 0x3a
 2218 0031 0B       		.uleb128 0xb
 2219 0032 3B       		.uleb128 0x3b
 2220 0033 0B       		.uleb128 0xb
 2221 0034 49       		.uleb128 0x49
 2222 0035 13       		.uleb128 0x13
 2223 0036 00       		.byte	0
 2224 0037 00       		.byte	0
 2225 0038 05       		.uleb128 0x5
ARM GAS  /tmp/ccV5D8qL.s 			page 68


 2226 0039 13       		.uleb128 0x13
 2227 003a 01       		.byte	0x1
 2228 003b 03       		.uleb128 0x3
 2229 003c 0E       		.uleb128 0xe
 2230 003d 0B       		.uleb128 0xb
 2231 003e 0B       		.uleb128 0xb
 2232 003f 3A       		.uleb128 0x3a
 2233 0040 0B       		.uleb128 0xb
 2234 0041 3B       		.uleb128 0x3b
 2235 0042 0B       		.uleb128 0xb
 2236 0043 01       		.uleb128 0x1
 2237 0044 13       		.uleb128 0x13
 2238 0045 00       		.byte	0
 2239 0046 00       		.byte	0
 2240 0047 06       		.uleb128 0x6
 2241 0048 0D       		.uleb128 0xd
 2242 0049 00       		.byte	0
 2243 004a 03       		.uleb128 0x3
 2244 004b 0E       		.uleb128 0xe
 2245 004c 3A       		.uleb128 0x3a
 2246 004d 0B       		.uleb128 0xb
 2247 004e 3B       		.uleb128 0x3b
 2248 004f 0B       		.uleb128 0xb
 2249 0050 49       		.uleb128 0x49
 2250 0051 13       		.uleb128 0x13
 2251 0052 38       		.uleb128 0x38
 2252 0053 0A       		.uleb128 0xa
 2253 0054 00       		.byte	0
 2254 0055 00       		.byte	0
 2255 0056 07       		.uleb128 0x7
 2256 0057 0D       		.uleb128 0xd
 2257 0058 00       		.byte	0
 2258 0059 03       		.uleb128 0x3
 2259 005a 08       		.uleb128 0x8
 2260 005b 3A       		.uleb128 0x3a
 2261 005c 0B       		.uleb128 0xb
 2262 005d 3B       		.uleb128 0x3b
 2263 005e 05       		.uleb128 0x5
 2264 005f 49       		.uleb128 0x49
 2265 0060 13       		.uleb128 0x13
 2266 0061 38       		.uleb128 0x38
 2267 0062 0A       		.uleb128 0xa
 2268 0063 00       		.byte	0
 2269 0064 00       		.byte	0
 2270 0065 08       		.uleb128 0x8
 2271 0066 0D       		.uleb128 0xd
 2272 0067 00       		.byte	0
 2273 0068 03       		.uleb128 0x3
 2274 0069 0E       		.uleb128 0xe
 2275 006a 3A       		.uleb128 0x3a
 2276 006b 0B       		.uleb128 0xb
 2277 006c 3B       		.uleb128 0x3b
 2278 006d 05       		.uleb128 0x5
 2279 006e 49       		.uleb128 0x49
 2280 006f 13       		.uleb128 0x13
 2281 0070 38       		.uleb128 0x38
 2282 0071 0A       		.uleb128 0xa
ARM GAS  /tmp/ccV5D8qL.s 			page 69


 2283 0072 00       		.byte	0
 2284 0073 00       		.byte	0
 2285 0074 09       		.uleb128 0x9
 2286 0075 0F       		.uleb128 0xf
 2287 0076 00       		.byte	0
 2288 0077 0B       		.uleb128 0xb
 2289 0078 0B       		.uleb128 0xb
 2290 0079 49       		.uleb128 0x49
 2291 007a 13       		.uleb128 0x13
 2292 007b 00       		.byte	0
 2293 007c 00       		.byte	0
 2294 007d 0A       		.uleb128 0xa
 2295 007e 13       		.uleb128 0x13
 2296 007f 01       		.byte	0x1
 2297 0080 03       		.uleb128 0x3
 2298 0081 0E       		.uleb128 0xe
 2299 0082 0B       		.uleb128 0xb
 2300 0083 0B       		.uleb128 0xb
 2301 0084 3A       		.uleb128 0x3a
 2302 0085 0B       		.uleb128 0xb
 2303 0086 3B       		.uleb128 0x3b
 2304 0087 05       		.uleb128 0x5
 2305 0088 01       		.uleb128 0x1
 2306 0089 13       		.uleb128 0x13
 2307 008a 00       		.byte	0
 2308 008b 00       		.byte	0
 2309 008c 0B       		.uleb128 0xb
 2310 008d 15       		.uleb128 0x15
 2311 008e 01       		.byte	0x1
 2312 008f 27       		.uleb128 0x27
 2313 0090 0C       		.uleb128 0xc
 2314 0091 01       		.uleb128 0x1
 2315 0092 13       		.uleb128 0x13
 2316 0093 00       		.byte	0
 2317 0094 00       		.byte	0
 2318 0095 0C       		.uleb128 0xc
 2319 0096 05       		.uleb128 0x5
 2320 0097 00       		.byte	0
 2321 0098 49       		.uleb128 0x49
 2322 0099 13       		.uleb128 0x13
 2323 009a 00       		.byte	0
 2324 009b 00       		.byte	0
 2325 009c 0D       		.uleb128 0xd
 2326 009d 0F       		.uleb128 0xf
 2327 009e 00       		.byte	0
 2328 009f 0B       		.uleb128 0xb
 2329 00a0 0B       		.uleb128 0xb
 2330 00a1 00       		.byte	0
 2331 00a2 00       		.byte	0
 2332 00a3 0E       		.uleb128 0xe
 2333 00a4 13       		.uleb128 0x13
 2334 00a5 01       		.byte	0x1
 2335 00a6 03       		.uleb128 0x3
 2336 00a7 0E       		.uleb128 0xe
 2337 00a8 0B       		.uleb128 0xb
 2338 00a9 05       		.uleb128 0x5
 2339 00aa 3A       		.uleb128 0x3a
ARM GAS  /tmp/ccV5D8qL.s 			page 70


 2340 00ab 0B       		.uleb128 0xb
 2341 00ac 3B       		.uleb128 0x3b
 2342 00ad 05       		.uleb128 0x5
 2343 00ae 01       		.uleb128 0x1
 2344 00af 13       		.uleb128 0x13
 2345 00b0 00       		.byte	0
 2346 00b1 00       		.byte	0
 2347 00b2 0F       		.uleb128 0xf
 2348 00b3 35       		.uleb128 0x35
 2349 00b4 00       		.byte	0
 2350 00b5 49       		.uleb128 0x49
 2351 00b6 13       		.uleb128 0x13
 2352 00b7 00       		.byte	0
 2353 00b8 00       		.byte	0
 2354 00b9 10       		.uleb128 0x10
 2355 00ba 26       		.uleb128 0x26
 2356 00bb 00       		.byte	0
 2357 00bc 49       		.uleb128 0x49
 2358 00bd 13       		.uleb128 0x13
 2359 00be 00       		.byte	0
 2360 00bf 00       		.byte	0
 2361 00c0 11       		.uleb128 0x11
 2362 00c1 01       		.uleb128 0x1
 2363 00c2 01       		.byte	0x1
 2364 00c3 49       		.uleb128 0x49
 2365 00c4 13       		.uleb128 0x13
 2366 00c5 01       		.uleb128 0x1
 2367 00c6 13       		.uleb128 0x13
 2368 00c7 00       		.byte	0
 2369 00c8 00       		.byte	0
 2370 00c9 12       		.uleb128 0x12
 2371 00ca 21       		.uleb128 0x21
 2372 00cb 00       		.byte	0
 2373 00cc 49       		.uleb128 0x49
 2374 00cd 13       		.uleb128 0x13
 2375 00ce 2F       		.uleb128 0x2f
 2376 00cf 0B       		.uleb128 0xb
 2377 00d0 00       		.byte	0
 2378 00d1 00       		.byte	0
 2379 00d2 13       		.uleb128 0x13
 2380 00d3 13       		.uleb128 0x13
 2381 00d4 01       		.byte	0x1
 2382 00d5 0B       		.uleb128 0xb
 2383 00d6 0B       		.uleb128 0xb
 2384 00d7 3A       		.uleb128 0x3a
 2385 00d8 0B       		.uleb128 0xb
 2386 00d9 3B       		.uleb128 0x3b
 2387 00da 05       		.uleb128 0x5
 2388 00db 01       		.uleb128 0x1
 2389 00dc 13       		.uleb128 0x13
 2390 00dd 00       		.byte	0
 2391 00de 00       		.byte	0
 2392 00df 14       		.uleb128 0x14
 2393 00e0 16       		.uleb128 0x16
 2394 00e1 00       		.byte	0
 2395 00e2 03       		.uleb128 0x3
 2396 00e3 0E       		.uleb128 0xe
ARM GAS  /tmp/ccV5D8qL.s 			page 71


 2397 00e4 3A       		.uleb128 0x3a
 2398 00e5 0B       		.uleb128 0xb
 2399 00e6 3B       		.uleb128 0x3b
 2400 00e7 05       		.uleb128 0x5
 2401 00e8 49       		.uleb128 0x49
 2402 00e9 13       		.uleb128 0x13
 2403 00ea 00       		.byte	0
 2404 00eb 00       		.byte	0
 2405 00ec 15       		.uleb128 0x15
 2406 00ed 0D       		.uleb128 0xd
 2407 00ee 00       		.byte	0
 2408 00ef 03       		.uleb128 0x3
 2409 00f0 08       		.uleb128 0x8
 2410 00f1 3A       		.uleb128 0x3a
 2411 00f2 0B       		.uleb128 0xb
 2412 00f3 3B       		.uleb128 0x3b
 2413 00f4 0B       		.uleb128 0xb
 2414 00f5 49       		.uleb128 0x49
 2415 00f6 13       		.uleb128 0x13
 2416 00f7 38       		.uleb128 0x38
 2417 00f8 0A       		.uleb128 0xa
 2418 00f9 00       		.byte	0
 2419 00fa 00       		.byte	0
 2420 00fb 16       		.uleb128 0x16
 2421 00fc 13       		.uleb128 0x13
 2422 00fd 01       		.byte	0x1
 2423 00fe 0B       		.uleb128 0xb
 2424 00ff 0B       		.uleb128 0xb
 2425 0100 3A       		.uleb128 0x3a
 2426 0101 0B       		.uleb128 0xb
 2427 0102 3B       		.uleb128 0x3b
 2428 0103 0B       		.uleb128 0xb
 2429 0104 01       		.uleb128 0x1
 2430 0105 13       		.uleb128 0x13
 2431 0106 00       		.byte	0
 2432 0107 00       		.byte	0
 2433 0108 17       		.uleb128 0x17
 2434 0109 17       		.uleb128 0x17
 2435 010a 01       		.byte	0x1
 2436 010b 0B       		.uleb128 0xb
 2437 010c 0B       		.uleb128 0xb
 2438 010d 3A       		.uleb128 0x3a
 2439 010e 0B       		.uleb128 0xb
 2440 010f 3B       		.uleb128 0x3b
 2441 0110 0B       		.uleb128 0xb
 2442 0111 01       		.uleb128 0x1
 2443 0112 13       		.uleb128 0x13
 2444 0113 00       		.byte	0
 2445 0114 00       		.byte	0
 2446 0115 18       		.uleb128 0x18
 2447 0116 0D       		.uleb128 0xd
 2448 0117 00       		.byte	0
 2449 0118 03       		.uleb128 0x3
 2450 0119 0E       		.uleb128 0xe
 2451 011a 3A       		.uleb128 0x3a
 2452 011b 0B       		.uleb128 0xb
 2453 011c 3B       		.uleb128 0x3b
ARM GAS  /tmp/ccV5D8qL.s 			page 72


 2454 011d 05       		.uleb128 0x5
 2455 011e 49       		.uleb128 0x49
 2456 011f 13       		.uleb128 0x13
 2457 0120 00       		.byte	0
 2458 0121 00       		.byte	0
 2459 0122 19       		.uleb128 0x19
 2460 0123 2E       		.uleb128 0x2e
 2461 0124 00       		.byte	0
 2462 0125 03       		.uleb128 0x3
 2463 0126 0E       		.uleb128 0xe
 2464 0127 3A       		.uleb128 0x3a
 2465 0128 0B       		.uleb128 0xb
 2466 0129 3B       		.uleb128 0x3b
 2467 012a 05       		.uleb128 0x5
 2468 012b 27       		.uleb128 0x27
 2469 012c 0C       		.uleb128 0xc
 2470 012d 49       		.uleb128 0x49
 2471 012e 13       		.uleb128 0x13
 2472 012f 20       		.uleb128 0x20
 2473 0130 0B       		.uleb128 0xb
 2474 0131 00       		.byte	0
 2475 0132 00       		.byte	0
 2476 0133 1A       		.uleb128 0x1a
 2477 0134 2E       		.uleb128 0x2e
 2478 0135 01       		.byte	0x1
 2479 0136 03       		.uleb128 0x3
 2480 0137 0E       		.uleb128 0xe
 2481 0138 3A       		.uleb128 0x3a
 2482 0139 0B       		.uleb128 0xb
 2483 013a 3B       		.uleb128 0x3b
 2484 013b 0B       		.uleb128 0xb
 2485 013c 27       		.uleb128 0x27
 2486 013d 0C       		.uleb128 0xc
 2487 013e 20       		.uleb128 0x20
 2488 013f 0B       		.uleb128 0xb
 2489 0140 01       		.uleb128 0x1
 2490 0141 13       		.uleb128 0x13
 2491 0142 00       		.byte	0
 2492 0143 00       		.byte	0
 2493 0144 1B       		.uleb128 0x1b
 2494 0145 05       		.uleb128 0x5
 2495 0146 00       		.byte	0
 2496 0147 03       		.uleb128 0x3
 2497 0148 08       		.uleb128 0x8
 2498 0149 3A       		.uleb128 0x3a
 2499 014a 0B       		.uleb128 0xb
 2500 014b 3B       		.uleb128 0x3b
 2501 014c 0B       		.uleb128 0xb
 2502 014d 49       		.uleb128 0x49
 2503 014e 13       		.uleb128 0x13
 2504 014f 00       		.byte	0
 2505 0150 00       		.byte	0
 2506 0151 1C       		.uleb128 0x1c
 2507 0152 05       		.uleb128 0x5
 2508 0153 00       		.byte	0
 2509 0154 03       		.uleb128 0x3
 2510 0155 0E       		.uleb128 0xe
ARM GAS  /tmp/ccV5D8qL.s 			page 73


 2511 0156 3A       		.uleb128 0x3a
 2512 0157 0B       		.uleb128 0xb
 2513 0158 3B       		.uleb128 0x3b
 2514 0159 0B       		.uleb128 0xb
 2515 015a 49       		.uleb128 0x49
 2516 015b 13       		.uleb128 0x13
 2517 015c 00       		.byte	0
 2518 015d 00       		.byte	0
 2519 015e 1D       		.uleb128 0x1d
 2520 015f 2E       		.uleb128 0x2e
 2521 0160 01       		.byte	0x1
 2522 0161 3F       		.uleb128 0x3f
 2523 0162 0C       		.uleb128 0xc
 2524 0163 03       		.uleb128 0x3
 2525 0164 0E       		.uleb128 0xe
 2526 0165 3A       		.uleb128 0x3a
 2527 0166 0B       		.uleb128 0xb
 2528 0167 3B       		.uleb128 0x3b
 2529 0168 0B       		.uleb128 0xb
 2530 0169 27       		.uleb128 0x27
 2531 016a 0C       		.uleb128 0xc
 2532 016b 20       		.uleb128 0x20
 2533 016c 0B       		.uleb128 0xb
 2534 016d 01       		.uleb128 0x1
 2535 016e 13       		.uleb128 0x13
 2536 016f 00       		.byte	0
 2537 0170 00       		.byte	0
 2538 0171 1E       		.uleb128 0x1e
 2539 0172 2E       		.uleb128 0x2e
 2540 0173 01       		.byte	0x1
 2541 0174 31       		.uleb128 0x31
 2542 0175 13       		.uleb128 0x13
 2543 0176 11       		.uleb128 0x11
 2544 0177 01       		.uleb128 0x1
 2545 0178 12       		.uleb128 0x12
 2546 0179 01       		.uleb128 0x1
 2547 017a 40       		.uleb128 0x40
 2548 017b 0A       		.uleb128 0xa
 2549 017c 9742     		.uleb128 0x2117
 2550 017e 0C       		.uleb128 0xc
 2551 017f 01       		.uleb128 0x1
 2552 0180 13       		.uleb128 0x13
 2553 0181 00       		.byte	0
 2554 0182 00       		.byte	0
 2555 0183 1F       		.uleb128 0x1f
 2556 0184 05       		.uleb128 0x5
 2557 0185 00       		.byte	0
 2558 0186 31       		.uleb128 0x31
 2559 0187 13       		.uleb128 0x13
 2560 0188 02       		.uleb128 0x2
 2561 0189 0A       		.uleb128 0xa
 2562 018a 00       		.byte	0
 2563 018b 00       		.byte	0
 2564 018c 20       		.uleb128 0x20
 2565 018d 2E       		.uleb128 0x2e
 2566 018e 01       		.byte	0x1
 2567 018f 3F       		.uleb128 0x3f
ARM GAS  /tmp/ccV5D8qL.s 			page 74


 2568 0190 0C       		.uleb128 0xc
 2569 0191 03       		.uleb128 0x3
 2570 0192 0E       		.uleb128 0xe
 2571 0193 3A       		.uleb128 0x3a
 2572 0194 0B       		.uleb128 0xb
 2573 0195 3B       		.uleb128 0x3b
 2574 0196 0B       		.uleb128 0xb
 2575 0197 27       		.uleb128 0x27
 2576 0198 0C       		.uleb128 0xc
 2577 0199 11       		.uleb128 0x11
 2578 019a 01       		.uleb128 0x1
 2579 019b 12       		.uleb128 0x12
 2580 019c 01       		.uleb128 0x1
 2581 019d 40       		.uleb128 0x40
 2582 019e 0A       		.uleb128 0xa
 2583 019f 9742     		.uleb128 0x2117
 2584 01a1 0C       		.uleb128 0xc
 2585 01a2 01       		.uleb128 0x1
 2586 01a3 13       		.uleb128 0x13
 2587 01a4 00       		.byte	0
 2588 01a5 00       		.byte	0
 2589 01a6 21       		.uleb128 0x21
 2590 01a7 05       		.uleb128 0x5
 2591 01a8 00       		.byte	0
 2592 01a9 03       		.uleb128 0x3
 2593 01aa 08       		.uleb128 0x8
 2594 01ab 3A       		.uleb128 0x3a
 2595 01ac 0B       		.uleb128 0xb
 2596 01ad 3B       		.uleb128 0x3b
 2597 01ae 0B       		.uleb128 0xb
 2598 01af 49       		.uleb128 0x49
 2599 01b0 13       		.uleb128 0x13
 2600 01b1 02       		.uleb128 0x2
 2601 01b2 0A       		.uleb128 0xa
 2602 01b3 00       		.byte	0
 2603 01b4 00       		.byte	0
 2604 01b5 22       		.uleb128 0x22
 2605 01b6 1D       		.uleb128 0x1d
 2606 01b7 00       		.byte	0
 2607 01b8 31       		.uleb128 0x31
 2608 01b9 13       		.uleb128 0x13
 2609 01ba 11       		.uleb128 0x11
 2610 01bb 01       		.uleb128 0x1
 2611 01bc 12       		.uleb128 0x12
 2612 01bd 01       		.uleb128 0x1
 2613 01be 58       		.uleb128 0x58
 2614 01bf 0B       		.uleb128 0xb
 2615 01c0 59       		.uleb128 0x59
 2616 01c1 0B       		.uleb128 0xb
 2617 01c2 00       		.byte	0
 2618 01c3 00       		.byte	0
 2619 01c4 23       		.uleb128 0x23
 2620 01c5 2E       		.uleb128 0x2e
 2621 01c6 01       		.byte	0x1
 2622 01c7 3F       		.uleb128 0x3f
 2623 01c8 0C       		.uleb128 0xc
 2624 01c9 03       		.uleb128 0x3
ARM GAS  /tmp/ccV5D8qL.s 			page 75


 2625 01ca 0E       		.uleb128 0xe
 2626 01cb 3A       		.uleb128 0x3a
 2627 01cc 0B       		.uleb128 0xb
 2628 01cd 3B       		.uleb128 0x3b
 2629 01ce 0B       		.uleb128 0xb
 2630 01cf 27       		.uleb128 0x27
 2631 01d0 0C       		.uleb128 0xc
 2632 01d1 11       		.uleb128 0x11
 2633 01d2 01       		.uleb128 0x1
 2634 01d3 12       		.uleb128 0x12
 2635 01d4 01       		.uleb128 0x1
 2636 01d5 40       		.uleb128 0x40
 2637 01d6 06       		.uleb128 0x6
 2638 01d7 9742     		.uleb128 0x2117
 2639 01d9 0C       		.uleb128 0xc
 2640 01da 01       		.uleb128 0x1
 2641 01db 13       		.uleb128 0x13
 2642 01dc 00       		.byte	0
 2643 01dd 00       		.byte	0
 2644 01de 24       		.uleb128 0x24
 2645 01df 1D       		.uleb128 0x1d
 2646 01e0 00       		.byte	0
 2647 01e1 31       		.uleb128 0x31
 2648 01e2 13       		.uleb128 0x13
 2649 01e3 52       		.uleb128 0x52
 2650 01e4 01       		.uleb128 0x1
 2651 01e5 55       		.uleb128 0x55
 2652 01e6 06       		.uleb128 0x6
 2653 01e7 58       		.uleb128 0x58
 2654 01e8 0B       		.uleb128 0xb
 2655 01e9 59       		.uleb128 0x59
 2656 01ea 0B       		.uleb128 0xb
 2657 01eb 00       		.byte	0
 2658 01ec 00       		.byte	0
 2659 01ed 25       		.uleb128 0x25
 2660 01ee 1D       		.uleb128 0x1d
 2661 01ef 01       		.byte	0x1
 2662 01f0 31       		.uleb128 0x31
 2663 01f1 13       		.uleb128 0x13
 2664 01f2 52       		.uleb128 0x52
 2665 01f3 01       		.uleb128 0x1
 2666 01f4 55       		.uleb128 0x55
 2667 01f5 06       		.uleb128 0x6
 2668 01f6 58       		.uleb128 0x58
 2669 01f7 0B       		.uleb128 0xb
 2670 01f8 59       		.uleb128 0x59
 2671 01f9 0B       		.uleb128 0xb
 2672 01fa 00       		.byte	0
 2673 01fb 00       		.byte	0
 2674 01fc 26       		.uleb128 0x26
 2675 01fd 05       		.uleb128 0x5
 2676 01fe 00       		.byte	0
 2677 01ff 31       		.uleb128 0x31
 2678 0200 13       		.uleb128 0x13
 2679 0201 02       		.uleb128 0x2
 2680 0202 06       		.uleb128 0x6
 2681 0203 00       		.byte	0
ARM GAS  /tmp/ccV5D8qL.s 			page 76


 2682 0204 00       		.byte	0
 2683 0205 27       		.uleb128 0x27
 2684 0206 34       		.uleb128 0x34
 2685 0207 00       		.byte	0
 2686 0208 03       		.uleb128 0x3
 2687 0209 08       		.uleb128 0x8
 2688 020a 3A       		.uleb128 0x3a
 2689 020b 0B       		.uleb128 0xb
 2690 020c 3B       		.uleb128 0x3b
 2691 020d 0B       		.uleb128 0xb
 2692 020e 49       		.uleb128 0x49
 2693 020f 13       		.uleb128 0x13
 2694 0210 02       		.uleb128 0x2
 2695 0211 0A       		.uleb128 0xa
 2696 0212 00       		.byte	0
 2697 0213 00       		.byte	0
 2698 0214 28       		.uleb128 0x28
 2699 0215 1D       		.uleb128 0x1d
 2700 0216 01       		.byte	0x1
 2701 0217 31       		.uleb128 0x31
 2702 0218 13       		.uleb128 0x13
 2703 0219 52       		.uleb128 0x52
 2704 021a 01       		.uleb128 0x1
 2705 021b 55       		.uleb128 0x55
 2706 021c 06       		.uleb128 0x6
 2707 021d 58       		.uleb128 0x58
 2708 021e 0B       		.uleb128 0xb
 2709 021f 59       		.uleb128 0x59
 2710 0220 0B       		.uleb128 0xb
 2711 0221 01       		.uleb128 0x1
 2712 0222 13       		.uleb128 0x13
 2713 0223 00       		.byte	0
 2714 0224 00       		.byte	0
 2715 0225 29       		.uleb128 0x29
 2716 0226 898201   		.uleb128 0x4109
 2717 0229 01       		.byte	0x1
 2718 022a 11       		.uleb128 0x11
 2719 022b 01       		.uleb128 0x1
 2720 022c 31       		.uleb128 0x31
 2721 022d 13       		.uleb128 0x13
 2722 022e 01       		.uleb128 0x1
 2723 022f 13       		.uleb128 0x13
 2724 0230 00       		.byte	0
 2725 0231 00       		.byte	0
 2726 0232 2A       		.uleb128 0x2a
 2727 0233 8A8201   		.uleb128 0x410a
 2728 0236 00       		.byte	0
 2729 0237 02       		.uleb128 0x2
 2730 0238 0A       		.uleb128 0xa
 2731 0239 9142     		.uleb128 0x2111
 2732 023b 0A       		.uleb128 0xa
 2733 023c 00       		.byte	0
 2734 023d 00       		.byte	0
 2735 023e 2B       		.uleb128 0x2b
 2736 023f 898201   		.uleb128 0x4109
 2737 0242 01       		.byte	0x1
 2738 0243 11       		.uleb128 0x11
ARM GAS  /tmp/ccV5D8qL.s 			page 77


 2739 0244 01       		.uleb128 0x1
 2740 0245 31       		.uleb128 0x31
 2741 0246 13       		.uleb128 0x13
 2742 0247 00       		.byte	0
 2743 0248 00       		.byte	0
 2744 0249 2C       		.uleb128 0x2c
 2745 024a 05       		.uleb128 0x5
 2746 024b 00       		.byte	0
 2747 024c 03       		.uleb128 0x3
 2748 024d 0E       		.uleb128 0xe
 2749 024e 3A       		.uleb128 0x3a
 2750 024f 0B       		.uleb128 0xb
 2751 0250 3B       		.uleb128 0x3b
 2752 0251 0B       		.uleb128 0xb
 2753 0252 49       		.uleb128 0x49
 2754 0253 13       		.uleb128 0x13
 2755 0254 02       		.uleb128 0x2
 2756 0255 0A       		.uleb128 0xa
 2757 0256 00       		.byte	0
 2758 0257 00       		.byte	0
 2759 0258 2D       		.uleb128 0x2d
 2760 0259 05       		.uleb128 0x5
 2761 025a 00       		.byte	0
 2762 025b 03       		.uleb128 0x3
 2763 025c 0E       		.uleb128 0xe
 2764 025d 3A       		.uleb128 0x3a
 2765 025e 0B       		.uleb128 0xb
 2766 025f 3B       		.uleb128 0x3b
 2767 0260 0B       		.uleb128 0xb
 2768 0261 49       		.uleb128 0x49
 2769 0262 13       		.uleb128 0x13
 2770 0263 02       		.uleb128 0x2
 2771 0264 06       		.uleb128 0x6
 2772 0265 00       		.byte	0
 2773 0266 00       		.byte	0
 2774 0267 2E       		.uleb128 0x2e
 2775 0268 05       		.uleb128 0x5
 2776 0269 00       		.byte	0
 2777 026a 31       		.uleb128 0x31
 2778 026b 13       		.uleb128 0x13
 2779 026c 1C       		.uleb128 0x1c
 2780 026d 0B       		.uleb128 0xb
 2781 026e 00       		.byte	0
 2782 026f 00       		.byte	0
 2783 0270 2F       		.uleb128 0x2f
 2784 0271 34       		.uleb128 0x34
 2785 0272 00       		.byte	0
 2786 0273 03       		.uleb128 0x3
 2787 0274 0E       		.uleb128 0xe
 2788 0275 3A       		.uleb128 0x3a
 2789 0276 0B       		.uleb128 0xb
 2790 0277 3B       		.uleb128 0x3b
 2791 0278 05       		.uleb128 0x5
 2792 0279 49       		.uleb128 0x49
 2793 027a 13       		.uleb128 0x13
 2794 027b 3F       		.uleb128 0x3f
 2795 027c 0C       		.uleb128 0xc
ARM GAS  /tmp/ccV5D8qL.s 			page 78


 2796 027d 3C       		.uleb128 0x3c
 2797 027e 0C       		.uleb128 0xc
 2798 027f 00       		.byte	0
 2799 0280 00       		.byte	0
 2800 0281 30       		.uleb128 0x30
 2801 0282 34       		.uleb128 0x34
 2802 0283 00       		.byte	0
 2803 0284 03       		.uleb128 0x3
 2804 0285 08       		.uleb128 0x8
 2805 0286 3A       		.uleb128 0x3a
 2806 0287 0B       		.uleb128 0xb
 2807 0288 3B       		.uleb128 0x3b
 2808 0289 05       		.uleb128 0x5
 2809 028a 49       		.uleb128 0x49
 2810 028b 13       		.uleb128 0x13
 2811 028c 3F       		.uleb128 0x3f
 2812 028d 0C       		.uleb128 0xc
 2813 028e 3C       		.uleb128 0x3c
 2814 028f 0C       		.uleb128 0xc
 2815 0290 00       		.byte	0
 2816 0291 00       		.byte	0
 2817 0292 00       		.byte	0
 2818              		.section	.debug_loc,"",%progbits
 2819              	.Ldebug_loc0:
 2820              	.LLST0:
 2821 0000 00000000 		.4byte	.LFB245
 2822 0004 0A000000 		.4byte	.LCFI0
 2823 0008 0200     		.2byte	0x2
 2824 000a 7D       		.byte	0x7d
 2825 000b 00       		.sleb128 0
 2826 000c 0A000000 		.4byte	.LCFI0
 2827 0010 44000000 		.4byte	.LFE245
 2828 0014 0200     		.2byte	0x2
 2829 0016 7D       		.byte	0x7d
 2830 0017 10       		.sleb128 16
 2831 0018 00000000 		.4byte	0
 2832 001c 00000000 		.4byte	0
 2833              	.LLST1:
 2834 0020 12000000 		.4byte	.LVL3
 2835 0024 1C000000 		.4byte	.LVL4
 2836 0028 0100     		.2byte	0x1
 2837 002a 51       		.byte	0x51
 2838 002b 00000000 		.4byte	0
 2839 002f 00000000 		.4byte	0
 2840              	.LLST2:
 2841 0033 00000000 		.4byte	.LFB242
 2842 0037 02000000 		.4byte	.LCFI1
 2843 003b 0200     		.2byte	0x2
 2844 003d 7D       		.byte	0x7d
 2845 003e 00       		.sleb128 0
 2846 003f 02000000 		.4byte	.LCFI1
 2847 0043 08000000 		.4byte	.LCFI2
 2848 0047 0200     		.2byte	0x2
 2849 0049 7D       		.byte	0x7d
 2850 004a 08       		.sleb128 8
 2851 004b 08000000 		.4byte	.LCFI2
 2852 004f 38000000 		.4byte	.LFE242
ARM GAS  /tmp/ccV5D8qL.s 			page 79


 2853 0053 0200     		.2byte	0x2
 2854 0055 7D       		.byte	0x7d
 2855 0056 20       		.sleb128 32
 2856 0057 00000000 		.4byte	0
 2857 005b 00000000 		.4byte	0
 2858              	.LLST3:
 2859 005f 1C000000 		.4byte	.LVL5
 2860 0063 29000000 		.4byte	.LVL6-1
 2861 0067 0100     		.2byte	0x1
 2862 0069 50       		.byte	0x50
 2863 006a 29000000 		.4byte	.LVL6-1
 2864 006e 38000000 		.4byte	.LFE242
 2865 0072 0100     		.2byte	0x1
 2866 0074 5D       		.byte	0x5d
 2867 0075 00000000 		.4byte	0
 2868 0079 00000000 		.4byte	0
 2869              	.LLST4:
 2870 007d 00000000 		.4byte	.LFB246
 2871 0081 0A000000 		.4byte	.LCFI3
 2872 0085 0200     		.2byte	0x2
 2873 0087 7D       		.byte	0x7d
 2874 0088 00       		.sleb128 0
 2875 0089 0A000000 		.4byte	.LCFI3
 2876 008d 3C000000 		.4byte	.LFE246
 2877 0091 0200     		.2byte	0x2
 2878 0093 7D       		.byte	0x7d
 2879 0094 0C       		.sleb128 12
 2880 0095 00000000 		.4byte	0
 2881 0099 00000000 		.4byte	0
 2882              	.LLST5:
 2883 009d 00000000 		.4byte	.LVL8
 2884 00a1 16000000 		.4byte	.LVL10
 2885 00a5 0100     		.2byte	0x1
 2886 00a7 51       		.byte	0x51
 2887 00a8 16000000 		.4byte	.LVL10
 2888 00ac 3C000000 		.4byte	.LFE246
 2889 00b0 0400     		.2byte	0x4
 2890 00b2 F3       		.byte	0xf3
 2891 00b3 01       		.uleb128 0x1
 2892 00b4 51       		.byte	0x51
 2893 00b5 9F       		.byte	0x9f
 2894 00b6 00000000 		.4byte	0
 2895 00ba 00000000 		.4byte	0
 2896              		.section	.debug_aranges,"",%progbits
 2897 0000 3C000000 		.4byte	0x3c
 2898 0004 0200     		.2byte	0x2
 2899 0006 00000000 		.4byte	.Ldebug_info0
 2900 000a 04       		.byte	0x4
 2901 000b 00       		.byte	0
 2902 000c 0000     		.2byte	0
 2903 000e 0000     		.2byte	0
 2904 0010 00000000 		.4byte	.LFB243
 2905 0014 18000000 		.4byte	.LFE243-.LFB243
 2906 0018 00000000 		.4byte	.LFB244
 2907 001c 0E000000 		.4byte	.LFE244-.LFB244
 2908 0020 00000000 		.4byte	.LFB245
 2909 0024 44000000 		.4byte	.LFE245-.LFB245
ARM GAS  /tmp/ccV5D8qL.s 			page 80


 2910 0028 00000000 		.4byte	.LFB242
 2911 002c 38000000 		.4byte	.LFE242-.LFB242
 2912 0030 00000000 		.4byte	.LFB246
 2913 0034 3C000000 		.4byte	.LFE246-.LFB246
 2914 0038 00000000 		.4byte	0
 2915 003c 00000000 		.4byte	0
 2916              		.section	.debug_ranges,"",%progbits
 2917              	.Ldebug_ranges0:
 2918 0000 00000000 		.4byte	.LBB16
 2919 0004 08000000 		.4byte	.LBE16
 2920 0008 0A000000 		.4byte	.LBB19
 2921 000c 0C000000 		.4byte	.LBE19
 2922 0010 00000000 		.4byte	0
 2923 0014 00000000 		.4byte	0
 2924 0018 0E000000 		.4byte	.LBB20
 2925 001c 10000000 		.4byte	.LBE20
 2926 0020 12000000 		.4byte	.LBB23
 2927 0024 3C000000 		.4byte	.LBE23
 2928 0028 00000000 		.4byte	0
 2929 002c 00000000 		.4byte	0
 2930 0030 0E000000 		.4byte	.LBB24
 2931 0034 16000000 		.4byte	.LBE24
 2932 0038 18000000 		.4byte	.LBB28
 2933 003c 1A000000 		.4byte	.LBE28
 2934 0040 1C000000 		.4byte	.LBB29
 2935 0044 26000000 		.4byte	.LBE29
 2936 0048 00000000 		.4byte	0
 2937 004c 00000000 		.4byte	0
 2938 0050 00000000 		.4byte	.LBB30
 2939 0054 08000000 		.4byte	.LBE30
 2940 0058 0A000000 		.4byte	.LBB33
 2941 005c 0C000000 		.4byte	.LBE33
 2942 0060 00000000 		.4byte	0
 2943 0064 00000000 		.4byte	0
 2944 0068 0C000000 		.4byte	.LBB34
 2945 006c 0E000000 		.4byte	.LBE34
 2946 0070 10000000 		.4byte	.LBB37
 2947 0074 38000000 		.4byte	.LBE37
 2948 0078 00000000 		.4byte	0
 2949 007c 00000000 		.4byte	0
 2950 0080 00000000 		.4byte	.LFB243
 2951 0084 18000000 		.4byte	.LFE243
 2952 0088 00000000 		.4byte	.LFB244
 2953 008c 0E000000 		.4byte	.LFE244
 2954 0090 00000000 		.4byte	.LFB245
 2955 0094 44000000 		.4byte	.LFE245
 2956 0098 00000000 		.4byte	.LFB242
 2957 009c 38000000 		.4byte	.LFE242
 2958 00a0 00000000 		.4byte	.LFB246
 2959 00a4 3C000000 		.4byte	.LFE246
 2960 00a8 00000000 		.4byte	0
 2961 00ac 00000000 		.4byte	0
 2962              		.section	.debug_line,"",%progbits
 2963              	.Ldebug_line0:
 2964 0000 67020000 		.section	.debug_str,"MS",%progbits,1
 2964      02007A01 
 2964      00000201 
ARM GAS  /tmp/ccV5D8qL.s 			page 81


 2964      FB0E0D00 
 2964      01010101 
 2965              	.LASF45:
 2966 0000 63685F74 		.ascii	"ch_threads_list\000"
 2966      68726561 
 2966      64735F6C 
 2966      69737400 
 2967              	.LASF46:
 2968 0010 74687265 		.ascii	"threads_queue_t\000"
 2968      6164735F 
 2968      71756575 
 2968      655F7400 
 2969              	.LASF35:
 2970 0020 705F7761 		.ascii	"p_waiting\000"
 2970      6974696E 
 2970      6700
 2971              	.LASF132:
 2972 002a 746D7031 		.ascii	"tmp1\000"
 2972      00
 2973              	.LASF133:
 2974 002f 746D7032 		.ascii	"tmp2\000"
 2974      00
 2975              	.LASF117:
 2976 0034 77746D74 		.ascii	"wtmtxp\000"
 2976      787000
 2977              	.LASF85:
 2978 003b 434F4D50 		.ascii	"COMP0\000"
 2978      3000
 2979              	.LASF89:
 2980 0041 434F4D50 		.ascii	"COMP1\000"
 2980      3100
 2981              	.LASF93:
 2982 0047 434F4D50 		.ascii	"COMP2\000"
 2982      3200
 2983              	.LASF97:
 2984 004d 434F4D50 		.ascii	"COMP3\000"
 2984      3300
 2985              	.LASF42:
 2986 0053 74687265 		.ascii	"thread_reference_t\000"
 2986      61645F72 
 2986      65666572 
 2986      656E6365 
 2986      5F7400
 2987              	.LASF126:
 2988 0066 63686172 		.ascii	"char\000"
 2988      00
 2989              	.LASF101:
 2990 006b 72656761 		.ascii	"regarm_t\000"
 2990      726D5F74 
 2990      00
 2991              	.LASF27:
 2992 0074 705F7072 		.ascii	"p_prio\000"
 2992      696F00
 2993              	.LASF140:
 2994 007b 6368544D 		.ascii	"chTMObjectInit\000"
 2994      4F626A65 
 2994      6374496E 
ARM GAS  /tmp/ccV5D8qL.s 			page 82


 2994      697400
 2995              	.LASF23:
 2996 008a 73797374 		.ascii	"systime_t\000"
 2996      696D655F 
 2996      7400
 2997              	.LASF124:
 2998 0094 6D5F6F77 		.ascii	"m_owner\000"
 2998      6E657200 
 2999              	.LASF120:
 3000 009c 735F7175 		.ascii	"s_queue\000"
 3000      65756500 
 3001              	.LASF128:
 3002 00a4 6368544D 		.ascii	"chTMStartMeasurementX\000"
 3002      53746172 
 3002      744D6561 
 3002      73757265 
 3002      6D656E74 
 3003              	.LASF36:
 3004 00ba 705F6D73 		.ascii	"p_msgqueue\000"
 3004      67717565 
 3004      756500
 3005              	.LASF0:
 3006 00c5 756E7369 		.ascii	"unsigned int\000"
 3006      676E6564 
 3006      20696E74 
 3006      00
 3007              	.LASF43:
 3008 00d2 74687265 		.ascii	"threads_list_t\000"
 3008      6164735F 
 3008      6C697374 
 3008      5F7400
 3009              	.LASF110:
 3010 00e1 63756D75 		.ascii	"cumulative\000"
 3010      6C617469 
 3010      766500
 3011              	.LASF114:
 3012 00ec 77746F62 		.ascii	"wtobjp\000"
 3012      6A7000
 3013              	.LASF73:
 3014 00f3 76746C69 		.ascii	"vtlist\000"
 3014      737400
 3015              	.LASF49:
 3016 00fa 63685F72 		.ascii	"ch_ready_list\000"
 3016      65616479 
 3016      5F6C6973 
 3016      7400
 3017              	.LASF75:
 3018 0108 69646C65 		.ascii	"idle_thread_wa\000"
 3018      5F746872 
 3018      6561645F 
 3018      776100
 3019              	.LASF118:
 3020 0117 65776D61 		.ascii	"ewmask\000"
 3020      736B00
 3021              	.LASF47:
 3022 011e 63685F74 		.ascii	"ch_threads_queue\000"
 3022      68726561 
ARM GAS  /tmp/ccV5D8qL.s 			page 83


 3022      64735F71 
 3022      75657565 
 3022      00
 3023              	.LASF56:
 3024 012f 76746675 		.ascii	"vtfunc_t\000"
 3024      6E635F74 
 3024      00
 3025              	.LASF121:
 3026 0138 735F636E 		.ascii	"s_cnt\000"
 3026      7400
 3027              	.LASF68:
 3028 013e 63685F73 		.ascii	"ch_system_debug\000"
 3028      79737465 
 3028      6D5F6465 
 3028      62756700 
 3029              	.LASF8:
 3030 014e 75696E74 		.ascii	"uint32_t\000"
 3030      33325F74 
 3030      00
 3031              	.LASF20:
 3032 0157 6576656E 		.ascii	"eventmask_t\000"
 3032      746D6173 
 3032      6B5F7400 
 3033              	.LASF51:
 3034 0163 725F7072 		.ascii	"r_prio\000"
 3034      696F00
 3035              	.LASF135:
 3036 016a 474E5520 		.ascii	"GNU C 4.7.2\000"
 3036      4320342E 
 3036      372E3200 
 3037              	.LASF63:
 3038 0176 76745F70 		.ascii	"vt_par\000"
 3038      617200
 3039              	.LASF119:
 3040 017d 63685F73 		.ascii	"ch_semaphore\000"
 3040      656D6170 
 3040      686F7265 
 3040      00
 3041              	.LASF18:
 3042 018a 74707269 		.ascii	"tprio_t\000"
 3042      6F5F7400 
 3043              	.LASF58:
 3044 0192 63685F76 		.ascii	"ch_virtual_timer\000"
 3044      69727475 
 3044      616C5F74 
 3044      696D6572 
 3044      00
 3045              	.LASF12:
 3046 01a3 6C6F6E67 		.ascii	"long long unsigned int\000"
 3046      206C6F6E 
 3046      6720756E 
 3046      7369676E 
 3046      65642069 
 3047              	.LASF138:
 3048 01ba 706F7274 		.ascii	"port_rt_get_counter_value\000"
 3048      5F72745F 
 3048      6765745F 
ARM GAS  /tmp/ccV5D8qL.s 			page 84


 3048      636F756E 
 3048      7465725F 
 3049              	.LASF21:
 3050 01d4 636E745F 		.ascii	"cnt_t\000"
 3050      7400
 3051              	.LASF108:
 3052 01da 776F7273 		.ascii	"worst\000"
 3052      7400
 3053              	.LASF29:
 3054 01e0 705F6E65 		.ascii	"p_newer\000"
 3054      77657200 
 3055              	.LASF65:
 3056 01e8 63685F76 		.ascii	"ch_virtual_timers_list\000"
 3056      69727475 
 3056      616C5F74 
 3056      696D6572 
 3056      735F6C69 
 3057              	.LASF24:
 3058 01ff 74687265 		.ascii	"thread_t\000"
 3058      61645F74 
 3058      00
 3059              	.LASF112:
 3060 0208 7264796D 		.ascii	"rdymsg\000"
 3060      736700
 3061              	.LASF105:
 3062 020f 6F666673 		.ascii	"offset\000"
 3062      657400
 3063              	.LASF122:
 3064 0216 63685F6D 		.ascii	"ch_mutex\000"
 3064      75746578 
 3064      00
 3065              	.LASF79:
 3066 021f 43504943 		.ascii	"CPICNT\000"
 3066      4E5400
 3067              	.LASF100:
 3068 0226 4457545F 		.ascii	"DWT_Type\000"
 3068      54797065 
 3068      00
 3069              	.LASF109:
 3070 022f 6C617374 		.ascii	"last\000"
 3070      00
 3071              	.LASF82:
 3072 0234 4C535543 		.ascii	"LSUCNT\000"
 3072      4E5400
 3073              	.LASF111:
 3074 023b 74696D65 		.ascii	"time_measurement_t\000"
 3074      5F6D6561 
 3074      73757265 
 3074      6D656E74 
 3074      5F7400
 3075              	.LASF31:
 3076 024e 705F6E61 		.ascii	"p_name\000"
 3076      6D6500
 3077              	.LASF61:
 3078 0255 76745F64 		.ascii	"vt_delta\000"
 3078      656C7461 
 3078      00
ARM GAS  /tmp/ccV5D8qL.s 			page 85


 3079              	.LASF14:
 3080 025e 72747469 		.ascii	"rttime_t\000"
 3080      6D655F74 
 3080      00
 3081              	.LASF66:
 3082 0267 76745F6C 		.ascii	"vt_lasttime\000"
 3082      61737474 
 3082      696D6500 
 3083              	.LASF16:
 3084 0273 74737461 		.ascii	"tstate_t\000"
 3084      74655F74 
 3084      00
 3085              	.LASF30:
 3086 027c 705F6F6C 		.ascii	"p_older\000"
 3086      64657200 
 3087              	.LASF87:
 3088 0284 46554E43 		.ascii	"FUNCTION0\000"
 3088      54494F4E 
 3088      3000
 3089              	.LASF32:
 3090 028e 705F7374 		.ascii	"p_state\000"
 3090      61746500 
 3091              	.LASF95:
 3092 0296 46554E43 		.ascii	"FUNCTION2\000"
 3092      54494F4E 
 3092      3200
 3093              	.LASF99:
 3094 02a0 46554E43 		.ascii	"FUNCTION3\000"
 3094      54494F4E 
 3094      3300
 3095              	.LASF5:
 3096 02aa 75696E74 		.ascii	"uint8_t\000"
 3096      385F7400 
 3097              	.LASF131:
 3098 02b2 6368544D 		.ascii	"chTMChainMeasurementToX\000"
 3098      43686169 
 3098      6E4D6561 
 3098      73757265 
 3098      6D656E74 
 3099              	.LASF41:
 3100 02ca 705F6D70 		.ascii	"p_mpool\000"
 3100      6F6F6C00 
 3101              	.LASF39:
 3102 02d2 705F6D74 		.ascii	"p_mtxlist\000"
 3102      786C6973 
 3102      7400
 3103              	.LASF44:
 3104 02dc 63685F74 		.ascii	"ch_thread\000"
 3104      68726561 
 3104      6400
 3105              	.LASF67:
 3106 02e6 73797374 		.ascii	"system_debug_t\000"
 3106      656D5F64 
 3106      65627567 
 3106      5F7400
 3107              	.LASF10:
 3108 02f5 6C6F6E67 		.ascii	"long long int\000"
ARM GAS  /tmp/ccV5D8qL.s 			page 86


 3108      206C6F6E 
 3108      6720696E 
 3108      7400
 3109              	.LASF50:
 3110 0303 725F7175 		.ascii	"r_queue\000"
 3110      65756500 
 3111              	.LASF53:
 3112 030b 725F6E65 		.ascii	"r_newer\000"
 3112      77657200 
 3113              	.LASF19:
 3114 0313 6D73675F 		.ascii	"msg_t\000"
 3114      7400
 3115              	.LASF86:
 3116 0319 4D41534B 		.ascii	"MASK0\000"
 3116      3000
 3117              	.LASF90:
 3118 031f 4D41534B 		.ascii	"MASK1\000"
 3118      3100
 3119              	.LASF94:
 3120 0325 4D41534B 		.ascii	"MASK2\000"
 3120      3200
 3121              	.LASF98:
 3122 032b 4D41534B 		.ascii	"MASK3\000"
 3122      3300
 3123              	.LASF103:
 3124 0331 636F6E74 		.ascii	"context\000"
 3124      65787400 
 3125              	.LASF33:
 3126 0339 705F666C 		.ascii	"p_flags\000"
 3126      61677300 
 3127              	.LASF136:
 3128 0341 2E2E2F2E 		.ascii	"../../../os/rt/src/chtm.c\000"
 3128      2E2F2E2E 
 3128      2F6F732F 
 3128      72742F73 
 3128      72632F63 
 3129              	.LASF57:
 3130 035b 76697274 		.ascii	"virtual_timer_t\000"
 3130      75616C5F 
 3130      74696D65 
 3130      725F7400 
 3131              	.LASF54:
 3132 036b 725F6F6C 		.ascii	"r_older\000"
 3132      64657200 
 3133              	.LASF69:
 3134 0373 70616E69 		.ascii	"panic_msg\000"
 3134      635F6D73 
 3134      6700
 3135              	.LASF37:
 3136 037d 705F6D73 		.ascii	"p_msg\000"
 3136      6700
 3137              	.LASF106:
 3138 0383 746D5F63 		.ascii	"tm_calibration_t\000"
 3138      616C6962 
 3138      72617469 
 3138      6F6E5F74 
 3138      00
ARM GAS  /tmp/ccV5D8qL.s 			page 87


 3139              	.LASF15:
 3140 0394 746D6F64 		.ascii	"tmode_t\000"
 3140      655F7400 
 3141              	.LASF22:
 3142 039c 75636E74 		.ascii	"ucnt_t\000"
 3142      5F7400
 3143              	.LASF74:
 3144 03a3 6D61696E 		.ascii	"mainthread\000"
 3144      74687265 
 3144      616400
 3145              	.LASF81:
 3146 03ae 534C4545 		.ascii	"SLEEPCNT\000"
 3146      50434E54 
 3146      00
 3147              	.LASF13:
 3148 03b7 7274636E 		.ascii	"rtcnt_t\000"
 3148      745F7400 
 3149              	.LASF129:
 3150 03bf 6368544D 		.ascii	"chTMStopMeasurementX\000"
 3150      53746F70 
 3150      4D656173 
 3150      7572656D 
 3150      656E7458 
 3151              	.LASF40:
 3152 03d4 705F7265 		.ascii	"p_realprio\000"
 3152      616C7072 
 3152      696F00
 3153              	.LASF92:
 3154 03df 52455345 		.ascii	"RESERVED1\000"
 3154      52564544 
 3154      3100
 3155              	.LASF96:
 3156 03e9 52455345 		.ascii	"RESERVED2\000"
 3156      52564544 
 3156      3200
 3157              	.LASF3:
 3158 03f3 73686F72 		.ascii	"short int\000"
 3158      7420696E 
 3158      7400
 3159              	.LASF55:
 3160 03fd 725F6375 		.ascii	"r_current\000"
 3160      7272656E 
 3160      7400
 3161              	.LASF38:
 3162 0407 705F6570 		.ascii	"p_epending\000"
 3162      656E6469 
 3162      6E6700
 3163              	.LASF123:
 3164 0412 6D5F7175 		.ascii	"m_queue\000"
 3164      65756500 
 3165              	.LASF7:
 3166 041a 6C6F6E67 		.ascii	"long int\000"
 3166      20696E74 
 3166      00
 3167              	.LASF104:
 3168 0423 706F7274 		.ascii	"port_intctx\000"
 3168      5F696E74 
ARM GAS  /tmp/ccV5D8qL.s 			page 88


 3168      63747800 
 3169              	.LASF134:
 3170 042f 49544D5F 		.ascii	"ITM_RxBuffer\000"
 3170      52784275 
 3170      66666572 
 3170      00
 3171              	.LASF91:
 3172 043c 46554E43 		.ascii	"FUNCTION1\000"
 3172      54494F4E 
 3172      3100
 3173              	.LASF71:
 3174 0446 63685F73 		.ascii	"ch_system\000"
 3174      79737465 
 3174      6D00
 3175              	.LASF25:
 3176 0450 705F6E65 		.ascii	"p_next\000"
 3176      787400
 3177              	.LASF11:
 3178 0457 75696E74 		.ascii	"uint64_t\000"
 3178      36345F74 
 3178      00
 3179              	.LASF28:
 3180 0460 705F6374 		.ascii	"p_ctx\000"
 3180      7800
 3181              	.LASF72:
 3182 0466 726C6973 		.ascii	"rlist\000"
 3182      7400
 3183              	.LASF130:
 3184 046c 5F746D5F 		.ascii	"_tm_init\000"
 3184      696E6974 
 3184      00
 3185              	.LASF26:
 3186 0475 705F7072 		.ascii	"p_prev\000"
 3186      657600
 3187              	.LASF76:
 3188 047c 73697A65 		.ascii	"sizetype\000"
 3188      74797065 
 3188      00
 3189              	.LASF17:
 3190 0485 74726566 		.ascii	"trefs_t\000"
 3190      735F7400 
 3191              	.LASF9:
 3192 048d 6C6F6E67 		.ascii	"long unsigned int\000"
 3192      20756E73 
 3192      69676E65 
 3192      6420696E 
 3192      7400
 3193              	.LASF48:
 3194 049f 72656164 		.ascii	"ready_list_t\000"
 3194      795F6C69 
 3194      73745F74 
 3194      00
 3195              	.LASF6:
 3196 04ac 696E7433 		.ascii	"int32_t\000"
 3196      325F7400 
 3197              	.LASF116:
 3198 04b4 77747365 		.ascii	"wtsemp\000"
ARM GAS  /tmp/ccV5D8qL.s 			page 89


 3198      6D7000
 3199              	.LASF127:
 3200 04bb 6D757465 		.ascii	"mutex_t\000"
 3200      785F7400 
 3201              	.LASF84:
 3202 04c3 50435352 		.ascii	"PCSR\000"
 3202      00
 3203              	.LASF107:
 3204 04c8 62657374 		.ascii	"best\000"
 3204      00
 3205              	.LASF2:
 3206 04cd 756E7369 		.ascii	"unsigned char\000"
 3206      676E6564 
 3206      20636861 
 3206      7200
 3207              	.LASF139:
 3208 04db 746D5F73 		.ascii	"tm_stop\000"
 3208      746F7000 
 3209              	.LASF64:
 3210 04e3 76697274 		.ascii	"virtual_timers_list_t\000"
 3210      75616C5F 
 3210      74696D65 
 3210      72735F6C 
 3210      6973745F 
 3211              	.LASF34:
 3212 04f9 705F7265 		.ascii	"p_refs\000"
 3212      667300
 3213              	.LASF59:
 3214 0500 76745F6E 		.ascii	"vt_next\000"
 3214      65787400 
 3215              	.LASF83:
 3216 0508 464F4C44 		.ascii	"FOLDCNT\000"
 3216      434E5400 
 3217              	.LASF137:
 3218 0510 2F686F6D 		.ascii	"/home/sylvain/Documents/TelecomRobotics/ChibiOS_16."
 3218      652F7379 
 3218      6C766169 
 3218      6E2F446F 
 3218      63756D65 
 3219 0543 312E372F 		.ascii	"1.7/demos/STM32/RT-STM32F302R8-NUCLEO\000"
 3219      64656D6F 
 3219      732F5354 
 3219      4D33322F 
 3219      52542D53 
 3220              	.LASF70:
 3221 0569 63685F73 		.ascii	"ch_system_t\000"
 3221      79737465 
 3221      6D5F7400 
 3222              	.LASF115:
 3223 0575 77747472 		.ascii	"wttrp\000"
 3223      7000
 3224              	.LASF78:
 3225 057b 43594343 		.ascii	"CYCCNT\000"
 3225      4E5400
 3226              	.LASF125:
 3227 0582 6D5F6E65 		.ascii	"m_next\000"
 3227      787400
ARM GAS  /tmp/ccV5D8qL.s 			page 90


 3228              	.LASF1:
 3229 0589 7369676E 		.ascii	"signed char\000"
 3229      65642063 
 3229      68617200 
 3230              	.LASF4:
 3231 0595 73686F72 		.ascii	"short unsigned int\000"
 3231      7420756E 
 3231      7369676E 
 3231      65642069 
 3231      6E7400
 3232              	.LASF52:
 3233 05a8 725F6374 		.ascii	"r_ctx\000"
 3233      7800
 3234              	.LASF102:
 3235 05ae 73746B61 		.ascii	"stkalign_t\000"
 3235      6C69676E 
 3235      5F7400
 3236              	.LASF62:
 3237 05b9 76745F66 		.ascii	"vt_func\000"
 3237      756E6300 
 3238              	.LASF60:
 3239 05c1 76745F70 		.ascii	"vt_prev\000"
 3239      72657600 
 3240              	.LASF88:
 3241 05c9 52455345 		.ascii	"RESERVED0\000"
 3241      52564544 
 3241      3000
 3242              	.LASF113:
 3243 05d3 65786974 		.ascii	"exitcode\000"
 3243      636F6465 
 3243      00
 3244              	.LASF80:
 3245 05dc 45584343 		.ascii	"EXCCNT\000"
 3245      4E5400
 3246              	.LASF77:
 3247 05e3 4354524C 		.ascii	"CTRL\000"
 3247      00
 3248              		.comm	__gnu_lto_v1,1,1
 3249              		.ident	"GCC: (GNU) 4.7.2"
ARM GAS  /tmp/ccV5D8qL.s 			page 91


DEFINED SYMBOLS
                            *ABS*:00000000 chtm.c
     /tmp/ccV5D8qL.s:479    .text.chTMObjectInit:00000000 $t
     /tmp/ccV5D8qL.s:485    .text.chTMObjectInit:00000000 chTMObjectInit
     /tmp/ccV5D8qL.s:513    .text.chTMStartMeasurementX:00000000 $t
     /tmp/ccV5D8qL.s:519    .text.chTMStartMeasurementX:00000000 chTMStartMeasurementX
     /tmp/ccV5D8qL.s:543    .text.chTMStopMeasurementX:00000000 $t
     /tmp/ccV5D8qL.s:549    .text.chTMStopMeasurementX:00000000 chTMStopMeasurementX
     /tmp/ccV5D8qL.s:631    .text.chTMStopMeasurementX:00000040 $d
     /tmp/ccV5D8qL.s:636    .text._tm_init:00000000 $t
     /tmp/ccV5D8qL.s:642    .text._tm_init:00000000 _tm_init
     /tmp/ccV5D8qL.s:709    .text.chTMChainMeasurementToX:00000000 $t
     /tmp/ccV5D8qL.s:715    .text.chTMChainMeasurementToX:00000000 chTMChainMeasurementToX
                            *COM*:00000001 __gnu_lto_v1
                     .debug_frame:00000010 $d
     /tmp/ccV5D8qL.s:635    .text.chTMStopMeasurementX:00000044 $t

UNDEFINED SYMBOLS
ch
