ARM GAS  /tmp/ccGvAapC.s 			page 1


   1              		.syntax unified
   2              		.cpu cortex-m4
   3              		.fpu softvfp
   4              		.eabi_attribute 20, 1
   5              		.eabi_attribute 21, 1
   6              		.eabi_attribute 23, 3
   7              		.eabi_attribute 24, 1
   8              		.eabi_attribute 25, 1
   9              		.eabi_attribute 26, 1
  10              		.eabi_attribute 30, 2
  11              		.eabi_attribute 34, 1
  12              		.eabi_attribute 18, 4
  13              		.thumb
  14              		.file	"chvt.c"
  15              		.text
  16              	.Ltext0:
  17              		.section	.gnu.lto_.jmpfuncs.f22e622014e3e3b2,"",%progbits
  18 0000 789C6362 		.ascii	"x\234cb`d`g\300\016\304\2414\013P\015\0102\361\203H"
  18      60646067 
  18      C00EC4A1 
  18      340B500D 
  18      0832F183 
  19 0015 66464616 		.ascii	"fFF\026\240`\011\003\000\007\373\000\271"
  19      A0600903 
  19      0007FB00 
  19      B9
  20              		.text
  21              		.section	.gnu.lto_.inline.f22e622014e3e3b2,"",%progbits
  22 0000 789C6362 		.ascii	"x\234cb`d\340e\300\016Z\2404\013\003\203\224\024#\003"
  22      6064E065 
  22      C00E5AA0 
  22      340B0383 
  22      94142303 
  23 0014 93EAC15F 		.ascii	"\223\352\301_\214\014\234\253\315\230\030\030\271\200"
  23      8C0C9CAB 
  23      CD981818 
  23      B980
  24 0022 C24CDC0C 		.ascii	"\302L\334\014\014\214\023\374\030\031\330\331\200\222"
  24      0C8C13FC 
  24      1819D8D9 
  24      8092
  25 0030 1C07EC18 		.ascii	"\034\007\354\030\330\026\3103101\030^d`dfL\222dHe\004"
  25      D816C833 
  25      31303118 
  25      5E646064 
  25      664C9264 
  26 0047 AA60604C 		.ascii	"\252``L\206\263\200$\263\307\315\227\034\014|K\335\230"
  26      86B38024 
  26      B3C7CD97 
  26      1C0C7C4B 
  26      DD98
  27 0059 185816C8 		.ascii	"\030X\026\310\013\300L\201R\314\014\"\002@\303$\333"
  27      0BC04C81 
  27      52CC0C22 
  27      0240C324 
  27      DB
  28 006a 96313270 		.ascii	"\22612p\357\262g\202I3\000\000\311\211\022`"
ARM GAS  /tmp/ccGvAapC.s 			page 2


  28      EFB26782 
  28      49330000 
  28      C9891260 
  29              		.text
  30              		.section	.gnu.lto_.pureconst.f22e622014e3e3b2,"",%progbits
  31 0000 789C6362 		.ascii	"x\234cb`d`f``\340d\200\000\026\006)F\011&)f)\000\003"
  31      60646066 
  31      6060E064 
  31      80001606 
  31      29460926 
  32 0019 080080   		.ascii	"\010\000\200"
  33              		.text
  34              		.section	.gnu.lto_chVTDoResetI.part.0.f22e622014e3e3b2,"",%progbits
  35 0000 789C9D56 		.ascii	"x\234\235VKh\024A\020\255\352\236\357\356\306\304\203"
  35      4B681441 
  35      10ADEA9E 
  35      EFEEC6C4 
  35      83
  36 0011 07037E50 		.ascii	"\007\003~P\017b4\343\347\242\007\021\321\203\2029$*"
  36      0F6234E3 
  36      E7A20711 
  36      D1838239 
  36      242A
  37 0023 88A08B8C 		.ascii	"\210\240\213\214#\021\022#\233%\212\227\2141\007\021"
  37      23111223 
  37      9B258A97 
  37      8C310711 
  38 0033 85E04D4F 		.ascii	"\205\340MOf\305?\242\010\342'A\301\357f\011\236\026"
  38      66C53FA2 
  38      08E22741 
  38      C1EF6609 
  38      9E16
  39 0045 CDD1839F 		.ascii	"\315\321\203\237(9\311\036L\024cu\367t2k\214&;\311\346"
  39      2839C91E 
  39      4C146375 
  39      F774326B 
  39      8C263BC9 
  40 005a D574D7AB 		.ascii	"\325t\327\253z]]\335\033\006H?S\237V\372T\273\000=\204"
  40      7A5D5DDD 
  40      1B06483F 
  40      539F56FA 
  40      54BB003D 
  41 006f 9800747B 		.ascii	"\230\000t{\336\220\341\"\223\310\030\177\304!\\n\274"
  41      DE90E122 
  41      93C8187F 
  41      C4215C6E 
  41      BC
  42 0080 2B0084AB 		.ascii	"+\000\204\2539:b\370\344b\2039\375\013i\334,z4l2\353"
  42      393A62F8 
  42      E4628339 
  42      FD0B69DC 
  42      2C7A346C 
  43 0096 EC3C7AB3 		.ascii	"\354<z\263\2737\320\233\205\266r\262\265\267\203(\014"
  43      BB37D09B 
  43      85B672B2 
  43      B5B78328 
  43      0C
ARM GAS  /tmp/ccGvAapC.s 			page 3


  44 00a7 CADFE932 		.ascii	"\312\337\3512n\230\226\355`\347n\251f\316\022\350\015"
  44      6E9896ED 
  44      60E76EA9 
  44      66CE12E8 
  44      0D
  45 00b8 C38B3DCF 		.ascii	"\303\213=\317\273\266u\275\037\037_\024\210\3214B\341"
  45      BBB675BD 
  45      1F1F5F14 
  45      88D13442 
  45      E1
  46 00c9 D7153E1F 		.ascii	"\327\025>\037\002DX\014\002\031\030\345\272%\357|\317"
  46      0244580C 
  46      021918E5 
  46      BA25EF7C 
  46      CF
  47 00da A97082C7 		.ascii	"\251p\202\307`\001\012j\361\361\023\2345u\251\244\016"
  47      60010A6A 
  47      F1F1139C 
  47      3575A9A4 
  47      0E
  48 00eb CD28E7A4 		.ascii	"\315(\347\244V.\265\026\007f\226\360O\336p\262\022\326"
  48      562EB516 
  48      076696F0 
  48      4FDE70B2 
  48      12D6
  49 00fd E0A64A58 		.ascii	"\340\246JX/\236\374\252H#TB*\365\215U\224,\357VTF{v"
  49      2F9EFCAA 
  49      48235442 
  49      2AF58D55 
  49      942CEF56 
  50 0115 2C4315A4 		.ascii	",C\025\244/\307*\341\235\236e\213(V\351q\356\337\025"
  50      2FC72AE1 
  50      9D9E658B 
  50      2856E971 
  50      EEDF15
  51 0128 C10F03D6 		.ascii	"\301\017\003\326S\026\276\037\357\\\006\227\243\356"
  51      5316BE1F 
  51      EF5C0697 
  51      A3EE
  52 0136 24328395 		.ascii	"$2\203\225\2621Kw\356\375M\255\010?\017q\037\336\305"
  52      B2314B77 
  52      EEFD4DAD 
  52      083F0F71 
  52      1FDEC5
  53 0149 65D4C4FB 		.ascii	"e\324\304\373\3606.\001Nx\203\320 \274Eh\022^'\264\010"
  53      F0362E01 
  53      4E7883D0 
  53      20BC4568 
  53      125E27B4 
  54 015e 2F11DA84 		.ascii	"/\021\332\204\327\010\035\302\313\204.a/a\202\360*a"
  54      D7081DC2 
  54      CB842E61 
  54      2F6182F0 
  54      2A61
  55 0170 327A4F11 		.ascii	"2zO\021^!\244\307\204\3560\254a\312_\315\246\243\313"
  55      5E21A4C7 
  55      84EE30AC 
ARM GAS  /tmp/ccGvAapC.s 			page 4


  55      61CA5FCD 
  55      A6A3CB
  56 0183 A451A038 		.ascii	"\244Q\2408\335\215\350J\2037\221:i\024\240k\357\207"
  56      DD8DE84A 
  56      8337913A 
  56      6914A06B 
  56      EF87
  57 0195 FEAF24EF 		.ascii	"\376\257$\357\036\232\340#\253\203\025\244\230_\204"
  57      1E9AE023 
  57      AB8315A4 
  57      985F84
  58 01a4 0B18A0C9 		.ascii	"\013\030\240\311|\2245\021+\021A\366O^O\304\334>d*^"
  58      7C943511 
  58      2B1141F6 
  58      4F5E4FC4 
  58      DC3E642A 
  59 01b9 44926045 		.ascii	"D\222`E\\\233\235\200\321\320\011\320\301\303\352Z\023"
  59      5C9B9D80 
  59      D1D009D0 
  59      C1C3EA5A 
  59      13
  60 01ca 819C8940 		.ascii	"\201\234\211@\364w\2174HI\236\272D$\227QG\371H\377\030"
  60      F4778F34 
  60      48499EBA 
  60      44249751 
  60      47F948FF 
  61 01df 96059E54 		.ascii	"\226\005\236T\303\312\325\020/o\222\025\245r1\222@\031"
  61      C3CAD510 
  61      2F6F9215 
  61      A5723192 
  61      4019
  62 01f1 6586E12A 		.ascii	"e\206\341*\232|X\245\005\257/\365\347\342\221\023\323"
  62      9A7C58A5 
  62      05AF2FF5 
  62      E7E29113 
  62      D3
  63 0202 AF93ACE6 		.ascii	"\257\223\254\346HsB\322_\302\213O8\270q\242P\323\245"
  63      487342D2 
  63      5FC28B4F 
  63      38B871A2 
  63      50D3A5
  64 0215 BC2ED672 		.ascii	"\274.\326r\274\254q\232\204\316G\234\017\002\317\365"
  64      BCAC719A 
  64      84CE479C 
  64      0F02CFF5 
  65 0225 DD2FA1DA 		.ascii	"\335/\241\332\252h\307@E\214?Q\350$\246\021U\301\003"
  65      AA68C740 
  65      458C3F51 
  65      E824A611 
  65      55C103
  66 0238 4CE95024 		.ascii	"L\351P$\214.z\271q\205\341\317\213\264\036U|\230\276"
  66      8C2E7AB9 
  66      7185E1CF 
  66      8BB41E55 
  66      7C98BE
  67 024b 542644DF 		.ascii	"T&D\337-\2029\344j\2361\205\207Sxz\303Ou~\2675\317\244"
  67      2D8239E4 
ARM GAS  /tmp/ccGvAapC.s 			page 5


  67      6A9E3185 
  67      8753787A 
  67      C34F757E 
  68 0263 94BE7013 		.ascii	"\224\276p\023}\000\261\232\376_\202/\214\002<\333\373"
  68      7D00B19A 
  68      FE5F822F 
  68      8C023CDB 
  68      FB
  69 0274 ED5C5F81 		.ascii	"\355\\_\201\227\027\343\177\245\321\217\217V\035\334"
  69      9717E37F 
  69      A5D18F8F 
  69      561DDC
  70 0283 0CBB2951 		.ascii	"\014\273)Q\225Hx\262&\30092]5\204\364\030\240l\235\332"
  70      954878B2 
  70      26C03932 
  70      5D3584F4 
  70      18A06C9D 
  71 0298 8A36462D 		.ascii	"\2126F-\2770z\315\323\013\261#\325\263m\336\357\256"
  71      BF307ACD 
  71      D30BB123 
  71      D5B36DDE 
  71      EFAE
  72 02aa B46C6AB2 		.ascii	"\264lj\262\244\256\317i\236\347:\256C\022}1\375J\236"
  72      A4AECF69 
  72      9EE73AAE 
  72      43127D31 
  72      FD4A9E
  73 02bd 7A31A8CE 		.ascii	"z1\250\316\246/\342\274\204\356\2178\362\2646VN'\336"
  73      A62FE2BC 
  73      84EE8F38 
  73      F2B43656 
  73      4E27DE
  74 02d0 30B4EAD7 		.ascii	"0\264\352\327\253\270\014Y\314\037\322^\256v\214\307"
  74      ABB80C59 
  74      CC1FD25E 
  74      AE768CC7 
  75 02e0 EC9531DD 		.ascii	"\354\2251\335(f)?\021S\336\324P\366\037E\223(\304\325"
  75      2866293F 
  75      1153DED4 
  75      50F61F45 
  75      9328C4D5 
  76 02f4 1427FECF 		.ascii	"\024'\376\317\374\221x\004\341\313)\252\366\263\245"
  76      FC917804 
  76      E1CB29AA 
  76      F6B3A5
  77 0303 00F223BA 		.ascii	"\000\362#\272\316\221TMP\034\030c:G\202\226(\025\311"
  77      CE91544D 
  77      501C1863 
  77      3A478296 
  77      2815C9
  78 0316 EE30F570 		.ascii	"\3560\365pJ\316$\343B\377\366\215~\026\305\315\311J"
  78      4ACE24E3 
  78      42FFF68D 
  78      7E16C5CD 
  78      C94A
  79 0328 776AFF79 		.ascii	"wj\377y\361\372\242\373\007\301\310\375x02\323\303S"
  79      F1FAA2FB 
ARM GAS  /tmp/ccGvAapC.s 			page 6


  79      07C1C8FD 
  79      783032D3 
  79      C353
  80 033a 438787A3 		.ascii	"C\207\207\243\246\0078WXo!Ie1\013g\276\244\364z-\252"
  80      A6073857 
  80      586F2149 
  80      65310B67 
  80      BEA4F47A 
  81 0350 8358AFA3 		.ascii	"\203X\257\243\356\3037\200X\036\263Ql6M\211\322\324"
  81      EEC33780 
  81      581EB351 
  81      6C364D89 
  81      D2D4
  82 0362 D6D77BEA 		.ascii	"\326\327{\352\267\255\335\313d\275\366\214\357\371\315"
  82      B7ADDDCB 
  82      64BDF68C 
  82      EFF9CD
  83 0371 1DD97A1F 		.ascii	"\035\331z\037\314\203AK\366\200s\244\355\2304xG\366"
  83      CC83414B 
  83      F68073A4 
  83      ED983478 
  83      47F6
  84 0383 68DD1FDE 		.ascii	"h\335\037\336G\3332\331vosS\303\226\206\343D\363\333"
  84      47DB32D9 
  84      766F7353 
  84      C39686E3 
  84      44F3DB
  85 0396 32413A7B 		.ascii	"2A:{\2705\310\3247\203\027\367m>\320\0229\357\334\325"
  85      B835C8D4 
  85      378317F7 
  85      6D3ED012 
  85      39EFDCD5 
  86 03aa B06EADB7 		.ascii	"\260n\255\267c\307Vo\327\366\206\2165^{6\335\322r\220"
  86      63C7566F 
  86      D7F6868E 
  86      355E7B36 
  86      DDD27290 
  87 03be FC0D41FC 		.ascii	"\374\015A\374\015\023\300\356,"
  87      0D13C0EE 
  87      2C
  88              		.text
  89              		.section	.gnu.lto__vt_init.f22e622014e3e3b2,"",%progbits
  90 0000 789C6362 		.ascii	"x\234cb`\004BL \011\304\354L\014\0142@\232\221\231\201"
  90      6004424C 
  90      2009C4EC 
  90      4C0C0C32 
  90      409A9199 
  91 0015 9169C239 		.ascii	"\221i\3029\006\206F\005&FF\020\003\250\245\236\211\261"
  91      06864605 
  91      26464610 
  91      03A8A59E 
  91      89B1
  92 0027 3E14A2F3 		.ascii	">\024\242\363\324\337m\214\177f\260\355g:\360\340\177"
  92      D4DF6D8C 
  92      7F66B0ED 
  92      673AF0E0 
  92      7F
ARM GAS  /tmp/ccGvAapC.s 			page 7


  93 0038 3D03031B 		.ascii	"=\003\003\033P\210\225\241\245\241A\200!\036jt \210"
  93      508895A1 
  93      A5A14180 
  93      211E6A74 
  93      2088
  94 004a 06690C62 		.ascii	"\006i\014bd\0023\230O14\375d\376\263\235;\226q\001#"
  94      64023398 
  94      4F3134FD 
  94      64FEB39D 
  94      3B967101 
  95 005f 2B833683 		.ascii	"+\2036\203V*#\0033\230bd\236\3050\2231\225\221\211\251"
  95      562A2303 
  95      33986264 
  95      9EC53093 
  95      31959189 
  96 0074 8AE16703 		.ascii	"\212\341g\003G*#3c&\304\215\222\014@\016\330r\006\206"
  96      472A2333 
  96      6326C48D 
  96      920C400E 
  96      D8720686 
  97 0088 38101101 		.ascii	"8\020\021\001f\000Y'@\302P\345,\214Pc\200\272\300\252"
  97      66005927 
  97      40C250E5 
  97      2C8C5063 
  97      80BAC0AA 
  98 009c 6E700389 		.ascii	"np\003\211\025\334\020\247\202\254=2c\033#\025\354e"
  98      15DC10A7 
  98      82AC3D32 
  98      631B2315 
  98      EC65
  99 00ae 22CD5E8B 		.ascii	"\"\315^\21333v![\313J\246\265\314PkA\322l\014\377\201"
  99      33337621 
  99      5BCB4AA6 
  99      B5CC506B 
  99      41D26C0C 
 100 00c4 801F6AC1 		.ascii	"\200\037j\301\233\031\317\250a\001\013\212\005 p\216"
 100      9B19CFA8 
 100      61010B8A 
 100      0520708E 
 101 00d4 0114BF10 		.ascii	"\001\024\277\020\243a \020\024\356\300\230\004\206\002"
 101      A3612010 
 101      14EEC098 
 101      048602
 102 00e3 83949E9E 		.ascii	"\203\224\236\236>\004\345\027\353\027\225\350\027\027"
 102      3E04E517 
 102      EB1795E8 
 102      1717
 103 00f1 25EB2767 		.ascii	"%\353'g\224\225\350%3\000\000\250Xd\215"
 103      9495E825 
 103      330000A8 
 103      58648D
 104              		.text
 105              		.section	.gnu.lto_chVTDoSetI.f22e622014e3e3b2,"",%progbits
 106 0000 789CAD57 		.ascii	"x\234\255WKlTe\024>\347\376w\036\235g\023\332\332\322"
 106      4B6C5465 
 106      143EE7FE 
 106      771E9D67 
ARM GAS  /tmp/ccGvAapC.s 			page 8


 106      13DADAD2 
 107 0014 27042342 		.ascii	"'\004#B\354\240,\360\2612\272\240\201.@L\014Ii\312e"
 107      ECA02CF0 
 107      B132BAA0 
 107      812E404C 
 107      0C4969CA 
 108 0029 48496A4B 		.ascii	"HIjK\332qD\026th\273\350\202\004\342\302T-\255\200\326"
 108      DA714416 
 108      7468BBE8 
 108      8204E2C2 
 108      542DAD80 
 109 003e E94827A6 		.ascii	"\351H'\246\032\242\306\200\301\212\244\231\270\261\251"
 109      1AA2C680 
 109      C18AA499 
 109      B8B1A9
 110 004d 244E9484 		.ascii	"$N\224\204\241\013S\\\030B\204\020\353\371_\323;\323"
 110      A10B535C 
 110      18428410 
 110      EBF95FD3 
 110      3BD3
 111 005f 993A6DBC 		.ascii	"\231:m\274\355\364\334\373\317\371\276\363\374\317\177"
 111      EDF4DCFB 
 111      CFF9BEF3 
 111      FCCF7F
 112 006e 6B00D2CF 		.ascii	"k\000\322\317\312\3533\372\274\027\004\030#\211A@\343"
 112      CAEB33FA 
 112      BC170418 
 112      23894140 
 112      E3
 113 007f DC4F00A7 		.ascii	"\334O\000\247\233\014\203\235\251\204\330Vs\350\005"
 113      9B0C839D 
 113      A984D856 
 113      73E805
 114 008e 88ED6068 		.ascii	"\210\355`h\312e\323p|\315h\331\371\313,\320\272\003"
 114      CA65D370 
 114      7CCD68D9 
 114      F9CB2CD0 
 114      BA03
 115 00a0 0372DD69 		.ascii	"\003r\335i\270\206\237\242u7\377\273\303\205\036\271"
 115      B8869FA2 
 115      7537FFBB 
 115      C3851EB9 
 116 00b0 EC36CAE6 		.ascii	"\3546\312\346\252h\331\363\355.Z.\323\313\036\364\361"
 116      AA68D9F3 
 116      ED2E5A2E 
 116      D3CB1EF4 
 116      F1
 117 00c1 1BF44A79 		.ascii	"\033\364Jy\241\311gx\317\374H\204[\375C.R\364k\332\000"
 117      A1C96778 
 117      CFFC4884 
 117      5BFD432E 
 117      52F46BDA 
 118 00d6 22BF21C7 		.ascii	"\"\277!\307\373\015f:\234.w\231\307\353\363\007\260"
 118      FB0D663A 
 118      9C2E7799 
 118      C7EBF307 
 118      B0
ARM GAS  /tmp/ccGvAapC.s 			page 9


 119 00e7 FF75118B 		.ascii	"\377u\021\213w3\\\210\305\336=\367\375\300\356\201\333"
 119      77335C88 
 119      C5DE3DF7 
 119      FDC0EE81 
 119      DB
 120 00f8 4B4B8D61 		.ascii	"KK\215a\276\332\2160{\357\316\0235\020F\204&\340\322"
 120      BEDA8E30 
 120      7BEFCE13 
 120      35104684 
 120      26E0D2
 121 010b 003337EA 		.ascii	"\00037\352\0258&p\251\370Uc=\270[\256\365\240\322\223"
 121      15382670 
 121      A9F85563 
 121      3DB85BAE 
 121      F5A0D293 
 122 011f 13B82E2F 		.ascii	"\023\270./\267\255\007\3658\361\347\032\255\311\\\246"
 122      B7AD07F5 
 122      38F1E71A 
 122      ADC95CA6 
 123 012f A71EADCB 		.ascii	"\247\036\255\313\313\271\344\251R`\203\261\2549\003"
 123      CBB9E4A9 
 123      526083B1 
 123      AC3903
 124 013e EA51C437 		.ascii	"\352Q\3047:]\222\305e\250i@\243\200\316\215F\327\214"
 124      3A5D92C5 
 124      65A86940 
 124      A380CE8D 
 124      46D78C
 125 0151 7C522033 		.ascii	"|R 3\347Wwwf\364\201\221I:\257\031\337\335^\352\337"
 125      E7577777 
 125      66F48191 
 125      493AAF19 
 125      DFDD5EEA 
 126 0166 0297148D 		.ascii	"\002\227\024\215p\373i\301\360\370\303D\201\346av]\262"
 126      70FB69C1 
 126      F0F8C344 
 126      81E66176 
 126      5DB2
 127 0178 F68CD01D 		.ascii	"\366\214\320\035\361\0270F\337\203]\333a\300N\241=3"
 127      F1173046 
 127      DF835DDB 
 127      61C04EA1 
 127      3D33
 128 018a FA47A184 		.ascii	"\372G\241\204\220F\216\276\323\200\027\205\376\260\267"
 128      90468EBE 
 128      D3801785 
 128      FEB0B7
 129 0199 A0B61378 		.ascii	"\240\266\023xM_Bh\303\317q\013\371\335\206q\334\014"
 129      4D5F4268 
 129      C3CF710B 
 129      F9DD8671 
 129      DC0C
 130 01ab 8C6482A4 		.ascii	"\214d\202\244\211m\230\244u\007\311/I:IN\223t\243\324"
 130      896D98A4 
 130      7507C92F 
 130      493A494E 
 130      9374A3D4 
ARM GAS  /tmp/ccGvAapC.s 			page 10


 131 01bf F790DE47 		.ascii	"\367\220\336G\244\347#y\221d\200\344\005\222A\222\227"
 131      A4E72379 
 131      916480E4 
 131      05924192 
 131      97
 132 01d0 48962B9E 		.ascii	"H\226+\236\015$?&Y\241\236+\225\235*\265^M\362\023\222"
 132      0D243F26 
 132      59A19E2B 
 132      959D2AB5 
 132      5E4DF213 
 133 01e5 35EAB956 		.ascii	"5\352\271V\351\325)\275z%\033HN\220lT\3377)\375M$?%"
 133      E9D529BD 
 133      7A251B48 
 133      4E906C54 
 133      DF3729FD 
 134 01fd B98BE465 		.ascii	"\271\213\344e\222t9`(\026+g\022'\265\217\211L\210k\037"
 134      92743960 
 134      28162B67 
 134      1227B58F 
 134      894C886B 
 135 0212 974917EC 		.ascii	"\227I\027\354\247T\220d\2630\260\347\361\350\2516\274"
 135      A7549064 
 135      B330B0E7 
 135      F1E8A936 
 135      BC
 136 0223 4209DC0E 		.ascii	"B\011\334\016\333(3\354\003x\037\303\3502,4kD\232\000"
 136      DB2833EC 
 136      03781FC3 
 136      E8322C34 
 136      6B449A00 
 137 0237 3AE97348 		.ascii	":\351sH\217L\213T\201\003g\316_D\033\322Q\034\211\032"
 137      8F4C8B54 
 137      810367CE 
 137      5F441BD2 
 137      511C891A 
 138 024b E9E4C8EB 		.ascii	"\351\344\310\353\007\037\375\372s\235t\024V\021(\203"
 138      071FFDFA 
 138      739D7414 
 138      56112883 
 139 025b 92268A5E 		.ascii	"\222&\212^\026\356\332\016\211\330\020Yvs\017N\227\207"
 139      16EEDA0E 
 139      89D81059 
 139      76730F4E 
 139      9787
 140 026d B14C749F 		.ascii	"\261Lt\237\007bt\231 \357A\314\374C<\3608\023\310\033"
 140      07627499 
 140      20EF41CC 
 140      FC433CF0 
 140      3813C81B 
 141 0281 60CCA6EF 		.ascii	"`\314\246\357\004\333\360\032\361g\023\010?\300\320"
 141      04DBF01A 
 141      F1671308 
 141      3FC0D0
 142 0290 5D9C193B 		.ascii	"]\234\031;,\327-t\327\210v\264\237\030\373\371\306\376"
 142      2CD72D74 
 142      D78876B4 
 142      9F18FBF9 
ARM GAS  /tmp/ccGvAapC.s 			page 11


 142      C6FE
 143 02a2 071931A4 		.ascii	"\007\0311\244\306\242\232\200w\006\327e\324OZ\317\024"
 143      C6A29A80 
 143      7706D765 
 143      D44F5ACF 
 143      14
 144 02b3 69263D82 		.ascii	"i&=\202K\015\213g\203\322wpql\201i\033\036\221A`BxU"
 144      4B0D8B67 
 144      83D27770 
 144      716C8169 
 144      1B1E9141 
 145 02cb 227DC649 		.ascii	"\"}\306Ix\030s\207\321\217\307P\344\220\263\373\263"
 145      78187387 
 145      D18FC750 
 145      E490B3FB 
 145      B3
 146 02dc 91900F71 		.ascii	"\221\220\017q\277\270#+#A\345\374\314\002\016/\363*"
 146      BFB8232B 
 146      2341E5FC 
 146      CC020E2F 
 146      F32A
 147 02ee 86002A66 		.ascii	"\206\000*f\"\022\300\233<\005#\314\026\323< \305j\240"
 147      2212C09B 
 147      3C0523CC 
 147      16D33C20 
 147      C56AA0
 148 0301 8E805164 		.ascii	"\216\200Qd<\002J\3756\336'-\251\361\007(y\005\227\271"
 148      3C024AFD 
 148      36DE272D 
 148      A9F10728 
 148      790597B9 
 149 0315 666785B9 		.ascii	"fg\205\271C\234p\330!\013'\373hn|\301N\274\366,(b3K"
 149      439C70D8 
 149      210B27FB 
 149      686E7CC1 
 149      4EBCF62C 
 150 032d 6C4AE2F4 		.ascii	"lJ\342\364\377D\354\314#~\3102\343\323\271\314\005Z"
 150      FF44ECCC 
 150      237EC832 
 150      E3D3B9CC 
 150      055A
 151 033f 3F2EC12E 		.ascii	"?.\301.\231\336\242\205\360\362Bx\205\216\240^,\235"
 151      99DEA285 
 151      F0F24278 
 151      858EA05E 
 151      2C9D
 152 0351 DABD26EA 		.ascii	"\332\275&\352=\367\307\257\344\026\2608s\231\336[\242"
 152      3DF7C7AF 
 152      E416B038 
 152      7399DE5B 
 152      A2
 153 0362 5707FB53 		.ascii	"W\007\373Sq]{\013}\264*jwC\314M\276X\350,\351V'\301"
 153      715D7B0B 
 153      7DB42A6A 
 153      7743CC4D 
 153      BE58E82C 
 154 037a C655CF12 		.ascii	"\306U\317\022\242\003H\201\231<\373\305\215\306\374"
ARM GAS  /tmp/ccGvAapC.s 			page 12


 154      A2034881 
 154      993CFBC5 
 154      8DC6FC
 155 0389 DDFF9BD8 		.ascii	"\335\377\233\330\375\327\362v\277\0127\210\355\250\006"
 155      FDD7F276 
 155      BF0A3788 
 155      EDA806
 156 0398 0B9184B1 		.ascii	"\013\221\204\261\\o9\252\326\220\330r\263g\3572\275"
 156      5C6F39AA 
 156      D690D872 
 156      B367EF32 
 156      BD
 157 03a9 37F934B4 		.ascii	"7\3714\264\370\024\340;/=\371W6\232\300:\233\371\226"
 157      F814E03B 
 157      2F3DF957 
 157      369AC03A 
 157      9BF996
 158 03bc 4337F34D 		.ascii	"C7\363M\227\312\360\3400\033qh\336 \245\210\330e\372"
 158      97CAF0E0 
 158      301B7168 
 158      DE20A588 
 158      D865FA
 159 03cf BECA6EC8 		.ascii	"\276\312n\310r\361\015\332\223'\207\264\305\003\240"
 159      72F10DDA 
 159      932787B4 
 159      C503A0
 160 03de DD7B1717 		.ascii	"\335{\027\027'\017\333H\312\355S\207,]g|3\036L%&\262"
 160      270FDB48 
 160      CAED5387 
 160      2C5D677C 
 160      331E4C25 
 161 03f4 216C5851 		.ascii	"!lXQN\217.'\330\253\251|\274\225u\246B\370\263\241\220"
 161      4E8F2E27 
 161      D8ABA97C 
 161      BC9575A6 
 161      42F8B3A1 
 162 0409 33153253 		.ascii	"3\0252Ss\211\243Z\271rE;f\255\334\314\351tA7\222\227"
 162      7389A35A 
 162      B972453B 
 162      66ADDCCC 
 162      E9744137 
 163 041f F94A1D82 		.ascii	"\371J\035\202;\033B&q5\033BU\311!\210\024-\207P\225"
 163      3B1B4226 
 163      71351B42 
 163      55C92188 
 163      142D8750 
 164 0434 9721D21B 		.ascii	"\227!\322\033D\306s\316_\362\264V5UB(\256\326\262m\370"
 164      44C673CE 
 164      5FF2B456 
 164      35554228 
 164      AED6B26D 
 165 0449 3BF56749 		.ascii	";\365gI=[\255z6\232\337\261\367\376\253c\015\335\261"
 165      3D5BAD7A 
 165      369ADFB1 
 165      F7FEAB63 
 165      0DDDB1
 166 045c D5B68EF5 		.ascii	"\325\266\216\365\210\216\345#\270\236\002w\363\276%"
ARM GAS  /tmp/ccGvAapC.s 			page 13


 166      888EE523 
 166      B89E0277 
 166      F3BE25
 167 046b 59C6D3E6 		.ascii	"Y\306\323\346\242\012\314C#9\357NOv\223\340\253\025"
 167      A20ACC43 
 167      2339EF4E 
 167      4F7693E0 
 167      AB15
 168 047d AE5442CC 		.ascii	"\256TB\314f/ \375\263\300DY\027/w\313\223\322\302Z\013"
 168      662F20FD 
 168      B3C04459 
 168      172F77CB 
 168      93D2C25A 
 169 0492 89A04687 		.ascii	"\211\240F\207{\305V\327ZY\327\373\227\033\264r\335\212"
 169      7BC556D7 
 169      5A59D7FB 
 169      971BB472 
 169      DD8A
 170 04a4 BA1A8527 		.ascii	"\272\032\205'\230\240;\241\351dY\353t\010>\340\377\236"
 170      98A03BA1 
 170      E96459EB 
 170      74083EE0 
 170      FF9E
 171 04b6 A03EE8A4 		.ascii	"\240>\350\2441& bA\252\033\322zf\331\325\232\025\205"
 171      31262062 
 171      41AA1BD2 
 171      7A66D9D5 
 171      9A1585
 172 04c9 378A173E 		.ascii	"7\212\027>\203\274\255\024P\320\313k\036\010W\357\241"
 172      83BCAD14 
 172      50D0CB6B 
 172      1E0857EF 
 172      A1
 173 04da A954E7A5 		.ascii	"\251T\347\245\310\346\201\242o\344\217\265^\312\012"
 173      C8E681A2 
 173      6FE48FB5 
 173      5ECA0A
 174 04e9 77CF2F32 		.ascii	"w\317/2\314O\261\271\251\234\227\226\202\343\265\323"
 174      CC4FB1B9 
 174      A99C9796 
 174      82E3B5D3 
 175 04f9 1E76D66B 		.ascii	"\036v\326k\376\366\257\2557\024O\232t\333\275\274\345"
 175      FEF6AFAD 
 175      37144F9A 
 175      74DBBDBC 
 175      E5
 176 050a 065A861D 		.ascii	"\006Z\206\035\245Ytk\213\015r`g\246\026\212\371\332"
 176      A559746B 
 176      8B0D7260 
 176      67A6168A 
 176      F9DA
 177 051c A0917FB3 		.ascii	"\240\221\177\263\\g\325\321\2678u\262\0102\353\350\356"
 177      5C67D5D1 
 177      B73875B2 
 177      0832EBE8 
 177      EE
 178 052d 5C9B12D8 		.ascii	"\\\233\022\330r\177j\302n\263\340!\321\0119g\004S\263"
ARM GAS  /tmp/ccGvAapC.s 			page 14


 178      727F6AC2 
 178      6EB3E021 
 178      D1093967 
 178      0453B3
 179 0540 22794AA7 		.ascii	"\"yJ\247\247\251\204\252\242J\017\265.h\334&\202j\276"
 179      A7A984AA 
 179      A24A0FB5 
 179      2E68DC26 
 179      826ABE
 180 0553 1628E246 		.ascii	"\026(\342Fa*\002\013\330\363\351\3447\271\001\254u\262"
 180      612A020B 
 180      D8F3E9E4 
 180      37B901AC 
 180      75B2
 181 0565 BF216E3C 		.ascii	"\277!n<j\254\311\327\241%\272\202\240\233= ^\352\250"
 181      6AACC9D7 
 181      A125BA82 
 181      A09B3D20 
 181      5EEAA8
 182 0578 DDD3F186 		.ascii	"\335\323\361\206\334\335\276\217S&]\374\375ocssH\376"
 182      DCDDBE8F 
 182      53265DFC 
 182      FD6F6373 
 182      7348FE
 183 058b F6F4857A 		.ascii	"\366\364\205z#\241\276^+duF#\315\026\340q\307\221pW"
 183      23A1BE5E 
 183      2B647546 
 183      23CD16E0 
 183      71C79170 
 184 05a0 A48375F7 		.ascii	"\244\203u\367\274\315\242\021\361\324\361\2163\0329"
 184      BCCDA211 
 184      F1D4F18E 
 184      331A39
 185 05af FA56B7C5 		.ascii	"\372V\267\305\216w\364\206\354\330\316\216\256\320\361"
 185      8E77F486 
 185      ECD8CE8E 
 185      AED0F1
 186 05be 9EDE485F 		.ascii	"\236\336H_\350\265\003\255;\237\013\355\335\373j\350"
 186      E8B503AD 
 186      3B9F0BED 
 186      DDFB6AE8 
 187 05ce 404B6BF4 		.ascii	"@Kk\364\331P_\244\275\253\353Hs'\230\221co\206\267\347"
 187      D9505FA4 
 187      BDABEB48 
 187      73279891 
 187      636F86B7 
 188 05e3 19949897 		.ascii	"\031\224\230\227\367\267\276\322z\202,[=\275\341v\256"
 188      F7B7BED2 
 188      7A822C5B 
 188      3DBDE176 
 188      AE
 189 05f4 D74B807F 		.ascii	"\327K\200\177\001\313h\036\036"
 189      01CB681E 
 189      1E
 190              		.text
 191              		.section	.gnu.lto_chVTDoResetI.f22e622014e3e3b2,"",%progbits
 192 0000 789CAD94 		.ascii	"x\234\255\224\317k\023A\024\307\337\233\331\231M\334"
ARM GAS  /tmp/ccGvAapC.s 			page 15


 192      CF6B1341 
 192      14C7DF9B 
 192      D9994DDC 
 193 0010 163C78A9 		.ascii	"\026<x\251 \326\322\203TH\004/\005\377\201\012^Z\360"
 193      20D6D283 
 193      5448042F 
 193      05FF810A 
 193      5E5AF0
 194 0023 22A441D7 		.ascii	"\"\244A\327\205\026\304J\033\"x\311\232\366\220c\361"
 194      8516C44A 
 194      1B2278C9 
 194      9AF69063 
 194      F1
 195 0034 543DD9D4 		.ascii	"T=\331\324_x\260 \036\2649(\376\200XJO=\366\320\203"
 195      5F78B020 
 195      1EB43928 
 195      FE80584A 
 195      4F3DF6D0 
 196 0049 680F1E73 		.ascii	"h\017\036sP/\361\275\231\23545\261\325\340$\331\357"
 196      502FF1BD 
 196      999D3435 
 196      B1D5E024 
 196      D9EF
 197 005b CCEE7CE6 		.ascii	"\314\356|\346\373\336\274\331\010@\372t\266\213\364"
 197      FBDEBCD9 
 197      0840FA74 
 197      B68BF4
 198 006a AB2A802C 		.ascii	"\253*\200,)\372\200bq\023\340\316\240\020\362\345;\200"
 198      29FA8062 
 198      7113E0CE 
 198      A010F2E5 
 198      3B80
 199 007c F8B4DA0E 		.ascii	"\370\264\332\016 >+\205g\207\332\014=\324v\232\262\035"
 199      203E2B85 
 199      6787DA0C 
 199      3DD4769A 
 199      B21D
 200 008e D488ACE4 		.ascii	"\324\210\254\344P\022\322S\032K\227\214\231\036\202"
 200      5012D253 
 200      1A4B978C 
 200      991E82
 201 009d E538BEBB 		.ascii	"\3458\276\273\370\276<V\336i6OF|7\217\260\376\374\311"
 201      F8BE3C56 
 201      DE69364F 
 201      467C378F 
 201      B0FEFCC9 
 202 00b1 B1018810 		.ascii	"\261\001\210\020a\020X\005x\373\303\372\003\367\241"
 202      61105805 
 202      78FBC3FA 
 202      03F7A1
 203 00c0 76B517AC 		.ascii	"v\265\027\254\222\3767J\032\252Q\373\211\275p\365\236"
 203      92FE374A 
 203      1AAA51FB 
 203      89BD70F5 
 203      9E
 204 00d1 DC76FD03 		.ascii	"\334v\375\003\251\306\352\027\361\371\223~#\336\356"
 204      A9C6EA17 
ARM GAS  /tmp/ccGvAapC.s 			page 16


 204      F1F9937E 
 204      23DEEE
 205 00e0 344BC3B0 		.ascii	"4K\303\260\302K\314\307c\224\241\200\023h\302]}!\272"
 205      C24BCCC7 
 205      6394A180 
 205      1368C25D 
 205      7D21BA
 206 00f3 2CC17B70 		.ascii	",\301{pN@\016\037\340\020H\314\341c\034\246'9\\\246"
 206      4E400E1F 
 206      E01048CC 
 206      E1631CA6 
 206      27395CA6 
 207 0107 B122AD92 		.ascii	"\261\"\255\222\352D\003\322\025\322>\322\207\244\375"
 207      EA4403D2 
 207      15D23ED2 
 207      87A4FD
 208 0116 A48F48A9 		.ascii	"\244\217H\251)X\210\343\243r\032]\002\344\236$\340\011"
 208      295888E3 
 208      A3721A5D 
 208      02E49E24 
 208      E009
 209 0128 386542D8 		.ascii	"8eB\330Z+\376M\352\373\310\021C~W\007\202\371\344\350"
 209      5A2BFE4D 
 209      EAFBC811 
 209      437E5707 
 209      82F9E4E8 
 210 013c 8EB3F249 		.ascii	"\216\263\362I\233\2409\334\221\353P\276\334X\253R^O"
 210      9BA039DC 
 210      91EB50BE 
 210      DC58AB52 
 210      5E4F
 211 014e 514188E2 		.ascii	"QA\210\342\014\214P\312\322\210\222\367\341\036F\250"
 211      0C8C50CA 
 211      D28892F7 
 211      E11E46A8 
 212 015e C56DF811 		.ascii	"\305m\370\021\247\"\364q\032\221\327`\027\337\034X\200"
 212      A722F471 
 212      1A91D760 
 212      17DF1C58 
 212      80
 213 016f 49BE2C49 		.ascii	"I\276,I\323\243nE\031\253\217\260\360\025\247Z\313\206"
 213      D3A36E45 
 213      19AB8FB0 
 213      F015A75A 
 213      CB86
 214 0181 5C26D726 		.ascii	"\\&\327&x@/\204q\2473\351fy\211\271uM14`\012`\333$\007"
 214      78402F84 
 214      71A733E9 
 214      667989B9 
 214      754D3134 
 215 019b 6D1B8395 		.ascii	"m\033\203\225\264\343\324a\234l\343.\274\362-\327\001"
 215      B4E3D461 
 215      9C6CE32E 
 215      BCF22DD7 
 215      01
 216 01ac 790E5A52 		.ascii	"y\016ZR\355\024\255o\0157\366\"\325\377\307Q\377\346"
 216      ED14AD6F 
ARM GAS  /tmp/ccGvAapC.s 			page 17


 216      0D37F622 
 216      D5FFC751 
 216      FFE6
 217 01be 289CA367 		.ascii	"(\234\243g\300\321\255\3323lC\323\335\374*v\347\223"
 217      C0D1ADDA 
 217      336C43D3 
 217      DDFC2A76 
 217      E793
 218 01d0 8AF3DDF4 		.ascii	"\212\363\335\364^\001\276\235oE\234\224\360\010&\245"
 218      5E01BE9D 
 218      6F459C94 
 218      F00826A5 
 219 01e0 A54A9ACA 		.ascii	"\245J\232\312\325\245+_{\201h\271\327\243\366t\320k"
 219      D5A52B5F 
 219      7B8168B9 
 219      D7A3F674 
 219      D06B
 220 01f2 EC16090C 		.ascii	"\354\026\011\014\353u\313\300\246\255 \371\227d\262"
 220      EB75CBC0 
 220      A6AD20F9 
 220      9764B2
 221 0201 DE2A505F 		.ascii	"\336*P_\007';8\267]\363\245]\337q\375dI\264\335Eh\333"
 221      07273B38 
 221      B75DF3A5 
 221      5DDF71FD 
 221      6449B4DD 
 222 0218 89C34320 		.ascii	"\211\303C \330\345Bw\266\003\271\001^\222\007@\262\027"
 222      D8E54277 
 222      B603B901 
 222      5E920740 
 222      B217
 223 022a 01E6ED71 		.ascii	"\001\346\355q\346\3512b#Kh\373rl\002\266\020\333\306"
 223      E6E93262 
 223      234B68FB 
 223      726C02B6 
 223      10DBC6
 224 023d 793A3DE2 		.ascii	"y:=\342B\035\317d\262\366;3\227\235-d\347f\303l8U,d"
 224      421DCF64 
 224      B2F63B33 
 224      979D2D64 
 224      E766C36C 
 225 0255 4290C5C2 		.ascii	"B\220\305\302\315\324\215\231[\327\242\353\205+\312"
 225      CDD48D99 
 225      5BD7A2EB 
 225      852BCA
 226 0264 5C7F01D5 		.ascii	"\\\177\001\325\265\025\263"
 226      B515B3
 227              		.text
 228              		.section	.gnu.lto_.cgraph.f22e622014e3e3b2,"",%progbits
 229 0000 789C45CE 		.ascii	"x\234E\316\261\015\202P\030E\341{\357\317c\007\227`"
 229      B10D8250 
 229      1845E17B 
 229      EFCF6307 
 229      9760
 230 0012 C54B87B1 		.ascii	"\305K\207\261b\001,|\303X\020-l\034\300\011\320DcB!"
 230      62012C7C 
 230      C358102D 
ARM GAS  /tmp/ccGvAapC.s 			page 18


 230      6C1CC009 
 230      D0446342 
 231 0027 5181D37D 		.ascii	"Q\201\323}\335\021\210\000\320\340\237F\032h\317\260"
 231      DD118800 
 231      D0E09F46 
 231      1A68CFB0 
 232 0037 BB2D35D0 		.ascii	"\273-5\320\374i?\351Nk\325\203\216E|\322\305WuM\276"
 232      FC693FE9 
 232      4E6BD583 
 232      8E457CD2 
 232      C557754D 
 233 004c E8B4E04D 		.ascii	"\350\264\340M\2273\002\011\267\376\270\011\024\310\203"
 233      97330209 
 233      B7FEB809 
 233      14C883
 234 005b 4225F2AE 		.ascii	"B%\362\256\012%\344\313I1\255\034\232\253\360\001U\352"
 234      0A25E4CB 
 234      4931AD1C 
 234      9AABF001 
 234      55EA
 235 006d 2B7A     		.ascii	"+z"
 236              		.text
 237              		.section	.gnu.lto_.vars.f22e622014e3e3b2,"",%progbits
 238 0000 789C6362 		.ascii	"x\234cb`d`f```g\200\000\306/\214\014\014\365\014\000"
 238      60646066 
 238      60606067 
 238      8000C62F 
 238      8C0C0CF5 
 239 0016 07BE0183 		.ascii	"\007\276\001\203"
 240              		.text
 241              		.section	.gnu.lto_.refs.f22e622014e3e3b2,"",%progbits
 242 0000 789C3589 		.ascii	"x\2345\211\001\012\000 \014\002\317YA\377\351\377ok"
 242      010A0020 
 242      0C02CF59 
 242      41FFE9FF 
 242      6F6B
 243 0012 63A508A7 		.ascii	"c\245\010\247\006\302\300\2415\262\315\264X*\352\230"
 243      06C2C0A1 
 243      35B2CDB4 
 243      582AEA98 
 244 0022 1D7AF47F 		.ascii	"\035z\364\177\023\256\015.\031\010\000\235"
 244      13AE0D2E 
 244      1908009D 
 245              		.text
 246              		.section	.gnu.lto_.statics.f22e622014e3e3b2,"",%progbits
 247 0000 789C6362 		.ascii	"x\234cb`d`b\300\016@\342\214\020&\000\000\375\000\011"
 247      60646062 
 247      C00E40E2 
 247      8C102600 
 247      00FD0009 
 248              		.text
 249              		.section	.gnu.lto_.decls.f22e622014e3e3b2,"",%progbits
 250 0000 789CB55B 		.ascii	"x\234\265[\177t\024\325\275\237\037\331M6\011\021A="
 250      7F7414D5 
 250      BD9F1FD9 
 250      4D360911 
 250      413D
ARM GAS  /tmp/ccGvAapC.s 			page 19


 251 0012 3CFBC3F4 		.ascii	"<\373\303\364\035y\307\327s\314\362\303*\355{r\364\005"
 251      1D79C7D7 
 251      73CCF2C3 
 251      2AED7B72 
 251      F405
 252 0024 8FD816DB 		.ascii	"\217\330\026\333\023x\357\370\316\351\236\355\262Y\222"
 252      1378EFF8 
 252      CEE99EED 
 252      B25992
 253 0033 ADD91F9D 		.ascii	"\255\331\037\235\235\360\243\177\255\011J\254\250\001"
 253      9DF0A37F 
 253      AD094AAC 
 253      A801
 254 0041 8B58B06D 		.ascii	"\213X\260m\312oAR\203@\244\226\227\320\006(\032\005"
 254      CA6F4152 
 254      8340A496 
 254      97D00628 
 254      1A05
 255 0053 344AF899 		.ascii	"4J\370\231\240\021*\015*\020\024h$\357{\2773s\347\316"
 255      A0112A0D 
 255      2A101468 
 255      24EF7BBF 
 255      3373E7CE 
 256 0067 ECCCCECE 		.ascii	"\354\314\316\316\306\316\311\334\371u\277\237\373\375"
 256      C6CEC9DC 
 256      F975BF9F 
 256      FBFD
 257 0075 F1B9F77E 		.ascii	"\361\271\367~\347\356D\340x\216l?\0218n\004\266\265"
 257      E7EE44E0 
 257      788E6C3F 
 257      11386E04 
 257      B6B5
 258 0087 D3394EF6 		.ascii	"\3239N\366r\234\007\356\335\013;y\332\302)[!\354\033"
 258      729C07EE 
 258      DD0B3B79 
 258      DAC2295B 
 258      21EC1B
 259 009a 61DF0BFB 		.ascii	"a\337\013\373\001\330{a?\005{?\354\003j\3353\234q#\365"
 259      01D87B61 
 259      3F057B3F 
 259      EC036ADD 
 259      339C7123 
 260 00af C7A91865 		.ascii	"\307\251\030e\260\227\2528\233a\337\002\373:\020:\013"
 260      B097AA38 
 260      9B61DF02 
 260      FB3A103A 
 260      0B
 261 00c0 C71E38BE 		.ascii	"\307\0368\276\007\373kp\376>\034\367\301\361\010\034"
 261      07FB6B70 
 261      FE3E1CF7 
 261      C1F1081C 
 262 00d0 7B612F01 		.ascii	"{a/\001\335Ja?\015\367\212`o\203}-\334\337\014\373\253"
 262      DD4A613F 
 262      0DF78A60 
 262      6F837D2D 
 262      DCDF0CFB 
 263 00e5 70DE0EFB 		.ascii	"p\336\016\373\016\330?\205\353\255\260\027\250\355\236"
ARM GAS  /tmp/ccGvAapC.s 			page 20


 263      0ED83F85 
 263      EBADB017 
 263      A8ED9E
 264 00f4 5275ECB7 		.ascii	"Ru\354\267\321m/\243\213Y\217\026\365\231\207ik\013"
 264      D16D2FA3 
 264      8B598F16 
 264      F5998769 
 264      6B0B
 265 0106 EC2FAB6D 		.ascii	"\354/\253m\360\252\274\025.\361\315\215*.k3\301$\366"
 265      F0AABC15 
 265      2EF1CD8D 
 265      2A2E6B33 
 265      C124F6
 266 0119 4D576D67 		.ascii	"MWmg\3553\267\257\331[\002{\207j#\261O\323e\253\252"
 266      ED33B7AF 
 266      D95B027B 
 266      876A23B1 
 266      4FD365AB 
 267 012e 0FF1C5AB 		.ascii	"\017\361\305\253\252\375D7Qm\177@\265\033`\2701B\246"
 267      AAFD4437 
 267      516D7F40 
 267      B51B60B8 
 267      3142A6
 268 0141 8EC42F63 		.ascii	"\216\304/cltdu\331\242\352Lt\032\0178\233\340\334k\362"
 268      6C746475 
 268      D9A2EA4C 
 268      741A0F38 
 268      9BE0DC6B 
 269 0156 7F1B1303 		.ascii	"\177\033\023\003A\305\336\250\236\337d\321\266\217k"
 269      41C5DEA8 
 269      9EDF64D1 
 269      B68F6B
 270 0165 4AA71BD2 		.ascii	"J\247\033\322-O\244g\376\025\332\376\027.\300\227\371"
 270      2D4FA467 
 270      FE15DAFE 
 270      172EC097 
 270      F9
 271 0176 38AE1CCF 		.ascii	"8\256\034\317J}J\000'r\353\322\351\346t:\315\007\370"
 271      4A7D4A00 
 271      2772EBD2 
 271      E9E6743A 
 271      CD07F8
 272 0189 16DE0760 		.ascii	"\026\336\007`\002\317}\233{)\215\233BZ\225\273\240|"
 272      02CF7D9B 
 272      7B298D9B 
 272      425A95BB 
 272      A07C
 273 019b EBAEAD37 		.ascii	"\353\256\2557\347\011\276\016\301\247\361\360x-\377"
 273      E709BE0E 
 273      C1A7F1F0 
 273      782DFF
 274 01aa 6D6EC3D2 		.ascii	"mn\303\322\303\373\374\012T\200/\364\261z\343\265RK"
 274      C3FBFC0A 
 274      54802FF4 
 274      B17AE3B5 
 274      524B
 275 01bc 01561E6B 		.ascii	"\001V\036kg\244\373\334\300\271\027\270\215\373m\272"
ARM GAS  /tmp/ccGvAapC.s 			page 21


 275      67A4FBDC 
 275      C0B917B8 
 275      8DFB6DBA 
 276 01cc F3B3E6C6 		.ascii	"\363\263\346\306\206\231WFF\012o\341V\020\003A\3774"
 276      86995746 
 276      460A6FE1 
 276      56100341 
 276      FF34
 277 01de 2F07F87B 		.ascii	"/\007\370{o\2661\201\240o\342o\3013\021]\015\\\371\245"
 277      6FB63181 
 277      A06FE26F 
 277      C133115D 
 277      0D5CF9A5 
 278 01f2 6EFA386E 		.ascii	"n\3728n\031\301)g\235\320\302S\210\233L^\330\302\217"
 278      19C12967 
 278      9DD0C253 
 278      889B4C5E 
 278      D8C28F
 279 0205 0390D5BC 		.ascii	"\003\220\325\274\346\206\326_\357\352V\232\341r@\022"
 279      E686D65F 
 279      EFEA569A 
 279      E1724012 
 280 0215 808B44B2 		.ascii	"\200\213D\262\025P\024y\304N+\330\344.\247\336\277\270"
 280      15501479 
 280      C44E2BD8 
 280      E42EA7DE 
 280      BFB8
 281 0227 B2FDC804 		.ascii	"\262\375\310\004.s\363|\213k\001\345\233\033\3233\275"
 281      2E73F37C 
 281      8B6B01E5 
 281      9B1BD333 
 281      BD
 282 0238 017E335F 		.ascii	"\001~3_\002\230')\346\300\311s\274\265\033\264se\323"
 282      02982729 
 282      E6C0C973 
 282      BCB51BB4 
 282      7365D3
 283 024b EAA89B05 		.ascii	"\352\250\233\005\346G\024s0\340\006\261\334\002Q\241"
 283      E6471473 
 283      30E006B1 
 283      DC0251A1 
 284 025b E5798A38 		.ascii	"\345y\2128t\362\214\203\226E\016Z\032\"\350\206\011"
 284      74F28C83 
 284      96450E5A 
 284      1A22E886 
 284      09
 285 026c BB8C4C08 		.ascii	"\273\214L\010\360\323K8\360\374\0341\303\014\273n\360"
 285      F0D34B38 
 285      F0FC1C31 
 285      C30CBB6E 
 285      F0
 286 027d 1ABAE773 		.ascii	"\032\272\347s\235\000\007\332\273\004E\330\240\225\322"
 286      9D0007DA 
 286      BB0445D8 
 286      A095D2
 287 028c 96BD26BB 		.ascii	"\226\275&\273\001G\243\274q\313x&p#\324w\027Wv\034\371"
 287      0147A3BC 
ARM GAS  /tmp/ccGvAapC.s 			page 22


 287      71CB7826 
 287      7023D477 
 287      1757761C 
 288 02a1 AE1BE759 		.ascii	"\256\033\347Y\005d:1a\211\240av\237rb\315X\253xdn,\261"
 288      05643A31 
 288      6189A061 
 288      769F7262 
 288      CD58AB78 
 289 02b9 03FC2BFC 		.ascii	"\003\374+\374D\316\023\340\333\370o\301\305\253X\356"
 289      44CE13E0 
 289      DBF86FC1 
 289      C5AB58EE 
 290 02c9 C0B21DCB 		.ascii	"\300\262\035\313\016(\263z\235\340\0212\252\033\033"
 290      0E28B37A 
 290      9DE01132 
 290      AA1B1B
 291 02d8 26817B46 		.ascii	"&\201{F\320\002\260y\303\227oz\225\333\267sk\323\351"
 291      D002B079 
 291      C3976F7A 
 291      95DBB773 
 291      6BD3E9
 292 02eb E5C4488D 		.ascii	"\345\304H\215\306\273\261\332F\3766\356\257>\233V\324"
 292      C6BBB1DA 
 292      46FE36EE 
 292      AF3E9B56 
 292      D4
 293 02fc 46FE8D5B 		.ascii	"F\376\215[Ob\334\3310\001)\304\251b\265\006\363\366"
 293      4F62DCD9 
 293      300129C4 
 293      A962B506 
 293      F3F6
 294 030e F0026B2F 		.ascii	"\360\002k/\031\221Z\372I{nG\244}*\017u\233\004n\017"
 294      19915AFA 
 294      497B6E47 
 294      A47D2A0F 
 294      759B046E 
 295 0323 3569B050 		.ascii	"5i\260Pk\001\265J\033\264\332\013Z\031\235\276?S\253"
 295      6B01B54A 
 295      1BB4DA0B 
 295      5A199DBE 
 295      3F53AB
 296 0336 FECFF2D1 		.ascii	"\376\317\362\321\352\015s\357 \236)\240W\244\0373\017"
 296      EA0D73EF 
 296      209E29A0 
 296      57A41F33 
 296      0F
 297 0347 5FC3D8B0 		.ascii	"_\303\330\260=\211\265\007n\277A\015\032\376\232u\200"
 297      3D89B507 
 297      6EBF410D 
 297      1AFE9A75 
 297      80
 298 0358 02FC5F40 		.ascii	"\002\374_@\367\000\177\000l\332d\023 \221\025R\206\222"
 298      F7007F00 
 298      6CDA6413 
 298      20911552 
 298      8692
 299 036a F7109808 		.ascii	"\367\020\230\010\2750\3066\252\250-+\253\364\334\343"
ARM GAS  /tmp/ccGvAapC.s 			page 23


 299      BD30C636 
 299      AAA82D2B 
 299      ABF4DCE3 
 300 037a 54B6EB45 		.ascii	"T\266\353E;\332k\306\261\322\330g>\240\302M%\266\242"
 300      3BDA6BC6 
 300      B1D2D867 
 300      3EA0C24D 
 300      25B6A2
 301 038d C4112CA9 		.ascii	"\304\021,\251\214\341#\302\303\253o5\004\360`\226\000"
 301      8CE123C2 
 301      C3AB6F35 
 301      04F06096 
 301      00
 302 039e 2E19EB26 		.ascii	".\031\353&\202G\255\"h\3549ghT\206\374\331\243\322\233"
 302      8247AD22 
 302      68EC3967 
 302      685486FC 
 302      D9A3D29B 
 303 03b2 6BB7315A 		.ascii	"k\2671Z\330\233\321m\216[\330\327\334\334\330\202\004"
 303      D89BD16D 
 303      8E5BD8D7 
 303      DCDCD882 
 303      04
 304 03c3 553A83C0 		.ascii	"U:\203\300]\242z]\377\303\205}\206\271/\300\367eCp\343"
 304      5DA27A5D 
 304      FFC3857D 
 304      86B92FC0 
 304      F7654370 
 305 03d8 A0D36607 		.ascii	"\240\323f\007\021\232\030\035\364\033QS\244\373kF->"
 305      119A181D 
 305      F41B5153 
 305      A4FB6B46 
 305      2D3E
 306 03ea CC6EC769 		.ascii	"\314n\307i\264c\023\025\037\276\325(\376\221Q\374_\271"
 306      B4631315 
 306      1FBED528 
 306      FE9151FC 
 306      5FB9
 307 03fc DF13F174 		.ascii	"\337\023\361tK\223\230N\017\217\214\210Z\002\321\364"
 307      4B93984E 
 307      0F8F8C88 
 307      5A02D1F4 
 308 040c 21AF8F89 		.ascii	"!\257\217\211\351\233\251\015\207\2108;\027\235\305"
 308      E99BA90D 
 308      8788383B 
 308      179DC5
 309 041b 6464076D 		.ascii	"dd\007m\260\365\311\335=\252\0359a\301\230\203\262\347"
 309      B0F5C9DD 
 309      3DAA1D39 
 309      61C19883 
 309      B2E7
 310 042d 2CD39173 		.ascii	",\323\221s\206td\305)\253t\304\213\363\012\321g\246"
 310      867464C5 
 310      29AB74C4 
 310      8BF30AD1 
 310      67A6
 311 043f D72AFFE9 		.ascii	"\327*\377\351\327\363\237\257\233\224\377\004\225\177"
ARM GAS  /tmp/ccGvAapC.s 			page 24


 311      D7F39FAF 
 311      9B94FF04 
 311      957F
 312 044d 5357FEEA 		.ascii	"SW\376\352\216!\223\362Y\220\004\256\027%/X\252~\301"
 312      8E2193F2 
 312      599004AE 
 312      17252F58 
 312      AA7EC1
 313 0460 A0FAE163 		.ascii	"\240\372\341c\371\250~\237aBe5\277\214\232\237a\334"
 313      F9A87E9F 
 313      61426535 
 313      BF8C9A9F 
 313      61DC
 314 0472 BEC39403 		.ascii	"\276\303\224\003\266\334g\217\004\311\003J^\261\324"
 314      B6DC678F 
 314      04C9034A 
 314      5EB1D4
 315 0481 FC8A41F3 		.ascii	"\374\212A\363\2767\2554\027\3542!\313\014\264\200\266"
 315      BE37AD34 
 315      17EC3221 
 315      CB0CB480 
 315      B6
 316 0492 3EC364C7 		.ascii	">\303d\307\227h\307\222\002=\002\177\370\206}\000L@"
 316      9768C792 
 316      023D027F 
 316      F8867D00 
 316      4C40
 317 04a4 02D78C82 		.ascii	"\002\327\214\202i\301\312\014r\227\341\316\333Vf\214"
 317      69C1CA0C 
 317      7297E1CE 
 317      DB56668C 
 318 04b4 33E424C3 		.ascii	"3\344$\3038:\257\242\230'^\033}*\253`\376\236b\016N"
 318      383AAFA2 
 318      98275E1B 
 318      7D2AAB60 
 318      FE9E620E 
 319 04c9 1B5D2AEB 		.ascii	"\033]*\353\372\235\251I \323\325&\352\3415\373\227}"
 319      FA9DA949 
 319      20D3D526 
 319      EAE135FB 
 319      977D
 320 04db D0AB4EEE 		.ascii	"\320\253N\356\312\033\025\263\345\366\026\004\2519\265"
 320      CA1B15B3 
 320      E5F61604 
 320      A939B5
 321 04ea E7E2CADF 		.ascii	"\347\342\312\337\275\355*\031d\235\224F\2234\302z\355"
 321      BDED2A19 
 321      649D9446 
 321      9334C27A 
 321      ED
 322 04fb 0D12B841 		.ascii	"\015\022\270Al\361i\313H?\315Dz\333\301\266\015O\212"
 322      6CF169CB 
 322      483FCD44 
 322      7ADBC1B6 
 322      0D4F8A
 323 050e 5CE6C6BB 		.ascii	"\\\346\306\273b\254@\233\277\035\233_\345!\315/\267"
 323      62AC409B 
ARM GAS  /tmp/ccGvAapC.s 			page 25


 323      BF1D9B5F 
 323      E521CD2F 
 323      B7
 324 051f 6C7E39D3 		.ascii	"l~9\323\374\037\337o\033\341-Z\367\331\265\236e\256"
 324      FC1FDF6F 
 324      1BE12D5A 
 324      F7D9B59E 
 324      65AE
 325 0531 60A3F8BC 		.ascii	"`\243\370\274@ht\310\303\353f^\272\"jA\233^\302\266"
 325      406874C8 
 325      C3EB665E 
 325      BA226A41 
 325      9B5EC2B6 
 326 0545 85D786DC 		.ascii	"\205\327\206\334\375(\325\376\217\357/\333\274\3123"
 326      FD28D5FE 
 326      8FEF2FDB 
 326      BCCA33
 327 0554 5A522BDA 		.ascii	"ZR+\332\234\240\250\335\337\037\355\373\231\202\330"
 327      9CA0A8DD 
 327      DF1FEDFB 
 327      9982D8
 328 0563 47117B1C 		.ascii	"G\021{\034\020\235\336\3164\304\017(\342\011W\210\366"
 328      109DDECE 
 328      34C40F28 
 328      E2095788 
 328      F6
 329 0574 3A7E4411 		.ascii	":~D\021\007\034\020-\337X,\020\377F\021\007]!\332\353"
 329      071C102D 
 329      DF582C10 
 329      FF461107 
 329      5D21DAEB 
 330 0588 F8778A38 		.ascii	"\370w\2128\344\2008!G\035?\245\210\303\256\020\355u"
 330      E4803821 
 330      471D3FA5 
 330      88C3AE10 
 330      ED75
 331 059a BC4411BB 		.ascii	"\274D\021\273~\220\035\261\334J\307\014N\231\263\254"
 331      7E901DB1 
 331      DC4AC70C 
 331      4E99B3AC 
 332 05aa 6502ED14 		.ascii	"e\002\355\0240\335y\264\321c\333\301\303\033\256\346"
 332      30DD79B4 
 332      D163DBC1 
 332      C31BAEE6 
 333 05ba D30128D6 		.ascii	"\323\001(\3265\217>\366\265\271\033\373\254\274\241"
 333      358F3EF6 
 333      B5B91BFB 
 333      ACBCA1
 334 05c9 4C1069AF 		.ascii	"L\020i\257\006\332\263+\2577a\013\314&\212y\302AK'^"
 334      06DAB32B 
 334      AF37610B 
 334      CC268A79 
 334      C2414B27 
 335 05de 19462C75 		.ascii	"\031F,u\006\352_\3379\341\005f\310,\242hd\374\323\307"
 335      06EA5FDF 
 335      39E10566 
 335      C82CA268 
ARM GAS  /tmp/ccGvAapC.s 			page 26


 335      64FCD3C7 
 336 05f2 475A3D3D 		.ascii	"GZ==a\202]mx7\027&B\271]\360QM\324szJ\206U\230\360\275"
 336      61825D6D 
 336      78371726 
 336      42B95DF0 
 336      514DD473 
 337 060d A4BED508 		.ascii	"\244\276\325\010\353,m\317\2256\226++\364P|/\357\316"
 337      EB2C6DCF 
 337      9536962B 
 337      2BF4507C 
 337      2FEFCE
 338 0620 F359437A 		.ascii	"\363YCz\202\2271\335\301S\332\302\016\316\325/z\365"
 338      829731DD 
 338      C153DAC2 
 338      0ECED52F 
 338      7AF5
 339 0632 B9BAADEF 		.ascii	"\271\272\255\357^\005\3265\326\353\210\265\236bmX\272"
 339      5E05D635 
 339      D6EB88B5 
 339      9E626D58 
 339      BA
 340 0643 E34B4173 		.ascii	"\343KAs\225y\326\347\215\263>O\235\307\253\276sW[\340"
 340      9579D6E7 
 340      8DB33E4F 
 340      9DC7ABBE 
 340      73575BE0 
 341 0657 B67AF54E 		.ascii	"\266z\365N\362\017\275\223\030\325\315a\310\310\317"
 341      F20FBD93 
 341      18D5CD61 
 341      C8C8CF
 342 0666 8F9D68FB 		.ascii	"\217\235h\373\016\306\217\3134?*\216qk\316n\306\234"
 342      0EC68FCB 
 342      343F2A8E 
 342      716BCE6E 
 342      C69C
 343 0678 E70EBA32 		.ascii	"\347\016\2722\347\216\321\233\263\027\315\331\313\230"
 343      E78ED19B 
 343      B317CDD9 
 343      CB98
 344 0686 737874E6 		.ascii	"sxt\346\274\305\230\363\033w\346Lb\314Q\322\267\361"
 344      BCC598F3 
 344      1B77E64C 
 344      62CC51D2 
 344      B7F1
 345 0698 DC72A7F4 		.ascii	"\334r\247\364\015\027v\204\361\\f\356D\356j\271SOG\031"
 345      0D177684 
 345      F15C66EE 
 345      44EE6AB9 
 345      534F4719 
 346 06ac 97B91532 		.ascii	"\227\271\0252M\241\347\322.\222\337\267\320s=l\207\242"
 346      4DA1E7D2 
 346      2E92DFB7 
 346      D0733D6C 
 346      87A2
 347 06be C9AF6BB0 		.ascii	"\311\257k\260C\010v\214\351Q\035\373\356\324\274\356"
 347      4308768C 
 347      E9511DFB 
ARM GAS  /tmp/ccGvAapC.s 			page 27


 347      EED4BCEE 
 348 06ce 3545C16B 		.ascii	"5E\301k\214\002yLZ\273BRh~D\333x\355\031\271(\344\276"
 348      8C02794C 
 348      5ABB4252 
 348      687E44DB 
 348      78ED19B9 
 349 06e5 0A08C879 		.ascii	"\012\010\310yPC\342Y \353;\016C?g\210.\227\021]\315"
 349      5043E259 
 349      20EB3B0E 
 349      433F6788 
 349      2E97115D 
 350 06fa 871F53D0 		.ascii	"\207\037S\320\256\207F\233>\342:\326E\0128|`\264\257"
 350      AE87469B 
 350      3EE23AD6 
 350      450A387C 
 350      60B4AF
 351 070d 5986F9C9 		.ascii	"Y\206\371\311\224^\2237L\347\330\036\303\234\344*\215"
 351      945E9337 
 351      4CE7D81E 
 351      C39CE42A 
 351      8D
 352 071e 6DEB81B6 		.ascii	"m\353\201\266\001:Z\016\363\246\374z\330\2708nO\372"
 352      013A5A0E 
 352      F3A6FC7A 
 352      D8B8386E 
 352      4FFA
 353 0730 A3ECC4B2 		.ascii	"\243\354\304\262\264P\217\313\311w\034\346\026W&[\275"
 353      B4508FCB 
 353      C9771CE6 
 353      1657265B 
 353      BD
 354 0741 C2FC9442 		.ascii	"\302\374\224B\225b\353\313\261\365~\3137\230~\346\015"
 354      9562EBCB 
 354      B1F57ECB 
 354      37987EE6 
 354      0D
 355 0752 E6FAE565 		.ascii	"\346\372\345e\307\357\34027\201Y\253\320\326\037:(\346"
 355      C7EFE032 
 355      378159AB 
 355      D0D61F3A 
 355      28E6
 356 0764 E0CE32AD 		.ascii	"\340\3162\255a\343RC\256<s\335\033\317 -\367\0272]\373"
 356      61E35243 
 356      AE3C73DD 
 356      1BCF202D 
 356      F717325D 
 357 0779 43FDBDF6 		.ascii	"C\375\275\366\220yT\314\2673\275EM\274~\371\302\361"
 357      907954CC 
 357      B733BD45 
 357      4DBC7EF9 
 357      C2F1
 358 078b 7CDE744D 		.ascii	"|\336tM\246g\222\244\217%\311\273\014I\276\374\247\223"
 358      A66792A4 
 358      8F25C9BB 
 358      0C49BEFC 
 358      A793
 359 079d 24ADAF68 		.ascii	"$\255\257h\215\305\346\217a\363\347-Yr\236aI\353\365"
ARM GAS  /tmp/ccGvAapC.s 			page 28


 359      8DC5E68F 
 359      61F3E72D 
 359      59729E61 
 359      49EBF5
 360 07b0 36CBC538 		.ascii	"6\313\3058\321\202%\215E\032fO{\336,1\246\266OQ\310"
 360      D182258D 
 360      451A664F 
 360      7BDE2C31 
 360      A6B64F51 
 361 07c5 81236579 		.ascii	"\201#ey\304d\024>b9\370"
 361      C464143E 
 361      6239F8
 362 07d0 B940EC7B 		.ascii	"\271@\354{\256H\343\340\300\3162\215o\212\263\030\002"
 362      AE48E3E0 
 362      C0CE328D 
 362      6F8AB318 
 362      02
 363 07e1 EA3E0DF0 		.ascii	"\352>\015\360\237B\266+\006\370\317\004\362#\324E,\207"
 363      9F42B62B 
 363      06F8CF04 
 363      F223D445 
 363      2C87
 364 07f3 841C7E8A 		.ascii	"\204\034~\212\272\3142e5\365\301\220;\037\224\347\310"
 364      BACC3265 
 364      35F5C190 
 364      3B1F94E7 
 364      C8
 365 0804 CB41B6B5 		.ascii	"\313A\266\2655E:/\1777~t\264t\275\2065\214}\375\245"
 365      35453A2F 
 365      7F377E74 
 365      B474BD86 
 365      358C7DFD 
 366 0819 22BDAF5F 		.ascii	"\"\275\257_\030\375\032\326\016\306\242\216w\363\231"
 366      18FD1AD6 
 366      0EC6A28E 
 366      77F399
 367 0828 26A973FE 		.ascii	"&\251s\376T\244\345S\335\017g\307)\267uM\316ka\254c"
 367      54A4E553 
 367      DD0F67C7 
 367      29B7754D 
 367      CE6B61AC 
 368 083d 1A4442C0 		.ascii	"\032DB\300N\352\230\326_\277\332eZ\006\316\272\252v"
 368      4EEA98D6 
 368      5FBFDA65 
 368      5A06CEBA 
 368      AA76
 369 084f 10251F17 		.ascii	"\020%\037\027\255\272;\271\313,`[.\003\363\031}3\300"
 369      ADBA3BB9 
 369      CB2C605B 
 369      2E03F319 
 369      7D33C0
 370 0862 2F160415 		.ascii	"/\026\004\025\263\2735\257\211=scU\014\360K\304\211"
 370      B3BB35AF 
 370      893D7363 
 370      550CF04B 
 370      C489
 371 0874 E4E79226 		.ascii	"\344\347\222&\221\366\030\201\353\243\021\030z\333\351"
ARM GAS  /tmp/ccGvAapC.s 			page 29


 371      91F61881 
 371      EBA31118 
 371      7ADBE9
 372 0883 977D630C 		.ascii	"\227}c\014\312\0151`\307\255\217)\346\300\217\262\017"
 372      CA0D3160 
 372      C7AD8F29 
 372      E6C08FB2 
 372      0F
 373 0894 5B773844 		.ascii	"[w8DUK\242\206(b\327#\331u\234d\213H\235\215\210\327"
 373      554BA286 
 373      2862D723 
 373      D9759C64 
 373      8B489D8D 
 374 08aa 74BB5D21 		.ascii	"t\273]!\226[ \016b\016\364\270\217.U\037u\012\3374G"
 374      965B200E 
 374      620EF4B8 
 374      8F2E551F 
 374      750ADF34 
 375 08bf 2D95D5E7 		.ascii	"-\225\325\347g)f\3671\247\350Ls\324\023\323\307U\024"
 375      672966F7 
 375      31A7E84C 
 375      73D413D3 
 375      C75514
 376 08d2 B2EBB893 		.ascii	"\262\353\270\223\232\367\345\312\26243F7\300\030=.\300"
 376      9AF7E5CA 
 376      B2343346 
 376      37C0183D 
 376      2EC0
 377 08e4 37E2E8FC 		.ascii	"7\342\350\3748\226K\260\\\212\345\313X\266b\371\012"
 377      38964BB0 
 377      5C8AE5CB 
 377      58B662F9 
 377      0A
 378 08f5 96ED5876 		.ascii	"\226\355Xv`\331\205\345\001,\037\023I\371K,\227b\371"
 378      60D985E5 
 378      012C1F13 
 378      49F94B2C 
 378      9762F9
 379 0908 0C96CD58 		.ascii	"\014\226\315X.\307\362Wb\016\243\277)\353\324z\032\371"
 379      2EC7F257 
 379      620EA3BF 
 379      29EBD47A 
 379      1AF9
 380 091a B9A6CB3F 		.ascii	"\271\246\313?\332\234\\\001\177\202\"v\273B,\267\367"
 380      DA9C5C01 
 380      7F822276 
 380      BB422CB7 
 380      F7
 381 092b E915E673 		.ascii	"\351\025\346s\214k\374DN\010\360\377\300\217/\236g\373"
 381      8C6BFC44 
 381      4E08F0FF 
 381      C08F2F9E 
 381      67FB
 382 093d EF1A9FF6 		.ascii	"\357\032\237\366KZ\3679\235!\371&\011\012\3536S\314"
 382      4B5AF739 
 382      9D21F926 
 382      090AEB36 
ARM GAS  /tmp/ccGvAapC.s 			page 30


 382      53CC
 383 094f 9E9FE59B 		.ascii	"\236\237\345\233#h\375\367i\234\351\333(\342\200+D+"
 383      2368FDF7 
 383      699CE9DB 
 383      28E2802B 
 383      442B
 384 0961 162B894C 		.ascii	"\026+\211L;E\034>\367U\255\373uP\314\256G\335 \332k"
 384      3B451C3E 
 384      F755ADFB 
 384      7550CCAE 
 384      47DD20DA 
 385 0976 B99F229E 		.ascii	"\271\237\"\236p@\264\\\022\263\242\305\005\206\026\227"
 385      7040B45C 
 385      12B3A2C5 
 385      05861697 
 386 0986 8016D0D6 		.ascii	"\200\026\320\326\020\322\342\005\354\020\253\260|\021"
 386      10D2E205 
 386      EC10ABB0 
 386      7C11
 387 0994 CBDF62D9 		.ascii	"\313\337b\331\302\322\345\260O\373\315x\350\212N\027"
 387      C2D2E5B0 
 387      4FFBCD78 
 387      E88A4E17 
 388 09a4 D3EFB3B9 		.ascii	"\323\357\263\271\274z\330\375\362\232%\351[\207s\356"
 388      BC7AD8FD 
 388      F29A25E9 
 388      5B8773EE 
 389 09b4 111F9D73 		.ascii	"\021\037\235s?\336\325\345Q@sJ\261\317\243\344F\313"
 389      3FDED5E5 
 389      5140734A 
 389      B1CFA3E4 
 389      46CB
 390 09c6 3977A361 		.ascii	"9w\243a\316\375\302\362\363\273\202\214O\345\002\374"
 390      CEFDC2F2 
 390      F3BB828C 
 390      4FE502FC 
 391 09d6 36FC5882 		.ascii	"6\374X\202H\017\364}5\237\337\005\370\355\024s(\230"
 391      480FF47D 
 391      359FDF05 
 391      F8ED1473 
 391      2898
 392 09e8 C75890F1 		.ascii	"\307X\220\361\371]\200\337I\021\273\3766\332\317\357"
 392      F95D80DF 
 392      4911BBFE 
 392      36DACFEF 
 393 09f8 B4EF7016 		.ascii	"\264\357p\026\027k\336\354\212\346\237\004\033\250\271"
 393      176BDEEC 
 393      8AE69F04 
 393      1BA8B9
 394 0a07 91C9355E 		.ascii	"\221\3115^\202\\\243\000<\202\024\334\202\345\313Xn"
 394      825CA300 
 394      3C8214DC 
 394      82E5CB58 
 394      6E
 395 0a18 65E9D85C 		.ascii	"e\351\330\\\254\321\261g\221M\334\255;\010\353\253\274"
 395      ACD1B167 
 395      914DDCAD 
ARM GAS  /tmp/ccGvAapC.s 			page 31


 395      3B08EBAB 
 395      BC
 396 0a29 12C03624 		.ascii	"\022\3006$\343\312bJ\306]\257\273J\0007\240\344vK2n"
 396      E3CA624A 
 396      C65DAFBB 
 396      4A0037A0 
 396      E4764B32 
 397 0a3e 379071C5 		.ascii	"7\220q\305q\333\004pq\243\376&\325H\027^\266\301 l?"
 397      71DB0470 
 397      71A3FE26 
 397      D548175E 
 397      B6C1206C 
 398 0a53 991996DC 		.ascii	"\231\031\226\334wR-z\316o\023\276\242\224q;\023\306"
 398      77522D7A 
 398      CE6F13BE 
 398      A294713B 
 398      13C6
 399 0a65 9D4ACAD8 		.ascii	"\235J\312\330\316\006\255\223\006m\350\252\023\033\215"
 399      CE06AD93 
 399      066DE8AA 
 399      131B8D
 400 0a74 099E316A 		.ascii	"\011\2361jJ\312\250|\310\320\245\023\341\027Zm\323G"
 400      4ACAA87C 
 400      C8D0A513 
 400      E1175A6D 
 400      D347
 401 0a86 0BCE195E 		.ascii	"\013\316\031^^D\370?$\302AJ\2045\237l\3533~\312\342"
 401      5E44F83F 
 401      24C2414A 
 401      84359F6C 
 401      EB337ECA 
 402 0a9b B440BBC7 		.ascii	"\264@\273\307\222\004{\030\022t\265{\355(\220\357\233"
 402      92047B18 
 402      1274B57B 
 402      ED2890EF 
 402      9B
 403 0aac 5D97483A 		.ascii	"]\227H:\361\210\256\366\376\266Sti;\317\027\273%%\274"
 403      F188AEF6 
 403      FEB65374 
 403      693BCF17 
 403      BB2525BC 
 404 0ac0 6ACE9A4F 		.ascii	"j\316\232O\226\367\215\342\305\316\320\366\036\206N"
 404      96F78DE2 
 404      C5CED0F6 
 404      1E864E
 405 0acf 7F56E8F4 		.ascii	"\177V\350\364\027\226N\317\224h\241\277\270\262\357"
 405      17964ECF 
 405      9468A1BF 
 405      B8B2EF
 406 0ade 9BD91B4D 		.ascii	"\233\331\033Mf\245S\223\350\275\221k\306\220\021'\275"
 406      66A55393 
 406      E8BD916B 
 406      C6901127 
 406      BD
 407 0aef A0FDE2D6 		.ascii	"\240\375\342\326\371D\272\211\177\254\355\353\272\244"
 407      F944BA89 
 407      7FACEDEB 
ARM GAS  /tmp/ccGvAapC.s 			page 32


 407      BAA4
 408 0afd 313F62FD 		.ascii	"1?b\375\372&\372uY\011\363\275\300\027\233\324Y*\017"
 408      FA26FA75 
 408      5909F3BD 
 408      C0179BD4 
 408      592A0F
 409 0b10 B8B711EE 		.ascii	"\270\267\021\356E\012\267a\351\205\375\377\251y\306"
 409      450AB761 
 409      E985FDFF 
 409      A979C6
 410 0b1f 678A92CF 		.ascii	"g\212\222\317\030%\037\215\222O\215\222\262\324\306"
 410      18251F8D 
 410      924F8D92 
 410      B2D4C6
 411 0b2e E529A569 		.ascii	"\345)\245i\3339\206\252\333\313\253 o\2107\352&\246"
 411      DB3986AA 
 411      DBCBAB20 
 411      6F8837EA 
 411      26A6
 412 0b40 E950549A 		.ascii	"\351PT\232m$:,\372h8J}\354\231\366\355\234\300\255g"
 412      6D243A2C 
 412      FA68384A 
 412      7DEC99F6 
 412      ED9CC0AD 
 413 0b55 82BBB24F 		.ascii	"\202\273\262O\264SA\273X\230+\251\3161Y\320\240\222"
 413      B45341BB 
 413      58982BA9 
 413      CE3159D0 
 413      A092
 414 0b67 059DC72C 		.ascii	"\005\235\307,h-N2\257`\371:\226\273\261<\300Rn;\215"
 414      682D4E32 
 414      AF60F93A 
 414      96BBB13C 
 414      C0526E3B 
 415 0b7c 47F7936B 		.ascii	"G\367\223ko\241\023\217\351\013;\322\316\273\"\375\354"
 415      6FA1138F 
 415      E90B3BD2 
 415      CEBB22FD 
 415      EC
 416 0b8d CFB43C7E 		.ascii	"\317\264<~\326vy\234\310\365\210%6r$\013\262\227{\317"
 416      D676799C 
 416      C8F58825 
 416      3672240B 
 416      B2977BCF 
 417 0ba1 566E5FD6 		.ascii	"Vn_\326/\322\337\327\3450\204\215\016CI\200_\317O\314"
 417      2FD2DFD7 
 417      E530848D 
 417      0E434980 
 417      5FCF4FCC 
 418 0bb5 7160B04C 		.ascii	"q`\260L\316\274\024\356\247&\312\367\342\200\332N]\334"
 418      CEBC14EE 
 418      A726CAF7 
 418      E280DA4E 
 418      5DDC
 419 0bc7 3AFCCEEB 		.ascii	":\374\316\353\377\241\250\226\003\022~rj9\240\036g\006"
 419      FFA1A896 
 419      03127E72 
ARM GAS  /tmp/ccGvAapC.s 			page 33


 419      6A39A01E 
 419      6706
 420 0bd9 D4EEC179 		.ascii	"\324\356\301y\026\264\270\211\231S\003\374\021\354z"
 420      16B4B889 
 420      995303FC 
 420      11EC7A
 421 0be8 9FA31E44 		.ascii	"\237\243\036D\266g\320i\262\342\254\330g\201y\215b\236"
 421      B667D069 
 421      B2E2ACD8 
 421      6781798D 
 421      629E
 422 0bfa A8CB33C1 		.ascii	"\250\3133\3013!^\247\210\003\016\210\266\351\235\011"
 422      33215EA7 
 422      88030E88 
 422      B6E99D09 
 423 0c0a B1B15443 		.ascii	"\261\261TC\034t\205h\257c\023E\034r@\264}\3372!>E\021"
 423      1C748568 
 423      AF631345 
 423      1C7240B4 
 423      7DDF3221 
 424 0c21 875D21DA 		.ascii	"\207]!\332\353\370,E\354\212\345\361\276e\201\270\202"
 424      EBF82C45 
 424      EC8AE5F1 
 424      BE6581B8 
 424      82
 425 0c32 2276BB42 		.ascii	"\"v\273B\264\327q5E\354q@,\317Q\307\026\212x\302\025"
 425      B4D77135 
 425      45EC7140 
 425      2CCF51C7 
 425      168A78C2 
 426 0c47 A2BD8EEB 		.ascii	"\242\275\216\353(\342\200\003\242\355\012\236\011q\223"
 426      28E28003 
 426      A2ED0A9E 
 426      097193
 427 0c56 CE475788 		.ascii	"\316GW\210\366:\276\254\363\321\001\3216c\\\374\030"
 427      F63ABEAC 
 427      F3D101D1 
 427      36635CFC 
 427      18
 428 0c67 26A16CD2 		.ascii	"&\241l\322 +\3606/#\344\177\036\015uI\246e[7\300_\315"
 428      202BF036 
 428      2F23E47F 
 428      1E0D7549 
 428      A6655B37 
 429 0c7e 635ABD66 		.ascii	"cZ\275f;\255\262_g\352\365\300\025\257\350\035)f\243"
 429      3BADB25F 
 429      67EAF5C0 
 429      15AFE81D 
 429      2966A3
 430 0c91 8DB52FEC 		.ascii	"\215\265/\354\275\273]\357I\361\354\336\275/G\304]z"
 430      BDBB5DEF 
 430      49F1ECDE 
 430      BD2F47C4 
 430      5D7A
 431 0ca3 4F72409C 		.ascii	"Or@\234\231#\247v\353=\311\025\242\275\216\177\326{"
 431      9923A776 
 431      EB3DC915 
ARM GAS  /tmp/ccGvAapC.s 			page 34


 431      A2BD8E7F 
 431      D67B
 432 0cb5 9203E28F 		.ascii	"\222\003\342\217s\324q\257\336\223\\!\262:\032Y\332"
 432      73D471AF 
 432      DE935C21 
 432      B23A1A59 
 432      DA
 433 0cc6 99C95263 		.ascii	"\231\311Rc\376\251\223\2643\223\244\346\252\001\276"
 433      FEA993B4 
 433      3393A4E6 
 433      AA01BE
 434 0cd5 A9C03D47 		.ascii	"\251\300=G\237,\260\343(\233\235\352\365\310?\013\350"
 434      9F2CB0E3 
 434      289B9DEA 
 434      F5C83F0B 
 434      E8
 435 0ce6 0340DC5A 		.ascii	"\003@\334Z\031\355\374\021+\327fnl\236\020\340O\300"
 435      19EDFC11 
 435      2BD7666E 
 435      6C9E10E0 
 435      4FC0
 436 0cf8 9BC54D01 		.ascii	"\233\305M\001\376$&{}X\236\306\362C,?\302\362,\226\037"
 436      FE24267B 
 436      7D589EC6 
 436      F2432C3F 
 436      C2F22C96 
 437 0d0d 63F9772C 		.ascii	"c\371w,\317c\371)\226\027\260\274\204\345e,\277\300"
 437      CF63F929 
 437      9617B0BC 
 437      84E5652C 
 437      BFC0
 438 0d1f 7218CBEB 		.ascii	"r\030\313\353X\246\013H\331\200\345b,\237(\240\211\245"
 438      58A60B48 
 438      D980E562 
 438      2C9F28A0 
 438      89A5
 439 0d31 2963EBCD 		.ascii	")c\353\315\232\351=U`\227\351\235\316\232\351-\325\345"
 439      9AE93D55 
 439      6097E99D 
 439      CE9AE92D 
 439      D5E5
 440 0d43 C83FA11C 		.ascii	"\310?\241\034:\324\234n\230\320\320?2r\033;4\375\334"
 440      3AD49C6E 
 440      98D0D03F 
 440      32721B3B 
 440      34FDDC
 441 0d56 B88CF008 		.ascii	"\270\214\360\010\205)1\020D\255\272=K\325\000\377l\036"
 441      85293110 
 441      44ADBA3D 
 441      4BD500FF 
 441      6C1E
 442 0d68 0469B625 		.ascii	"\004i\266%H\261!\204\315:A\016!A\310\277Xm\336\260z"
 442      48B12184 
 442      CD3A410E 
 442      2141C8BF 
 442      586DDEB0 
 443 0d7d BF68A78F 		.ascii	"\277h\247\217\300\035-\325\336Z\340\355\327\354\274"
ARM GAS  /tmp/ccGvAapC.s 			page 35


 443      C01D2DD5 
 443      DE5AE0ED 
 443      D7ECBC
 444 0d8c 4D599DF7 		.ascii	"MY\235\367\\>\316\253\2450c\234\234g\256\032\340\237"
 444      5C3ECEAB 
 444      A530639C 
 444      9C67AE1A 
 444      E09F
 445 0d9e CFC3792B 		.ascii	"\317\303y+m\235Wjp\236V\017N\227\025h\377\364\325=\315"
 445      6D9D576A 
 445      709E560F 
 445      4E971568 
 445      FFF4D53D 
 446 0db3 4E19813B 		.ascii	"N\031\201;k\360\034\347K-J\311\321X$({\037|\370\277"
 446      6BF01CE7 
 446      4B2D4AC9 
 446      D1582428 
 446      7B1F7CF8 
 447 0dc8 CB2BB9DB 		.ascii	"\313+\271\333+*\374\312_\"\345\227d\1774\036\256\253"
 447      2B2AFCCA 
 447      5F22E597 
 447      647F341E 
 447      AEAB
 448 0dda AF8EF8C3 		.ascii	"\257\216\370\303\265\244\346\242d$UQ\313\025\325G\343"
 448      B5A4E6A2 
 448      64245551 
 448      CB15D547 
 448      E3
 449 0deb F2D42941 		.ascii	"\362\324)A\371\177\375\365)\311_\227\010\207\352\374"
 449      F97FFDF5 
 449      29C95F97 
 449      0887EAFC 
 450 0dfb 73A37122 		.ascii	"s\243q\"V\027\235\353\257\011\207\375!)vg<\021\217\334"
 450      56179DEB 
 450      AF0987FD 
 450      21297667 
 450      3C118FDC 
 451 0e0f 1909CD8D 		.ascii	"\031\011\315\215\372\357\252\270\247b\212\237b\303\237"
 451      FAEFAAB8 
 451      A7628A9F 
 451      62C39F
 452 0e1e F1B9D64C 		.ascii	"\361\271\326LJ\256\006hh\342\206\371QI\256\017\325\005"
 452      4AAE0668 
 452      68E286F9 
 452      5149AE0F 
 452      D505
 453 0e30 89765250 		.ascii	"\211vRP\036\033\256\015\032n\225\333+\032\256\255\006"
 453      1E1BAE0D 
 453      1A6E95DB 
 453      2B1AAEAD 
 453      06
 454 0e41 84C2F972 		.ascii	"\204\302\371r0\036Y(\223cR\212\314/\202cu\244N\016\301"
 454      301E5928 
 454      9363528A 
 454      CC2F8263 
 454      75A44E0E 
 455 0e56 C9BCFA78 		.ascii	"\311\274\372x8\210O\310\231\227\324\010I\343\303\265"
ARM GAS  /tmp/ccGvAapC.s 			page 36


 455      38884FC8 
 455      9997D408 
 455      49E3C3B5 
 456 0e66 FF336746 		.ascii	"\3773gF\242*\222\212\310\017U\300\015\271b\322\255\246"
 456      A22A928A 
 456      C80F55C0 
 456      0DB962D2 
 456      ADA6
 457 0e78 56525218 		.ascii	"VRR\030Z\230/W\2049q\276\234,\012\202h4\036\225\213"
 457      5A982F57 
 457      843971BE 
 457      9C2C0A82 
 457      68341E95 
 458 0e8d 15D9D920 		.ascii	"\025\331\331 \351\201FB\213\274J#\"\300\224\262\270"
 458      E9814642 
 458      8BBC4A23 
 458      22C094B2 
 458      B8
 459 0e9e 252979B6 		.ascii	"%)y\266\234H\336_\007\366\177\203\005\257\005\027\352"
 459      9C48DE5F 
 459      07F67F83 
 459      05AF0517 
 459      EA
 460 0eaf 5E00FD8B 		.ascii	"^\000\375\213\241fD\306\212\245D\010\364\301\213\022"
 460      A16644C6 
 460      8AA54408 
 460      F4C18B12 
 461 0ebf F0048945 		.ascii	"\360\004\211E$\026\224}\364\274T\212\204\252\027\005"
 461      2416947D 
 461      F4BC548A 
 461      84AA1705 
 462 0ecf EBA22939 		.ascii	"\353\242)9(\217\201\333\372\365\015r-\271H\005\177^"
 462      288F81DB 
 462      FAF50D72 
 462      2DB94805 
 462      7F5E
 463 0ee1 1FA98F28 		.ascii	"\037\251\217(\2564\334*R\256\0248\345\334\233D\337\301"
 463      AE34DC2A 
 463      52AE1438 
 463      E5DC9B44 
 463      DFC1
 464 0ef3 81B8AE50 		.ascii	"\201\270\256PNJ\321DP\276\313\344\215dB\222S\376\373"
 464      4E4AD144 
 464      50BECBE4 
 464      8D644292 
 464      53FEFB
 465 0f06 AB6655CE 		.ascii	"\253fU\316Z\350\017'b\311h]DJ\371\037\254\254\004'i"
 465      5AE80F27 
 465      62C9685D 
 465      444AF91F 
 465      ACAC0427 
 466 0f1b 64418C68 		.ascii	"dA\214h\2420\234\210\313\00091+Fm8!E@\250\204\334\006"
 466      A2309C88 
 466      CB003931 
 466      2B466D38 
 466      214540A8 
 467 0f32 CFCA6179 		.ascii	"\317\312ay\341\277;K\004\347\337\023#\274\224\"5\340"
ARM GAS  /tmp/ccGvAapC.s 			page 37


 467      E1BF3B4B 
 467      04E7DF13 
 467      23BC9422 
 467      35E0
 468 0f44 A1A02C48 		.ascii	"\241\240,Hw\011\322w\004\351nA\272G\220\246\011\322"
 468      7709D277 
 468      04E96E41 
 468      BA4790A6 
 468      09D2
 469 0f56 774569F2 		.ascii	"wEi\362$\330'\013u\022\034\246z\222A@.$V.\210HpL\324"
 469      24D8270B 
 469      75121CA6 
 469      7A924140 
 469      2E24562E 
 470 0f6f 5547A482 		.ascii	"UG\244\202pmH\"\246\207b\340\224\224\034\222\301]\205"
 470      706D4822 
 470      A68762E0 
 470      94941C92 
 470      C15D85
 471 0f82 84ECD3E0 		.ascii	"\204\354\323\340\230\014\342\235B9\226\250\216\340\365"
 471      980CE29D 
 471      423996A8 
 471      8EE0F5
 472 0f91 BCBA504D 		.ascii	"\274\272PM\252P\226\"\363RA\342+r\342"
 472      AA509622 
 472      F35241E2 
 472      2B72E2
 473 0fa0 89A56AE0 		.ascii	"\211\245j\340\241\332A\274R\365\"\270Q\024Y\030\225"
 473      A1DA41BC 
 473      52F522B8 
 473      51145918 
 473      95
 474 0fb1 C320E65D 		.ascii	"\303 \346] '\346\376,9N\3658\010D\244H<\014p\236\005"
 474      2027E6FE 
 474      2C394EF5 
 474      380844A4 
 474      483C0C70 
 475 0fc7 B22C254B 		.ascii	"\262,%KI@#\261P\262\026\254\272\315\236\342\021bn\241"
 475      494023B1 
 475      50B216AC 
 475      BACD9EE2 
 475      11626EA1 
 476 0fdb 1A3F4F38 		.ascii	"\032?O8\016A\367\244\202p\204\006\340a\262\010pb\365"
 476      0E41F7A4 
 476      82708406 
 476      E061B208 
 476      7062F5
 477 0fee E06F7B8C 		.ascii	"\340o{\214\230\274\220`\304\024\0148&\026\304\301\025"
 477      98BC9060 
 477      C4140C38 
 477      2616C4C1 
 477      15
 478 0fff 28       		.ascii	"("
 479 1000 058AC714 		.ascii	"\005\212\307\024\002,\220\241^\262$2?\022\227c\241\324"
 479      022C90A1 
 479      5EB22432 
 479      3F129763 
ARM GAS  /tmp/ccGvAapC.s 			page 38


 479      A1D4
 480 1012 A3F024B2 		.ascii	"\243\360$\262\200\234\210\311`}\231F#\205v70\304\"w"
 480      809C88C9 
 480      607D9946 
 480      23857637 
 480      30C42277 
 481 1026 7CC9E082 		.ascii	"|\311\340\202PT\216\306k\212\223A\360\202\242,\236\302"
 481      50548EC6 
 481      6B8A9341 
 481      F082A22C 
 481      9EC2
 482 1038 8D483212 		.ascii	"\215H2\022\207\316^\003\265\240\011R\277\230x0T\207"
 482      87CE5E03 
 482      B5A00952 
 482      BF987830 
 482      5487
 483 104a 6C819BC9 		.ascii	"l\201\233\311D\242\256PR\324\363JH\"\217\204a\223\324"
 483      44A2AE50 
 483      52D4F34A 
 483      48228F84 
 483      6193D4
 484 105d B0494AD8 		.ascii	"\260IJ\330|p\267^\002?\312\036\211\340\334l\030(4\355"
 484      7C70B75E 
 484      023FCA1E 
 484      89E0DC6C 
 484      182834ED 
 485 1071 6E318F20 		.ascii	"n1\217 \312\203\022\350\301u\241\224LnA\247%\267\312"
 485      CA8312E8 
 485      C175A194 
 485      4C6E41A7 
 485      25B7CA
 486 1084 D4EE551D 		.ascii	"\324\356U\035\231[_\243\230\305\336\361%C\361h\230X"
 486      995B5FA3 
 486      98C5DEF1 
 486      2543F168 
 486      9858
 487 1096 2156CFAD 		.ascii	"!V\317\255)\216\205 \326h\365X9\026\204\2210:W\012\311"
 487      298E8520 
 487      D668F558 
 487      39168491 
 487      303A570A 
 488 10ab D1443C28 		.ascii	"\321D<(\177\323\326\3712\306O\2221r\336\304\274y06\010"
 488      7FD3D6F9 
 488      32C64F92 
 488      3172DEC4 
 488      BC793036 
 489 10c0 720CFAFC 		.ascii	"r\014\372\374\243\000P\003\2628\306\336}WP.\213V\327"
 489      A3005003 
 489      B238C6DE 
 489      7D57502E 
 489      8B56D7
 490 10d3 4554BF82 		.ascii	"ET\277\202?\205p-\214!1B\256(0}\212y\014Qz\307\3549"
 490      3F85702D 
 490      8C213142 
 490      AE28307D 
 490      8A790C51 
 491 10eb B3A64EF1 		.ascii	"\263\246N\361\377\360\2073\374s\036\2325\177\262\237"
ARM GAS  /tmp/ccGvAapC.s 			page 39


 491      FFF08733 
 491      FC731E9A 
 491      357FB29F 
 492 10fb 4A40B362 		.ascii	"J@\263be\325d\330\247\024\314\236UYU0\343\241\007\252"
 492      65D564D8 
 492      A714CC9E 
 492      55595530 
 492      E3A107AA 
 493 110f 84D955E2 		.ascii	"\204\331U\342\003\017Vy*+gUM\306rJAe\345\003Ub\345\303"
 493      030F5679 
 493      2A2B6755 
 493      4DC6724A 
 493      4165E503 
 494 1127 73C41FCF 		.ascii	"s\304\037\317\256\024\357\257\252\022\253*\341\032\004"
 494      AE14EFAF 
 494      AA12AB2A 
 494      E11A04
 495 1136 FE6BC69C 		.ascii	"\376k\306\234*q\006\221\234u\177\225\360#Ej*\324\177"
 495      2A710691 
 495      9C757F95 
 495      F023456A 
 495      2AD47F
 496 1149 A4AA2888 		.ascii	"\244\252(\210\343i08F;\251\270{\352w\246\260WwO\372"
 496      E3693038 
 496      463BA9B8 
 496      7BEA77A6 
 496      B057774F 
 497 115e 7F48599B 		.ascii	"\177HY\233u"
 497      75
 498              		.text
 499              		.section	.gnu.lto_.symtab.f22e622014e3e3b2,"",%progbits
 500 0000 5F76745F 		.ascii	"_vt_init\000\000\000\000\000\000\000\000\000\000\000"
 500      696E6974 
 500      00000000 
 500      00000000 
 500      000000
 501 0013 00C50000 		.ascii	"\000\305\000\000\000chVTDoSetI\000\000\000\000\000\000"
 501      00636856 
 501      54446F53 
 501      65744900 
 501      00000000 
 502 0028 00000000 		.ascii	"\000\000\000\000\000\000\311\000\000\000chVTDoReset"
 502      0000C900 
 502      00006368 
 502      5654446F 
 502      52657365 
 503 003d 49000000 		.ascii	"I\000\000\000\000\000\000\000\000\000\000\000\000\330"
 503      00000000 
 503      00000000 
 503      00D8
 504 004b 00000073 		.ascii	"\000\000\000stStopAlarm\000\000\002\000\000\000\000"
 504      7453746F 
 504      70416C61 
 504      726D0000 
 504      02000000 
 505 0060 00000000 		.ascii	"\000\000\000\000\000\336\000\000\000stSetAlarm\000\000"
 505      00DE0000 
ARM GAS  /tmp/ccGvAapC.s 			page 40


 505      00737453 
 505      6574416C 
 505      61726D00 
 506 0075 02000000 		.ascii	"\002\000\000\000\000\000\000\000\000\000\340\000\000"
 506      00000000 
 506      0000E000 
 506      00
 507 0082 00737453 		.ascii	"\000stStartAlarm\000\000\002\000\000\000\000\000\000"
 507      74617274 
 507      416C6172 
 507      6D000002 
 507      00000000 
 508 0098 000000E4 		.ascii	"\000\000\000\344\000\000\000ch\000\000\002\000\000\000"
 508      00000063 
 508      68000002 
 508      000000
 509 00a7 00000000 		.ascii	"\000\000\000\000\000\000\346\000\000\000"
 509      0000E600 
 509      0000
 510              		.text
 511              		.section	.gnu.lto_.opts,"",%progbits
 512 0000 272D6D63 		.ascii	"'-mcpu=cortex-m4''-mno-thumb-interwork''-mthumb''-g"
 512      70753D63 
 512      6F727465 
 512      782D6D34 
 512      27272D6D 
 513 0033 67646227 		.ascii	"gdb''-O2''-fomit-frame-pointer''-falign-functions=1"
 513      272D4F32 
 513      27272D66 
 513      6F6D6974 
 513      2D667261 
 514 0066 3627272D 		.ascii	"6''-ffunction-sections''-fdata-sections''-fno-commo"
 514      6666756E 
 514      6374696F 
 514      6E2D7365 
 514      6374696F 
 515 0099 6E27272D 		.ascii	"n''-flto'\000"
 515      666C746F 
 515      2700
 516              		.text
 517              		.cfi_sections	.debug_frame
 518              		.section	.text._vt_init,"ax",%progbits
 519              		.align	2
 520              		.p2align 4,,15
 521              		.global	_vt_init
 522              		.thumb
 523              		.thumb_func
 524              		.type	_vt_init, %function
 525              	_vt_init:
 526              	.LFB241:
 527              		.file 1 "../../../os/rt/src/chvt.c"
 528              		.loc 1 61 0
 529              		.cfi_startproc
 530              		@ args = 0, pretend = 0, frame = 0
 531              		@ frame_needed = 0, uses_anonymous_args = 0
 532              		@ link register save eliminated.
 533              		.loc 1 63 0
ARM GAS  /tmp/ccGvAapC.s 			page 41


 534 0000 40F20003 		movw	r3, #:lower16:ch
 535 0004 C0F20003 		movt	r3, #:upper16:ch
 536 0008 03F11C02 		add	r2, r3, #28
 537 000c DA61     		str	r2, [r3, #28]
 538              		.loc 1 64 0
 539 000e 1A62     		str	r2, [r3, #32]
 540              		.loc 1 65 0
 541 0010 4FF0FF32 		mov	r2, #-1
 542 0014 5A62     		str	r2, [r3, #36]
 543              		.loc 1 69 0
 544 0016 0022     		movs	r2, #0
 545 0018 9A62     		str	r2, [r3, #40]
 546 001a 7047     		bx	lr
 547              		.cfi_endproc
 548              	.LFE241:
 549              		.size	_vt_init, .-_vt_init
 550 001c AFF30080 		.section	.text.chVTDoSetI,"ax",%progbits
 551              		.align	2
 552              		.p2align 4,,15
 553              		.global	chVTDoSetI
 554              		.thumb
 555              		.thumb_func
 556              		.type	chVTDoSetI, %function
 557              	chVTDoSetI:
 558              	.LFB242:
 559              		.loc 1 96 0
 560              		.cfi_startproc
 561              		@ args = 0, pretend = 0, frame = 0
 562              		@ frame_needed = 0, uses_anonymous_args = 0
 563              	.LVL0:
 564 0000 F8B5     		push	{r3, r4, r5, r6, r7, lr}
 565              	.LCFI0:
 566              		.cfi_def_cfa_offset 24
 567              		.cfi_offset 3, -24
 568              		.cfi_offset 4, -20
 569              		.cfi_offset 5, -16
 570              		.cfi_offset 6, -12
 571              		.cfi_offset 7, -8
 572              		.cfi_offset 14, -4
 573              	.LBB35:
 574              		.loc 1 117 0
 575 0002 1F4F     		ldr	r7, .L19
 576 0004 BC46     		mov	ip, r7
 577              		.loc 1 113 0
 578 0006 0129     		cmp	r1, #1
 579 0008 98BF     		it	ls
 580 000a 0221     		movls	r1, #2
 581              	.LVL1:
 582              		.loc 1 117 0
 583 000c 5CF81C4F 		ldr	r4, [ip, #28]!
 584              	.LBE35:
 585              		.loc 1 103 0
 586 0010 0361     		str	r3, [r0, #16]
 587              	.LBB50:
 588              	.LBB36:
 589              	.LBB37:
 590              	.LBB38:
ARM GAS  /tmp/ccGvAapC.s 			page 42


 591              	.LBB39:
 592              		.file 2 "../../../os/hal/ports/STM32/LLD/TIMv1/st_lld.h"
 593              		.loc 2 141 0
 594 0012 4FF08043 		mov	r3, #1073741824
 595              	.LVL2:
 596              	.LBE39:
 597              	.LBE38:
 598              	.LBE37:
 599              	.LBE36:
 600              		.loc 1 117 0
 601 0016 6445     		cmp	r4, ip
 602              	.LBE50:
 603              		.loc 1 96 0
 604 0018 0646     		mov	r6, r0
 605              		.loc 1 104 0
 606 001a C260     		str	r2, [r0, #12]
 607              	.LBB51:
 608              	.LBB43:
 609              	.LBB42:
 610              	.LBB41:
 611              	.LBB40:
 612              		.loc 2 141 0
 613 001c 5D6A     		ldr	r5, [r3, #36]
 614              	.LVL3:
 615              	.LBE40:
 616              	.LBE41:
 617              	.LBE42:
 618              	.LBE43:
 619              		.loc 1 117 0
 620 001e 23D0     		beq	.L15
 621              	.LVL4:
 622              		.loc 1 139 0
 623 0020 B86A     		ldr	r0, [r7, #40]
 624              	.LVL5:
 625 0022 2D1A     		subs	r5, r5, r0
 626              	.LVL6:
 627              		.loc 1 141 0
 628 0024 4D19     		adds	r5, r1, r5
 629              	.LVL7:
 630 0026 15D2     		bcs	.L16
 631              		.loc 1 148 0
 632 0028 A368     		ldr	r3, [r4, #8]
 633 002a 9D42     		cmp	r5, r3
 634 002c 03D2     		bcs	.L13
 635 002e 16E0     		b	.L18
 636              	.LVL8:
 637              	.L11:
 638              	.LBE51:
 639              		.loc 1 166 0
 640 0030 2468     		ldr	r4, [r4, #0]
 641              	.LVL9:
 642              		.loc 1 165 0
 643 0032 ED1A     		subs	r5, r5, r3
 644              	.LVL10:
 645              		.loc 1 164 0
 646 0034 A368     		ldr	r3, [r4, #8]
 647              	.L13:
ARM GAS  /tmp/ccGvAapC.s 			page 43


 648 0036 AB42     		cmp	r3, r5
 649 0038 FAD3     		bcc	.L11
 650              		.loc 1 174 0
 651 003a B560     		str	r5, [r6, #8]
 652              		.loc 1 171 0
 653 003c 6368     		ldr	r3, [r4, #4]
 654              		.loc 1 178 0
 655 003e A268     		ldr	r2, [r4, #8]
 656              		.loc 1 171 0
 657 0040 7360     		str	r3, [r6, #4]
 658              		.loc 1 170 0
 659 0042 3460     		str	r4, [r6, #0]
 660              		.loc 1 178 0
 661 0044 551B     		subs	r5, r2, r5
 662              	.LVL11:
 663              		.loc 1 172 0
 664 0046 1E60     		str	r6, [r3, #0]
 665              		.loc 1 179 0
 666 0048 4FF0FF33 		mov	r3, #-1
 667              		.loc 1 173 0
 668 004c 6660     		str	r6, [r4, #4]
 669              		.loc 1 178 0
 670 004e A560     		str	r5, [r4, #8]
 671              		.loc 1 179 0
 672 0050 7B62     		str	r3, [r7, #36]
 673 0052 F8BD     		pop	{r3, r4, r5, r6, r7, pc}
 674              	.LVL12:
 675              	.L16:
 676              	.LBB52:
 677              		.loc 1 145 0
 678 0054 A268     		ldr	r2, [r4, #8]
 679              	.LVL13:
 680              		.loc 1 146 0
 681 0056 2468     		ldr	r4, [r4, #0]
 682              	.LVL14:
 683              		.loc 1 145 0
 684 0058 AD1A     		subs	r5, r5, r2
 685              	.LVL15:
 686 005a A368     		ldr	r3, [r4, #8]
 687 005c EBE7     		b	.L13
 688              	.LVL16:
 689              	.L18:
 690              	.LBB44:
 691              	.LBB45:
 692              		.file 3 "../../../os/rt/ports/ARMCMx/chcore_timer.h"
 693              		.loc 3 95 0
 694 005e 2818     		adds	r0, r5, r0
 695              	.LVL17:
 696 0060 FFF7FEFF 		bl	stSetAlarm
 697              	.LVL18:
 698 0064 A368     		ldr	r3, [r4, #8]
 699 0066 E6E7     		b	.L13
 700              	.LVL19:
 701              	.L15:
 702              	.LBE45:
 703              	.LBE44:
 704              		.loc 1 122 0
ARM GAS  /tmp/ccGvAapC.s 			page 44


 705 0068 F861     		str	r0, [r7, #28]
 706              		.loc 1 123 0
 707 006a 3862     		str	r0, [r7, #32]
 708              	.LBB46:
 709              	.LBB47:
 710              		.loc 3 73 0
 711 006c 4819     		adds	r0, r1, r5
 712              	.LVL20:
 713              	.LBE47:
 714              	.LBE46:
 715              		.loc 1 121 0
 716 006e BD62     		str	r5, [r7, #40]
 717              		.loc 1 124 0
 718 0070 3460     		str	r4, [r6, #0]
 719              		.loc 1 125 0
 720 0072 7460     		str	r4, [r6, #4]
 721              		.loc 1 126 0
 722 0074 B160     		str	r1, [r6, #8]
 723              	.LVL21:
 724              	.LBE52:
 725              		.loc 1 180 0
 726 0076 BDE8F840 		pop	{r3, r4, r5, r6, r7, lr}
 727              	.LBB53:
 728              	.LBB49:
 729              	.LBB48:
 730              		.loc 3 73 0
 731 007a FFF7FEBF 		b	stStartAlarm
 732              	.LVL22:
 733              	.L20:
 734 007e 00BF     		.align	2
 735              	.L19:
 736 0080 00000000 		.word	ch
 737              	.LBE48:
 738              	.LBE49:
 739              	.LBE53:
 740              		.cfi_endproc
 741              	.LFE242:
 742              		.size	chVTDoSetI, .-chVTDoSetI
 743 0084 AFF30080 		.section	.text.chVTDoResetI,"ax",%progbits
 743      AFF30080 
 743      AFF30080 
 744              		.align	2
 745              		.p2align 4,,15
 746              		.global	chVTDoResetI
 747              		.thumb
 748              		.thumb_func
 749              		.type	chVTDoResetI, %function
 750              	chVTDoResetI:
 751              	.LFB243:
 752              		.loc 1 190 0
 753              		.cfi_startproc
 754              		@ args = 0, pretend = 0, frame = 0
 755              		@ frame_needed = 0, uses_anonymous_args = 0
 756              		@ link register save eliminated.
 757              	.LVL23:
 758              		.loc 1 214 0
 759 0000 194A     		ldr	r2, .L30
ARM GAS  /tmp/ccGvAapC.s 			page 45


 760 0002 D369     		ldr	r3, [r2, #28]
 761 0004 8342     		cmp	r3, r0
 762              		.loc 1 190 0
 763 0006 10B4     		push	{r4}
 764              	.LCFI1:
 765              		.cfi_def_cfa_offset 4
 766              		.cfi_offset 4, -4
 767              		.loc 1 214 0
 768 0008 0FD0     		beq	.L22
 769              		.loc 1 216 0
 770 000a 4168     		ldr	r1, [r0, #4]
 771 000c 0368     		ldr	r3, [r0, #0]
 772 000e 0B60     		str	r3, [r1, #0]
 773              		.loc 1 217 0
 774 0010 0368     		ldr	r3, [r0, #0]
 775              		.loc 1 221 0
 776 0012 1C32     		adds	r2, r2, #28
 777              		.loc 1 217 0
 778 0014 5960     		str	r1, [r3, #4]
 779              		.loc 1 218 0
 780 0016 0021     		movs	r1, #0
 781              		.loc 1 221 0
 782 0018 9342     		cmp	r3, r2
 783              		.loc 1 218 0
 784 001a C160     		str	r1, [r0, #12]
 785              		.loc 1 221 0
 786 001c 03D0     		beq	.L21
 787              		.loc 1 222 0
 788 001e 9A68     		ldr	r2, [r3, #8]
 789 0020 8168     		ldr	r1, [r0, #8]
 790 0022 5218     		adds	r2, r2, r1
 791 0024 9A60     		str	r2, [r3, #8]
 792              	.LVL24:
 793              	.L21:
 794              		.loc 1 268 0
 795 0026 10BC     		pop	{r4}
 796 0028 7047     		bx	lr
 797              	.LVL25:
 798              	.L22:
 799              	.LBB64:
 800              	.LBB65:
 801              		.loc 1 228 0
 802 002a 1968     		ldr	r1, [r3, #0]
 803 002c 1046     		mov	r0, r2
 804              	.LVL26:
 805              		.loc 1 230 0
 806 002e 0024     		movs	r4, #0
 807              		.loc 1 228 0
 808 0030 40F81C1F 		str	r1, [r0, #28]!
 809              		.loc 1 233 0
 810 0034 8142     		cmp	r1, r0
 811              		.loc 1 230 0
 812 0036 DC60     		str	r4, [r3, #12]
 813              		.loc 1 229 0
 814 0038 4860     		str	r0, [r1, #4]
 815              		.loc 1 233 0
 816 003a 12D0     		beq	.L29
ARM GAS  /tmp/ccGvAapC.s 			page 46


 817              		.loc 1 240 0
 818 003c 8868     		ldr	r0, [r1, #8]
 819 003e 9B68     		ldr	r3, [r3, #8]
 820              	.LVL27:
 821              		.loc 1 249 0
 822 0040 926A     		ldr	r2, [r2, #40]
 823              	.LVL28:
 824              		.loc 1 240 0
 825 0042 1B18     		adds	r3, r3, r0
 826 0044 8B60     		str	r3, [r1, #8]
 827              	.LBB66:
 828              	.LBB67:
 829              	.LBB68:
 830              	.LBB69:
 831              		.loc 2 141 0
 832 0046 4FF08041 		mov	r1, #1073741824
 833              	.LVL29:
 834 004a 486A     		ldr	r0, [r1, #36]
 835              	.LBE69:
 836              	.LBE68:
 837              	.LBE67:
 838              	.LBE66:
 839              		.loc 1 249 0
 840 004c 821A     		subs	r2, r0, r2
 841              	.LVL30:
 842              		.loc 1 253 0
 843 004e 9342     		cmp	r3, r2
 844 0050 E9D9     		bls	.L21
 845              		.loc 1 258 0
 846 0052 9B1A     		subs	r3, r3, r2
 847              	.LVL31:
 848              		.loc 1 263 0
 849 0054 012B     		cmp	r3, #1
 850 0056 98BF     		it	ls
 851 0058 0223     		movls	r3, #2
 852              	.LVL32:
 853              	.LBB70:
 854              	.LBB71:
 855              		.loc 3 95 0
 856 005a 1818     		adds	r0, r3, r0
 857              	.LVL33:
 858              	.LBE71:
 859              	.LBE70:
 860              	.LBE65:
 861              	.LBE64:
 862              		.loc 1 268 0
 863 005c 10BC     		pop	{r4}
 864              	.LBB78:
 865              	.LBB76:
 866              	.LBB73:
 867              	.LBB72:
 868              		.loc 3 95 0
 869 005e FFF7FEBF 		b	stSetAlarm
 870              	.LVL34:
 871              	.L29:
 872              	.LBE72:
 873              	.LBE73:
ARM GAS  /tmp/ccGvAapC.s 			page 47


 874              	.LBE76:
 875              	.LBE78:
 876              		.loc 1 268 0
 877 0062 10BC     		pop	{r4}
 878              	.LBB79:
 879              	.LBB77:
 880              	.LBB74:
 881              	.LBB75:
 882              		.loc 3 83 0
 883 0064 FFF7FEBF 		b	stStopAlarm
 884              	.LVL35:
 885              	.L31:
 886              		.align	2
 887              	.L30:
 888 0068 00000000 		.word	ch
 889              	.LBE75:
 890              	.LBE74:
 891              	.LBE77:
 892              	.LBE79:
 893              		.cfi_endproc
 894              	.LFE243:
 895              		.size	chVTDoResetI, .-chVTDoResetI
 896 006c AFF30080 		.text
 897              	.Letext0:
 898              		.file 4 "/usr/local/bin/../lib/gcc/arm-none-eabi/4.7.2/../../../../arm-none-eabi/include/stdint.h"
 899              		.file 5 "../../../os/rt/ports/ARMCMx/compilers/GCC/chtypes.h"
 900              		.file 6 "../../../os/rt/include/chsystypes.h"
 901              		.file 7 "../../../os/rt/include/chschd.h"
 902              		.file 8 "../../../os/rt/ports/ARMCMx/chcore.h"
 903              		.file 9 "../../../os/rt/ports/ARMCMx/chcore_v7m.h"
 904              		.file 10 "../../../os/hal/ports/STM32/LLD/TIMv1/stm32_tim.h"
 905              		.file 11 "../../../os/rt/include/chtm.h"
 906              		.file 12 "../../../os/rt/include/chsem.h"
 907              		.file 13 "../../../os/rt/include/chmtx.h"
 908              		.file 14 "../../../os/rt/include/chvt.h"
 909              		.file 15 "../../../os/hal/include/st.h"
 910              		.file 16 "../../../os/ext/CMSIS/include/core_cm4.h"