ARM GAS  /tmp/cca8QpKp.s 			page 1


   1              		.syntax unified
   2              		.cpu cortex-m4
   3              		.fpu softvfp
   4              		.eabi_attribute 20, 1
   5              		.eabi_attribute 21, 1
   6              		.eabi_attribute 23, 3
   7              		.eabi_attribute 24, 1
   8              		.eabi_attribute 25, 1
   9              		.eabi_attribute 26, 1
  10              		.eabi_attribute 30, 2
  11              		.eabi_attribute 34, 1
  12              		.eabi_attribute 18, 4
  13              		.thumb
  14              		.file	"crt1.c"
  15              		.text
  16              	.Ltext0:
  17              		.section	.gnu.lto_.jmpfuncs.228ea189aabd2da1,"",%progbits
  18 0000 789C6362 		.ascii	"x\234cb`d`g\300\016x\2404+\003P\021\023\0033\003\013"
  18      60646067 
  18      C00E78A0 
  18      342B0350 
  18      11130333 
  19 0016 03030003 		.ascii	"\003\003\000\003P\000&"
  19      500026
  20              		.text
  21              		.section	.gnu.lto_.inline.228ea189aabd2da1,"",%progbits
  22 0000 789C6362 		.ascii	"x\234cb`d\340e\300\016\374\2414+\003\0033\023#\003\023"
  22      6064E065 
  22      C00EFCA1 
  22      342B0303 
  22      33132303 
  23 0015 90C9B640 		.ascii	"\220\311\266@\236\011\250\003\205\313\204\312ef\000"
  23      9E09A803 
  23      85CB84CA 
  23      656600
  24 0024 A9007159 		.ascii	"\251\000qY\200$\013\203\310fv Wi\301\306b\210<\003\000"
  24      80240B83 
  24      C8667620 
  24      5769C1C6 
  24      62883C03 
  25 0039 C7170665 		.ascii	"\307\027\006e"
  26              		.text
  27              		.section	.gnu.lto_.pureconst.228ea189aabd2da1,"",%progbits
  28 0000 789C6362 		.ascii	"x\234cb`d`f``\340f\200\000V\006\011F\011&\011f\023\026"
  28      60646066 
  28      6060E066 
  28      80005606 
  28      09460926 
  29 0018 2900048D 		.ascii	")\000\004\215\000\267"
  29      00B7
  30              		.text
  31              		.section	.gnu.lto___core_init.228ea189aabd2da1,"",%progbits
  32 0000 789C6362 		.ascii	"x\234cb`\004BL \011\304\021@l\016\304\214\314\014\214"
  32      6004424C 
  32      2009C411 
  32      406C0EC4 
  32      8CCC0C8C 
ARM GAS  /tmp/cca8QpKp.s 			page 2


  33 0014 4C13CE31 		.ascii	"L\023\316104*012\202\030@-\365L\214\365\241\020\235"
  33      30342A30 
  33      31328218 
  33      402DF54C 
  33      8CF5A110 
  34 0029 A7662C95 		.ascii	"\247f,\225\371\262\222m?\323\201\007\377\353\031\030"
  34      F9B2926D 
  34      3FD38107 
  34      FFEB1918 
  35 0039 988042AC 		.ascii	"\230\200B\254\014-\015\015\002\014\361P\243\003A4Hc"
  35      0C2D0D0D 
  35      020CF150 
  35      A3034134 
  35      4863
  36 004b 10231398 		.ascii	"\020#\023\230\301|\016hD,\343\002FV\270\215\201\214"
  36      C17C0E68 
  36      442CE302 
  36      4656B88D 
  36      818C
  37 005d 8C602990 		.ascii	"\214`)\220vS==}\010\312/\326O\316\317\315\315\317\323"
  37      76533D3D 
  37      7D08CA2F 
  37      D64FCECF 
  37      CDCDCFD3 
  38 0071 2FC82F2A 		.ascii	"/\310/*)\326w\014\362u\366\255\000\211\025d\346\244"
  38      29D6770C 
  38      F275F6AD 
  38      00891564 
  38      E6A4
  39 0083 1615EBBB 		.ascii	"\026\025\353\273;;\353'\027\225\030\352%3\000\000\025"
  39      3B3BEB27 
  39      179518EA 
  39      25330000 
  39      15
  40 0094 3C271A   		.ascii	"<'\032"
  41              		.text
  42              		.section	.gnu.lto___early_init.228ea189aabd2da1,"",%progbits
  43 0000 789C6362 		.ascii	"x\234cb`\004BL \011\304a@l\016\304\214\314\014\214L"
  43      6004424C 
  43      2009C461 
  43      406C0EC4 
  43      8CCC0C8C 
  44 0015 13CE3130 		.ascii	"\023\316104*012\202\030@-\365L\214\365\241\020\235\247"
  44      342A3031 
  44      32821840 
  44      2DF54C8C 
  44      F5A1109D 
  45 002a 763F9591 		.ascii	"v?\225\221\330\317t\340\301\377z\006\006&\240\000+C"
  45      D8CF74E0 
  45      C1FF7A06 
  45      0626A000 
  45      2B43
  46 003c 4B438300 		.ascii	"KC\203\000C<\324\340@\020\015\322\026\304\310\004f0"
  46      433CD4E0 
  46      40100DD2 
  46      16C4C804 
  46      6630
ARM GAS  /tmp/cca8QpKp.s 			page 3


  47 004e 9F031A10 		.ascii	"\237\003\032\020\313\270\200\221\025n_ ##X\012\244\335"
  47      CBB88091 
  47      156E5F20 
  47      2323580A 
  47      A4DD
  48 0060 544F4F1F 		.ascii	"TOO\037\202\362\213\365\223\363ss\363\363\364\013\362"
  48      82F28BF5 
  48      93F37373 
  48      F3F3F40B 
  48      F2
  49 0071 8B4A8AF5 		.ascii	"\213J\212\365\035\203|\235}+@b\005\2319\251E\305\372"
  49      1D837C9D 
  49      7D2B4062 
  49      059939A9 
  49      45C5FA
  50 0084 EECECEFA 		.ascii	"\356\316\316\372\311E%\206z\311\014\000l\271%\360"
  50      C9452586 
  50      7AC90C00 
  50      6CB925F0 
  51              		.text
  52              		.section	.gnu.lto___late_init.228ea189aabd2da1,"",%progbits
  53 0000 789C6362 		.ascii	"x\234cb`\004BL \011\304a@l\016\304\214\314\014\214L"
  53      6004424C 
  53      2009C461 
  53      406C0EC4 
  53      8CCC0C8C 
  54 0015 13CE3130 		.ascii	"\023\316104*012\202\030@-\365L\214\365\241\020\235\247"
  54      342A3031 
  54      32821840 
  54      2DF54C8C 
  54      F5A1109D 
  55 002a 6E2E9591 		.ascii	"n.\225\221\330\317t\340\301\377z\006\006&\240\000+C"
  55      D8CF74E0 
  55      C1FF7A06 
  55      0626A000 
  55      2B43
  56 003c 4B438300 		.ascii	"KC\203\000C<\324\340@\020\015\322\026\304\310\004f0"
  56      433CD4E0 
  56      40100DD2 
  56      16C4C804 
  56      6630
  57 004e 9F031A10 		.ascii	"\237\003\032\020\313\270\200\221\025n_ ##X\012\244\335"
  57      CBB88091 
  57      156E5F20 
  57      2323580A 
  57      A4DD
  58 0060 544F4F1F 		.ascii	"TOO\037\202\362\213\365\223\363ss\363\363\364\013\362"
  58      82F28BF5 
  58      93F37373 
  58      F3F3F40B 
  58      F2
  59 0071 8B4A8AF5 		.ascii	"\213J\212\365\035\203|\235}+@b\005\2319\251E\305\372"
  59      1D837C9D 
  59      7D2B4062 
  59      059939A9 
  59      45C5FA
  60 0084 EECECEFA 		.ascii	"\356\316\316\372\311E%\206z\311\014\000[O%\316"
ARM GAS  /tmp/cca8QpKp.s 			page 4


  60      C9452586 
  60      7AC90C00 
  60      5B4F25CE 
  61              		.text
  62              		.section	.gnu.lto___default_exit.228ea189aabd2da1,"",%progbits
  63 0000 789C6362 		.ascii	"x\234cb`\004BL\240\003\304A@l\016\304\214\254\014\214"
  63      6004424C 
  63      A003C441 
  63      406C0EC4 
  63      8CAC0C8C 
  64 0014 4C13CE31 		.ascii	"L\023\316104*012\203\030\214\314\214,\020\001\026\210"
  64      30342A30 
  64      31328318 
  64      8CCC8C2C 
  64      10011688 
  65 0028 80222343 		.ascii	"\200\"#C=\0233\013c}(\304\260S\357\236\312\336Y\317"
  65      3D13330B 
  65      637D28C4 
  65      B053EF9E 
  65      CADE59CF 
  66 003c B69FE9C0 		.ascii	"\266\237\351\300\203\377\365\014`\033X\031Z\032\032"
  66      83FFF50C 
  66      601B5819 
  66      5A1A1A
  67 004b 0418E2A1 		.ascii	"\004\030\342\241\266\005\202hF \305\0042.\220\221\231"
  67      B6058268 
  67      4620C504 
  67      322E9091 
  67      99
  68 005c 81116810 		.ascii	"\201\021h\020c #\013\214\001s\226\251\236\236>\004\345"
  68      6320230B 
  68      8C017396 
  68      A99E9E3E 
  68      04E5
  69 006e 17EB27E7 		.ascii	"\027\353'\347\347\346\346\347\351\027\344\027\225\024"
  69      E7E6E6E7 
  69      E917E417 
  69      9514
  70 007c EB3B06F9 		.ascii	"\353;\006\371:\373V\200\304\0122sR\213\212\365\335\235"
  70      3AFB5680 
  70      C40A3273 
  70      528B8AF5 
  70      DD9D
  71 008e 9DF5938B 		.ascii	"\235\365\223\213J\014\365\222\031\000\223\240(\302"
  71      4A0CF592 
  71      190093A0 
  71      28C2
  72              		.text
  73              		.section	.gnu.lto___init_ram_areas.228ea189aabd2da1,"",%progbits
  74 0000 789C9D54 		.ascii	"x\234\235TMHTQ\024>\347\336\367?:\270\212Z5\270\022"
  74      4D485451 
  74      143EE7DE 
  74      F73F3AB8 
  74      8A5A35B8 
  75 0015 02A71681 		.ascii	"\002\247\026\201HP\341\242Z\270h\240M`\222\217\011\214"
  75      4850E1A2 
  75      5AB868A0 
ARM GAS  /tmp/cca8QpKp.s 			page 5


  75      4D60928F 
  75      098C
  76 0027 6C86D185 		.ascii	"l\206\321\205\270\310\227\272\220h!\255\312\225c\210"
  76      B8C897BA 
  76      906821AD 
  76      CA956388 
  77 0037 56E07A66 		.ascii	"V\340zfZ\0248\031\210\264\032\\\265pa\020\321r\010\333"
  77      5A143819 
  77      88B41A5C 
  77      B5706110 
  77      D17208DB 
  78 004b 64E7DC7B 		.ascii	"d\347\334{\337\314\250i\326\233y|\367\235{\276s\316"
  78      DFCCA869 
  78      D69B797C 
  78      F79D7BBE 
  78      73CE
  79 005d FDEEB957 		.ascii	"\375\356\271W\000\322\357\3603Ao\257\003p\205\020\023"
  79      00D2EFF0 
  79      33416FAF 
  79      03708510 
  79      13
  80 006e 8062EE13 		.ascii	"\200b\356\023\300\343\224@\251\007\022m=\260\364\240"
  80      C0E39440 
  80      A907126D 
  80      3DB0F4A0 
  81 007e 98B285F5 		.ascii	"\230\262\205\365\364#@\324\345\314\270\020\235w\320"
  81      F42340D4 
  81      E5CCB810 
  81      9D77D0
  82 008d 633BBA1A 		.ascii	"c;\272\032\213)O\270z\336W\363\276\220\317\327\000\026"
  82      8B294FB8 
  82      7ADE57F3 
  82      BE90CFD7 
  82      0016
  83 009f BA82DD80 		.ascii	"\272\202\335\200>\003Dv\243Z&\205\264l\307\365\374\000"
  83      3E034476 
  83      A35A2685 
  83      B46CC7F5 
  83      FC00
  84 00b1 276FA9D2 		.ascii	"'o\251\322\234N(F\321\263\271\265\251\353S\333{{g\263"
  84      9C4E2846 
  84      D1B3B9B5 
  84      A9EB53DB 
  84      7B7B67B3 
  85 00c5 6C1D44D8 		.ascii	"l\035D\330\230_N\236\201,\"\244\200Q\200\265\177\021"
  85      985F4E9E 
  85      812C22A4 
  85      805180B5 
  85      7F11
  86 00d7 877852F1 		.ascii	"\207xR\3616\313\253\370?\274j\357IX\323Q\314\262\004"
  86      36CBABF8 
  86      3FBC6AEF 
  86      4958D351 
  86      CCB204
  87 00ea F420136B 		.ascii	"\364 \023k\245o'J\330\244J\001\227\024\365{\351\321"
  87      A56F274A 
  87      D8A44A01 
ARM GAS  /tmp/cca8QpKp.s 			page 6


  87      9714F57B 
  87      E9D1
  88 00fc 3F332F2B 		.ascii	"?3/+f\275\347Xb\265\364\003\253o\235w\342\375\366\336"
  88      66BDE758 
  88      62B5F403 
  88      AB6F9D77 
  88      E2FDF6DE 
  89 0110 24C02984 		.ascii	"$\300)\204\001|\211\235 \010\227\010%\3412\241e\320"
  89      017C899D 
  89      20089708 
  89      25E132A1 
  89      65D0
  90 0122 36E89879 		.ascii	"6\350\230y\327|{\204EB\237p\20100\366\204\361k#\\$l"
  90      D77C7B84 
  90      45429F70 
  90      813030F6 
  90      84F16B23 
  91 0139 37F6A4C9 		.ascii	"7\366\244\311C\217\0153Q\324\201\372{\320t\341M\306"
  91      438F0D33 
  91      51D481FA 
  91      7BD074E1 
  91      4DC6
  92 014b 5F00192A 		.ascii	"_\000\031*\231P\256\203`\371\006\360\025\332\206:\001"
  92      9950AE83 
  92      60F906F0 
  92      15DA863A 
  92      01
  93 015c 3FA3D359 		.ascii	"?\243\323Y\264q\030a\326o\254(C\333\2043.3(\206v\015"
  93      B4711861 
  93      D66FAC28 
  93      43DB8433 
  93      2E332886 
  94 0172 4900D880 		.ascii	"I\000\330\200\251\333\244\243N'tY\272\030\035U=!:\347"
  94      A9DBA4A3 
  94      4E277459 
  94      BA181D55 
  94      3D213AE7 
  95 0186 E075D491 		.ascii	"\340u\324\221EG\316\303\013\314\242+\210\315\332\261"
  95      4547CEC3 
  95      0BCCA22B 
  95      88CDDAB1 
  96 0196 72BBEC76 		.ascii	"r\273\354v\247yR(\311\256\034\3007\252\250%\225\311"
  96      A7795228 
  96      C9AE1CC0 
  96      37AAA825 
  96      95C9
  97 01a8 D199EA3D 		.ascii	"\321\231\352=\332\034\242{\\\300\257: \3761\340\262"
  97      DA1CA27B 
  97      5CC0AF3A 
  97      20FE31E0 
  97      B2
  98 01b9 0AE8B27D 		.ascii	"\012\350\262}\013\260u\275\265\322\"\351\002b\305\015"
  98      0BB075BD 
  98      B5D222E9 
  98      0262C50D 
  99 01c9 31E9EF54 		.ascii	"1\351\357T\206x\335\026\010:Z\222\262\227\355Z\271\020"
  99      8678DD16 
ARM GAS  /tmp/cca8QpKp.s 			page 7


  99      083A5A92 
  99      B297ED5A 
  99      B910
 100 01db E7F7755A 		.ascii	"\347\367uZ\217\322\012N+\033\325\223\347\215\025\223"
 100      8FD20A4E 
 100      2B1BD593 
 100      E78D1593 
 101 01eb ADE92463 		.ascii	"\255\351$c\247q\245\207\317~\323O\344\347\362P\0341"
 101      A771A587 
 101      CF7ED34F 
 101      E4E7F250 
 101      1C31
 102 01fd 304EBA9B 		.ascii	"0N\272\233\326U\263\264V\034\030\312N\371^LI\230\344"
 102      D655B3B4 
 102      561C18CA 
 102      4EF95E4C 
 102      4998E4
 103 0210 87295AB5 		.ascii	"\207)Z\265D\274y6\360\035\323\330=\035P*\2122hw\241"
 103      44BC7936 
 103      F01DD3D8 
 103      3D1D502A 
 103      8A326877 
 104 0225 45E6231C 		.ascii	"E\346#\034g\360\216\223\031\224\312\"^\370\007\250~"
 104      67F08E93 
 104      1994CA22 
 104      5EF807A8 
 104      7E
 105 0236 C1926C50 		.ascii	"\301\222lP\303\246([@<GR\243PQ\026\255`\013$\355\201"
 105      C3A6285B 
 105      403C4752 
 105      A3505116 
 105      AD600B24 
 106 024c ACB321B0 		.ascii	"\254\263!\260H\005\256\322Q-\306\3366qmd\233\333\220"
 106      4805AED2 
 106      512DC6DE 
 106      36716D64 
 106      9BDB90
 107 025f BF67B372 		.ascii	"\277g\263r\377\240\252V\253\252<\366\314\026\220N\265"
 107      FFA0AA56 
 107      ABAA3CF6 
 107      CC16904E 
 107      B5
 108 0270 4A43DA76 		.ascii	"JC\332v\343y\224\264\355\261N\236\322\011\367\353di"
 108      E37994B4 
 108      EDB14E9E 
 108      D209F7EB 
 108      6469
 109 0282 59AA95A6 		.ascii	"Y\252\225\246,m\177\227E\036!K[\330p\242\205Z!\332\016"
 109      2C6D7F97 
 109      451E214B 
 109      5BD870A2 
 109      855A21DA 
 110 0297 52056E4D 		.ascii	"R\005nM\267\233\2574\320\033\335\033s\222&\272\200\216"
 110      B79BAF34 
 110      D01BDD1B 
 110      739226BA 
 110      808E
ARM GAS  /tmp/cca8QpKp.s 			page 8


 111 02a9 03F5EB73 		.ascii	"\003\365\353s\230TYv\260^I\352SG&\323\330\026\246a\225"
 111      98545976 
 111      B05E49EA 
 111      534726D3 
 111      D816A661 
 112 02be 4B752DEA 		.ascii	"Ku-\352p\016\342\203\026i\205\217\300\254\275\357\342"
 112      700EE283 
 112      1669858F 
 112      C0ACBDEF 
 112      E2
 113 02cf CA7097D1 		.ascii	"\312p\227\321\305@\032\320\375\325r\202\325\345\201"
 113      C5401AD0 
 113      FDD57282 
 113      D5E581
 114 02de 3CC7DB7D 		.ascii	"<\307\333}\261\273;\255\377\271\321t\230\033\031\311"
 114      B1BB3BAD 
 114      FFB9D174 
 114      981B19C9 
 115 02ee 3D4CE773 		.ascii	"=L\347s\205\261\321\364\325L\177_\3778\333\362\303\017"
 115      85B1D1F4 
 115      D54C7F5F 
 115      FF38DBF2 
 115      C30F
 116 0300 B285D1F4 		.ascii	"\262\205\321\364\265\276\276tX\030\273\320\035\202,"
 116      B5BEBE74 
 116      5818BBD0 
 116      1D822C
 117 030f DCCD8BB1 		.ascii	"\334\315\213\261<\346\177\003\224,W\016"
 117      3CE67F03 
 117      942C570E 
 118              		.text
 119              		.section	.gnu.lto_.cgraph.228ea189aabd2da1,"",%progbits
 120 0000 789C45C9 		.ascii	"x\234E\311\261\025\200 \020\004\321\271={\203\256\326"
 120      B1158020 
 120      1004D1B9 
 120      3D7B83AE 
 120      D6
 121 0011 D0D00A2C 		.ascii	"\320\320\012,\211\212\004Lx2\331\177#\202\004\012+\275"
 121      898A044C 
 121      7832D97F 
 121      2382040A 
 121      2BBD
 122 0023 18EE86FD 		.ascii	"\030\356\206\375\\\241\216ck`mM\234KUg\370\370\027\037"
 122      5CA18E63 
 122      6B606D4D 
 122      9C4B5567 
 122      F8F8171F 
 123 0037 83D218A2 		.ascii	"\203\322\030\242"
 124              		.text
 125              		.section	.gnu.lto_.vars.228ea189aabd2da1,"",%progbits
 126 0000 789C25C4 		.ascii	"x\234%\304\305\021\002\001\024D\301\377\330\305\335"
 126      C5110201 
 126      1444C1FF 
 126      D8C5DD
 127 000f DD22DDC2 		.ascii	"\335\"\335\302\335\335\311\206\240\2700U\364\241}\206"
 127      DDDDC986 
 127      A0B83055 
ARM GAS  /tmp/cca8QpKp.s 			page 9


 127      F4A17D86 
 128 001f 3966F6B1 		.ascii	"9f\366\261\277\366\327\314\365\2347\230g/|\372\211\243"
 128      BFF6D7CC 
 128      F59C3798 
 128      672F7CFA 
 128      89A3
 129 0031 1FB8FA8E 		.ascii	"\037\270\372\216_\337\010\350+A}!\244\317\204\365\211"
 129      5FDF08E8 
 129      2B417D21 
 129      A4CF84F5 
 129      89
 130 0042 883E12D5 		.ascii	"\210>\022\325\007bzO\\\357H\350-I\275!\245\327\244\365"
 130      07627A4F 
 130      5CEF48E8 
 130      2D49BD21 
 130      A5D7A4F5 
 131 0056 8A8C5E92 		.ascii	"\212\214^\222\325\013rzN^\317(\350)E=\241\244\307\224"
 131      D50B727A 
 131      4E5ECF28 
 131      E829453D 
 131      A1A4C794 
 132 006a F5888A1E 		.ascii	"\365\210\212\036R\325\003j\272O]\367h\350.M\335\241"
 132      52D5036A 
 132      BA4F5DF7 
 132      68E82E4D 
 132      DDA1
 133 007c A57F9D93 		.ascii	"\245\177\235\223&\220"
 133      2690
 134              		.text
 135              		.section	.gnu.lto_.refs.228ea189aabd2da1,"",%progbits
 136 0000 789CD5CB 		.ascii	"x\234\325\313\331\021\202@\000\005\260\267\013Q\020"
 136      D9118240 
 136      0005B0B7 
 136      0B5110
 137 000f 4F14EFAB 		.ascii	"O\024\357\253TKw\306.\314\177jJ\232$C\311OmE\362)\361"
 137      544B77C6 
 137      2ECC7F6A 
 137      4A9A2443 
 137      C94F6D45 
 138 0026 F6F2F470 		.ascii	"\366\362\364pwsuqvr49\330\033\355lm\254\255,\015\026"
 138      77737571 
 138      76723439 
 138      D81BED6C 
 138      6DACAD2C 
 139 003c 7A9DB919 		.ascii	"z\235\271\031Z\215\252\374\373\317\027j\375\013d"
 139      5A8DAAFC 
 139      FBCF176A 
 139      FD0B64
 140              		.text
 141              		.section	.gnu.lto_.statics.228ea189aabd2da1,"",%progbits
 142 0000 789C6362 		.ascii	"x\234cb`d`b\300\016@\342\214\020&\000\000\375\000\011"
 142      60646062 
 142      C00E40E2 
 142      8C102600 
 142      00FD0009 
 143              		.text
 144              		.section	.gnu.lto_.decls.228ea189aabd2da1,"",%progbits
ARM GAS  /tmp/cca8QpKp.s 			page 10


 145 0000 789C9D98 		.ascii	"x\234\235\230mlSU\030\307\317\271\035\335\012u\003\324"
 145      6D6C5355 
 145      18C7CFB9 
 145      1DDD0A75 
 145      03D4
 146 0012 4512CD3A 		.ascii	"E\022\315:\015$b\326\313\326nC\023\242f\037 1\030c\364"
 146      0D2462D6 
 146      CBD66E43 
 146      13A2661F 
 146      20311863 
 147 0027 831F9A9B 		.ascii	"\203\037\232\233\256Ti\354Z\322\335\205\351\247+\030"
 147      AE5469EC 
 147      5AD2DD85 
 147      E9A72B18 
 148 0037 4512CD64 		.ascii	"E\022\315d\022\005\204t\012L\031:$n\016|\241K6a\311"
 148      12058474 
 148      0A4C193A 
 148      246E0E7C 
 148      A14B3661 
 149 004c 34286824 		.ascii	"4(h$\2228\025\211\022T\242\303\010\231\231\317}\177"
 149      92381589 
 149      1254A2C3 
 149      089999CF 
 149      7D7F
 150 005e CEBDEDA1 		.ascii	"\316\275\355\241\267'\375o\347\334{\236\347w\356\371"
 150      B727FD6F 
 150      E7DC7B9E 
 150      E777EEF9 
 151 006e 9FE72EAB 		.ascii	"\237\347.\253@(Q\333a\3705\017m\343-\204\334\357#\304"
 151      402851DB 
 151      61F8350F 
 151      6DE32D84 
 151      DCEF23C4 
 152 0082 0FD7D610 		.ascii	"\017\327\326\020\273-\000\345A\203\240!\3200h\004\324"
 152      BB2D00E5 
 152      4183A021 
 152      D0306804 
 152      D4
 153 0093 081A03B5 		.ascii	"\010\032\003\265A|\004\264\012\324\004\272\033\264\002"
 153      417C04B4 
 153      0AD404BA 
 153      1BB402
 154 00a2 74172804 		.ascii	"t\027(\004\272\035\264\014T\017\272\031T\007\012\202"
 154      BA1DB40C 
 154      540FBA19 
 154      54070A82 
 155 00b2 02203F48 		.ascii	"\002 ?HP\371\220g\016t\015t\025\364\027\350O\320e\320"
 155      50F99067 
 155      0E740D74 
 155      15F417E8 
 155      4FD065D0 
 156 00c6 AFA05F40 		.ascii	"\257\240_@?\201~\000}\017\372\016\364\015\350k\302\266"
 156      3F817E00 
 156      7D0FFA0E 
 156      F40DE86B 
 156      C2B6
 157 00d8 3CEA53C7 		.ascii	"<\352S\307\330l\203\2169\203E\346\0149\346\014\025\231"
ARM GAS  /tmp/cca8QpKp.s 			page 11


 157      D86C838E 
 157      398345E6 
 157      0C39E60C 
 157      1599
 158 00ea 33EC9833 		.ascii	"3\354\2303\\d\216\272O\013A\325\240ZP\020T\000\255\206"
 158      5C648EBA 
 158      4F0B41D5 
 158      A05A5010 
 158      5400AD86 
 159 00fe 807B41F7 		.ascii	"\200{A\367\201\216\303x\034Te\350\004h\022t\0224e\344"
 159      818EC378 
 159      1C5465E8 
 159      04681274 
 159      123465E4 
 160 0112 1E317E8F 		.ascii	"\0361~\2179\3627\220}J\276\320\267U9\025\372w~\276\272"
 160      39F23790 
 160      7D4ABED0 
 160      B7553915 
 160      FA777EBE 
 161 0127 9EEC54A0 		.ascii	"\236\354T\240\345_P\024*\307\350\232[\3112\022\243\265"
 161      E55F5014 
 161      2AC7E89A 
 161      5BC93212 
 161      A3B5
 162 0139 013042EB 		.ascii	"\0010B\353\005\003:\202@\177\200\326\033\275\307|z2"
 162      05033A82 
 162      407F80D6 
 162      1BBDC77C 
 162      7A32
 163 014b 41B56225 		.ascii	"A\265b%yW\321\032\265\237L[\374\350Kg\242j\317\007\363"
 163      7957D11A 
 163      B59F4C5B 
 163      FCE84B67 
 163      A26ACF07 
 164 0160 E0F39071 		.ascii	"\340\363\220q\203\254 \007\324\351\205-\267i@5a\236"
 164      83AC2007 
 164      D4E9852D 
 164      B7694035 
 164      619E
 165 0172 3630AB8C 		.ascii	"60\253\214\321\267\250\300Y\266\276\030\201<Ba\352\333"
 165      D1B7A8C0 
 165      59B6BE18 
 165      813C4261 
 165      EADB
 166 0184 7425397F 		.ascii	"t%9\177\217E\212\321\003Vl\021\324\240\013\365NY\250"
 166      8F458AD1 
 166      03566C11 
 166      D4A00BF5 
 166      4E59A8
 167 0197 98899A6E 		.ascii	"\230\211\232n*\0275\344B\035.\202\032w\241R&j6\354B"
 167      2A1735E4 
 167      421D2E82 
 167      1A77A152 
 167      266A36EC 
 168 01ac 5163377B 		.ascii	"Qc7{\315\335,\006\036v\201\217\024\001\317\000x\035"
 168      CDDD2C06 
 168      1E76818F 
ARM GAS  /tmp/cca8QpKp.s 			page 12


 168      1401CF00 
 168      781D
 169 01be E63E474D 		.ascii	"\346>GM\360\304jN\366\021W\366Q6\373\235d@9}\272OQ\326"
 169      F0C46A4E 
 169      F61157F6 
 169      5136FB9D 
 169      6440397D 
 170 01d6 2933F3F3 		.ascii	")3\363\363\015KH\237v\306\324#\"/%\257\032\003z\012"
 170      0D4B489F 
 170      76C6D423 
 170      222F25AF 
 170      1A037A0A 
 171 01ea CEB779DA 		.ascii	"\316\267y\332\340\360\230\307m1dXN\366+\212\032E\215"
 171      E0F098C7 
 171      6D316458 
 171      4EF62B8A 
 171      1A458D
 172 01fd F921CEE4 		.ascii	"\371!\316\344\030\375\230.'eLT\247~\012\031\365g\324"
 172      18FD982E 
 172      27654C54 
 172      A77E0A19 
 172      F567D4
 173 0210 18DAB9D5 		.ascii	"\030\332\271\325\257\022\343\372\205Q?q\267\252F\002"
 173      AF12E3FA 
 173      85513F71 
 173      B7AA4602 
 174 0220 6BDEA26E 		.ascii	"k\336\242n\231\177\021\331\016]\265h\326\235\002\314"
 174      997F11D9 
 174      0E5DB568 
 174      D69D02CC 
 175 0230 367B404A 		.ascii	"6{@J\224\217\375<1:N\003\260\327;\254\275\376c\347W"
 175      948FFD3C 
 175      313A4E03 
 175      B0D73BAC 
 175      BDFE63E7 
 176 0245 9F8BE64E 		.ascii	"\237\213\346NV\007\330\235\205\261>K\317\254\3376{\352"
 176      5607D89D 
 176      85B13E4B 
 176      CFACDF36 
 176      7BEA
 177 0257 3BB8AE14 		.ascii	";\270\256\024R\215.\320Ef*\201\\\325\210\352\223\216"
 177      528D2ED0 
 177      45662A81 
 177      5CD588EA 
 177      938E
 178 0269 9E7BEF8E 		.ascii	"\236{\357\216\342Af_o\346\034\243\241\035\320S\013\344"
 178      E241665F 
 178      6FE61CA3 
 178      A11DD053 
 178      0BE4
 179 027b 79C1CC39 		.ascii	"y\301\3149\353\367\2221T2\343+V\306\271\033d\254)s\215"
 179      EBF79231 
 179      5432E32B 
 179      56C6B91B 
 179      64AC2973 
 180 0290 BBAC8C13 		.ascii	"\273\254\214\023\325^2\206\034\207\\u!F?\203\243V\025"
 180      D55E3286 
ARM GAS  /tmp/cca8QpKp.s 			page 13


 180      1C875C75 
 180      21463F83 
 180      A35615
 181 02a3 A3276823 		.ascii	"\243'h#\014&\265\237'\265\237S\264\321\336\353\203\202"
 181      0C26B59F 
 181      27B59F53 
 181      B4D1DEEB 
 181      8382
 182 02b5 F5B6D86C 		.ascii	"\365\266\330l\306\353g\014%\264\217\"\271aJ\353D\327"
 182      C6EB670C 
 182      25B48F22 
 182      B9614AEB 
 182      44D7
 183 02c7 58AB35DE 		.ascii	"X\2535\336\267Lu\305\350'\220\264\364\344\030\235\246"
 183      B74C75C5 
 183      E82790B4 
 183      F4E4189D 
 183      A6
 184 02d8 4BB49E76 		.ascii	"K\264\236vl\025\343\330jsJ\037\243/h\300ZD0\200{\325"
 184      6C15E3D8 
 184      6A734A1F 
 184      A32F68C0 
 184      5A443080 
 185 02ee CC0399F3 		.ascii	"\314\003\231\363`\003F\255\015\270\260\347:\345-\350"
 185      600346AD 
 185      0DB8B0E7 
 185      3AE52DE8 
 186 02fe 4BE3DD11 		.ascii	"K\343\335\021!G\225m\017\304\3501X`\215\355\252y\371"
 186      2147956D 
 186      0FC4E831 
 186      58608DED 
 186      AA79F9
 187 0311 383C97B1 		.ascii	"8<\227\261I\317\222kJ\215\356.U_53;\372\266\346\365"
 187      49CF926B 
 187      4A8DEE2E 
 187      555F3533 
 187      3BFAB6E6 
 188 0326 578D595D 		.ascii	"W\215Y]\005\013?\361\306AZ\372\311\316\330/\256\313"
 188      050B3FF1 
 188      C6415AFA 
 188      C9CED82F 
 188      AECB
 189 0338 7BF457C0 		.ascii	"{\364W\300dy\2043\2100*\224&|\213\011\027\251v\355d"
 189      64798433 
 189      88302A94 
 189      267C8B09 
 189      17A976ED 
 190 034d 79881F11 		.ascii	"y\210\037\021\342\250\2574\342\034\203\020\264kS\345"
 190      E2A8AF34 
 190      E21C8310 
 190      B46B53E5 
 191 035d 21AE6044 		.ascii	"!\256`D\2604\342<F\\\362\341\023I+\264H\361Y\177\273"
 191      B034E23C 
 191      465CF2E1 
 191      13492BB4 
 191      48F1597F 
 192 0372 B916CDD8 		.ascii	"\271\026\315\330\3509o\026\365#\002\317\242\2371\301"
ARM GAS  /tmp/cca8QpKp.s 			page 14


 192      E8396F16 
 192      F52302CF 
 192      A29F31C1 
 193 0382 9B450308 		.ascii	"\233E\003\010\301\263\350\"\203\360d\321\021\214\340"
 193      C1B3E822 
 193      83F064D1 
 193      118CE0
 194 0391 58F41B46 		.ascii	"X\364\033F\260\026\011\225V\221\205\236\345Z\364\273"
 194      B0160995 
 194      5691859E 
 194      E55AF4BB 
 195 03a1 8D3EFBA6 		.ascii	"\215>\373\246\267*B\004\236EW0\301c\025!\004\317\242"
 195      B72A4204 
 195      9E455730 
 195      C1631521 
 195      04CFA2
 196 03b4 BF1984B7 		.ascii	"\277\031\204\267*\302\010\216E\377`\004k\221\257\322"
 196      2AC2088E 
 196      45FF6004 
 196      6B91AFD2 
 197 03c4 2AAAB2FE 		.ascii	"*\252\262\376\320\354\342Yt\035\025\2607\213\372\021"
 197      D0ECE259 
 197      741D15B0 
 197      378BFA11 
 198 03d4 8167D17F 		.ascii	"\201g\321\177\230\340\261\212\020\202g\221\"`\204\267"
 198      98E0B18A 
 198      10826791 
 198      226084B7 
 199 03e4 2AC2088E 		.ascii	"*\302\010\216E[1\202\265\250\252\322*\262\320\027\270"
 199      455B3182 
 199      B5A8AAD2 
 199      2AB2D017 
 199      B8
 200 03f5 16BD68A3 		.ascii	"\026\275h\243'\366z\253\"D\340Y\264\035\023<V\021B\360"
 200      27F67AAB 
 200      2244E059 
 200      B41D133C 
 200      561142F0 
 201 0409 2C7A9941 		.ascii	",z\231Ax\253\"\214\340X\324\207\021\254E\013*\255\242"
 201      78AB228C 
 201      E058D487 
 201      11AC450B 
 201      2AADA2
 202 041c 05267A8E 		.ascii	"\005&z\216k\321k6\372\2747\213\372\021\201g\321\353"
 202      6BD16B36 
 202      FABC378B 
 202      FA118167 
 202      D1EB
 203 042e 98E0B18A 		.ascii	"\230\340\261\212\020\202g\321n\006\341\255\2120\202"
 203      108267D1 
 203      6E06E1AD 
 203      8A3082
 204 043d 63D15E8C 		.ascii	"c\321^\214`-\362WZE\026\372\354n\236E\0036z\326c\025"
 204      602DF257 
 204      5A4516FA 
 204      EC6E9E45 
 204      03367AD6 
ARM GAS  /tmp/cca8QpKp.s 			page 15


 205 0453 2102CFA2 		.ascii	"!\002\317\242\375\230\340\261\212\020\202g\321 \203"
 205      FD98E0B1 
 205      8A108267 
 205      D12083
 206 0462 F0564518 		.ascii	"\360VE\030\301\261\350\020F\260\026UWZE~\023}\231k\321"
 206      C1B1E810 
 206      46B01655 
 206      575A457E 
 206      137D996B 
 207 0477 FB367A7A 		.ascii	"\3736zz\237\267*B\004\236E\037`\202\307*B\010\236E\037"
 207      9FB72A42 
 207      049E451F 
 207      6082C72A 
 207      42089E45 
 208 048c 32086F55 		.ascii	"2\010oU\204\021\034\213>\302\210K\306Wn\314w\017\272"
 208      84111C8B 
 208      3EC2884B 
 208      C6576ECC 
 208      770FBA
 209 049f 43A5338C 		.ascii	"C\2453\214\011\326\377\377\2168\365\277\254\322q\307"
 209      09D6FFFF 
 209      8E38F5BF 
 209      ACD271C7 
 210 04af 8AC415B4 		.ascii	"\212\304\025\2648\365\011\312\372\276\201,\222\244D"
 210      38F509CA 
 210      FABE812C 
 210      92A444
 211 04be 36979452 		.ascii	"6\227\224R\231\224\354_\373\360\343\241\016\322\032"
 211      9994EC5F 
 211      FBF0E3A1 
 211      0ED21A
 212 04cd 0E8BFA27 		.ascii	"\016\213\372'\333-&\262]]\331\214\270)\233\223\273\305"
 212      DB2D26B2 
 212      5D5DD98C 
 212      B8299B93 
 212      BBC5
 213 04df 071F5DDF 		.ascii	"\007\037]\337\261\276W\275\266)\225N\346\272\305\265"
 213      B1BE57BD 
 213      B629954E 
 213      E6BAC5B5 
 214 04ef 1D1D6222 		.ascii	"\035\035b\"'7\207\023\244js2\376tP\222\222\361\\\372"
 214      27378713 
 214      A46A7332 
 214      FE745092 
 214      92F15CFA 
 215 0503 192D1DA4 		.ascii	"\031-\035\244N\307e=u\255$mH>\031\357I\313R\2627%\327"
 215      4EC7653D 
 215      75AD246D 
 215      483E19EF 
 215      49CB52B2 
 216 051a 648029F7 		.ascii	"d\200)\367\3442\213%\355\266\224\213wI\361\\2\336]\323"
 216      E4328B25 
 216      EDB6948B 
 216      7749F15C 
 216      32DE5DD3 
 217 052e 93CAC891 		.ascii	"\223\312\310\221\026I~B\354\351\316\211\351l\"\236\026"
 217      16497E42 
ARM GAS  /tmp/cca8QpKp.s 			page 16


 217      ECE9CE89 
 217      E96C229E 
 217      16
 218 053f 3B531975 		.ascii	";S\031u9\351T\247\370T\"!\306s]M\231l&\331\224\214w"
 218      39E954A7 
 218      F8542221 
 218      C6735D4D 
 218      996C26D9 
 219 0556 A6C468B8 		.ascii	"\246\304h\270=\334\"Zk\206\017{?\225I\244{6$\305ny\003"
 219      3DDC225A 
 219      6B860F7B 
 219      3F9549A4 
 219      7B3624C5 
 220 056d A40E6F24 		.ascii	"\244\016o$\265\032QN\366\312\0322\240\015\325\336\302"
 220      B51A514E 
 220      F6CA1A32 
 220      A00DD5DE 
 220      C2
 221 057e 441A56AF 		.ascii	"D\032V\257u\203\231\254d]\257SWg\215$9`\255v\251\244"
 221      758399AC 
 221      645DAF53 
 221      57678D24 
 221      3960AD76 
 222 0594 AE7C9564 		.ascii	"\256|\225dg\224n\302\227\244Zc\244g\226\352\214a&\253"
 222      67946EC2 
 222      97A45A63 
 222      A46796EA 
 222      8C6126AB 
 223 05a8 DFD6E39B 		.ascii	"\337\326\343\233\335\361\315L|3\033\337\354\210oq\307"
 223      DDF1CD4C 
 223      7C331BDF 
 223      EC886F71 
 223      C7
 224 05b9 B730F12D 		.ascii	"\2670\361-l|\213#>\342\216\2170\361\0216>\342\210\217"
 224      6C7C8B23 
 224      3EE28E8F 
 224      30F11136 
 224      3EE2888F 
 225 05cd BAE3A34C 		.ascii	"\272\343\243L|\224\215\217:\342[\335\361\255L|+\033"
 225      7C948D8F 
 225      3AE25BDD 
 225      F1AD4C7C 
 225      2B1B
 226 05df DFEA886F 		.ascii	"\337\352\210os\307\2671\361ml|\233#\276\335\035\337"
 226      73C7B731 
 226      F16D6C7C 
 226      9B23BEDD 
 226      1DDF
 227 05f1 CEC4B7B3 		.ascii	"\316\304\267\263\361\355V\374\377\216\037s2"
 227      F1ED56FC 
 227      FF8E1F73 
 227      32
 228              		.text
 229              		.section	.gnu.lto_.symtab.228ea189aabd2da1,"",%progbits
 230 0000 5F5F636F 		.ascii	"__core_init\000\000\001\000\000\000\000\000\000\000"
 230      72655F69 
 230      6E697400 
ARM GAS  /tmp/cca8QpKp.s 			page 17


 230      00010000 
 230      00000000 
 231 0015 0000A000 		.ascii	"\000\000\240\000\000\000__early_init\000\000\001\000"
 231      00005F5F 
 231      6561726C 
 231      795F696E 
 231      69740000 
 232 002b 00000000 		.ascii	"\000\000\000\000\000\000\000\000\247\000\000\000__l"
 232      00000000 
 232      A7000000 
 232      5F5F6C
 233 003a 6174655F 		.ascii	"ate_init\000\000\001\000\000\000\000\000\000\000\000"
 233      696E6974 
 233      00000100 
 233      00000000 
 233      000000
 234 004d 00AB0000 		.ascii	"\000\253\000\000\000__default_exit\000\000\001\000\000"
 234      005F5F64 
 234      65666175 
 234      6C745F65 
 234      78697400 
 235 0065 00000000 		.ascii	"\000\000\000\000\000\000\000\257\000\000\000__init_"
 235      000000AF 
 235      0000005F 
 235      5F696E69 
 235      745F
 236 0077 72616D5F 		.ascii	"ram_areas\000\000\000\000\000\000\000\000\000\000\000"
 236      61726561 
 236      73000000 
 236      00000000 
 236      00000000 
 237 008b 00B50000 		.ascii	"\000\265\000\000\000__ram7_noinit__\000\000\002\000"
 237      005F5F72 
 237      616D375F 
 237      6E6F696E 
 237      69745F5F 
 238 00a3 00000000 		.ascii	"\000\000\000\000\000\000\000\0006\001\000\000__ram7"
 238      00000000 
 238      36010000 
 238      5F5F7261 
 238      6D37
 239 00b5 5F636C65 		.ascii	"_clear__\000\000\002\000\000\000\000\000\000\000\000"
 239      61725F5F 
 239      00000200 
 239      00000000 
 239      000000
 240 00c8 00330100 		.ascii	"\0003\001\000\000__ram7_init__\000\000\002\000\000\000"
 240      005F5F72 
 240      616D375F 
 240      696E6974 
 240      5F5F0000 
 241 00e0 00000000 		.ascii	"\000\000\000\000\000\0000\001\000\000__ram7_init_te"
 241      00003001 
 241      00005F5F 
 241      72616D37 
 241      5F696E69 
 242 00f8 78745F5F 		.ascii	"xt__\000\000\002\000\000\000\000\000\000\000\000\000"
ARM GAS  /tmp/cca8QpKp.s 			page 18


 242      00000200 
 242      00000000 
 242      00000000 
 243 0108 2D010000 		.ascii	"-\001\000\000__ram6_noinit__\000\000\002\000\000\000"
 243      5F5F7261 
 243      6D365F6E 
 243      6F696E69 
 243      745F5F00 
 244 0121 00000000 		.ascii	"\000\000\000\000\000\000)\001\000\000__ram6_clear__"
 244      00002901 
 244      00005F5F 
 244      72616D36 
 244      5F636C65 
 245 0139 00000200 		.ascii	"\000\000\002\000\000\000\000\000\000\000\000\000&\001"
 245      00000000 
 245      00000000 
 245      2601
 246 0147 00005F5F 		.ascii	"\000\000__ram6_init__\000\000\002\000\000\000\000\000"
 246      72616D36 
 246      5F696E69 
 246      745F5F00 
 246      00020000 
 247 015e 00000000 		.ascii	"\000\000\000\000#\001\000\000__ram6_init_text__\000"
 247      23010000 
 247      5F5F7261 
 247      6D365F69 
 247      6E69745F 
 248 0179 00020000 		.ascii	"\000\002\000\000\000\000\000\000\000\000\000 \001\000"
 248      00000000 
 248      00000020 
 248      0100
 249 0187 005F5F72 		.ascii	"\000__ram5_noinit__\000\000\002\000\000\000\000\000"
 249      616D355F 
 249      6E6F696E 
 249      69745F5F 
 249      00000200 
 250 019f 00000000 		.ascii	"\000\000\000\000\034\001\000\000__ram5_clear__\000\000"
 250      1C010000 
 250      5F5F7261 
 250      6D355F63 
 250      6C656172 
 251 01b7 02000000 		.ascii	"\002\000\000\000\000\000\000\000\000\000\031\001\000"
 251      00000000 
 251      00001901 
 251      00
 252 01c4 005F5F72 		.ascii	"\000__ram5_init__\000\000\002\000\000\000\000\000\000"
 252      616D355F 
 252      696E6974 
 252      5F5F0000 
 252      02000000 
 253 01db 00000016 		.ascii	"\000\000\000\026\001\000\000__ram5_init_text__\000\000"
 253      0100005F 
 253      5F72616D 
 253      355F696E 
 253      69745F74 
 254 01f6 02000000 		.ascii	"\002\000\000\000\000\000\000\000\000\000\023\001\000"
 254      00000000 
ARM GAS  /tmp/cca8QpKp.s 			page 19


 254      00001301 
 254      00
 255 0203 005F5F72 		.ascii	"\000__ram4_noinit__\000\000\002\000\000\000\000\000"
 255      616D345F 
 255      6E6F696E 
 255      69745F5F 
 255      00000200 
 256 021b 00000000 		.ascii	"\000\000\000\000\017\001\000\000__ram4_clear__\000\000"
 256      0F010000 
 256      5F5F7261 
 256      6D345F63 
 256      6C656172 
 257 0233 02000000 		.ascii	"\002\000\000\000\000\000\000\000\000\000\014\001\000"
 257      00000000 
 257      00000C01 
 257      00
 258 0240 005F5F72 		.ascii	"\000__ram4_init__\000\000\002\000\000\000\000\000\000"
 258      616D345F 
 258      696E6974 
 258      5F5F0000 
 258      02000000 
 259 0257 00000009 		.ascii	"\000\000\000\011\001\000\000__ram4_init_text__\000\000"
 259      0100005F 
 259      5F72616D 
 259      345F696E 
 259      69745F74 
 260 0272 02000000 		.ascii	"\002\000\000\000\000\000\000\000\000\000\006\001\000"
 260      00000000 
 260      00000601 
 260      00
 261 027f 005F5F72 		.ascii	"\000__ram3_noinit__\000\000\002\000\000\000\000\000"
 261      616D335F 
 261      6E6F696E 
 261      69745F5F 
 261      00000200 
 262 0297 00000000 		.ascii	"\000\000\000\000\002\001\000\000__ram3_clear__\000\000"
 262      02010000 
 262      5F5F7261 
 262      6D335F63 
 262      6C656172 
 263 02af 02000000 		.ascii	"\002\000\000\000\000\000\000\000\000\000\377\000\000"
 263      00000000 
 263      0000FF00 
 263      00
 264 02bc 005F5F72 		.ascii	"\000__ram3_init__\000\000\002\000\000\000\000\000\000"
 264      616D335F 
 264      696E6974 
 264      5F5F0000 
 264      02000000 
 265 02d3 000000FC 		.ascii	"\000\000\000\374\000\000\000__ram3_init_text__\000\000"
 265      0000005F 
 265      5F72616D 
 265      335F696E 
 265      69745F74 
 266 02ee 02000000 		.ascii	"\002\000\000\000\000\000\000\000\000\000\371\000\000"
 266      00000000 
 266      0000F900 
ARM GAS  /tmp/cca8QpKp.s 			page 20


 266      00
 267 02fb 005F5F72 		.ascii	"\000__ram2_noinit__\000\000\002\000\000\000\000\000"
 267      616D325F 
 267      6E6F696E 
 267      69745F5F 
 267      00000200 
 268 0313 00000000 		.ascii	"\000\000\000\000\365\000\000\000__ram2_clear__\000\000"
 268      F5000000 
 268      5F5F7261 
 268      6D325F63 
 268      6C656172 
 269 032b 02000000 		.ascii	"\002\000\000\000\000\000\000\000\000\000\362\000\000"
 269      00000000 
 269      0000F200 
 269      00
 270 0338 005F5F72 		.ascii	"\000__ram2_init__\000\000\002\000\000\000\000\000\000"
 270      616D325F 
 270      696E6974 
 270      5F5F0000 
 270      02000000 
 271 034f 000000EF 		.ascii	"\000\000\000\357\000\000\000__ram2_init_text__\000\000"
 271      0000005F 
 271      5F72616D 
 271      325F696E 
 271      69745F74 
 272 036a 02000000 		.ascii	"\002\000\000\000\000\000\000\000\000\000\354\000\000"
 272      00000000 
 272      0000EC00 
 272      00
 273 0377 005F5F72 		.ascii	"\000__ram1_noinit__\000\000\002\000\000\000\000\000"
 273      616D315F 
 273      6E6F696E 
 273      69745F5F 
 273      00000200 
 274 038f 00000000 		.ascii	"\000\000\000\000\350\000\000\000__ram1_clear__\000\000"
 274      E8000000 
 274      5F5F7261 
 274      6D315F63 
 274      6C656172 
 275 03a7 02000000 		.ascii	"\002\000\000\000\000\000\000\000\000\000\345\000\000"
 275      00000000 
 275      0000E500 
 275      00
 276 03b4 005F5F72 		.ascii	"\000__ram1_init__\000\000\002\000\000\000\000\000\000"
 276      616D315F 
 276      696E6974 
 276      5F5F0000 
 276      02000000 
 277 03cb 000000E2 		.ascii	"\000\000\000\342\000\000\000__ram1_init_text__\000\000"
 277      0000005F 
 277      5F72616D 
 277      315F696E 
 277      69745F74 
 278 03e6 02000000 		.ascii	"\002\000\000\000\000\000\000\000\000\000\337\000\000"
 278      00000000 
 278      0000DF00 
 278      00
ARM GAS  /tmp/cca8QpKp.s 			page 21


 279 03f3 005F5F72 		.ascii	"\000__ram0_n"
 279      616D305F 
 279      6E
 280 03fc 6F696E69 		.ascii	"oinit__\000\000\002\000\000\000\000\000\000\000\000"
 280      745F5F00 
 280      00020000 
 280      00000000 
 280      0000
 281 040e 00DB0000 		.ascii	"\000\333\000\000\000__ram0_clear__\000\000\002\000\000"
 281      005F5F72 
 281      616D305F 
 281      636C6561 
 281      725F5F00 
 282 0426 00000000 		.ascii	"\000\000\000\000\000\000\000\330\000\000\000__ram0_"
 282      000000D8 
 282      0000005F 
 282      5F72616D 
 282      305F
 283 0438 696E6974 		.ascii	"init__\000\000\002\000\000\000\000\000\000\000\000\000"
 283      5F5F0000 
 283      02000000 
 283      00000000 
 283      0000
 284 044a D5000000 		.ascii	"\325\000\000\000__ram0_init_text__\000\000\002\000\000"
 284      5F5F7261 
 284      6D305F69 
 284      6E69745F 
 284      74657874 
 285 0465 00000000 		.ascii	"\000\000\000\000\000\000\000\322\000\000\000"
 285      000000D2 
 285      000000
 286              		.text
 287              		.section	.gnu.lto_.opts,"",%progbits
 288 0000 272D6D63 		.ascii	"'-mcpu=cortex-m4''-mno-thumb-interwork''-mthumb''-g"
 288      70753D63 
 288      6F727465 
 288      782D6D34 
 288      27272D6D 
 289 0033 67646227 		.ascii	"gdb''-O2''-fomit-frame-pointer''-falign-functions=1"
 289      272D4F32 
 289      27272D66 
 289      6F6D6974 
 289      2D667261 
 290 0066 3627272D 		.ascii	"6''-ffunction-sections''-fdata-sections''-fno-commo"
 290      6666756E 
 290      6374696F 
 290      6E2D7365 
 290      6374696F 
 291 0099 6E27272D 		.ascii	"n''-flto'\000"
 291      666C746F 
 291      2700
 292              		.text
 293              		.cfi_sections	.debug_frame
 294              		.section	.text.__core_init,"ax",%progbits
 295              		.align	2
 296              		.p2align 4,,15
 297              		.weak	__core_init
ARM GAS  /tmp/cca8QpKp.s 			page 22


 298              		.thumb
 299              		.thumb_func
 300              		.type	__core_init, %function
 301              	__core_init:
 302              	.LFB123:
 303              		.file 1 "../../../os/common/ports/ARMCMx/compilers/GCC/crt1.c"
 304              		.loc 1 136 0
 305              		.cfi_startproc
 306              		@ args = 0, pretend = 0, frame = 0
 307              		@ frame_needed = 0, uses_anonymous_args = 0
 308              		@ link register save eliminated.
 309 0000 7047     		bx	lr
 310              		.cfi_endproc
 311              	.LFE123:
 312              		.size	__core_init, .-__core_init
 313 0002 00BFAFF3 		.section	.text.__early_init,"ax",%progbits
 313      0080AFF3 
 313      0080AFF3 
 313      0080
 314              		.align	2
 315              		.p2align 4,,15
 316              		.weak	__early_init
 317              		.thumb
 318              		.thumb_func
 319              		.type	__early_init, %function
 320              	__early_init:
 321              	.LFB124:
 322              		.loc 1 155 0
 323              		.cfi_startproc
 324              		@ args = 0, pretend = 0, frame = 0
 325              		@ frame_needed = 0, uses_anonymous_args = 0
 326              		@ link register save eliminated.
 327 0000 7047     		bx	lr
 328              		.cfi_endproc
 329              	.LFE124:
 330              		.size	__early_init, .-__early_init
 331 0002 00BFAFF3 		.section	.text.__late_init,"ax",%progbits
 331      0080AFF3 
 331      0080AFF3 
 331      0080
 332              		.align	2
 333              		.p2align 4,,15
 334              		.weak	__late_init
 335              		.thumb
 336              		.thumb_func
 337              		.type	__late_init, %function
 338              	__late_init:
 339              	.LFB125:
 340              		.loc 1 169 0
 341              		.cfi_startproc
 342              		@ args = 0, pretend = 0, frame = 0
 343              		@ frame_needed = 0, uses_anonymous_args = 0
 344              		@ link register save eliminated.
 345 0000 7047     		bx	lr
 346              		.cfi_endproc
 347              	.LFE125:
 348              		.size	__late_init, .-__late_init
ARM GAS  /tmp/cca8QpKp.s 			page 23


 349 0002 00BFAFF3 		.section	.text.__default_exit,"ax",%progbits
 349      0080AFF3 
 349      0080AFF3 
 349      0080
 350              		.align	2
 351              		.p2align 4,,15
 352              		.weak	__default_exit
 353              		.thumb
 354              		.thumb_func
 355              		.type	__default_exit, %function
 356              	__default_exit:
 357              	.LFB126:
 358              		.loc 1 182 0
 359              		.cfi_startproc
 360              		@ Volatile: function does not return.
 361              		@ args = 0, pretend = 0, frame = 0
 362              		@ frame_needed = 0, uses_anonymous_args = 0
 363              		@ link register save eliminated.
 364              	.L5:
 365 0000 FEE7     		b	.L5
 366              		.cfi_endproc
 367              	.LFE126:
 368              		.size	__default_exit, .-__default_exit
 369 0002 00BFAFF3 		.section	.text.__init_ram_areas,"ax",%progbits
 369      0080AFF3 
 369      0080AFF3 
 369      0080
 370              		.align	2
 371              		.p2align 4,,15
 372              		.global	__init_ram_areas
 373              		.thumb
 374              		.thumb_func
 375              		.type	__init_ram_areas, %function
 376              	__init_ram_areas:
 377              	.LFB127:
 378              		.loc 1 192 0
 379              		.cfi_startproc
 380              		@ args = 0, pretend = 0, frame = 0
 381              		@ frame_needed = 0, uses_anonymous_args = 0
 382              		@ link register save eliminated.
 383              	.LVL0:
 384              		.loc 1 192 0
 385 0000 F0B4     		push	{r4, r5, r6, r7}
 386              	.LCFI0:
 387              		.cfi_def_cfa_offset 16
 388              		.cfi_offset 4, -16
 389              		.cfi_offset 5, -12
 390              		.cfi_offset 6, -8
 391              		.cfi_offset 7, -4
 392              		.loc 1 192 0
 393 0002 134E     		ldr	r6, .L21
 394              	.LBB2:
 395              		.loc 1 209 0
 396 0004 0025     		movs	r5, #0
 397 0006 06F17007 		add	r7, r6, #112
 398              	.LVL1:
 399              	.L10:
ARM GAS  /tmp/cca8QpKp.s 			page 24


 400              		.loc 1 197 0
 401 000a A6F11001 		sub	r1, r6, #16
 402 000e 1AC9     		ldmia	r1, {r1, r3, r4}
 403              	.LVL2:
 404              		.loc 1 201 0
 405 0010 A342     		cmp	r3, r4
 406 0012 0DD2     		bcs	.L7
 407              		.loc 1 192 0
 408 0014 0439     		subs	r1, r1, #4
 409              	.LVL3:
 410              	.LBE2:
 411 0016 1A46     		mov	r2, r3
 412              	.LVL4:
 413              	.L8:
 414              	.LBB3:
 415              		.loc 1 202 0
 416 0018 51F8040F 		ldr	r0, [r1, #4]!
 417 001c 42F8040B 		str	r0, [r2], #4
 418              	.LVL5:
 419              		.loc 1 201 0
 420 0020 A242     		cmp	r2, r4
 421 0022 F9D3     		bcc	.L8
 422              		.loc 1 192 0
 423 0024 DA43     		mvns	r2, r3
 424              	.LVL6:
 425 0026 1419     		adds	r4, r2, r4
 426 0028 24F00304 		bic	r4, r4, #3
 427 002c 0434     		adds	r4, r4, #4
 428 002e 1B19     		adds	r3, r3, r4
 429              	.L7:
 430              	.LVL7:
 431              		.loc 1 208 0 discriminator 1
 432 0030 56F8042C 		ldr	r2, [r6, #-4]
 433 0034 9342     		cmp	r3, r2
 434 0036 03D2     		bcs	.L13
 435              	.L15:
 436              		.loc 1 209 0
 437 0038 43F8045B 		str	r5, [r3], #4
 438              	.LVL8:
 439              		.loc 1 208 0
 440 003c 9342     		cmp	r3, r2
 441 003e FBD3     		bcc	.L15
 442              	.L13:
 443              	.LBE3:
 444              		.loc 1 214 0
 445 0040 BE42     		cmp	r6, r7
 446 0042 06F11003 		add	r3, r6, #16
 447              	.LVL9:
 448 0046 01D2     		bcs	.L20
 449 0048 1E46     		mov	r6, r3
 450 004a DEE7     		b	.L10
 451              	.L20:
 452              		.loc 1 216 0
 453 004c F0BC     		pop	{r4, r5, r6, r7}
 454 004e 7047     		bx	lr
 455              	.L22:
 456              		.align	2
ARM GAS  /tmp/cca8QpKp.s 			page 25


 457              	.L21:
 458 0050 10000000 		.word	.LANCHOR0+16
 459              		.cfi_endproc
 460              	.LFE127:
 461              		.size	__init_ram_areas, .-__init_ram_areas
 462 0054 AFF30080 		.section	.rodata.ram_areas,"a",%progbits
 462      AFF30080 
 462      AFF30080 
 463              		.align	2
 464              		.set	.LANCHOR0,. + 0
 465              		.type	ram_areas, %object
 466              		.size	ram_areas, 128
 467              	ram_areas:
 468 0000 00000000 		.word	__ram0_init_text__
 469 0004 00000000 		.word	__ram0_init__
 470 0008 00000000 		.word	__ram0_clear__
 471 000c 00000000 		.word	__ram0_noinit__
 472 0010 00000000 		.word	__ram1_init_text__
 473 0014 00000000 		.word	__ram1_init__
 474 0018 00000000 		.word	__ram1_clear__
 475 001c 00000000 		.word	__ram1_noinit__
 476 0020 00000000 		.word	__ram2_init_text__
 477 0024 00000000 		.word	__ram2_init__
 478 0028 00000000 		.word	__ram2_clear__
 479 002c 00000000 		.word	__ram2_noinit__
 480 0030 00000000 		.word	__ram3_init_text__
 481 0034 00000000 		.word	__ram3_init__
 482 0038 00000000 		.word	__ram3_clear__
 483 003c 00000000 		.word	__ram3_noinit__
 484 0040 00000000 		.word	__ram4_init_text__
 485 0044 00000000 		.word	__ram4_init__
 486 0048 00000000 		.word	__ram4_clear__
 487 004c 00000000 		.word	__ram4_noinit__
 488 0050 00000000 		.word	__ram5_init_text__
 489 0054 00000000 		.word	__ram5_init__
 490 0058 00000000 		.word	__ram5_clear__
 491 005c 00000000 		.word	__ram5_noinit__
 492 0060 00000000 		.word	__ram6_init_text__
 493 0064 00000000 		.word	__ram6_init__
 494 0068 00000000 		.word	__ram6_clear__
 495 006c 00000000 		.word	__ram6_noinit__
 496 0070 00000000 		.word	__ram7_init_text__
 497 0074 00000000 		.word	__ram7_init__
 498 0078 00000000 		.word	__ram7_clear__
 499 007c 00000000 		.word	__ram7_noinit__
 500              		.text
 501              	.Letext0:
 502              		.file 2 "/usr/local/bin/../lib/gcc/arm-none-eabi/4.7.2/../../../../arm-none-eabi/include/stdint.h"
 503              		.file 3 "../../../os/ext/CMSIS/include/core_cm4.h"
 504              		.section	.debug_info,"",%progbits
 505              	.Ldebug_info0:
 506 0000 5E030000 		.4byte	0x35e
 507 0004 0200     		.2byte	0x2
 508 0006 00000000 		.4byte	.Ldebug_abbrev0
 509 000a 04       		.byte	0x4
 510 000b 01       		.uleb128 0x1
 511 000c 0D030000 		.4byte	.LASF55
ARM GAS  /tmp/cca8QpKp.s 			page 26


 512 0010 01       		.byte	0x1
 513 0011 A0030000 		.4byte	.LASF56
 514 0015 50010000 		.4byte	.LASF57
 515 0019 18000000 		.4byte	.Ldebug_ranges0+0x18
 516 001d 00000000 		.4byte	0
 517 0021 00000000 		.4byte	0
 518 0025 00000000 		.4byte	.Ldebug_line0
 519 0029 02       		.uleb128 0x2
 520 002a 01       		.byte	0x1
 521 002b 06       		.byte	0x6
 522 002c 85030000 		.4byte	.LASF0
 523 0030 02       		.uleb128 0x2
 524 0031 01       		.byte	0x1
 525 0032 08       		.byte	0x8
 526 0033 D3010000 		.4byte	.LASF1
 527 0037 02       		.uleb128 0x2
 528 0038 02       		.byte	0x2
 529 0039 05       		.byte	0x5
 530 003a 3B030000 		.4byte	.LASF2
 531 003e 02       		.uleb128 0x2
 532 003f 02       		.byte	0x2
 533 0040 07       		.byte	0x7
 534 0041 80000000 		.4byte	.LASF3
 535 0045 03       		.uleb128 0x3
 536 0046 1A010000 		.4byte	.LASF5
 537 004a 02       		.byte	0x2
 538 004b 4F       		.byte	0x4f
 539 004c 50000000 		.4byte	0x50
 540 0050 02       		.uleb128 0x2
 541 0051 04       		.byte	0x4
 542 0052 05       		.byte	0x5
 543 0053 6C030000 		.4byte	.LASF4
 544 0057 03       		.uleb128 0x3
 545 0058 63030000 		.4byte	.LASF6
 546 005c 02       		.byte	0x2
 547 005d 50       		.byte	0x50
 548 005e 62000000 		.4byte	0x62
 549 0062 02       		.uleb128 0x2
 550 0063 04       		.byte	0x4
 551 0064 07       		.byte	0x7
 552 0065 22010000 		.4byte	.LASF7
 553 0069 02       		.uleb128 0x2
 554 006a 08       		.byte	0x8
 555 006b 05       		.byte	0x5
 556 006c DC020000 		.4byte	.LASF8
 557 0070 02       		.uleb128 0x2
 558 0071 08       		.byte	0x8
 559 0072 07       		.byte	0x7
 560 0073 6F020000 		.4byte	.LASF9
 561 0077 04       		.uleb128 0x4
 562 0078 04       		.byte	0x4
 563 0079 05       		.byte	0x5
 564 007a 696E7400 		.ascii	"int\000"
 565 007e 02       		.uleb128 0x2
 566 007f 04       		.byte	0x4
 567 0080 07       		.byte	0x7
 568 0081 62020000 		.4byte	.LASF10
ARM GAS  /tmp/cca8QpKp.s 			page 27


 569 0085 02       		.uleb128 0x2
 570 0086 04       		.byte	0x4
 571 0087 07       		.byte	0x7
 572 0088 C3020000 		.4byte	.LASF11
 573 008c 05       		.uleb128 0x5
 574 008d 10       		.byte	0x10
 575 008e 01       		.byte	0x1
 576 008f 34       		.byte	0x34
 577 0090 CD000000 		.4byte	0xcd
 578 0094 06       		.uleb128 0x6
 579 0095 45030000 		.4byte	.LASF12
 580 0099 01       		.byte	0x1
 581 009a 35       		.byte	0x35
 582 009b CD000000 		.4byte	0xcd
 583 009f 02       		.byte	0x2
 584 00a0 23       		.byte	0x23
 585 00a1 00       		.uleb128 0
 586 00a2 06       		.uleb128 0x6
 587 00a3 59000000 		.4byte	.LASF13
 588 00a7 01       		.byte	0x1
 589 00a8 36       		.byte	0x36
 590 00a9 CD000000 		.4byte	0xcd
 591 00ad 02       		.byte	0x2
 592 00ae 23       		.byte	0x23
 593 00af 04       		.uleb128 0x4
 594 00b0 06       		.uleb128 0x6
 595 00b1 F4000000 		.4byte	.LASF14
 596 00b5 01       		.byte	0x1
 597 00b6 37       		.byte	0x37
 598 00b7 CD000000 		.4byte	0xcd
 599 00bb 02       		.byte	0x2
 600 00bc 23       		.byte	0x23
 601 00bd 08       		.uleb128 0x8
 602 00be 06       		.uleb128 0x6
 603 00bf B6020000 		.4byte	.LASF15
 604 00c3 01       		.byte	0x1
 605 00c4 38       		.byte	0x38
 606 00c5 CD000000 		.4byte	0xcd
 607 00c9 02       		.byte	0x2
 608 00ca 23       		.byte	0x23
 609 00cb 0C       		.uleb128 0xc
 610 00cc 00       		.byte	0
 611 00cd 07       		.uleb128 0x7
 612 00ce 04       		.byte	0x4
 613 00cf 57000000 		.4byte	0x57
 614 00d3 03       		.uleb128 0x3
 615 00d4 03020000 		.4byte	.LASF16
 616 00d8 01       		.byte	0x1
 617 00d9 39       		.byte	0x39
 618 00da 8C000000 		.4byte	0x8c
 619 00de 08       		.uleb128 0x8
 620 00df 01       		.byte	0x1
 621 00e0 3D000000 		.4byte	.LASF17
 622 00e4 01       		.byte	0x1
 623 00e5 88       		.byte	0x88
 624 00e6 01       		.byte	0x1
 625 00e7 00000000 		.4byte	.LFB123
ARM GAS  /tmp/cca8QpKp.s 			page 28


 626 00eb 02000000 		.4byte	.LFE123
 627 00ef 02       		.byte	0x2
 628 00f0 7D       		.byte	0x7d
 629 00f1 00       		.sleb128 0
 630 00f2 01       		.byte	0x1
 631 00f3 08       		.uleb128 0x8
 632 00f4 01       		.byte	0x1
 633 00f5 99020000 		.4byte	.LASF18
 634 00f9 01       		.byte	0x1
 635 00fa 9B       		.byte	0x9b
 636 00fb 01       		.byte	0x1
 637 00fc 00000000 		.4byte	.LFB124
 638 0100 02000000 		.4byte	.LFE124
 639 0104 02       		.byte	0x2
 640 0105 7D       		.byte	0x7d
 641 0106 00       		.sleb128 0
 642 0107 01       		.byte	0x1
 643 0108 08       		.uleb128 0x8
 644 0109 01       		.byte	0x1
 645 010a FF000000 		.4byte	.LASF19
 646 010e 01       		.byte	0x1
 647 010f A9       		.byte	0xa9
 648 0110 01       		.byte	0x1
 649 0111 00000000 		.4byte	.LFB125
 650 0115 02000000 		.4byte	.LFE125
 651 0119 02       		.byte	0x2
 652 011a 7D       		.byte	0x7d
 653 011b 00       		.sleb128 0
 654 011c 01       		.byte	0x1
 655 011d 08       		.uleb128 0x8
 656 011e 01       		.byte	0x1
 657 011f E1010000 		.4byte	.LASF20
 658 0123 01       		.byte	0x1
 659 0124 B6       		.byte	0xb6
 660 0125 01       		.byte	0x1
 661 0126 00000000 		.4byte	.LFB126
 662 012a 02000000 		.4byte	.LFE126
 663 012e 02       		.byte	0x2
 664 012f 7D       		.byte	0x7d
 665 0130 00       		.sleb128 0
 666 0131 01       		.byte	0x1
 667 0132 09       		.uleb128 0x9
 668 0133 01       		.byte	0x1
 669 0134 00000000 		.4byte	.LASF58
 670 0138 01       		.byte	0x1
 671 0139 C0       		.byte	0xc0
 672 013a 01       		.byte	0x1
 673 013b 00000000 		.4byte	.LFB127
 674 013f 54000000 		.4byte	.LFE127
 675 0143 00000000 		.4byte	.LLST0
 676 0147 01       		.byte	0x1
 677 0148 7D010000 		.4byte	0x17d
 678 014c 0A       		.uleb128 0xa
 679 014d 72617000 		.ascii	"rap\000"
 680 0151 01       		.byte	0x1
 681 0152 C2       		.byte	0xc2
 682 0153 7D010000 		.4byte	0x17d
ARM GAS  /tmp/cca8QpKp.s 			page 29


 683 0157 20000000 		.4byte	.LLST1
 684 015b 0B       		.uleb128 0xb
 685 015c 00000000 		.4byte	.Ldebug_ranges0+0
 686 0160 0A       		.uleb128 0xa
 687 0161 747000   		.ascii	"tp\000"
 688 0164 01       		.byte	0x1
 689 0165 C5       		.byte	0xc5
 690 0166 CD000000 		.4byte	0xcd
 691 016a 38000000 		.4byte	.LLST2
 692 016e 0A       		.uleb128 0xa
 693 016f 7000     		.ascii	"p\000"
 694 0171 01       		.byte	0x1
 695 0172 C6       		.byte	0xc6
 696 0173 CD000000 		.4byte	0xcd
 697 0177 57000000 		.4byte	.LLST3
 698 017b 00       		.byte	0
 699 017c 00       		.byte	0
 700 017d 07       		.uleb128 0x7
 701 017e 04       		.byte	0x4
 702 017f 83010000 		.4byte	0x183
 703 0183 0C       		.uleb128 0xc
 704 0184 D3000000 		.4byte	0xd3
 705 0188 0D       		.uleb128 0xd
 706 0189 D3000000 		.4byte	0xd3
 707 018d 98010000 		.4byte	0x198
 708 0191 0E       		.uleb128 0xe
 709 0192 85000000 		.4byte	0x85
 710 0196 07       		.byte	0x7
 711 0197 00       		.byte	0
 712 0198 0F       		.uleb128 0xf
 713 0199 63000000 		.4byte	.LASF21
 714 019d 01       		.byte	0x1
 715 019e 5C       		.byte	0x5c
 716 019f A9010000 		.4byte	0x1a9
 717 01a3 05       		.byte	0x5
 718 01a4 03       		.byte	0x3
 719 01a5 00000000 		.4byte	ram_areas
 720 01a9 0C       		.uleb128 0xc
 721 01aa 88010000 		.4byte	0x188
 722 01ae 10       		.uleb128 0x10
 723 01af B8010000 		.4byte	.LASF22
 724 01b3 03       		.byte	0x3
 725 01b4 FA06     		.2byte	0x6fa
 726 01b6 BC010000 		.4byte	0x1bc
 727 01ba 01       		.byte	0x1
 728 01bb 01       		.byte	0x1
 729 01bc 11       		.uleb128 0x11
 730 01bd 45000000 		.4byte	0x45
 731 01c1 12       		.uleb128 0x12
 732 01c2 6D000000 		.4byte	.LASF23
 733 01c6 01       		.byte	0x1
 734 01c7 40       		.byte	0x40
 735 01c8 57000000 		.4byte	0x57
 736 01cc 01       		.byte	0x1
 737 01cd 01       		.byte	0x1
 738 01ce 12       		.uleb128 0x12
 739 01cf 34010000 		.4byte	.LASF24
ARM GAS  /tmp/cca8QpKp.s 			page 30


 740 01d3 01       		.byte	0x1
 741 01d4 40       		.byte	0x40
 742 01d5 57000000 		.4byte	0x57
 743 01d9 01       		.byte	0x1
 744 01da 01       		.byte	0x1
 745 01db 12       		.uleb128 0x12
 746 01dc 54030000 		.4byte	.LASF25
 747 01e0 01       		.byte	0x1
 748 01e1 40       		.byte	0x40
 749 01e2 57000000 		.4byte	0x57
 750 01e6 01       		.byte	0x1
 751 01e7 01       		.byte	0x1
 752 01e8 12       		.uleb128 0x12
 753 01e9 2D000000 		.4byte	.LASF26
 754 01ed 01       		.byte	0x1
 755 01ee 40       		.byte	0x40
 756 01ef 57000000 		.4byte	0x57
 757 01f3 01       		.byte	0x1
 758 01f4 01       		.byte	0x1
 759 01f5 12       		.uleb128 0x12
 760 01f6 FA020000 		.4byte	.LASF27
 761 01fa 01       		.byte	0x1
 762 01fb 43       		.byte	0x43
 763 01fc 57000000 		.4byte	0x57
 764 0200 01       		.byte	0x1
 765 0201 01       		.byte	0x1
 766 0202 12       		.uleb128 0x12
 767 0203 A2000000 		.4byte	.LASF28
 768 0207 01       		.byte	0x1
 769 0208 43       		.byte	0x43
 770 0209 57000000 		.4byte	0x57
 771 020d 01       		.byte	0x1
 772 020e 01       		.byte	0x1
 773 020f 12       		.uleb128 0x12
 774 0210 A9010000 		.4byte	.LASF29
 775 0214 01       		.byte	0x1
 776 0215 43       		.byte	0x43
 777 0216 57000000 		.4byte	0x57
 778 021a 01       		.byte	0x1
 779 021b 01       		.byte	0x1
 780 021c 12       		.uleb128 0x12
 781 021d 75030000 		.4byte	.LASF30
 782 0221 01       		.byte	0x1
 783 0222 43       		.byte	0x43
 784 0223 57000000 		.4byte	0x57
 785 0227 01       		.byte	0x1
 786 0228 01       		.byte	0x1
 787 0229 12       		.uleb128 0x12
 788 022a F0010000 		.4byte	.LASF31
 789 022e 01       		.byte	0x1
 790 022f 46       		.byte	0x46
 791 0230 57000000 		.4byte	0x57
 792 0234 01       		.byte	0x1
 793 0235 01       		.byte	0x1
 794 0236 12       		.uleb128 0x12
 795 0237 11000000 		.4byte	.LASF32
 796 023b 01       		.byte	0x1
ARM GAS  /tmp/cca8QpKp.s 			page 31


 797 023c 46       		.byte	0x46
 798 023d 57000000 		.4byte	0x57
 799 0241 01       		.byte	0x1
 800 0242 01       		.byte	0x1
 801 0243 12       		.uleb128 0x12
 802 0244 19030000 		.4byte	.LASF33
 803 0248 01       		.byte	0x1
 804 0249 46       		.byte	0x46
 805 024a 57000000 		.4byte	0x57
 806 024e 01       		.byte	0x1
 807 024f 01       		.byte	0x1
 808 0250 12       		.uleb128 0x12
 809 0251 EA020000 		.4byte	.LASF34
 810 0255 01       		.byte	0x1
 811 0256 46       		.byte	0x46
 812 0257 57000000 		.4byte	0x57
 813 025b 01       		.byte	0x1
 814 025c 01       		.byte	0x1
 815 025d 12       		.uleb128 0x12
 816 025e E1000000 		.4byte	.LASF35
 817 0262 01       		.byte	0x1
 818 0263 49       		.byte	0x49
 819 0264 57000000 		.4byte	0x57
 820 0268 01       		.byte	0x1
 821 0269 01       		.byte	0x1
 822 026a 12       		.uleb128 0x12
 823 026b C5010000 		.4byte	.LASF36
 824 026f 01       		.byte	0x1
 825 0270 49       		.byte	0x49
 826 0271 57000000 		.4byte	0x57
 827 0275 01       		.byte	0x1
 828 0276 01       		.byte	0x1
 829 0277 12       		.uleb128 0x12
 830 0278 93000000 		.4byte	.LASF37
 831 027c 01       		.byte	0x1
 832 027d 49       		.byte	0x49
 833 027e 57000000 		.4byte	0x57
 834 0282 01       		.byte	0x1
 835 0283 01       		.byte	0x1
 836 0284 12       		.uleb128 0x12
 837 0285 CC020000 		.4byte	.LASF38
 838 0289 01       		.byte	0x1
 839 028a 49       		.byte	0x49
 840 028b 57000000 		.4byte	0x57
 841 028f 01       		.byte	0x1
 842 0290 01       		.byte	0x1
 843 0291 12       		.uleb128 0x12
 844 0292 28030000 		.4byte	.LASF39
 845 0296 01       		.byte	0x1
 846 0297 4C       		.byte	0x4c
 847 0298 57000000 		.4byte	0x57
 848 029c 01       		.byte	0x1
 849 029d 01       		.byte	0x1
 850 029e 12       		.uleb128 0x12
 851 029f 35020000 		.4byte	.LASF40
 852 02a3 01       		.byte	0x1
 853 02a4 4C       		.byte	0x4c
ARM GAS  /tmp/cca8QpKp.s 			page 32


 854 02a5 57000000 		.4byte	0x57
 855 02a9 01       		.byte	0x1
 856 02aa 01       		.byte	0x1
 857 02ab 12       		.uleb128 0x12
 858 02ac 43020000 		.4byte	.LASF41
 859 02b0 01       		.byte	0x1
 860 02b1 4C       		.byte	0x4c
 861 02b2 57000000 		.4byte	0x57
 862 02b6 01       		.byte	0x1
 863 02b7 01       		.byte	0x1
 864 02b8 12       		.uleb128 0x12
 865 02b9 52020000 		.4byte	.LASF42
 866 02bd 01       		.byte	0x1
 867 02be 4C       		.byte	0x4c
 868 02bf 57000000 		.4byte	0x57
 869 02c3 01       		.byte	0x1
 870 02c4 01       		.byte	0x1
 871 02c5 12       		.uleb128 0x12
 872 02c6 13020000 		.4byte	.LASF43
 873 02ca 01       		.byte	0x1
 874 02cb 4F       		.byte	0x4f
 875 02cc 57000000 		.4byte	0x57
 876 02d0 01       		.byte	0x1
 877 02d1 01       		.byte	0x1
 878 02d2 12       		.uleb128 0x12
 879 02d3 42010000 		.4byte	.LASF44
 880 02d7 01       		.byte	0x1
 881 02d8 4F       		.byte	0x4f
 882 02d9 57000000 		.4byte	0x57
 883 02dd 01       		.byte	0x1
 884 02de 01       		.byte	0x1
 885 02df 12       		.uleb128 0x12
 886 02e0 91030000 		.4byte	.LASF45
 887 02e4 01       		.byte	0x1
 888 02e5 4F       		.byte	0x4f
 889 02e6 57000000 		.4byte	0x57
 890 02ea 01       		.byte	0x1
 891 02eb 01       		.byte	0x1
 892 02ec 12       		.uleb128 0x12
 893 02ed A6020000 		.4byte	.LASF46
 894 02f1 01       		.byte	0x1
 895 02f2 4F       		.byte	0x4f
 896 02f3 57000000 		.4byte	0x57
 897 02f7 01       		.byte	0x1
 898 02f8 01       		.byte	0x1
 899 02f9 12       		.uleb128 0x12
 900 02fa BE000000 		.4byte	.LASF47
 901 02fe 01       		.byte	0x1
 902 02ff 52       		.byte	0x52
 903 0300 57000000 		.4byte	0x57
 904 0304 01       		.byte	0x1
 905 0305 01       		.byte	0x1
 906 0306 12       		.uleb128 0x12
 907 0307 B0000000 		.4byte	.LASF48
 908 030b 01       		.byte	0x1
 909 030c 52       		.byte	0x52
 910 030d 57000000 		.4byte	0x57
ARM GAS  /tmp/cca8QpKp.s 			page 33


 911 0311 01       		.byte	0x1
 912 0312 01       		.byte	0x1
 913 0313 12       		.uleb128 0x12
 914 0314 0B010000 		.4byte	.LASF49
 915 0318 01       		.byte	0x1
 916 0319 52       		.byte	0x52
 917 031a 57000000 		.4byte	0x57
 918 031e 01       		.byte	0x1
 919 031f 01       		.byte	0x1
 920 0320 12       		.uleb128 0x12
 921 0321 D1000000 		.4byte	.LASF50
 922 0325 01       		.byte	0x1
 923 0326 52       		.byte	0x52
 924 0327 57000000 		.4byte	0x57
 925 032b 01       		.byte	0x1
 926 032c 01       		.byte	0x1
 927 032d 12       		.uleb128 0x12
 928 032e 86020000 		.4byte	.LASF51
 929 0332 01       		.byte	0x1
 930 0333 55       		.byte	0x55
 931 0334 57000000 		.4byte	0x57
 932 0338 01       		.byte	0x1
 933 0339 01       		.byte	0x1
 934 033a 12       		.uleb128 0x12
 935 033b 1F000000 		.4byte	.LASF52
 936 033f 01       		.byte	0x1
 937 0340 55       		.byte	0x55
 938 0341 57000000 		.4byte	0x57
 939 0345 01       		.byte	0x1
 940 0346 01       		.byte	0x1
 941 0347 12       		.uleb128 0x12
 942 0348 26020000 		.4byte	.LASF53
 943 034c 01       		.byte	0x1
 944 034d 55       		.byte	0x55
 945 034e 57000000 		.4byte	0x57
 946 0352 01       		.byte	0x1
 947 0353 01       		.byte	0x1
 948 0354 12       		.uleb128 0x12
 949 0355 49000000 		.4byte	.LASF54
 950 0359 01       		.byte	0x1
 951 035a 55       		.byte	0x55
 952 035b 57000000 		.4byte	0x57
 953 035f 01       		.byte	0x1
 954 0360 01       		.byte	0x1
 955 0361 00       		.byte	0
 956              		.section	.debug_abbrev,"",%progbits
 957              	.Ldebug_abbrev0:
 958 0000 01       		.uleb128 0x1
 959 0001 11       		.uleb128 0x11
 960 0002 01       		.byte	0x1
 961 0003 25       		.uleb128 0x25
 962 0004 0E       		.uleb128 0xe
 963 0005 13       		.uleb128 0x13
 964 0006 0B       		.uleb128 0xb
 965 0007 03       		.uleb128 0x3
 966 0008 0E       		.uleb128 0xe
 967 0009 1B       		.uleb128 0x1b
ARM GAS  /tmp/cca8QpKp.s 			page 34


 968 000a 0E       		.uleb128 0xe
 969 000b 55       		.uleb128 0x55
 970 000c 06       		.uleb128 0x6
 971 000d 11       		.uleb128 0x11
 972 000e 01       		.uleb128 0x1
 973 000f 52       		.uleb128 0x52
 974 0010 01       		.uleb128 0x1
 975 0011 10       		.uleb128 0x10
 976 0012 06       		.uleb128 0x6
 977 0013 00       		.byte	0
 978 0014 00       		.byte	0
 979 0015 02       		.uleb128 0x2
 980 0016 24       		.uleb128 0x24
 981 0017 00       		.byte	0
 982 0018 0B       		.uleb128 0xb
 983 0019 0B       		.uleb128 0xb
 984 001a 3E       		.uleb128 0x3e
 985 001b 0B       		.uleb128 0xb
 986 001c 03       		.uleb128 0x3
 987 001d 0E       		.uleb128 0xe
 988 001e 00       		.byte	0
 989 001f 00       		.byte	0
 990 0020 03       		.uleb128 0x3
 991 0021 16       		.uleb128 0x16
 992 0022 00       		.byte	0
 993 0023 03       		.uleb128 0x3
 994 0024 0E       		.uleb128 0xe
 995 0025 3A       		.uleb128 0x3a
 996 0026 0B       		.uleb128 0xb
 997 0027 3B       		.uleb128 0x3b
 998 0028 0B       		.uleb128 0xb
 999 0029 49       		.uleb128 0x49
 1000 002a 13       		.uleb128 0x13
 1001 002b 00       		.byte	0
 1002 002c 00       		.byte	0
 1003 002d 04       		.uleb128 0x4
 1004 002e 24       		.uleb128 0x24
 1005 002f 00       		.byte	0
 1006 0030 0B       		.uleb128 0xb
 1007 0031 0B       		.uleb128 0xb
 1008 0032 3E       		.uleb128 0x3e
 1009 0033 0B       		.uleb128 0xb
 1010 0034 03       		.uleb128 0x3
 1011 0035 08       		.uleb128 0x8
 1012 0036 00       		.byte	0
 1013 0037 00       		.byte	0
 1014 0038 05       		.uleb128 0x5
 1015 0039 13       		.uleb128 0x13
 1016 003a 01       		.byte	0x1
 1017 003b 0B       		.uleb128 0xb
 1018 003c 0B       		.uleb128 0xb
 1019 003d 3A       		.uleb128 0x3a
 1020 003e 0B       		.uleb128 0xb
 1021 003f 3B       		.uleb128 0x3b
 1022 0040 0B       		.uleb128 0xb
 1023 0041 01       		.uleb128 0x1
 1024 0042 13       		.uleb128 0x13
ARM GAS  /tmp/cca8QpKp.s 			page 35


 1025 0043 00       		.byte	0
 1026 0044 00       		.byte	0
 1027 0045 06       		.uleb128 0x6
 1028 0046 0D       		.uleb128 0xd
 1029 0047 00       		.byte	0
 1030 0048 03       		.uleb128 0x3
 1031 0049 0E       		.uleb128 0xe
 1032 004a 3A       		.uleb128 0x3a
 1033 004b 0B       		.uleb128 0xb
 1034 004c 3B       		.uleb128 0x3b
 1035 004d 0B       		.uleb128 0xb
 1036 004e 49       		.uleb128 0x49
 1037 004f 13       		.uleb128 0x13
 1038 0050 38       		.uleb128 0x38
 1039 0051 0A       		.uleb128 0xa
 1040 0052 00       		.byte	0
 1041 0053 00       		.byte	0
 1042 0054 07       		.uleb128 0x7
 1043 0055 0F       		.uleb128 0xf
 1044 0056 00       		.byte	0
 1045 0057 0B       		.uleb128 0xb
 1046 0058 0B       		.uleb128 0xb
 1047 0059 49       		.uleb128 0x49
 1048 005a 13       		.uleb128 0x13
 1049 005b 00       		.byte	0
 1050 005c 00       		.byte	0
 1051 005d 08       		.uleb128 0x8
 1052 005e 2E       		.uleb128 0x2e
 1053 005f 00       		.byte	0
 1054 0060 3F       		.uleb128 0x3f
 1055 0061 0C       		.uleb128 0xc
 1056 0062 03       		.uleb128 0x3
 1057 0063 0E       		.uleb128 0xe
 1058 0064 3A       		.uleb128 0x3a
 1059 0065 0B       		.uleb128 0xb
 1060 0066 3B       		.uleb128 0x3b
 1061 0067 0B       		.uleb128 0xb
 1062 0068 27       		.uleb128 0x27
 1063 0069 0C       		.uleb128 0xc
 1064 006a 11       		.uleb128 0x11
 1065 006b 01       		.uleb128 0x1
 1066 006c 12       		.uleb128 0x12
 1067 006d 01       		.uleb128 0x1
 1068 006e 40       		.uleb128 0x40
 1069 006f 0A       		.uleb128 0xa
 1070 0070 9742     		.uleb128 0x2117
 1071 0072 0C       		.uleb128 0xc
 1072 0073 00       		.byte	0
 1073 0074 00       		.byte	0
 1074 0075 09       		.uleb128 0x9
 1075 0076 2E       		.uleb128 0x2e
 1076 0077 01       		.byte	0x1
 1077 0078 3F       		.uleb128 0x3f
 1078 0079 0C       		.uleb128 0xc
 1079 007a 03       		.uleb128 0x3
 1080 007b 0E       		.uleb128 0xe
 1081 007c 3A       		.uleb128 0x3a
ARM GAS  /tmp/cca8QpKp.s 			page 36


 1082 007d 0B       		.uleb128 0xb
 1083 007e 3B       		.uleb128 0x3b
 1084 007f 0B       		.uleb128 0xb
 1085 0080 27       		.uleb128 0x27
 1086 0081 0C       		.uleb128 0xc
 1087 0082 11       		.uleb128 0x11
 1088 0083 01       		.uleb128 0x1
 1089 0084 12       		.uleb128 0x12
 1090 0085 01       		.uleb128 0x1
 1091 0086 40       		.uleb128 0x40
 1092 0087 06       		.uleb128 0x6
 1093 0088 9742     		.uleb128 0x2117
 1094 008a 0C       		.uleb128 0xc
 1095 008b 01       		.uleb128 0x1
 1096 008c 13       		.uleb128 0x13
 1097 008d 00       		.byte	0
 1098 008e 00       		.byte	0
 1099 008f 0A       		.uleb128 0xa
 1100 0090 34       		.uleb128 0x34
 1101 0091 00       		.byte	0
 1102 0092 03       		.uleb128 0x3
 1103 0093 08       		.uleb128 0x8
 1104 0094 3A       		.uleb128 0x3a
 1105 0095 0B       		.uleb128 0xb
 1106 0096 3B       		.uleb128 0x3b
 1107 0097 0B       		.uleb128 0xb
 1108 0098 49       		.uleb128 0x49
 1109 0099 13       		.uleb128 0x13
 1110 009a 02       		.uleb128 0x2
 1111 009b 06       		.uleb128 0x6
 1112 009c 00       		.byte	0
 1113 009d 00       		.byte	0
 1114 009e 0B       		.uleb128 0xb
 1115 009f 0B       		.uleb128 0xb
 1116 00a0 01       		.byte	0x1
 1117 00a1 55       		.uleb128 0x55
 1118 00a2 06       		.uleb128 0x6
 1119 00a3 00       		.byte	0
 1120 00a4 00       		.byte	0
 1121 00a5 0C       		.uleb128 0xc
 1122 00a6 26       		.uleb128 0x26
 1123 00a7 00       		.byte	0
 1124 00a8 49       		.uleb128 0x49
 1125 00a9 13       		.uleb128 0x13
 1126 00aa 00       		.byte	0
 1127 00ab 00       		.byte	0
 1128 00ac 0D       		.uleb128 0xd
 1129 00ad 01       		.uleb128 0x1
 1130 00ae 01       		.byte	0x1
 1131 00af 49       		.uleb128 0x49
 1132 00b0 13       		.uleb128 0x13
 1133 00b1 01       		.uleb128 0x1
 1134 00b2 13       		.uleb128 0x13
 1135 00b3 00       		.byte	0
 1136 00b4 00       		.byte	0
 1137 00b5 0E       		.uleb128 0xe
 1138 00b6 21       		.uleb128 0x21
ARM GAS  /tmp/cca8QpKp.s 			page 37


 1139 00b7 00       		.byte	0
 1140 00b8 49       		.uleb128 0x49
 1141 00b9 13       		.uleb128 0x13
 1142 00ba 2F       		.uleb128 0x2f
 1143 00bb 0B       		.uleb128 0xb
 1144 00bc 00       		.byte	0
 1145 00bd 00       		.byte	0
 1146 00be 0F       		.uleb128 0xf
 1147 00bf 34       		.uleb128 0x34
 1148 00c0 00       		.byte	0
 1149 00c1 03       		.uleb128 0x3
 1150 00c2 0E       		.uleb128 0xe
 1151 00c3 3A       		.uleb128 0x3a
 1152 00c4 0B       		.uleb128 0xb
 1153 00c5 3B       		.uleb128 0x3b
 1154 00c6 0B       		.uleb128 0xb
 1155 00c7 49       		.uleb128 0x49
 1156 00c8 13       		.uleb128 0x13
 1157 00c9 02       		.uleb128 0x2
 1158 00ca 0A       		.uleb128 0xa
 1159 00cb 00       		.byte	0
 1160 00cc 00       		.byte	0
 1161 00cd 10       		.uleb128 0x10
 1162 00ce 34       		.uleb128 0x34
 1163 00cf 00       		.byte	0
 1164 00d0 03       		.uleb128 0x3
 1165 00d1 0E       		.uleb128 0xe
 1166 00d2 3A       		.uleb128 0x3a
 1167 00d3 0B       		.uleb128 0xb
 1168 00d4 3B       		.uleb128 0x3b
 1169 00d5 05       		.uleb128 0x5
 1170 00d6 49       		.uleb128 0x49
 1171 00d7 13       		.uleb128 0x13
 1172 00d8 3F       		.uleb128 0x3f
 1173 00d9 0C       		.uleb128 0xc
 1174 00da 3C       		.uleb128 0x3c
 1175 00db 0C       		.uleb128 0xc
 1176 00dc 00       		.byte	0
 1177 00dd 00       		.byte	0
 1178 00de 11       		.uleb128 0x11
 1179 00df 35       		.uleb128 0x35
 1180 00e0 00       		.byte	0
 1181 00e1 49       		.uleb128 0x49
 1182 00e2 13       		.uleb128 0x13
 1183 00e3 00       		.byte	0
 1184 00e4 00       		.byte	0
 1185 00e5 12       		.uleb128 0x12
 1186 00e6 34       		.uleb128 0x34
 1187 00e7 00       		.byte	0
 1188 00e8 03       		.uleb128 0x3
 1189 00e9 0E       		.uleb128 0xe
 1190 00ea 3A       		.uleb128 0x3a
 1191 00eb 0B       		.uleb128 0xb
 1192 00ec 3B       		.uleb128 0x3b
 1193 00ed 0B       		.uleb128 0xb
 1194 00ee 49       		.uleb128 0x49
 1195 00ef 13       		.uleb128 0x13
ARM GAS  /tmp/cca8QpKp.s 			page 38


 1196 00f0 3F       		.uleb128 0x3f
 1197 00f1 0C       		.uleb128 0xc
 1198 00f2 3C       		.uleb128 0x3c
 1199 00f3 0C       		.uleb128 0xc
 1200 00f4 00       		.byte	0
 1201 00f5 00       		.byte	0
 1202 00f6 00       		.byte	0
 1203              		.section	.debug_loc,"",%progbits
 1204              	.Ldebug_loc0:
 1205              	.LLST0:
 1206 0000 00000000 		.4byte	.LFB127
 1207 0004 02000000 		.4byte	.LCFI0
 1208 0008 0200     		.2byte	0x2
 1209 000a 7D       		.byte	0x7d
 1210 000b 00       		.sleb128 0
 1211 000c 02000000 		.4byte	.LCFI0
 1212 0010 54000000 		.4byte	.LFE127
 1213 0014 0200     		.2byte	0x2
 1214 0016 7D       		.byte	0x7d
 1215 0017 10       		.sleb128 16
 1216 0018 00000000 		.4byte	0
 1217 001c 00000000 		.4byte	0
 1218              	.LLST1:
 1219 0020 00000000 		.4byte	.LVL0
 1220 0024 0A000000 		.4byte	.LVL1
 1221 0028 0600     		.2byte	0x6
 1222 002a 03       		.byte	0x3
 1223 002b 00000000 		.4byte	ram_areas
 1224 002f 9F       		.byte	0x9f
 1225 0030 00000000 		.4byte	0
 1226 0034 00000000 		.4byte	0
 1227              	.LLST2:
 1228 0038 10000000 		.4byte	.LVL2
 1229 003c 16000000 		.4byte	.LVL3
 1230 0040 0100     		.2byte	0x1
 1231 0042 51       		.byte	0x51
 1232 0043 16000000 		.4byte	.LVL3
 1233 0047 18000000 		.4byte	.LVL4
 1234 004b 0200     		.2byte	0x2
 1235 004d 76       		.byte	0x76
 1236 004e 70       		.sleb128 -16
 1237 004f 00000000 		.4byte	0
 1238 0053 00000000 		.4byte	0
 1239              	.LLST3:
 1240 0057 10000000 		.4byte	.LVL2
 1241 005b 18000000 		.4byte	.LVL4
 1242 005f 0100     		.2byte	0x1
 1243 0061 53       		.byte	0x53
 1244 0062 18000000 		.4byte	.LVL4
 1245 0066 26000000 		.4byte	.LVL6
 1246 006a 0100     		.2byte	0x1
 1247 006c 52       		.byte	0x52
 1248 006d 30000000 		.4byte	.LVL7
 1249 0071 46000000 		.4byte	.LVL9
 1250 0075 0100     		.2byte	0x1
 1251 0077 53       		.byte	0x53
 1252 0078 00000000 		.4byte	0
ARM GAS  /tmp/cca8QpKp.s 			page 39


 1253 007c 00000000 		.4byte	0
 1254              		.section	.debug_aranges,"",%progbits
 1255 0000 3C000000 		.4byte	0x3c
 1256 0004 0200     		.2byte	0x2
 1257 0006 00000000 		.4byte	.Ldebug_info0
 1258 000a 04       		.byte	0x4
 1259 000b 00       		.byte	0
 1260 000c 0000     		.2byte	0
 1261 000e 0000     		.2byte	0
 1262 0010 00000000 		.4byte	.LFB123
 1263 0014 02000000 		.4byte	.LFE123-.LFB123
 1264 0018 00000000 		.4byte	.LFB124
 1265 001c 02000000 		.4byte	.LFE124-.LFB124
 1266 0020 00000000 		.4byte	.LFB125
 1267 0024 02000000 		.4byte	.LFE125-.LFB125
 1268 0028 00000000 		.4byte	.LFB126
 1269 002c 02000000 		.4byte	.LFE126-.LFB126
 1270 0030 00000000 		.4byte	.LFB127
 1271 0034 54000000 		.4byte	.LFE127-.LFB127
 1272 0038 00000000 		.4byte	0
 1273 003c 00000000 		.4byte	0
 1274              		.section	.debug_ranges,"",%progbits
 1275              	.Ldebug_ranges0:
 1276 0000 04000000 		.4byte	.LBB2
 1277 0004 16000000 		.4byte	.LBE2
 1278 0008 18000000 		.4byte	.LBB3
 1279 000c 40000000 		.4byte	.LBE3
 1280 0010 00000000 		.4byte	0
 1281 0014 00000000 		.4byte	0
 1282 0018 00000000 		.4byte	.LFB123
 1283 001c 02000000 		.4byte	.LFE123
 1284 0020 00000000 		.4byte	.LFB124
 1285 0024 02000000 		.4byte	.LFE124
 1286 0028 00000000 		.4byte	.LFB125
 1287 002c 02000000 		.4byte	.LFE125
 1288 0030 00000000 		.4byte	.LFB126
 1289 0034 02000000 		.4byte	.LFE126
 1290 0038 00000000 		.4byte	.LFB127
 1291 003c 54000000 		.4byte	.LFE127
 1292 0040 00000000 		.4byte	0
 1293 0044 00000000 		.4byte	0
 1294              		.section	.debug_line,"",%progbits
 1295              	.Ldebug_line0:
 1296 0000 47010000 		.section	.debug_str,"MS",%progbits,1
 1296      0200D300 
 1296      00000201 
 1296      FB0E0D00 
 1296      01010101 
 1297              	.LASF58:
 1298 0000 5F5F696E 		.ascii	"__init_ram_areas\000"
 1298      69745F72 
 1298      616D5F61 
 1298      72656173 
 1298      00
 1299              	.LASF32:
 1300 0011 5F5F7261 		.ascii	"__ram2_init__\000"
 1300      6D325F69 
ARM GAS  /tmp/cca8QpKp.s 			page 40


 1300      6E69745F 
 1300      5F00
 1301              	.LASF52:
 1302 001f 5F5F7261 		.ascii	"__ram7_init__\000"
 1302      6D375F69 
 1302      6E69745F 
 1302      5F00
 1303              	.LASF26:
 1304 002d 5F5F7261 		.ascii	"__ram0_noinit__\000"
 1304      6D305F6E 
 1304      6F696E69 
 1304      745F5F00 
 1305              	.LASF17:
 1306 003d 5F5F636F 		.ascii	"__core_init\000"
 1306      72655F69 
 1306      6E697400 
 1307              	.LASF54:
 1308 0049 5F5F7261 		.ascii	"__ram7_noinit__\000"
 1308      6D375F6E 
 1308      6F696E69 
 1308      745F5F00 
 1309              	.LASF13:
 1310 0059 696E6974 		.ascii	"init_area\000"
 1310      5F617265 
 1310      6100
 1311              	.LASF21:
 1312 0063 72616D5F 		.ascii	"ram_areas\000"
 1312      61726561 
 1312      7300
 1313              	.LASF23:
 1314 006d 5F5F7261 		.ascii	"__ram0_init_text__\000"
 1314      6D305F69 
 1314      6E69745F 
 1314      74657874 
 1314      5F5F00
 1315              	.LASF3:
 1316 0080 73686F72 		.ascii	"short unsigned int\000"
 1316      7420756E 
 1316      7369676E 
 1316      65642069 
 1316      6E7400
 1317              	.LASF37:
 1318 0093 5F5F7261 		.ascii	"__ram3_clear__\000"
 1318      6D335F63 
 1318      6C656172 
 1318      5F5F00
 1319              	.LASF28:
 1320 00a2 5F5F7261 		.ascii	"__ram1_init__\000"
 1320      6D315F69 
 1320      6E69745F 
 1320      5F00
 1321              	.LASF48:
 1322 00b0 5F5F7261 		.ascii	"__ram6_init__\000"
 1322      6D365F69 
 1322      6E69745F 
 1322      5F00
 1323              	.LASF47:
ARM GAS  /tmp/cca8QpKp.s 			page 41


 1324 00be 5F5F7261 		.ascii	"__ram6_init_text__\000"
 1324      6D365F69 
 1324      6E69745F 
 1324      74657874 
 1324      5F5F00
 1325              	.LASF50:
 1326 00d1 5F5F7261 		.ascii	"__ram6_noinit__\000"
 1326      6D365F6E 
 1326      6F696E69 
 1326      745F5F00 
 1327              	.LASF35:
 1328 00e1 5F5F7261 		.ascii	"__ram3_init_text__\000"
 1328      6D335F69 
 1328      6E69745F 
 1328      74657874 
 1328      5F5F00
 1329              	.LASF14:
 1330 00f4 636C6561 		.ascii	"clear_area\000"
 1330      725F6172 
 1330      656100
 1331              	.LASF19:
 1332 00ff 5F5F6C61 		.ascii	"__late_init\000"
 1332      74655F69 
 1332      6E697400 
 1333              	.LASF49:
 1334 010b 5F5F7261 		.ascii	"__ram6_clear__\000"
 1334      6D365F63 
 1334      6C656172 
 1334      5F5F00
 1335              	.LASF5:
 1336 011a 696E7433 		.ascii	"int32_t\000"
 1336      325F7400 
 1337              	.LASF7:
 1338 0122 6C6F6E67 		.ascii	"long unsigned int\000"
 1338      20756E73 
 1338      69676E65 
 1338      6420696E 
 1338      7400
 1339              	.LASF24:
 1340 0134 5F5F7261 		.ascii	"__ram0_init__\000"
 1340      6D305F69 
 1340      6E69745F 
 1340      5F00
 1341              	.LASF44:
 1342 0142 5F5F7261 		.ascii	"__ram5_init__\000"
 1342      6D355F69 
 1342      6E69745F 
 1342      5F00
 1343              	.LASF57:
 1344 0150 2F686F6D 		.ascii	"/home/sylvain/Documents/TelecomRobotics/ChibiOS_16."
 1344      652F7379 
 1344      6C766169 
 1344      6E2F446F 
 1344      63756D65 
 1345 0183 312E372F 		.ascii	"1.7/demos/STM32/RT-STM32F302R8-NUCLEO\000"
 1345      64656D6F 
 1345      732F5354 
ARM GAS  /tmp/cca8QpKp.s 			page 42


 1345      4D33322F 
 1345      52542D53 
 1346              	.LASF29:
 1347 01a9 5F5F7261 		.ascii	"__ram1_clear__\000"
 1347      6D315F63 
 1347      6C656172 
 1347      5F5F00
 1348              	.LASF22:
 1349 01b8 49544D5F 		.ascii	"ITM_RxBuffer\000"
 1349      52784275 
 1349      66666572 
 1349      00
 1350              	.LASF36:
 1351 01c5 5F5F7261 		.ascii	"__ram3_init__\000"
 1351      6D335F69 
 1351      6E69745F 
 1351      5F00
 1352              	.LASF1:
 1353 01d3 756E7369 		.ascii	"unsigned char\000"
 1353      676E6564 
 1353      20636861 
 1353      7200
 1354              	.LASF20:
 1355 01e1 5F5F6465 		.ascii	"__default_exit\000"
 1355      6661756C 
 1355      745F6578 
 1355      697400
 1356              	.LASF31:
 1357 01f0 5F5F7261 		.ascii	"__ram2_init_text__\000"
 1357      6D325F69 
 1357      6E69745F 
 1357      74657874 
 1357      5F5F00
 1358              	.LASF16:
 1359 0203 72616D5F 		.ascii	"ram_init_area_t\000"
 1359      696E6974 
 1359      5F617265 
 1359      615F7400 
 1360              	.LASF43:
 1361 0213 5F5F7261 		.ascii	"__ram5_init_text__\000"
 1361      6D355F69 
 1361      6E69745F 
 1361      74657874 
 1361      5F5F00
 1362              	.LASF53:
 1363 0226 5F5F7261 		.ascii	"__ram7_clear__\000"
 1363      6D375F63 
 1363      6C656172 
 1363      5F5F00
 1364              	.LASF40:
 1365 0235 5F5F7261 		.ascii	"__ram4_init__\000"
 1365      6D345F69 
 1365      6E69745F 
 1365      5F00
 1366              	.LASF41:
 1367 0243 5F5F7261 		.ascii	"__ram4_clear__\000"
 1367      6D345F63 
ARM GAS  /tmp/cca8QpKp.s 			page 43


 1367      6C656172 
 1367      5F5F00
 1368              	.LASF42:
 1369 0252 5F5F7261 		.ascii	"__ram4_noinit__\000"
 1369      6D345F6E 
 1369      6F696E69 
 1369      745F5F00 
 1370              	.LASF10:
 1371 0262 756E7369 		.ascii	"unsigned int\000"
 1371      676E6564 
 1371      20696E74 
 1371      00
 1372              	.LASF9:
 1373 026f 6C6F6E67 		.ascii	"long long unsigned int\000"
 1373      206C6F6E 
 1373      6720756E 
 1373      7369676E 
 1373      65642069 
 1374              	.LASF51:
 1375 0286 5F5F7261 		.ascii	"__ram7_init_text__\000"
 1375      6D375F69 
 1375      6E69745F 
 1375      74657874 
 1375      5F5F00
 1376              	.LASF18:
 1377 0299 5F5F6561 		.ascii	"__early_init\000"
 1377      726C795F 
 1377      696E6974 
 1377      00
 1378              	.LASF46:
 1379 02a6 5F5F7261 		.ascii	"__ram5_noinit__\000"
 1379      6D355F6E 
 1379      6F696E69 
 1379      745F5F00 
 1380              	.LASF15:
 1381 02b6 6E6F5F69 		.ascii	"no_init_area\000"
 1381      6E69745F 
 1381      61726561 
 1381      00
 1382              	.LASF11:
 1383 02c3 73697A65 		.ascii	"sizetype\000"
 1383      74797065 
 1383      00
 1384              	.LASF38:
 1385 02cc 5F5F7261 		.ascii	"__ram3_noinit__\000"
 1385      6D335F6E 
 1385      6F696E69 
 1385      745F5F00 
 1386              	.LASF8:
 1387 02dc 6C6F6E67 		.ascii	"long long int\000"
 1387      206C6F6E 
 1387      6720696E 
 1387      7400
 1388              	.LASF34:
 1389 02ea 5F5F7261 		.ascii	"__ram2_noinit__\000"
 1389      6D325F6E 
 1389      6F696E69 
ARM GAS  /tmp/cca8QpKp.s 			page 44


 1389      745F5F00 
 1390              	.LASF27:
 1391 02fa 5F5F7261 		.ascii	"__ram1_init_text__\000"
 1391      6D315F69 
 1391      6E69745F 
 1391      74657874 
 1391      5F5F00
 1392              	.LASF55:
 1393 030d 474E5520 		.ascii	"GNU C 4.7.2\000"
 1393      4320342E 
 1393      372E3200 
 1394              	.LASF33:
 1395 0319 5F5F7261 		.ascii	"__ram2_clear__\000"
 1395      6D325F63 
 1395      6C656172 
 1395      5F5F00
 1396              	.LASF39:
 1397 0328 5F5F7261 		.ascii	"__ram4_init_text__\000"
 1397      6D345F69 
 1397      6E69745F 
 1397      74657874 
 1397      5F5F00
 1398              	.LASF2:
 1399 033b 73686F72 		.ascii	"short int\000"
 1399      7420696E 
 1399      7400
 1400              	.LASF12:
 1401 0345 696E6974 		.ascii	"init_text_area\000"
 1401      5F746578 
 1401      745F6172 
 1401      656100
 1402              	.LASF25:
 1403 0354 5F5F7261 		.ascii	"__ram0_clear__\000"
 1403      6D305F63 
 1403      6C656172 
 1403      5F5F00
 1404              	.LASF6:
 1405 0363 75696E74 		.ascii	"uint32_t\000"
 1405      33325F74 
 1405      00
 1406              	.LASF4:
 1407 036c 6C6F6E67 		.ascii	"long int\000"
 1407      20696E74 
 1407      00
 1408              	.LASF30:
 1409 0375 5F5F7261 		.ascii	"__ram1_noinit__\000"
 1409      6D315F6E 
 1409      6F696E69 
 1409      745F5F00 
 1410              	.LASF0:
 1411 0385 7369676E 		.ascii	"signed char\000"
 1411      65642063 
 1411      68617200 
 1412              	.LASF45:
 1413 0391 5F5F7261 		.ascii	"__ram5_clear__\000"
 1413      6D355F63 
 1413      6C656172 
ARM GAS  /tmp/cca8QpKp.s 			page 45


 1413      5F5F00
 1414              	.LASF56:
 1415 03a0 2E2E2F2E 		.ascii	"../../../os/common/ports/ARMCMx/compilers/GCC/crt1."
 1415      2E2F2E2E 
 1415      2F6F732F 
 1415      636F6D6D 
 1415      6F6E2F70 
 1416 03d3 6300     		.ascii	"c\000"
 1417              		.comm	__gnu_lto_v1,1,1
 1418              		.ident	"GCC: (GNU) 4.7.2"
ARM GAS  /tmp/cca8QpKp.s 			page 46


DEFINED SYMBOLS
                            *ABS*:00000000 crt1.c
     /tmp/cca8QpKp.s:295    .text.__core_init:00000000 $t
     /tmp/cca8QpKp.s:301    .text.__core_init:00000000 __core_init
     /tmp/cca8QpKp.s:314    .text.__early_init:00000000 $t
     /tmp/cca8QpKp.s:320    .text.__early_init:00000000 __early_init
     /tmp/cca8QpKp.s:332    .text.__late_init:00000000 $t
     /tmp/cca8QpKp.s:338    .text.__late_init:00000000 __late_init
     /tmp/cca8QpKp.s:350    .text.__default_exit:00000000 $t
     /tmp/cca8QpKp.s:356    .text.__default_exit:00000000 __default_exit
     /tmp/cca8QpKp.s:370    .text.__init_ram_areas:00000000 $t
     /tmp/cca8QpKp.s:376    .text.__init_ram_areas:00000000 __init_ram_areas
     /tmp/cca8QpKp.s:458    .text.__init_ram_areas:00000050 $d
     /tmp/cca8QpKp.s:463    .rodata.ram_areas:00000000 $d
     /tmp/cca8QpKp.s:467    .rodata.ram_areas:00000000 ram_areas
                            *COM*:00000001 __gnu_lto_v1
                     .debug_frame:00000010 $d
     /tmp/cca8QpKp.s:462    .text.__init_ram_areas:00000054 $t

UNDEFINED SYMBOLS
__ram0_init_text__
__ram0_init__
__ram0_clear__
__ram0_noinit__
__ram1_init_text__
__ram1_init__
__ram1_clear__
__ram1_noinit__
__ram2_init_text__
__ram2_init__
__ram2_clear__
__ram2_noinit__
__ram3_init_text__
__ram3_init__
__ram3_clear__
__ram3_noinit__
__ram4_init_text__
__ram4_init__
__ram4_clear__
__ram4_noinit__
__ram5_init_text__
__ram5_init__
__ram5_clear__
__ram5_noinit__
__ram6_init_text__
__ram6_init__
__ram6_clear__
__ram6_noinit__
__ram7_init_text__
__ram7_init__
__ram7_clear__
__ram7_noinit__
