ARM GAS  /tmp/ccOw7559.s 			page 1


   1              		.syntax unified
   2              		.cpu cortex-m4
   3              		.fpu softvfp
   4              		.eabi_attribute 20, 1
   5              		.eabi_attribute 21, 1
   6              		.eabi_attribute 23, 3
   7              		.eabi_attribute 24, 1
   8              		.eabi_attribute 25, 1
   9              		.eabi_attribute 26, 1
  10              		.eabi_attribute 30, 2
  11              		.eabi_attribute 34, 1
  12              		.eabi_attribute 18, 4
  13              		.thumb
  14              		.file	"hal_lld.c"
  15              		.text
  16              	.Ltext0:
  17              		.section	.gnu.lto_.jmpfuncs.f38c1578119ce9d3,"",%progbits
  18 0000 789C6362 		.ascii	"x\234cb`d`g\300\0168\24143\003P\021\003\023\003\003"
  18      60646067 
  18      C00E38A1 
  18      34330350 
  18      11031303 
  19 0015 00029100 		.ascii	"\000\002\221\000\032"
  19      1A
  20              		.text
  21              		.section	.gnu.lto_.inline.f38c1578119ce9d3,"",%progbits
  22 0000 789C6362 		.ascii	"x\234cb`d\340e\300\016\254\24143\003\203\230\020#\003"
  22      6064E065 
  22      C00EACA1 
  22      34330383 
  22      98102303 
  23 0014 93DA89DF 		.ascii	"\223\332\211\337\214\014l\013\344\231\200z\304\344\200"
  23      8C0C6C0B 
  23      E499807A 
  23      C4E480
  24 0023 022A0B66 		.ascii	"\002*\013f2A\005\270\200\352\230\030\214~3\002\205\343"
  24      324105B8 
  24      80EA9818 
  24      8C7E3302 
  24      85E3
  25 0035 3AB6C941 		.ascii	":\266\311A\204\031\000\024\361\011H"
  25      84190014 
  25      F10948
  26              		.text
  27              		.section	.gnu.lto_.pureconst.f38c1578119ce9d3,"",%progbits
  28 0000 789C6362 		.ascii	"x\234cb`d`f```g\200\000f\006)F)&)\000\002\003\000b"
  28      60646066 
  28      60606067 
  28      80006606 
  28      29462926 
  29              		.text
  30              		.section	.gnu.lto_hal_lld_backup_domain_init.f38c1578119ce9d3,"",%progbits
  31 0000 789CBD94 		.ascii	"x\234\275\224\301k\023A\024\306\337\233\331\235\205"
  31      C16B1341 
  31      14C6DF9B 
  31      D99D85
  32 000f 36D04023 		.ascii	"6\320@#\322\202Zz\022\204li/\371\013\244\"\036\032\365"
ARM GAS  /tmp/ccOw7559.s 			page 2


  32      D2825A7A 
  32      12846C69 
  32      2FF90BA4 
  32      221E1AF5 
  33 0023 5288456A 		.ascii	"R\210Ej\240\207`\305z\350\311Lk\016=\026o\215\227\324"
  33      A08760C5 
  33      7AE8C94C 
  33      6B0E3D16 
  33      6F8D97D4 
  34 0037 6A8DBD78 		.ascii	"j\215\275x\026\004\245\352%HO\301s\016A\257\036\012"
  34      1604A5EA 
  34      25484FC1 
  34      730E41AF 
  34      1E0A
  35 0049 4508C46F 		.ascii	"E\010\304ovv\323U\243\3506\364%\233o\2317\363\233o\336"
  35      7676D355 
  35      A3E836F4 
  35      259B6F99 
  35      37F39B6F 
  36 005e CC4410E3 		.ascii	"\314D\020\343\363{\\\305SVD\323P\366\210\305\346\001"
  36      F37B5CC5 
  36      535644D3 
  36      50F688C5 
  36      E601
  37 0070 D1DA8410 		.ascii	"\321\332\204\020\262\226#}\321\371v\206\364\224d\307"
  37      B296237D 
  37      D1F97686 
  37      F49464C7 
  38 0080 363BC26D 		.ascii	"6;\302m\372hVo\316\243\331ee\233\025\263y\301\004e!"
  38      FA68566F 
  38      CEA3D965 
  38      659B15B3 
  38      79C10465 
  39 0095 1D5771F9 		.ascii	"\035Wq\371f0\327\320$mk\375x\363\375\372\354z\253\333"
  39      6630D7D0 
  39      246D6BFD 
  39      78F3FDFA 
  39      EC7AABDB 
  40 00a9 BD5034AD 		.ascii	"\275P4\255\013L\215\357w\307\250\310L\023dT\220\363"
  40      0B4C8DEF 
  40      77C7A8C8 
  40      4C136454 
  40      90F3
  41 00bb B3A93F0C 		.ascii	"\263\251?\014\243$\203\332^\222Qu7\311\250f5\321\272"
  41      A32483DA 
  41      5E925175 
  41      37C9A866 
  41      35D1BA
  42 00ce 924DD6AE 		.ascii	"\222M\326\256><\265\"v\306\007?\325\341\347\263\315"
  42      3E3CB522 
  42      76C6073F 
  42      D5E1E7B3 
  42      CD
  43 00df 27EAAD78 		.ascii	"'\352\255x\327\352\226\211\316I*p\215'\321\253\300\333"
  43      D7EA9689 
  43      CE492A70 
  43      8D27D1AB 
ARM GAS  /tmp/ccOw7559.s 			page 3


  43      C0DB
  44 00f1 50057D0A 		.ascii	"P\005}\012\365\240;\320a\3503h\012\372\034:\002\335"
  44      F5A03BD0 
  44      61E83368 
  44      0AFA1C3A 
  44      02DD
  45 0103 85A6A12F 		.ascii	"\205\246\241/\240\243\320:4\003}\011E\270T\321:\035"
  45      A0A3D03A 
  45      34037D09 
  45      45B854D1 
  45      3A1D
  46 0115 38313167 		.ascii	"811g\324\234\323<\314\230\027\331\240\375\371OG\252"
  46      D49CD33C 
  46      CC9817D9 
  46      A0FDF94F 
  46      47AA
  47 0127 C07BECD2 		.ascii	"\300{\354\322\"\313K\264\247+\\d)\253\264\005u\204q"
  47      22CB4BB4 
  47      A72B5C64 
  47      29ABB405 
  47      758471
  48 013a EE926EAD 		.ascii	"\356\222n\255i\207\354\273\215[\206e\271\015z\364\312"
  48      6987ECBB 
  48      8D5B8665 
  48      B90D7AF4 
  48      CA
  49 014b 98B70C07 		.ascii	"\230\267\014\007\030\323\221H\213 \271\177%\314%\200"
  49      18D39148 
  49      8B20B97F 
  49      25CC2580 
  50 015b 031720E6 		.ascii	"\003\027 \346\333^\304W\277bT\200\361H\3276B\214\327"
  50      DB5EC457 
  50      BF625480 
  50      F148D736 
  50      428CD7
  51 016e C3F42E3C 		.ascii	"\303\364.<<\276\226u7\202x\340\204&q\365\351#U\276\362"
  51      3CBE9675 
  51      378278E0 
  51      842671F5 
  51      E92355BE 
  52 0183 522F1966 		.ascii	"R/\031f\342\333\225gIT\313\231\202\345\016\217\274\376"
  52      E2DB9567 
  52      4954CB99 
  52      82E50E8F 
  52      BCFE
  53 0195 0BEAEF64 		.ascii	"\013\352\357dC\306\255\204\354\000n`\235\223\302d\314"
  53      43C6AD84 
  53      EC006E60 
  53      9D93C264 
  53      CC
  54 01a6 A373BCAB 		.ascii	"\243s\274\253\270\211\321z\206\007Q\261\0248\221w\021"
  54      B889D17A 
  54      860751B1 
  54      14389177 
  54      11
  55 01b7 94ECC397 		.ascii	"\224\354\303\227\343\222\245l*\036y\263\233M?0\203\233"
  55      E392A56C 
ARM GAS  /tmp/ccOw7559.s 			page 4


  55      2A1E79B3 
  55      9B4D3F30 
  55      839B
  56 01c9 1AF51CF9 		.ascii	"\032\365\034\371O3\375\216X\032\230\330\036\375\345"
  56      4F33FD8E 
  56      581A98D8 
  56      1EFDE5
  57 01d8 88FD031C 		.ascii	"\210\375\003\0348{\304:\343\021\177t\000\0363\300\304"
  57      387BC43A 
  57      E3117F74 
  57      001E33C0 
  57      C4
  58 01e9 EB755293 		.ascii	"\353uR\223\231\250\252\312\356\361\0011\376<,0\2129"
  58      99A8AACA 
  58      EEF10131 
  58      FE3C2C30 
  58      8A39
  59 01fb D31D4933 		.ascii	"\323\035I3\337T6\353\333\357\362\212\277t\273\344\337"
  59      DF5436EB 
  59      DBEFF28A 
  59      BF74BBE4 
  59      DF
  60 020c 5BBEFF60 		.ascii	"[\276\377`\305\277~\343\332\314\264\375\275<\263\272"
  60      C5BF7EE3 
  60      DACCB4FD 
  60      BD3CB3BA 
  61 021c 6A320BA5 		.ascii	"j2\013\245\322\235\354\"\375\000i\037NS"
  61      D29DEC22 
  61      FD00691F 
  61      4E53
  62              		.text
  63              		.section	.gnu.lto_hal_lld_init.f38c1578119ce9d3,"",%progbits
  64 0000 789CBD94 		.ascii	"x\234\275\224Ok\023Q\024\305\317}3\2236]\230@\003m\241"
  64      4F6B1351 
  64      14C5CF7D 
  64      3393365D 
  64      9840036D 
  65 0015 ADA17451 		.ascii	"\255\241tQ\020\222\376\331\350\312\215\210]\270\250"
  65      1092FED9 
  65      E8CA8D88 
  65      5DB8A8
  66 0024 D54DA106 		.ascii	"\325M\241\006\251\003.\002\021+R\334\344Y\263pY\334"
  66      A9032E02 
  66      112B52DC 
  66      E459B370 
  66      59DC
  67 0036 2954AA48 		.ascii	")T\252H\215U\360\003\270\250\264\033\221\320\317P\244"
  67      8D55F003 
  67      B8A8B41B 
  67      91D0CF50 
  67      A4
  68 0047 B8CAB208 		.ascii	"\270\312\262\010\005!=o\336LD\035\304I\2027\311\234"
  68      05213D6F 
  68      DE4C441D 
  68      C4498237 
  68      C99C
  69 0059 21E1FCEE 		.ascii	"!\341\374\356=/\363\236\202\360\365g\215\3603\323\007"
ARM GAS  /tmp/ccOw7559.s 			page 5


  69      3D2FF39E 
  69      82F0F567 
  69      8DF033D3 
  69      07
  70 006a 5CA28A03 		.ascii	"\\\242\212\003Q\033\007\300\243\274\02217\264T\225T"
  70      511B07C0 
  70      A3BC1231 
  70      37B45495 
  70      54
  71 007b 6F04CEF4 		.ascii	"o\004\316\364\004^j\375tc\177\375\312\372a\253u\326"
  71      045E6AFD 
  71      74637FFD 
  71      CAFA61AB 
  71      75D6
  72 008d 17282841 		.ascii	"\027((AI\360\365\363\307\321\021\370\"\310\303\250\202"
  72      49F0F5F3 
  72      C7D111F8 
  72      22C8C3A8 
  72      82
  73 009e FB6B9B38 		.ascii	"\373k\2338\353\205\300\332\034Kl\274\030\030\217\223"
  73      EB85C0DA 
  73      1C4B6CBC 
  73      18188F93 
  74 00ae 1A615C8D 		.ascii	"\032a\\\215\361N\\\350\250\325\324\177k\325\254oK\357"
  74      F14E5CE8 
  74      A8D5D47F 
  74      6BD5AC6F 
  74      4BEF
  75 00c0 9B3536BF 		.ascii	"\23356\277\311\217zjW}:lU\201I\205e\331\222\011\244"
  75      C98F7A6A 
  75      577D3A6C 
  75      55814985 
  75      65D99209 
  76 00d5 A8AFA803 		.ascii	"\250\257\250\003\324\327\324\014u\233\232\245\276\241"
  76      D4D7D40C 
  76      759B9AA5 
  76      BEA1
  77 00e3 0E52EBD4 		.ascii	"\016R\353\324\034\365-u\210\272C\035\246\276\243\262"
  77      1CF52D75 
  77      88BA431D 
  77      A6BEA3B2 
  78 00f3 3CD4B4CE 		.ascii	"<\324\264\316\006#\230Z0j\036\270k\234\302\3348_\260"
  78      0623985A 
  78      306A1EB8 
  78      6B9CC2DC 
  78      385FB0
  79 0106 B774B479 		.ascii	"\267t\264yfY\336\213\207\025Q\347\260\243k\342\213\343"
  79      6659DE8B 
  79      871551E7 
  79      B0A36BE2 
  79      8BE3
  80 0118 3CC733AA 		.ascii	"<\3073\252\253\314\310\036\364\326\023\355\302\336\333"
  80      ABCCC81E 
  80      F4D613ED 
  80      C2DEDB
  81 0127 BA695896 		.ascii	"\272iX\226K\310yXD\007~\363%\320be\272b!d9\321LK\315"
  81      4BC87958 
ARM GAS  /tmp/ccOw7559.s 			page 6


  81      44077EF3 
  81      25D06265 
  81      BA622164 
  82 0140 B128572A 		.ascii	"\261(W*\011K\272\314%=\314%q\271\216\333\271\006\222"
  82      094BBACC 
  82      253DCC25 
  82      71B98EDB 
  82      B90692
  83 0153 B05497B9 		.ascii	"\260T\227\271T\017s\251\270\\\215\361(W&\011\313\371"
  83      540F73A9 
  83      B85C8DF1 
  83      28572609 
  83      CBF9
  84 0165 99EBF107 		.ascii	"\231\353\361\007\007\021#K\214\235U\263\304\366\230"
  84      0711234B 
  84      8C9D55B3 
  84      C4F698
  85 0174 EF60D690 		.ascii	"\357`\326\220O\"\367*\234\243\027\337\305B\200\2078"
  85      4F22F72A 
  85      9CA317DF 
  85      C5428087 
  85      38
  86 0185 D1FDBEA4 		.ascii	"\321\375\276\244\244$\341_\345K_\030\246\336\336U\203"
  86      A424E15F 
  86      E54B5F18 
  86      A6DEDE55 
  86      83
  87 0196 49BAB9F1 		.ascii	"I\272\271\361ir\304\3304]$q\243$\271p\203\360<\213\032"
  87      6972C4D8 
  87      345D2471 
  87      A324B970 
  87      83F03C8B 
  88 01ab 0CFD0EEA 		.ascii	"\014\375\016\352\017@i\256^-\004\245\333 /~\310ab\354"
  88      0F4069AE 
  88      5E2D04A5 
  88      DB202F7E 
  88      C86162EC 
  89 01bf 90F9BF0F 		.ascii	"\220\371\277\017\371\017l\322\200\003\230\2231Zm[\013"
  89      F90F6CD2 
  89      80039893 
  89      315A6D5B 
  89      0B
  90 01d0 66A57976 		.ascii	"f\245yv\231G\310{P)\027\246\247\013\205\242}WV\213w"
  90      9947C87B 
  90      502917A6 
  90      A70B85A2 
  90      7D57568B 
  91 01e5 6E958B77 		.ascii	"n\225\213w+\367\356\257\026\027\257_\235\233\265\327"
  91      2BF7EEAF 
  91      1617AF5F 
  91      9D9BB5D7 
  92 01f5 CB736B6B 		.ascii	"\313skk\346\227R\271|\273\260bm3\301u\366\024\366Xf"
  92      E69752B9 
  92      7CBBB062 
  92      6D33C175 
  92      F614F658 
  93 020a B2       		.ascii	"\262"
ARM GAS  /tmp/ccOw7559.s 			page 7


  94              		.text
  95              		.section	.gnu.lto_stm32_clock_init.f38c1578119ce9d3,"",%progbits
  96 0000 789CBD97 		.ascii	"x\234\275\227=LSQ\024\307\317}\037\375\3764\220\010"
  96      3D4C5351 
  96      14C7CF7D 
  96      1FFDFE34 
  96      9008
  97 0012 81488180 		.ascii	"\201H\201\200IIK\312\302\252\203\321\301\001\324\205"
  97      49494BCA 
  97      C2AA83D1 
  97      C101D485 
  98 0022 04894112 		.ascii	"\004\211A\022\006\002\006\014!\014\362\304\016\014\016"
  98      0602060C 
  98      210CF2C4 
  98      0E0C0E
  99 0031 C4499DC0 		.ascii	"\304I\235\300o[>\374\266\350 *F\302\300\304\300\340"
  99      6F5B3EFC 
  99      B6E8202A 
  99      46C2C0C4 
  99      C0E0
 100 0043 C080BA30 		.ascii	"\300\200\2720\022\023\023\222\372\177\357\366\266\217"
 100      12131392 
 100      FA7FEFF6 
 100      B68F
 101 0051 D0C6F4B5 		.ascii	"\320\306\364\265\351k\313\257\271\247\367\177\317=\347"
 101      E96BCBAF 
 101      B9A7F77F 
 101      CF3DE7
 102 0060 BC7B1E12 		.ascii	"\274{\036\0221\274\216^\353\370|\366\023\305@v\214\230"
 102      31BC8E5E 
 102      EBF87CF6 
 102      13C54076 
 102      8C98
 103 0072 34BB4974 		.ascii	"4\273It\263Ab2\377\"K\301\333\337\211\264\223J\334N"
 103      B3416232 
 103      FF224BC1 
 103      DBDF89B4 
 103      934ADC4E 
 104 0086 5A7B908F 		.ascii	"Z{\220\217\207\024\246r\273*\005\270\335f\330\003|<"
 104      8714A672 
 104      BB2A05B8 
 104      DD66D803 
 104      7C3C
 105 0098 6463766E 		.ascii	"dcvn\267K~nw\030v?\037\0179\230\223\333\235\222\217"
 105      B74B7E6E 
 105      7718763F 
 105      1F0F3998 
 105      93DB9D92 
 106 00ad DB5D86DD 		.ascii	"\333]\206\335\307\307C.\346\346v\267\344\345v\217a\367"
 106      C7C7432E 
 106      E6E676B7 
 106      E4E5768F 
 106      61F7
 107 00bf F2F19087 		.ascii	"\362\361\220\2071\235\330\322\224$\007\0255`\263\373"
 107      319DD8D2 
 107      94240715 
 107      3560B3FB 
ARM GAS  /tmp/ccOw7559.s 			page 8


 108 00cf 1D4E9FCB 		.ascii	"\035N\237\313\355\365\260\251K\306F\2177\322\274\246"
 108      EDF5B0A9 
 108      4BC6468F 
 108      37D2BCA6 
 109 00df DD99FD3A 		.ascii	"\335\231\375:}vz'\235>1\240\217\3661\332X\374\351\255"
 109      7D767A27 
 109      9D3E31A0 
 109      8FF631DA 
 109      58FCE9AD 
 110 00f3 A101C6A8 		.ascii	"\241\001\306\250\201tJ\244\034\016I\201yde\322~\342"
 110      81744AA4 
 110      1C0E4981 
 110      796465D2 
 110      7EE2
 111 0105 869569EB 		.ascii	"\206\225i\353\252\225Y\273\311\361\212ml/l)\034\311"
 111      AA9559BB 
 111      C9F18A6D 
 111      6C2F6C29 
 111      1CC9
 112 0117 492BD3B6 		.ascii	"I+\323\266-\205cka\270b\341\330]\032\255\\\350\227,"
 112      2D85636B 
 112      61B862E1 
 112      D85D1AAD 
 112      5CE8972C 
 113 012b 05D1624D 		.ascii	"\005\321bM\245*XS\251\012\336,\007+\225\333\330\332"
 113      A52A5853 
 113      A90ADE2C 
 113      072B95DB 
 113      D8DA
 114 013d 870A96FD 		.ascii	"\207\012\226\375\376\177\026[K\374ak\037m\237\244\325"
 114      FE7F165B 
 114      4BFC616B 
 114      1F6D9FA4 
 114      D5
 115 014e 9DF414D1 		.ascii	"\235\364\024\321)\231z\331\034k\304\317z\331<h\003\037"
 115      29997AD9 
 115      1C6BC4CF 
 115      7AD93C68 
 115      031F
 116 0160 8076F021 		.ascii	"\200v\360!\350\002\037\201n\3601\350\003\237\200\001"
 116      E8021F81 
 116      6EF031E8 
 116      039F8001 
 117 0170 F0291804 		.ascii	"\360)\030\004\237\201U\340s\260\032L\2005`\022\254\005"
 117      9F8155E0 
 117      73B01A4C 
 117      80356012 
 117      AC05
 118 0182 17C03A70 		.ascii	"\027\300:p\021\254\007\227\300&p\031l\006_\200-\340"
 118      11AC0797 
 118      C0267019 
 118      6C065F80 
 118      2DE0
 119 0194 4BB0157C 		.ascii	"K\260\025|\005\206\301\327`\033\370\006\214\200o\301"
 119      0586C1D7 
 119      601BF806 
 119      8C806FC1 
ARM GAS  /tmp/ccOw7559.s 			page 9


 120 01a4 28F80E8C 		.ascii	"(\370\016\214\201\357A\\*\3055-`\244G\277\272t\242]"
 120      81EF415C 
 120      2AC5352D 
 120      60A447BF 
 120      BA74A25D 
 121 01b8 7463F3A0 		.ascii	"tc\363\240\274A_z\366\022\303\275,\305T\352gr\230\022"
 121      BC415F7A 
 121      F612C3BD 
 121      2CC554EA 
 121      67729812 
 122 01cc 5A9C0D30 		.ascii	"Z\234\0150Y\276O\367@E\322\003\245\22267\243)\304\277"
 122      59BE4FF7 
 122      4045D203 
 122      A5923637 
 122      A329C4BF 
 123 01e0 F3EBB2AE 		.ascii	"\363\353\262\256\304U7\350\326\262\036*\256\241@F\377"
 123      C45537E8 
 123      D6B21E2A 
 123      AEA14046 
 123      FF
 124 01f1 21B76281 		.ascii	"!\267b\201s\031\223\005m\250\361\221n&\223\336\326\014"
 124      73199305 
 124      6DA8F191 
 124      6E2693DE 
 124      D60C
 125 0203 87D139C4 		.ascii	"\207\3219\304b\266\"EI8\274\"\257\253B\304\016\035\356"
 125      62B62245 
 125      4938BC22 
 125      AFAB42C4 
 125      0E1DEE
 126 0216 318242DF 		.ascii	"1\202B\337h\355\027\273+g\215\334b\276\272X\220\030"
 126      68ED17BB 
 126      2B678DDC 
 126      62BEBA58 
 126      9018
 127 0228 5A2FEBD6 		.ascii	"Z/\353\326\335\313D\021\035FLq\025\343\0243Eq%\027E"
 127      DDCB4411 
 127      1D464C71 
 127      15E31433 
 127      45712517 
 128 023d 3764F8CA 		.ascii	"7d\370\312\007\351t\332o=\222LD\322mH\364\354\205\305"
 128      07E974DA 
 128      6F3D924C 
 128      44D26D48 
 128      F4EC85C5 
 129 0251 123E8B6E 		.ascii	"\022>\213n\226\346\206O$T5%49)\234\012\024)jJ\350v6"
 129      96E6864F 
 129      24543525 
 129      3439299C 
 129      0A14296A 
 130 0269 A141E8F0 		.ascii	"\241A\350\360\340y\214\204\306\177\233\022\032\314\227"
 130      E0798C84 
 130      C67F9B12 
 130      1ACC97
 131 0278 D08048A8 		.ascii	"\320\200H\250-\233P\364H1\245\312\352maJh5d\370\312"
 131      2D9B50F4 
 131      4831A5CA 
ARM GAS  /tmp/ccOw7559.s 			page 10


 131      EA6D614A 
 131      683564F8 
 132 028d 7FCB715F 		.ascii	"\177\313q_T\033\022\235?\026\306\213\021\0314\207M\037"
 132      541B129D 
 132      3F16C68B 
 132      11193487 
 132      4D1F
 133 029f 94454E7B 		.ascii	"\224EN{\320\246\205\2535\305x$\345?\005j!S\362) \211"
 133      D0A685AB 
 133      35C57824 
 133      E53F056A 
 133      2153F229 
 134 02b5 DDD68AA2 		.ascii	"\335\326\212\242\261\347\212\006\275^,VW\244h\336S\240"
 134      B1E78A06 
 134      BD5E2C56 
 134      57A468DE 
 134      53A0
 135 02c7 1E3A054F 		.ascii	"\036:\005O\201\372|E\343\027E\343\020E\323\271\265<"
 135      81FA7C45 
 135      E31745E3 
 135      1045D3B9 
 135      B53C
 136 02d9 59623EB4 		.ascii	"Yb>\264\365\271L\304:\367\254\210\311\207\304Ng\244"
 136      F5B94CC4 
 136      3AF7AC88 
 136      C987C44E 
 136      67A4
 137 02eb F6AD4829 		.ascii	"\366\255H)f\251vQ'\251\3549\327T\206n\321\014\031\036"
 137      66A97651 
 137      27A9EC39 
 137      D754866E 
 137      D10C191E 
 138 02ff 5B4DD31C 		.ascii	"[M\323\034e\2701\232E\2518M\245\222\3126\214\226r4\214"
 138      65B8319A 
 138      45A9384D 
 138      A592CA36 
 138      8C967234 
 139 0314 56E8649D 		.ascii	"V\350d\235\016\034\255\226\326|\325\342\023\325\342"
 139      0E1CAD96 
 139      D67CD5E2 
 139      13D5E2
 140 0323 CA55CB4A 		.ascii	"\312U\313J\201\254\330\014\247\360_\335\252p\312\016"
 140      81ACD80C 
 140      A7F05FDD 
 140      AA70CA0E 
 141 0333 8D19D9F0 		.ascii	"\215\031\331\360J5\247%\230I\013\236\331\304\352a\253"
 141      4A35A725 
 141      98490B9E 
 141      D9C4EA61 
 141      AB
 142 0344 EDC79496 		.ascii	"\355\307\224\2266\310\344n\206R\317\3746\221\023w.'"
 142      36C8E46E 
 142      8652CFFC 
 142      36911377 
 142      2E27
 143 0356 78F0138B 		.ascii	"x\360\023\213E\312q\346G\241S\360\314\217r\213\343P"
 143      45CA71E6 
ARM GAS  /tmp/ccOw7559.s 			page 11


 143      47A153F0 
 143      CC8F728B 
 143      E350
 144 0368 42BC2221 		.ascii	"B\274\"!\236\354\231\277\237s*V\214SJ\211\335Q\021\221"
 144      9EEC99BF 
 144      9F732A56 
 144      8C534A89 
 144      DD511191 
 145 037c 8A116D92 		.ascii	"\212\021m\222\376\014\3125r\3162\335G=\027\355\221H"
 145      FE0CCA35 
 145      72CE32DD 
 145      473D17ED 
 145      9148
 146 038e 94BF47C6 		.ascii	"\224\277G\306\242\203W\206\242\327FF\257\217E/\\<\337"
 146      A2835786 
 146      A2D74646 
 146      AF8F452F 
 146      5C3CDF
 147 03a1 11E37FCF 		.ascii	"\021\343\177\317tLL\350\226\276\241\241\253\221~\372"
 147      744C4CE8 
 147      96BEA1A1 
 147      AB917EFA 
 148 03b1 07BE4D26 		.ascii	"\007\276M&>"
 148      3E
 149              		.text
 150              		.section	.gnu.lto_.cgraph.f38c1578119ce9d3,"",%progbits
 151 0000 789C6362 		.ascii	"x\234cb`d`f``0a\200\002\246\211L\365\014\014\023\316"
 151      60646066 
 151      60603061 
 151      8002A689 
 151      4CF50C0C 
 152 0016 31D4D7CF 		.ascii	"1\324\327\317\355Hd\232\304T\317\010\341\315\353`d\232"
 152      ED48649A 
 152      C454CF08 
 152      E1CDEB60 
 152      649A
 153 0028 CC54CF04 		.ascii	"\314T\317\004\34713204\265\277\221g\000\000\274\330"
 153      E7313332 
 153      3034B5BF 
 153      91670000 
 153      BCD8
 154 003a 107D     		.ascii	"\020}"
 155              		.text
 156              		.section	.gnu.lto_.vars.f38c1578119ce9d3,"",%progbits
 157 0000 789C6362 		.ascii	"x\234cb`d`f```g\200\000\306\011L\014\254\365\014\000"
 157      60646066 
 157      60606067 
 157      8000C609 
 157      4C0CACF5 
 158 0016 057A0125 		.ascii	"\005z\001%"
 159              		.text
 160              		.section	.gnu.lto_.refs.f38c1578119ce9d3,"",%progbits
 161 0000 789C6362 		.ascii	"x\234cb`d`f```b\200\001\000\000\204\000\011"
 161      60646066 
 161      60606062 
 161      80010000 
 161      840009
ARM GAS  /tmp/ccOw7559.s 			page 12


 162              		.text
 163              		.section	.gnu.lto_.statics.f38c1578119ce9d3,"",%progbits
 164 0000 789C6362 		.ascii	"x\234cb`d`b\300\016@\342\214\020&\000\000\375\000\011"
 164      60646062 
 164      C00E40E2 
 164      8C102600 
 164      00FD0009 
 165              		.text
 166              		.section	.gnu.lto_.decls.f38c1578119ce9d3,"",%progbits
 167 0000 789CAD96 		.ascii	"x\234\255\226}L\034E\024\300g\366N\270\223\217\226&"
 167      7D4C1C45 
 167      14C067F6 
 167      4EB8938F 
 167      9626
 168 0012 6D6AA396 		.ascii	"mj\243\226\032k\014Io\371h\242\3774)\034P\210\266%{"
 168      1A6B0C49 
 168      6FF968A2 
 168      FF34291C 
 168      5088B625 
 169 0027 D44ACCE6 		.ascii	"\324J\314\346r\034\207\\\012w\204;\022\232\370\261B"
 169      721C875C 
 169      0A77843B 
 169      129AF8B1 
 169      42
 170 0038 638C3111 		.ascii	"c\2141\021ML\374\247\346\252\245\322\330\246)\211\255"
 170      4D4CFCA7 
 170      E6AAA5D2 
 170      D8A62989 
 170      AD
 171 0049 B6340542 		.ascii	"\2664\005B\010\321\263VJ\251-\244\020$X\001\001\033"
 171      08D1B356 
 171      4AA92DA4 
 171      10245801 
 171      011B
 172 005b A255A9E7 		.ascii	"\242U\251\347\233\331\335\341>v\357\243a\302{777\363"
 172      9BD9DDE1 
 172      3E76EFA3 
 172      61C27B37 
 172      3737F3
 173 006e 7B6FDE9B 		.ascii	"{o\336\233y\014\2070\"\255\024>B\320^\313Ah\016\372"
 173      790C8730 
 173      22AD143E 
 173      42D05ECB 
 173      41680EFA 
 174 0082 4618DB83 		.ascii	"F\030\333\203\326\232\001$\000\322\005\322\015BV}\205"
 174      D69A0124 
 174      00D205D2 
 174      0D42567D 
 174      85
 175 0093 221BF9DD 		.ascii	"\"\033\371\335\004\222\016\222\015\222\011r\036\244"
 175      04920E92 
 175      0D920972 
 175      1EA4
 176 00a1 07E43248 		.ascii	"\007\3442H/\310m\020\016\344\"\310u\205\023@\261\215"
 176      2FC86D10 
 176      0EE422C8 
 176      75851340 
ARM GAS  /tmp/ccOw7559.s 			page 13


 176      B18D
 177 00b3 D8795C83 		.ascii	"\330y\\\203\2452\356\200\234\000\031\007\231\003I\003"
 177      A532EE80 
 177      9C001907 
 177      99034903 
 178 00c3 B901320C 		.ascii	"\271\0012\0142\004r\015$\0102\245\330\353\322\261\323"
 178      3204720D 
 178      240832A5 
 178      D8EBD2B1 
 178      D3
 179 00d4 ADE3B36A 		.ascii	"\255\343\263jg\036\311N\022~?\310\000\310\010\310M\220"
 179      671EC94E 
 179      127E3FC8 
 179      00C808C8 
 179      4D90
 180 00e6 5B20CBCA 		.ascii	"[ \313\312\036\2725\330\333\321gR\337rg\207T\361 \024"
 180      1EBA35D8 
 180      DBD16752 
 180      DF726787 
 180      54F12014 
 181 00fa 4ADF823E 		.ascii	"J\337\202>\221\240\005\336\225$\354\027\361\236\315"
 181      91A005DE 
 181      9524EC17 
 181      F19ECD
 182 0109 E80924E2 		.ascii	"\350\011$\342l3B\271\264\227i\226\243\216\240\177\002"
 182      6C3342B9 
 182      B4976996 
 182      A38EA07F 
 182      02
 183 011a 6F517AD5 		.ascii	"oQz\325\006\231\305!\016\243<tZ\242M\316\231\222:\364"
 183      0699C521 
 183      0EA33C74 
 183      5AA24DCE 
 183      99923AF4 
 184 012e 14EA99FB 		.ascii	"\024\352\231\373=[\265\372\034\352\"S\372\332\267R#"
 184      3D5BB5FA 
 184      1CEA2253 
 184      FADAB752 
 184      23
 185 013f 0412C0DB 		.ascii	"\004\022\300\333#\034\023\361\347\230\213\36640\245"
 185      231C13F1 
 185      E7988BF6 
 185      3430A5
 186 014e 7A2ADBE7 		.ascii	"z*\333\347\320!\0143\277\300y(x|[\034zW\014\375T2\364"
 186      D0210C33 
 186      BFC07928 
 186      787C5B1C 
 186      7A570CFD 
 187 0165 5A953E98 		.ascii	"Z\225>\230\027\007\336\035\003?\035\011\177\006\235"
 187      1707DE1D 
 187      033F1D09 
 187      7F069D
 188 0174 90020304 		.ascii	"\220\002\003\004.M\205B\333\315\350=Ij'Q\256\030\206"
 188      2E4D8542 
 188      DBCDE83D 
 188      496A2751 
 188      AE1886
ARM GAS  /tmp/ccOw7559.s 			page 14


 189 0187 90688778 		.ascii	"\220h\207x':)I\235$\216\">\203\315\340\214Ou\346\376"
 189      273A2949 
 189      9D248E22 
 189      3E83CDE0 
 189      8C4F75E6 
 190 019c 873F0DF1 		.ascii	"\207?\015\361\252\251ts\244i\370.\317\222\301\362\317"
 190      AAA97473 
 190      A469F82E 
 190      CF92C1F2 
 190      CF
 191 01ad 6A8FDC9E 		.ascii	"j\217\334\236\015$QcX\205\365\374s:K?\311\347`#O\243"
 191      0D245163 
 191      5885F5FC 
 191      733A4B3F 
 191      C9E76023 
 192 01c3 597C5C32 		.ascii	"Y|\\2!\025D\274A\322\317\177@\372\351N:\022\354D\304"
 192      211544BC 
 192      41D2CF7F 
 192      40FAE94E 
 192      3A12EC44 
 193 01d8 67F1CE24 		.ascii	"g\361\316$=\333\204>\242\007po8n/\303\231\242\002\323"
 193      3DDB843E 
 193      A207706F 
 193      386E2FC3 
 193      99A202D3 
 194 01ec 8337C166 		.ascii	"\2037\301fV\331f\246O\036\237T\016c\022$\342\332\327"
 194      56D966A6 
 194      4F1E9F54 
 194      0E631224 
 194      E2DAD7
 195 01ff 4090D752 		.ascii	"@\220\327R\256$s\311(R\306GW\353Ql\343v\240\200t\254"
 195      AE2473C9 
 195      2852C647 
 195      57EB516C 
 195      E376A080 
 196 0215 83E4344D 		.ascii	"\203\3444M\304\347i\202.qX!\316\254\236\302\332\301"
 196      C4E76982 
 196      2E715821 
 196      CEAC9EC2 
 196      DAC1
 197 0227 50FB8885 		.ascii	"P\373\210\2053{-\201\032\314+\214\271\360F*\304\\\015"
 197      337B2D81 
 197      1ACC2B8C 
 197      B9F0462A 
 197      C45C0D
 198 023a 9F63B62C 		.ascii	"\237c\266,\342\013\220\031N\304\027\361\016\370\362"
 198      E20B9019 
 198      4EC417F1 
 198      0EF8F2
 199 0249 2D68A565 		.ascii	"-h\245e\240\367\327\216\250\034g\375Cr\031g\250\353"
 199      A0F7D78E 
 199      A81C67FD 
 199      43721967 
 199      A8EB
 200 025b 94A8E786 		.ascii	"\224\250\347\206\007=``+vG\345\257\227\346\257\237S"
 200      073D6060 
 200      2B7647E5 
ARM GAS  /tmp/ccOw7559.s 			page 15


 200      AF97E6AF 
 200      9F53
 201 026d F3371ACA 		.ascii	"\3637\032\312N\232C,_\325\314\336\325\260\354M<\324"
 201      4E9A432C 
 201      5FD5CCDE 
 201      D5B0EC4D 
 201      3CD4
 202 027f CA5E564C 		.ascii	"\312^VL\244E\374\015\034uy\355\302\303\365\312\336\017"
 202      A445FC0D 
 202      1C7579ED 
 202      C2C3F5CA 
 202      DE0F
 203 0291 746784B9 		.ascii	"tg\204\271\362\346#dO\2038\302\210\253\011\210\246$"
 203      F2E62364 
 203      4F8338C2 
 203      88AB0988 
 203      A624
 204 02a3 7D1C63C4 		.ascii	"}\034c\304\301\267R!\352\3738\311\210\301\004\304\215"
 204      C1B75221 
 204      EAFB38C9 
 204      88C104C4 
 204      8D
 205 02b4 49FA788F 		.ascii	"I\372x\217\021GS\"\352\373\270\304\210\023\011\210["
 205      11475322 
 205      EAFBB8C4 
 205      88130988 
 205      5B
 206 02c5 93F4F12F 		.ascii	"\223\364\361/F\234I\211\250\357c\210\021\027\022\020"
 206      469C4989 
 206      A8EF6388 
 206      11171210 
 207 02d5 7393F251 		.ascii	"s\223\362Q\304\227\330\031_I\211\250\357\3431\003;\217"
 207      C497D819 
 207      5F4989A8 
 207      EFE33103 
 207      3B8F
 208 02e7 0988CF27 		.ascii	"\011\210\317'\031\307\017\030q\360\355T\210\372>~\314"
 208      19C70F18 
 208      71F0ED54 
 208      88FA3E7E 
 208      CC
 209 02f8 88C104C4 		.ascii	"\210\301\004\304|-\037c[x\341\021q\037\324\320,\021"
 209      7C2D1F63 
 209      5B78E111 
 209      711FD4D0 
 209      2C11
 210 030a F7D31A3A 		.ascii	"\367\323\032:@\365 \325CT\017S\375\035\325A\252\257"
 210      40F520D5 
 210      43540F53 
 210      FD1DD541 
 210      AAAF
 211 031c 517D9DEA 		.ascii	"Q}\235\352\021\252oP}\223\352[\272U\2707n\025\276\275"
 211      11AA6F50 
 211      7D93EA5B 
 211      BA55B837 
 211      6E15BEBD 
 212 0330 5685A3D6 		.ascii	"V\205\243\326\221\267\214\376\272;\361\253\367\024f"
ARM GAS  /tmp/ccOw7559.s 			page 16


 212      91B78CFE 
 212      BA3BF1AB 
 212      F71466
 213 033f 2B9E4491 		.ascii	"+\236D\221\325{\234V\357O\015j\365\236Y\212S\275\243"
 213      D57B9C56 
 213      EF4F0D6A 
 213      F59E598A 
 213      53BDA3
 214 0352 38C4F25D 		.ascii	"8\304\362]\315\352}7\254z\257,jUo\243F\216\277\244^"
 214      CDEA7D37 
 214      AC7AAF2C 
 214      6A556FA3 
 214      468EBFA4 
 215 0367 90B5834B 		.ascii	"\220\265\203K\217\\\275\245v\205)?\270\3162f\320\373"
 215      8F5CBDA5 
 215      7685293F 
 215      B8CE3266 
 215      D0FB
 216 0379 A8D5FB1D 		.ascii	"\250\325\373\035\210UEZ\016\352\244\217\021I~W\023\227"
 216      8855455A 
 216      0EEAA48F 
 216      11497E57 
 216      1397
 217 038b D5C9D25A 		.ascii	"\325\311\322Z\\\344\332\0255\367L\274\271\"\236\305"
 217      5CE4DA15 
 217      35F74CBC 
 217      B9229EC5 
 218 039b 39B4475F 		.ascii	"9\264G_b\022Ky\2469N\306\177\305f\346o\2469\274g\210"
 218      62124B79 
 218      A6394EC6 
 218      7FC566E6 
 218      6FA639BC 
 219 03b1 38E4EA3C 		.ascii	"8\344\352<\010\305\005\026\212Q\257\2167\251\375\337"
 219      08C50516 
 219      8A51AF8E 
 219      37A9FDDF 
 220 03c1 11F118AD 		.ascii	"\021\361\030\255E\0049\221 \272\232\0258\266\205\037"
 220      45043991 
 220      20BA9A15 
 220      38B6851F 
 221 03d1 28114FC2 		.ascii	"(\021O\302\2554\212x\212\336\251i\252g\250\376M\367"
 221      AD348A78 
 221      8ADEA969 
 221      AA67A8FE 
 221      4DF7
 222 03e3 7E8DC7BD 		.ascii	"~\215\307\275_s\011^9\034[\361,\212\274'\363\364\236"
 222      5F73095E 
 222      391C5BF1 
 222      2C8ABC27 
 222      F3F49E
 223 03f6 5C61F764 		.ascii	"\\a\367d\345^\274WN$\207X^\324\274'\213\341o\324I\255"
 223      E55EBC57 
 223      4E248758 
 223      5ED4BC27 
 223      8BE16FD4 
 224 040c 7B62D6B8 		.ascii	"{b\326\270'\337S/\310\332\231\311\365z\345\374\310\230"
 224      27DF532F 
ARM GAS  /tmp/ccOw7559.s 			page 17


 224      C8DA99C9 
 224      F57AE5FC 
 224      C898
 225 041e 0BF6F579 		.ascii	"\013\366\365y\345\2142\342J\002b\262\257\234\011F\\"
 225      E58C32E2 
 225      4A0262B2 
 225      AF9C0946 
 225      5C
 226 042f 4D89A8E7 		.ascii	"M\211\250\347\243\372^$\304\301\206\365y\345L2\037\203"
 226      A3FA5E24 
 226      C4C186F5 
 226      79E54C32 
 226      1F83
 227 0441 2911C37C 		.ascii	")\021\303|\214\250`\"\376\205\3718\232\200\230\354+"
 227      8CA86022 
 227      FE85F938 
 227      9A8098EC 
 227      2B
 228 0452 679AF938 		.ascii	"g\232\3718\221\022Q?\327\263k'2\0011W\313\307\330\026"
 228      9112513F 
 228      D7B36B27 
 228      32013157 
 228      CBC7D816 
 229 0466 7E6144BC 		.ascii	"~aD\274\004u\300,\342ez\367\357S\275B\365\237T?\240"
 229      0475C02C 
 229      E2657AF7 
 229      EF53BD42 
 229      F59F543F 
 230 047b FA6FAAFF 		.ascii	"\372o\252\377\245z\225\352\377t\253\304|\334*!q\254"
 230      A57A95EA 
 230      FF74ABC4 
 230      7CDC2A21 
 230      71AC
 231 048d 4AA06D0D 		.ascii	"J\240m\015\216F{cc\235\275\326\341<\322\332l\257\363"
 231      8E467B63 
 231      639DBDD6 
 231      E13CD2DA 
 231      6CAFF3
 232 04a0 3639DC1E 		.ascii	"69\334\036\273\333\343\366\247\355;p(\327\212\362-\026"
 232      BBDBE3F6 
 232      A7ED3B70 
 232      28D78AF2 
 232      2D16
 233 04b2 5EFEF3FA 		.ascii	"^\376\363\372x\230\3157{[\374>\336V\275\277\250P\326"
 233      7898CD37 
 233      7B5BFC3E 
 233      DE56BDBF 
 233      A850D6
 234 04c5 E5456D6D 		.ascii	"\345Emm\274\302\2618Q\246\212$\220\215>\177SQ\241\335"
 234      BCC2B138 
 234      51A68A24 
 234      908D3E7F 
 234      5351A1DD 
 235 04d9 D9E8751E 		.ascii	"\331\350u\036\241\003\246V\267\307\017#\376\032\276"
 235      A103A656 
 235      B7C70F23 
 235      FE1ABE
ARM GAS  /tmp/ccOw7559.s 			page 18


 236 04e8 D5D7C2C3 		.ascii	"\325\327\302\3038 k\335\036b\240\321]\313\277\356t\362"
 236      38206BDD 
 236      1E62A0D1 
 236      5DCBBFEE 
 236      74F2
 237 04fa 8E96A65D 		.ascii	"\216\226\246]\036\257\307\265\313\345\250u\363\273-"
 237      1EAFC7B5 
 237      CBE5A875 
 237      F3BB2D
 238 0509 2F580A79 		.ascii	"/X\012y\346\005\374E\376\356\3668\033[\353\\\274\317"
 238      E605FC45 
 238      FEEEF638 
 238      1B5BEB5C 
 238      BCCF
 239 051b 5F07684B 		.ascii	"_\007hK\003\332`;\352\363\273\232\254\336\026\227\225"
 239      03DA603B 
 239      EAF3BB9A 
 239      ACDE1697 
 239      95
 240 052c D8DD6CA9 		.ascii	"\330\335l\251s\370\035\226\250\321\214\252\303\202\275"
 240      73F81D96 
 240      A8D18CAA 
 240      C382BD
 241 053b FA68B3AB 		.ascii	"\372h\263\253\324U_\020\276GW\233\237\267\356\267U\332"
 241      D4555F10 
 241      BE47579B 
 241      9FB7EEB7 
 241      55DA
 242 054d 6077611B 		.ascii	"`wa\033\244\033\251/\312/l{\021lpV\301`\265\011\031"
 242      A41BA92F 
 242      CA2F6C7B 
 242      116C7056 
 242      C160B509 
 243 0562 82D5AA42 		.ascii	"\202\325\252B\214\326\362}0X)\230\212\253J\012\005["
 243      8CD6F27D 
 243      30582998 
 243      8AAB4A0A 
 243      055B
 244 0574 35ED1490 		.ascii	"5\355\024\220NZqEI\331\001!\235\374\240|\026\300\247"
 244      4E5A7145 
 244      49D90121 
 244      9DFCA07C 
 244      16C0A7
 245 0587 B1A4D40A 		.ascii	"\261\244\324\012_*J\310\234\307\310\362B\252\213\262"
 245      5F2A4AC8 
 245      9CC7C8F2 
 245      42AA8BB2 
 246 0597 6D3536E8 		.ascii	"m56\350\250d:X`\022\312le\302+e\245ie\257VWZ\205\254"
 246      A8643A58 
 246      6012CA6C 
 246      65C22B65 
 246      A56965AF 
 247 05b0 F2978B6D 		.ascii	"\362\227\213m\025\352\034C\261U0\276TV#\244\037\254"
 247      15EA1C43 
 247      B15530BE 
 247      545623A4 
 247      1FAC
ARM GAS  /tmp/ccOw7559.s 			page 19


 248 05c2 AA269F9C 		.ascii	"\252&\237\234M\340\212\005\303\301\022\301xX\250\022"
 248      4DE08A05 
 248      C3C112C1 
 248      7858A812 
 249 05d2 FE074BA9 		.ascii	"\376\007K\251n\374"
 249      6EFC
 250              		.text
 251              		.section	.gnu.lto_.symtab.f38c1578119ce9d3,"",%progbits
 252 0000 68616C5F 		.ascii	"hal_lld_init\000\000\000\000\000\000\000\000\000\000"
 252      6C6C645F 
 252      696E6974 
 252      00000000 
 252      00000000 
 253 0016 0000A500 		.ascii	"\000\000\245\000\000\000stm32_clock_init\000\000\000"
 253      00007374 
 253      6D33325F 
 253      636C6F63 
 253      6B5F696E 
 254 002f 00000000 		.ascii	"\000\000\000\000\000\000\000\000\000\250\000\000\000"
 254      00000000 
 254      00A80000 
 254      00
 255 003c 53797374 		.ascii	"SystemCoreClock\000\000\000\000\000\000\000\000\000"
 255      656D436F 
 255      7265436C 
 255      6F636B00 
 255      00000000 
 256 0054 000000AB 		.ascii	"\000\000\000\253\000\000\000"
 256      000000
 257              		.text
 258              		.section	.gnu.lto_.opts,"",%progbits
 259 0000 272D6D63 		.ascii	"'-mcpu=cortex-m4''-mno-thumb-interwork''-mthumb''-g"
 259      70753D63 
 259      6F727465 
 259      782D6D34 
 259      27272D6D 
 260 0033 67646227 		.ascii	"gdb''-O2''-fomit-frame-pointer''-falign-functions=1"
 260      272D4F32 
 260      27272D66 
 260      6F6D6974 
 260      2D667261 
 261 0066 3627272D 		.ascii	"6''-ffunction-sections''-fdata-sections''-fno-commo"
 261      6666756E 
 261      6374696F 
 261      6E2D7365 
 261      6374696F 
 262 0099 6E27272D 		.ascii	"n''-flto'\000"
 262      666C746F 
 262      2700
 263              		.text
 264              		.cfi_sections	.debug_frame
 265              		.section	.text.hal_lld_init,"ax",%progbits
 266              		.align	2
 267              		.p2align 4,,15
 268              		.global	hal_lld_init
 269              		.thumb
 270              		.thumb_func
ARM GAS  /tmp/ccOw7559.s 			page 20


 271              		.type	hal_lld_init, %function
 272              	hal_lld_init:
 273              	.LFB273:
 274              		.file 1 "../../../os/hal/ports/STM32/STM32F3xx/hal_lld.c"
 275              		.loc 1 105 0
 276              		.cfi_startproc
 277              		@ args = 0, pretend = 0, frame = 0
 278              		@ frame_needed = 0, uses_anonymous_args = 0
 279              		@ link register save eliminated.
 280              		.loc 1 108 0
 281 0000 4FF48053 		mov	r3, #4096
 282 0004 C4F20203 		movt	r3, 16386
 283 0008 0022     		movs	r2, #0
 284 000a 4FF0FF31 		mov	r1, #-1
 285 000e 986A     		ldr	r0, [r3, #40]
 286 0010 9962     		str	r1, [r3, #40]
 287 0012 9A62     		str	r2, [r3, #40]
 288              		.loc 1 109 0
 289 0014 1869     		ldr	r0, [r3, #16]
 290 0016 1961     		str	r1, [r3, #16]
 291 0018 1A61     		str	r2, [r3, #16]
 292              		.loc 1 110 0
 293 001a D868     		ldr	r0, [r3, #12]
 294 001c D960     		str	r1, [r3, #12]
 295 001e DA60     		str	r2, [r3, #12]
 296              		.loc 1 113 0
 297 0020 D869     		ldr	r0, [r3, #28]
 298              	.LBB4:
 299              	.LBB5:
 300              		.loc 1 57 0
 301 0022 4FF4E041 		mov	r1, #28672
 302 0026 C4F20001 		movt	r1, 16384
 303              	.LBE5:
 304              	.LBE4:
 305              		.loc 1 113 0
 306 002a 40F08050 		orr	r0, r0, #268435456
 307 002e D861     		str	r0, [r3, #28]
 308              	.LBB7:
 309              	.LBB6:
 310              		.loc 1 57 0
 311 0030 0868     		ldr	r0, [r1, #0]
 312 0032 40F48070 		orr	r0, r0, #256
 313 0036 0860     		str	r0, [r1, #0]
 314              		.loc 1 60 0
 315 0038 196A     		ldr	r1, [r3, #32]
 316 003a 01F44071 		and	r1, r1, #768
 317 003e B1F5007F 		cmp	r1, #512
 318              		.loc 1 62 0
 319 0042 1EBF     		ittt	ne
 320 0044 4FF48031 		movne	r1, #65536
 321 0048 1962     		strne	r1, [r3, #32]
 322              		.loc 1 63 0
 323 004a 1A62     		strne	r2, [r3, #32]
 324              		.loc 1 82 0
 325 004c 4FF48053 		mov	r3, #4096
 326 0050 C4F20203 		movt	r3, 16386
 327 0054 1A6A     		ldr	r2, [r3, #32]
ARM GAS  /tmp/ccOw7559.s 			page 21


 328 0056 1204     		lsls	r2, r2, #16
 329 0058 07D4     		bmi	.L3
 330              		.loc 1 84 0
 331 005a 1A6A     		ldr	r2, [r3, #32]
 332 005c 42F40072 		orr	r2, r2, #512
 333 0060 1A62     		str	r2, [r3, #32]
 334              		.loc 1 87 0
 335 0062 1A6A     		ldr	r2, [r3, #32]
 336 0064 42F40042 		orr	r2, r2, #32768
 337 0068 1A62     		str	r2, [r3, #32]
 338              	.L3:
 339              	.LBE6:
 340              	.LBE7:
 341              		.loc 1 129 0
 342 006a 4FF48052 		mov	r2, #4096
 343 006e C4F20202 		movt	r2, 16386
 344              		.loc 1 133 0
 345 0072 0023     		movs	r3, #0
 346              		.loc 1 129 0
 347 0074 9169     		ldr	r1, [r2, #24]
 348              		.loc 1 133 0
 349 0076 C4F20103 		movt	r3, 16385
 350              		.loc 1 129 0
 351 007a 41F00101 		orr	r1, r1, #1
 352 007e 9161     		str	r1, [r2, #24]
 353              		.loc 1 133 0
 354 0080 1A68     		ldr	r2, [r3, #0]
 355 0082 42F02002 		orr	r2, r2, #32
 356 0086 1A60     		str	r2, [r3, #0]
 357 0088 7047     		bx	lr
 358              		.cfi_endproc
 359              	.LFE273:
 360              		.size	hal_lld_init, .-hal_lld_init
 361 008a 00BFAFF3 		.section	.text.stm32_clock_init,"ax",%progbits
 361      0080
 362              		.align	2
 363              		.p2align 4,,15
 364              		.global	stm32_clock_init
 365              		.thumb
 366              		.thumb_func
 367              		.type	stm32_clock_init, %function
 368              	stm32_clock_init:
 369              	.LFB274:
 370              		.loc 1 144 0
 371              		.cfi_startproc
 372              		@ args = 0, pretend = 0, frame = 0
 373              		@ frame_needed = 0, uses_anonymous_args = 0
 374              		@ link register save eliminated.
 375              		.loc 1 149 0
 376 0000 4FF48053 		mov	r3, #4096
 377 0004 C4F20203 		movt	r3, 16386
 378              		.loc 1 150 0
 379 0008 1946     		mov	r1, r3
 380              		.loc 1 149 0
 381 000a 1A68     		ldr	r2, [r3, #0]
 382 000c 42F00102 		orr	r2, r2, #1
 383 0010 1A60     		str	r2, [r3, #0]
ARM GAS  /tmp/ccOw7559.s 			page 22


 384              	.L9:
 385              		.loc 1 150 0 discriminator 1
 386 0012 0A68     		ldr	r2, [r1, #0]
 387 0014 4FF48053 		mov	r3, #4096
 388 0018 9207     		lsls	r2, r2, #30
 389 001a C4F20203 		movt	r3, 16386
 390 001e F8D5     		bpl	.L9
 391              		.loc 1 156 0
 392 0020 5A68     		ldr	r2, [r3, #4]
 393 0022 22F00302 		bic	r2, r2, #3
 394 0026 5A60     		str	r2, [r3, #4]
 395              		.loc 1 157 0
 396 0028 5A68     		ldr	r2, [r3, #4]
 397              		.loc 1 158 0
 398 002a 1946     		mov	r1, r3
 399              		.loc 1 157 0
 400 002c 5A60     		str	r2, [r3, #4]
 401              	.L10:
 402              		.loc 1 158 0 discriminator 1
 403 002e 4B68     		ldr	r3, [r1, #4]
 404 0030 4FF48052 		mov	r2, #4096
 405 0034 13F00C03 		ands	r3, r3, #12
 406 0038 C4F20202 		movt	r2, 16386
 407 003c F7D1     		bne	.L10
 408              		.loc 1 162 0
 409 003e 1168     		ldr	r1, [r2, #0]
 410 0040 01F0F901 		and	r1, r1, #249
 411 0044 1160     		str	r1, [r2, #0]
 412              		.loc 1 163 0
 413 0046 5360     		str	r3, [r2, #4]
 414              		.loc 1 180 0
 415 0048 536A     		ldr	r3, [r2, #36]
 416 004a 43F00103 		orr	r3, r3, #1
 417 004e 5362     		str	r3, [r2, #36]
 418              	.L11:
 419              		.loc 1 181 0 discriminator 1
 420 0050 516A     		ldr	r1, [r2, #36]
 421 0052 4FF48053 		mov	r3, #4096
 422 0056 8807     		lsls	r0, r1, #30
 423 0058 C4F20203 		movt	r3, 16386
 424 005c F8D5     		bpl	.L11
 425              		.loc 1 186 0
 426 005e 4FF41052 		mov	r2, #9216
 427 0062 C0F22802 		movt	r2, 40
 428 0066 5A60     		str	r2, [r3, #4]
 429              		.loc 1 189 0
 430 0068 4FF40452 		mov	r2, #8448
 431 006c DA62     		str	r2, [r3, #44]
 432              		.loc 1 190 0
 433 006e 3022     		movs	r2, #48
 434 0070 1A63     		str	r2, [r3, #48]
 435              		.loc 1 196 0
 436 0072 1A68     		ldr	r2, [r3, #0]
 437 0074 42F08072 		orr	r2, r2, #16777216
 438 0078 1A60     		str	r2, [r3, #0]
 439              	.L12:
 440              		.loc 1 197 0 discriminator 1
ARM GAS  /tmp/ccOw7559.s 			page 23


 441 007a 1968     		ldr	r1, [r3, #0]
 442 007c 4FF48052 		mov	r2, #4096
 443 0080 8901     		lsls	r1, r1, #6
 444 0082 C4F20202 		movt	r2, 16386
 445 0086 F8D5     		bpl	.L12
 446              		.loc 1 202 0
 447 0088 4FF40053 		mov	r3, #8192
 448 008c C4F20203 		movt	r3, 16386
 449 0090 1121     		movs	r1, #17
 450 0092 1960     		str	r1, [r3, #0]
 451              		.loc 1 207 0
 452 0094 5368     		ldr	r3, [r2, #4]
 453 0096 43F00203 		orr	r3, r3, #2
 454 009a 5360     		str	r3, [r2, #4]
 455              	.L13:
 456              		.loc 1 208 0 discriminator 1
 457 009c 5168     		ldr	r1, [r2, #4]
 458 009e 01F00C01 		and	r1, r1, #12
 459 00a2 4FF48053 		mov	r3, #4096
 460 00a6 0829     		cmp	r1, #8
 461 00a8 C4F20203 		movt	r3, 16386
 462 00ac F6D1     		bne	.L13
 463              		.loc 1 214 0
 464 00ae 1A6B     		ldr	r2, [r3, #48]
 465 00b0 1A63     		str	r2, [r3, #48]
 466 00b2 7047     		bx	lr
 467              		.cfi_endproc
 468              	.LFE274:
 469              		.size	stm32_clock_init, .-stm32_clock_init
 470              		.global	SystemCoreClock
 471 00b4 AFF30080 		.section	.data.SystemCoreClock,"aw",%progbits
 471      AFF30080 
 471      AFF30080 
 472              		.align	2
 473              		.type	SystemCoreClock, %object
 474              		.size	SystemCoreClock, 4
 475              	SystemCoreClock:
 476 0000 006CDC02 		.word	48000000
 477              		.text
 478              	.Letext0:
 479              		.file 2 "/usr/local/bin/../lib/gcc/arm-none-eabi/4.7.2/include/stddef.h"
 480              		.file 3 "/usr/local/bin/../lib/gcc/arm-none-eabi/4.7.2/../../../../arm-none-eabi/include/stdint.h"
 481              		.file 4 "../../../os/rt/ports/ARMCMx/compilers/GCC/chtypes.h"
 482              		.file 5 "../../../os/rt/include/chsystypes.h"
 483              		.file 6 "../../../os/rt/include/chschd.h"
 484              		.file 7 "../../../os/ext/CMSIS/ST/STM32F3xx/stm32f302x8.h"
 485              		.file 8 "../../../os/rt/ports/ARMCMx/chcore.h"
 486              		.file 9 "../../../os/rt/ports/ARMCMx/chcore_v7m.h"
 487              		.file 10 "../../../os/rt/include/chtm.h"
 488              		.file 11 "../../../os/rt/include/chsem.h"
 489              		.file 12 "../../../os/rt/include/chmtx.h"
 490              		.file 13 "../../../os/ext/CMSIS/include/core_cm4.h"
 491              		.section	.debug_info,"",%progbits
 492              	.Ldebug_info0:
 493 0000 FE080000 		.4byte	0x8fe
 494 0004 0200     		.2byte	0x2
 495 0006 00000000 		.4byte	.Ldebug_abbrev0
ARM GAS  /tmp/ccOw7559.s 			page 24


 496 000a 04       		.byte	0x4
 497 000b 01       		.uleb128 0x1
 498 000c 56030000 		.4byte	.LASF121
 499 0010 01       		.byte	0x1
 500 0011 80000000 		.4byte	.LASF122
 501 0015 0C020000 		.4byte	.LASF123
 502 0019 18000000 		.4byte	.Ldebug_ranges0+0x18
 503 001d 00000000 		.4byte	0
 504 0021 00000000 		.4byte	0
 505 0025 00000000 		.4byte	.Ldebug_line0
 506 0029 02       		.uleb128 0x2
 507 002a 04       		.byte	0x4
 508 002b 05       		.byte	0x5
 509 002c 696E7400 		.ascii	"int\000"
 510 0030 03       		.uleb128 0x3
 511 0031 0D000000 		.4byte	.LASF2
 512 0035 02       		.byte	0x2
 513 0036 D5       		.byte	0xd5
 514 0037 3B000000 		.4byte	0x3b
 515 003b 04       		.uleb128 0x4
 516 003c 04       		.byte	0x4
 517 003d 07       		.byte	0x7
 518 003e B0010000 		.4byte	.LASF0
 519 0042 04       		.uleb128 0x4
 520 0043 01       		.byte	0x1
 521 0044 06       		.byte	0x6
 522 0045 E3000000 		.4byte	.LASF1
 523 0049 03       		.uleb128 0x3
 524 004a 3F050000 		.4byte	.LASF3
 525 004e 03       		.byte	0x3
 526 004f 2A       		.byte	0x2a
 527 0050 54000000 		.4byte	0x54
 528 0054 04       		.uleb128 0x4
 529 0055 01       		.byte	0x1
 530 0056 08       		.byte	0x8
 531 0057 CE030000 		.4byte	.LASF4
 532 005b 04       		.uleb128 0x4
 533 005c 02       		.byte	0x2
 534 005d 05       		.byte	0x5
 535 005e E6030000 		.4byte	.LASF5
 536 0062 04       		.uleb128 0x4
 537 0063 02       		.byte	0x2
 538 0064 07       		.byte	0x7
 539 0065 F9010000 		.4byte	.LASF6
 540 0069 03       		.uleb128 0x3
 541 006a C6030000 		.4byte	.LASF7
 542 006e 03       		.byte	0x3
 543 006f 4F       		.byte	0x4f
 544 0070 74000000 		.4byte	0x74
 545 0074 04       		.uleb128 0x4
 546 0075 04       		.byte	0x4
 547 0076 05       		.byte	0x5
 548 0077 30010000 		.4byte	.LASF8
 549 007b 03       		.uleb128 0x3
 550 007c 48040000 		.4byte	.LASF9
 551 0080 03       		.byte	0x3
 552 0081 50       		.byte	0x50
ARM GAS  /tmp/ccOw7559.s 			page 25


 553 0082 86000000 		.4byte	0x86
 554 0086 04       		.uleb128 0x4
 555 0087 04       		.byte	0x4
 556 0088 07       		.byte	0x7
 557 0089 79040000 		.4byte	.LASF10
 558 008d 04       		.uleb128 0x4
 559 008e 08       		.byte	0x8
 560 008f 05       		.byte	0x5
 561 0090 D5000000 		.4byte	.LASF11
 562 0094 03       		.uleb128 0x3
 563 0095 1B000000 		.4byte	.LASF12
 564 0099 03       		.byte	0x3
 565 009a 78       		.byte	0x78
 566 009b 9F000000 		.4byte	0x9f
 567 009f 04       		.uleb128 0x4
 568 00a0 08       		.byte	0x8
 569 00a1 07       		.byte	0x7
 570 00a2 3F000000 		.4byte	.LASF13
 571 00a6 03       		.uleb128 0x3
 572 00a7 F9040000 		.4byte	.LASF14
 573 00ab 04       		.byte	0x4
 574 00ac 39       		.byte	0x39
 575 00ad 7B000000 		.4byte	0x7b
 576 00b1 03       		.uleb128 0x3
 577 00b2 A3020000 		.4byte	.LASF15
 578 00b6 04       		.byte	0x4
 579 00b7 3C       		.byte	0x3c
 580 00b8 49000000 		.4byte	0x49
 581 00bc 03       		.uleb128 0x3
 582 00bd 42010000 		.4byte	.LASF16
 583 00c1 04       		.byte	0x4
 584 00c2 3D       		.byte	0x3d
 585 00c3 49000000 		.4byte	0x49
 586 00c7 03       		.uleb128 0x3
 587 00c8 84030000 		.4byte	.LASF17
 588 00cc 04       		.byte	0x4
 589 00cd 3E       		.byte	0x3e
 590 00ce 49000000 		.4byte	0x49
 591 00d2 03       		.uleb128 0x3
 592 00d3 A8030000 		.4byte	.LASF18
 593 00d7 04       		.byte	0x4
 594 00d8 40       		.byte	0x40
 595 00d9 7B000000 		.4byte	0x7b
 596 00dd 03       		.uleb128 0x3
 597 00de 6F020000 		.4byte	.LASF19
 598 00e2 04       		.byte	0x4
 599 00e3 41       		.byte	0x41
 600 00e4 69000000 		.4byte	0x69
 601 00e8 03       		.uleb128 0x3
 602 00e9 B9020000 		.4byte	.LASF20
 603 00ed 04       		.byte	0x4
 604 00ee 43       		.byte	0x43
 605 00ef 7B000000 		.4byte	0x7b
 606 00f3 03       		.uleb128 0x3
 607 00f4 AA010000 		.4byte	.LASF21
 608 00f8 04       		.byte	0x4
 609 00f9 45       		.byte	0x45
ARM GAS  /tmp/ccOw7559.s 			page 26


 610 00fa 69000000 		.4byte	0x69
 611 00fe 03       		.uleb128 0x3
 612 00ff A5040000 		.4byte	.LASF22
 613 0103 05       		.byte	0x5
 614 0104 33       		.byte	0x33
 615 0105 7B000000 		.4byte	0x7b
 616 0109 03       		.uleb128 0x3
 617 010a 95040000 		.4byte	.LASF23
 618 010e 05       		.byte	0x5
 619 010f 3F       		.byte	0x3f
 620 0110 14010000 		.4byte	0x114
 621 0114 05       		.uleb128 0x5
 622 0115 65020000 		.4byte	.LASF43
 623 0119 44       		.byte	0x44
 624 011a 06       		.byte	0x6
 625 011b C2       		.byte	0xc2
 626 011c 25020000 		.4byte	0x225
 627 0120 06       		.uleb128 0x6
 628 0121 1C030000 		.4byte	.LASF24
 629 0125 06       		.byte	0x6
 630 0126 C3       		.byte	0xc3
 631 0127 30020000 		.4byte	0x230
 632 012b 02       		.byte	0x2
 633 012c 23       		.byte	0x23
 634 012d 00       		.uleb128 0
 635 012e 06       		.uleb128 0x6
 636 012f A1030000 		.4byte	.LASF25
 637 0133 06       		.byte	0x6
 638 0134 C5       		.byte	0xc5
 639 0135 30020000 		.4byte	0x230
 640 0139 02       		.byte	0x2
 641 013a 23       		.byte	0x23
 642 013b 04       		.uleb128 0x4
 643 013c 06       		.uleb128 0x6
 644 013d CE000000 		.4byte	.LASF26
 645 0141 06       		.byte	0x6
 646 0142 C7       		.byte	0xc7
 647 0143 D2000000 		.4byte	0xd2
 648 0147 02       		.byte	0x2
 649 0148 23       		.byte	0x23
 650 0149 08       		.uleb128 0x8
 651 014a 06       		.uleb128 0x6
 652 014b 68050000 		.4byte	.LASF27
 653 014f 06       		.byte	0x6
 654 0150 C8       		.byte	0xc8
 655 0151 A4060000 		.4byte	0x6a4
 656 0155 02       		.byte	0x2
 657 0156 23       		.byte	0x23
 658 0157 0C       		.uleb128 0xc
 659 0158 06       		.uleb128 0x6
 660 0159 53010000 		.4byte	.LASF28
 661 015d 06       		.byte	0x6
 662 015e CA       		.byte	0xca
 663 015f 30020000 		.4byte	0x230
 664 0163 02       		.byte	0x2
 665 0164 23       		.byte	0x23
 666 0165 10       		.uleb128 0x10
ARM GAS  /tmp/ccOw7559.s 			page 27


 667 0166 06       		.uleb128 0x6
 668 0167 2F030000 		.4byte	.LASF29
 669 016b 06       		.byte	0x6
 670 016c CB       		.byte	0xcb
 671 016d 30020000 		.4byte	0x230
 672 0171 02       		.byte	0x2
 673 0172 23       		.byte	0x23
 674 0173 14       		.uleb128 0x14
 675 0174 06       		.uleb128 0x6
 676 0175 4E050000 		.4byte	.LASF30
 677 0179 06       		.byte	0x6
 678 017a D2       		.byte	0xd2
 679 017b 43080000 		.4byte	0x843
 680 017f 02       		.byte	0x2
 681 0180 23       		.byte	0x23
 682 0181 18       		.uleb128 0x18
 683 0182 06       		.uleb128 0x6
 684 0183 F0030000 		.4byte	.LASF31
 685 0187 06       		.byte	0x6
 686 0188 DD       		.byte	0xdd
 687 0189 BC000000 		.4byte	0xbc
 688 018d 02       		.byte	0x2
 689 018e 23       		.byte	0x23
 690 018f 1C       		.uleb128 0x1c
 691 0190 06       		.uleb128 0x6
 692 0191 0F040000 		.4byte	.LASF32
 693 0195 06       		.byte	0x6
 694 0196 E1       		.byte	0xe1
 695 0197 B1000000 		.4byte	0xb1
 696 019b 02       		.byte	0x2
 697 019c 23       		.byte	0x23
 698 019d 1D       		.uleb128 0x1d
 699 019e 06       		.uleb128 0x6
 700 019f 21050000 		.4byte	.LASF33
 701 01a3 06       		.byte	0x6
 702 01a4 E6       		.byte	0xe6
 703 01a5 C7000000 		.4byte	0xc7
 704 01a9 02       		.byte	0x2
 705 01aa 23       		.byte	0x23
 706 01ab 1E       		.uleb128 0x1e
 707 01ac 07       		.uleb128 0x7
 708 01ad 705F7500 		.ascii	"p_u\000"
 709 01b1 06       		.byte	0x6
 710 01b2 3101     		.2byte	0x131
 711 01b4 74070000 		.4byte	0x774
 712 01b8 02       		.byte	0x2
 713 01b9 23       		.byte	0x23
 714 01ba 20       		.uleb128 0x20
 715 01bb 08       		.uleb128 0x8
 716 01bc DF020000 		.4byte	.LASF34
 717 01c0 06       		.byte	0x6
 718 01c1 3601     		.2byte	0x136
 719 01c3 36020000 		.4byte	0x236
 720 01c7 02       		.byte	0x2
 721 01c8 23       		.byte	0x23
 722 01c9 24       		.uleb128 0x24
 723 01ca 08       		.uleb128 0x8
ARM GAS  /tmp/ccOw7559.s 			page 28


 724 01cb DC010000 		.4byte	.LASF35
 725 01cf 06       		.byte	0x6
 726 01d0 3C01     		.2byte	0x13c
 727 01d2 5C020000 		.4byte	0x25c
 728 01d6 02       		.byte	0x2
 729 01d7 23       		.byte	0x23
 730 01d8 28       		.uleb128 0x28
 731 01d9 08       		.uleb128 0x8
 732 01da 5A050000 		.4byte	.LASF36
 733 01de 06       		.byte	0x6
 734 01df 4001     		.2byte	0x140
 735 01e1 DD000000 		.4byte	0xdd
 736 01e5 02       		.byte	0x2
 737 01e6 23       		.byte	0x23
 738 01e7 30       		.uleb128 0x30
 739 01e8 08       		.uleb128 0x8
 740 01e9 3D040000 		.4byte	.LASF37
 741 01ed 06       		.byte	0x6
 742 01ee 4601     		.2byte	0x146
 743 01f0 E8000000 		.4byte	0xe8
 744 01f4 02       		.byte	0x2
 745 01f5 23       		.byte	0x23
 746 01f6 34       		.uleb128 0x34
 747 01f7 08       		.uleb128 0x8
 748 01f8 DC030000 		.4byte	.LASF38
 749 01fc 06       		.byte	0x6
 750 01fd 4D01     		.2byte	0x14d
 751 01ff 3D080000 		.4byte	0x83d
 752 0203 02       		.byte	0x2
 753 0204 23       		.byte	0x23
 754 0205 38       		.uleb128 0x38
 755 0206 08       		.uleb128 0x8
 756 0207 AF040000 		.4byte	.LASF39
 757 020b 06       		.byte	0x6
 758 020c 5101     		.2byte	0x151
 759 020e D2000000 		.4byte	0xd2
 760 0212 02       		.byte	0x2
 761 0213 23       		.byte	0x23
 762 0214 3C       		.uleb128 0x3c
 763 0215 08       		.uleb128 0x8
 764 0216 FD000000 		.4byte	.LASF40
 765 021a 06       		.byte	0x6
 766 021b 5801     		.2byte	0x158
 767 021d 20030000 		.4byte	0x320
 768 0221 02       		.byte	0x2
 769 0222 23       		.byte	0x23
 770 0223 40       		.uleb128 0x40
 771 0224 00       		.byte	0
 772 0225 03       		.uleb128 0x3
 773 0226 F2020000 		.4byte	.LASF41
 774 022a 05       		.byte	0x5
 775 022b 44       		.byte	0x44
 776 022c 30020000 		.4byte	0x230
 777 0230 09       		.uleb128 0x9
 778 0231 04       		.byte	0x4
 779 0232 09010000 		.4byte	0x109
 780 0236 03       		.uleb128 0x3
ARM GAS  /tmp/ccOw7559.s 			page 29


 781 0237 D0020000 		.4byte	.LASF42
 782 023b 05       		.byte	0x5
 783 023c 49       		.byte	0x49
 784 023d 41020000 		.4byte	0x241
 785 0241 05       		.uleb128 0x5
 786 0242 69040000 		.4byte	.LASF44
 787 0246 04       		.byte	0x4
 788 0247 06       		.byte	0x6
 789 0248 B0       		.byte	0xb0
 790 0249 5C020000 		.4byte	0x25c
 791 024d 06       		.uleb128 0x6
 792 024e 1C030000 		.4byte	.LASF24
 793 0252 06       		.byte	0x6
 794 0253 B1       		.byte	0xb1
 795 0254 30020000 		.4byte	0x230
 796 0258 02       		.byte	0x2
 797 0259 23       		.byte	0x23
 798 025a 00       		.uleb128 0
 799 025b 00       		.byte	0
 800 025c 03       		.uleb128 0x3
 801 025d 08050000 		.4byte	.LASF45
 802 0261 05       		.byte	0x5
 803 0262 50       		.byte	0x50
 804 0263 67020000 		.4byte	0x267
 805 0267 05       		.uleb128 0x5
 806 0268 BD000000 		.4byte	.LASF46
 807 026c 08       		.byte	0x8
 808 026d 06       		.byte	0x6
 809 026e B7       		.byte	0xb7
 810 026f 90020000 		.4byte	0x290
 811 0273 06       		.uleb128 0x6
 812 0274 1C030000 		.4byte	.LASF24
 813 0278 06       		.byte	0x6
 814 0279 B8       		.byte	0xb8
 815 027a 30020000 		.4byte	0x230
 816 027e 02       		.byte	0x2
 817 027f 23       		.byte	0x23
 818 0280 00       		.uleb128 0
 819 0281 06       		.uleb128 0x6
 820 0282 A1030000 		.4byte	.LASF25
 821 0286 06       		.byte	0x6
 822 0287 B9       		.byte	0xb9
 823 0288 30020000 		.4byte	0x230
 824 028c 02       		.byte	0x2
 825 028d 23       		.byte	0x23
 826 028e 04       		.uleb128 0x4
 827 028f 00       		.byte	0
 828 0290 03       		.uleb128 0x3
 829 0291 00000000 		.4byte	.LASF47
 830 0295 05       		.byte	0x5
 831 0296 57       		.byte	0x57
 832 0297 9B020000 		.4byte	0x29b
 833 029b 0A       		.uleb128 0xa
 834 029c AB020000 		.4byte	.LASF48
 835 02a0 1C       		.byte	0x1c
 836 02a1 06       		.byte	0x6
 837 02a2 9001     		.2byte	0x190
ARM GAS  /tmp/ccOw7559.s 			page 30


 838 02a4 03030000 		.4byte	0x303
 839 02a8 08       		.uleb128 0x8
 840 02a9 58040000 		.4byte	.LASF49
 841 02ad 06       		.byte	0x6
 842 02ae 9101     		.2byte	0x191
 843 02b0 5C020000 		.4byte	0x25c
 844 02b4 02       		.byte	0x2
 845 02b5 23       		.byte	0x23
 846 02b6 00       		.uleb128 0
 847 02b7 08       		.uleb128 0x8
 848 02b8 F8030000 		.4byte	.LASF50
 849 02bc 06       		.byte	0x6
 850 02bd 9201     		.2byte	0x192
 851 02bf D2000000 		.4byte	0xd2
 852 02c3 02       		.byte	0x2
 853 02c4 23       		.byte	0x23
 854 02c5 08       		.uleb128 0x8
 855 02c6 08       		.uleb128 0x8
 856 02c7 37030000 		.4byte	.LASF51
 857 02cb 06       		.byte	0x6
 858 02cc 9401     		.2byte	0x194
 859 02ce A4060000 		.4byte	0x6a4
 860 02d2 02       		.byte	0x2
 861 02d3 23       		.byte	0x23
 862 02d4 0C       		.uleb128 0xc
 863 02d5 08       		.uleb128 0x8
 864 02d6 63010000 		.4byte	.LASF52
 865 02da 06       		.byte	0x6
 866 02db 9701     		.2byte	0x197
 867 02dd 30020000 		.4byte	0x230
 868 02e1 02       		.byte	0x2
 869 02e2 23       		.byte	0x23
 870 02e3 10       		.uleb128 0x10
 871 02e4 08       		.uleb128 0x8
 872 02e5 E4040000 		.4byte	.LASF53
 873 02e9 06       		.byte	0x6
 874 02ea 9801     		.2byte	0x198
 875 02ec 30020000 		.4byte	0x230
 876 02f0 02       		.byte	0x2
 877 02f1 23       		.byte	0x23
 878 02f2 14       		.uleb128 0x14
 879 02f3 08       		.uleb128 0x8
 880 02f4 62030000 		.4byte	.LASF54
 881 02f8 06       		.byte	0x6
 882 02f9 9B01     		.2byte	0x19b
 883 02fb 30020000 		.4byte	0x230
 884 02ff 02       		.byte	0x2
 885 0300 23       		.byte	0x23
 886 0301 18       		.uleb128 0x18
 887 0302 00       		.byte	0
 888 0303 03       		.uleb128 0x3
 889 0304 BA040000 		.4byte	.LASF55
 890 0308 05       		.byte	0x5
 891 0309 5C       		.byte	0x5c
 892 030a 0E030000 		.4byte	0x30e
 893 030e 09       		.uleb128 0x9
 894 030f 04       		.byte	0x4
ARM GAS  /tmp/ccOw7559.s 			page 31


 895 0310 14030000 		.4byte	0x314
 896 0314 0B       		.uleb128 0xb
 897 0315 01       		.byte	0x1
 898 0316 20030000 		.4byte	0x320
 899 031a 0C       		.uleb128 0xc
 900 031b 20030000 		.4byte	0x320
 901 031f 00       		.byte	0
 902 0320 0D       		.uleb128 0xd
 903 0321 04       		.byte	0x4
 904 0322 03       		.uleb128 0x3
 905 0323 91030000 		.4byte	.LASF56
 906 0327 05       		.byte	0x5
 907 0328 61       		.byte	0x61
 908 0329 2D030000 		.4byte	0x32d
 909 032d 0A       		.uleb128 0xa
 910 032e 1F040000 		.4byte	.LASF57
 911 0332 14       		.byte	0x14
 912 0333 06       		.byte	0x6
 913 0334 6B01     		.2byte	0x16b
 914 0336 86030000 		.4byte	0x386
 915 033a 08       		.uleb128 0x8
 916 033b BD010000 		.4byte	.LASF58
 917 033f 06       		.byte	0x6
 918 0340 6C01     		.2byte	0x16c
 919 0342 55080000 		.4byte	0x855
 920 0346 02       		.byte	0x2
 921 0347 23       		.byte	0x23
 922 0348 00       		.uleb128 0
 923 0349 08       		.uleb128 0x8
 924 034a 74010000 		.4byte	.LASF59
 925 034e 06       		.byte	0x6
 926 034f 6D01     		.2byte	0x16d
 927 0351 55080000 		.4byte	0x855
 928 0355 02       		.byte	0x2
 929 0356 23       		.byte	0x23
 930 0357 04       		.uleb128 0x4
 931 0358 08       		.uleb128 0x8
 932 0359 60040000 		.4byte	.LASF60
 933 035d 06       		.byte	0x6
 934 035e 6E01     		.2byte	0x16e
 935 0360 FE000000 		.4byte	0xfe
 936 0364 02       		.byte	0x2
 937 0365 23       		.byte	0x23
 938 0366 08       		.uleb128 0x8
 939 0367 08       		.uleb128 0x8
 940 0368 6E050000 		.4byte	.LASF61
 941 036c 06       		.byte	0x6
 942 036d 6F01     		.2byte	0x16f
 943 036f 03030000 		.4byte	0x303
 944 0373 02       		.byte	0x2
 945 0374 23       		.byte	0x23
 946 0375 0C       		.uleb128 0xc
 947 0376 08       		.uleb128 0x8
 948 0377 01050000 		.4byte	.LASF62
 949 037b 06       		.byte	0x6
 950 037c 7101     		.2byte	0x171
 951 037e 20030000 		.4byte	0x320
ARM GAS  /tmp/ccOw7559.s 			page 32


 952 0382 02       		.byte	0x2
 953 0383 23       		.byte	0x23
 954 0384 10       		.uleb128 0x10
 955 0385 00       		.byte	0
 956 0386 03       		.uleb128 0x3
 957 0387 6A000000 		.4byte	.LASF63
 958 038b 05       		.byte	0x5
 959 038c 66       		.byte	0x66
 960 038d 91030000 		.4byte	0x391
 961 0391 0A       		.uleb128 0xa
 962 0392 05030000 		.4byte	.LASF64
 963 0396 10       		.byte	0x10
 964 0397 06       		.byte	0x6
 965 0398 7B01     		.2byte	0x17b
 966 039a DB030000 		.4byte	0x3db
 967 039e 08       		.uleb128 0x8
 968 039f BD010000 		.4byte	.LASF58
 969 03a3 06       		.byte	0x6
 970 03a4 7C01     		.2byte	0x17c
 971 03a6 55080000 		.4byte	0x855
 972 03aa 02       		.byte	0x2
 973 03ab 23       		.byte	0x23
 974 03ac 00       		.uleb128 0
 975 03ad 08       		.uleb128 0x8
 976 03ae 74010000 		.4byte	.LASF59
 977 03b2 06       		.byte	0x6
 978 03b3 7E01     		.2byte	0x17e
 979 03b5 55080000 		.4byte	0x855
 980 03b9 02       		.byte	0x2
 981 03ba 23       		.byte	0x23
 982 03bb 04       		.uleb128 0x4
 983 03bc 08       		.uleb128 0x8
 984 03bd 60040000 		.4byte	.LASF60
 985 03c1 06       		.byte	0x6
 986 03c2 8001     		.2byte	0x180
 987 03c4 FE000000 		.4byte	0xfe
 988 03c8 02       		.byte	0x2
 989 03c9 23       		.byte	0x23
 990 03ca 08       		.uleb128 0x8
 991 03cb 08       		.uleb128 0x8
 992 03cc 23030000 		.4byte	.LASF65
 993 03d0 06       		.byte	0x6
 994 03d1 8801     		.2byte	0x188
 995 03d3 FE000000 		.4byte	0xfe
 996 03d7 02       		.byte	0x2
 997 03d8 23       		.byte	0x23
 998 03d9 0C       		.uleb128 0xc
 999 03da 00       		.byte	0
 1000 03db 03       		.uleb128 0x3
 1001 03dc 30000000 		.4byte	.LASF66
 1002 03e0 05       		.byte	0x5
 1003 03e1 6B       		.byte	0x6b
 1004 03e2 E6030000 		.4byte	0x3e6
 1005 03e6 0A       		.uleb128 0xa
 1006 03e7 B0030000 		.4byte	.LASF67
 1007 03eb 04       		.byte	0x4
 1008 03ec 06       		.byte	0x6
ARM GAS  /tmp/ccOw7559.s 			page 33


 1009 03ed A201     		.2byte	0x1a2
 1010 03ef 03040000 		.4byte	0x403
 1011 03f3 08       		.uleb128 0x8
 1012 03f4 C3040000 		.4byte	.LASF68
 1013 03f8 06       		.byte	0x6
 1014 03f9 AA01     		.2byte	0x1aa
 1015 03fb 5B080000 		.4byte	0x85b
 1016 03ff 02       		.byte	0x2
 1017 0400 23       		.byte	0x23
 1018 0401 00       		.uleb128 0
 1019 0402 00       		.byte	0
 1020 0403 03       		.uleb128 0x3
 1021 0404 97020000 		.4byte	.LASF69
 1022 0408 05       		.byte	0x5
 1023 0409 70       		.byte	0x70
 1024 040a 0E040000 		.4byte	0x40e
 1025 040e 0E       		.uleb128 0xe
 1026 040f 26010000 		.4byte	.LASF70
 1027 0413 5001     		.2byte	0x150
 1028 0415 06       		.byte	0x6
 1029 0416 C201     		.2byte	0x1c2
 1030 0418 76040000 		.4byte	0x476
 1031 041c 08       		.uleb128 0x8
 1032 041d 7C010000 		.4byte	.LASF71
 1033 0421 06       		.byte	0x6
 1034 0422 C601     		.2byte	0x1c6
 1035 0424 90020000 		.4byte	0x290
 1036 0428 02       		.byte	0x2
 1037 0429 23       		.byte	0x23
 1038 042a 00       		.uleb128 0
 1039 042b 08       		.uleb128 0x8
 1040 042c 0D010000 		.4byte	.LASF72
 1041 0430 06       		.byte	0x6
 1042 0431 CA01     		.2byte	0x1ca
 1043 0433 86030000 		.4byte	0x386
 1044 0437 02       		.byte	0x2
 1045 0438 23       		.byte	0x23
 1046 0439 1C       		.uleb128 0x1c
 1047 043a 07       		.uleb128 0x7
 1048 043b 64626700 		.ascii	"dbg\000"
 1049 043f 06       		.byte	0x6
 1050 0440 CE01     		.2byte	0x1ce
 1051 0442 DB030000 		.4byte	0x3db
 1052 0446 02       		.byte	0x2
 1053 0447 23       		.byte	0x23
 1054 0448 2C       		.uleb128 0x2c
 1055 0449 08       		.uleb128 0x8
 1056 044a 5F000000 		.4byte	.LASF73
 1057 044e 06       		.byte	0x6
 1058 044f D201     		.2byte	0x1d2
 1059 0451 09010000 		.4byte	0x109
 1060 0455 02       		.byte	0x2
 1061 0456 23       		.byte	0x23
 1062 0457 30       		.uleb128 0x30
 1063 0458 07       		.uleb128 0x7
 1064 0459 746D00   		.ascii	"tm\000"
 1065 045c 06       		.byte	0x6
ARM GAS  /tmp/ccOw7559.s 			page 34


 1066 045d D701     		.2byte	0x1d7
 1067 045f 69070000 		.4byte	0x769
 1068 0463 02       		.byte	0x2
 1069 0464 23       		.byte	0x23
 1070 0465 74       		.uleb128 0x74
 1071 0466 08       		.uleb128 0x8
 1072 0467 9B010000 		.4byte	.LASF74
 1073 046b 06       		.byte	0x6
 1074 046c E301     		.2byte	0x1e3
 1075 046e 60080000 		.4byte	0x860
 1076 0472 02       		.byte	0x2
 1077 0473 23       		.byte	0x23
 1078 0474 78       		.uleb128 0x78
 1079 0475 00       		.byte	0
 1080 0476 04       		.uleb128 0x4
 1081 0477 04       		.byte	0x4
 1082 0478 07       		.byte	0x7
 1083 0479 E9020000 		.4byte	.LASF75
 1084 047d 0F       		.uleb128 0xf
 1085 047e 7B000000 		.4byte	0x7b
 1086 0482 10       		.uleb128 0x10
 1087 0483 7B000000 		.4byte	0x7b
 1088 0487 92040000 		.4byte	0x492
 1089 048b 11       		.uleb128 0x11
 1090 048c 76040000 		.4byte	0x476
 1091 0490 03       		.byte	0x3
 1092 0491 00       		.byte	0
 1093 0492 12       		.uleb128 0x12
 1094 0493 24       		.byte	0x24
 1095 0494 07       		.byte	0x7
 1096 0495 7A01     		.2byte	0x17a
 1097 0497 20050000 		.4byte	0x520
 1098 049b 07       		.uleb128 0x7
 1099 049c 41435200 		.ascii	"ACR\000"
 1100 04a0 07       		.byte	0x7
 1101 04a1 7C01     		.2byte	0x17c
 1102 04a3 7D040000 		.4byte	0x47d
 1103 04a7 02       		.byte	0x2
 1104 04a8 23       		.byte	0x23
 1105 04a9 00       		.uleb128 0
 1106 04aa 08       		.uleb128 0x8
 1107 04ab 8C030000 		.4byte	.LASF76
 1108 04af 07       		.byte	0x7
 1109 04b0 7D01     		.2byte	0x17d
 1110 04b2 7D040000 		.4byte	0x47d
 1111 04b6 02       		.byte	0x2
 1112 04b7 23       		.byte	0x23
 1113 04b8 04       		.uleb128 0x4
 1114 04b9 08       		.uleb128 0x8
 1115 04ba 4B010000 		.4byte	.LASF77
 1116 04be 07       		.byte	0x7
 1117 04bf 7E01     		.2byte	0x17e
 1118 04c1 7D040000 		.4byte	0x47d
 1119 04c5 02       		.byte	0x2
 1120 04c6 23       		.byte	0x23
 1121 04c7 08       		.uleb128 0x8
 1122 04c8 07       		.uleb128 0x7
ARM GAS  /tmp/ccOw7559.s 			page 35


 1123 04c9 535200   		.ascii	"SR\000"
 1124 04cc 07       		.byte	0x7
 1125 04cd 7F01     		.2byte	0x17f
 1126 04cf 7D040000 		.4byte	0x47d
 1127 04d3 02       		.byte	0x2
 1128 04d4 23       		.byte	0x23
 1129 04d5 0C       		.uleb128 0xc
 1130 04d6 07       		.uleb128 0x7
 1131 04d7 435200   		.ascii	"CR\000"
 1132 04da 07       		.byte	0x7
 1133 04db 8001     		.2byte	0x180
 1134 04dd 7D040000 		.4byte	0x47d
 1135 04e1 02       		.byte	0x2
 1136 04e2 23       		.byte	0x23
 1137 04e3 10       		.uleb128 0x10
 1138 04e4 07       		.uleb128 0x7
 1139 04e5 415200   		.ascii	"AR\000"
 1140 04e8 07       		.byte	0x7
 1141 04e9 8101     		.2byte	0x181
 1142 04eb 7D040000 		.4byte	0x47d
 1143 04ef 02       		.byte	0x2
 1144 04f0 23       		.byte	0x23
 1145 04f1 14       		.uleb128 0x14
 1146 04f2 08       		.uleb128 0x8
 1147 04f3 FF030000 		.4byte	.LASF78
 1148 04f7 07       		.byte	0x7
 1149 04f8 8201     		.2byte	0x182
 1150 04fa 7B000000 		.4byte	0x7b
 1151 04fe 02       		.byte	0x2
 1152 04ff 23       		.byte	0x23
 1153 0500 18       		.uleb128 0x18
 1154 0501 07       		.uleb128 0x7
 1155 0502 4F425200 		.ascii	"OBR\000"
 1156 0506 07       		.byte	0x7
 1157 0507 8301     		.2byte	0x183
 1158 0509 7D040000 		.4byte	0x47d
 1159 050d 02       		.byte	0x2
 1160 050e 23       		.byte	0x23
 1161 050f 1C       		.uleb128 0x1c
 1162 0510 08       		.uleb128 0x8
 1163 0511 8B040000 		.4byte	.LASF79
 1164 0515 07       		.byte	0x7
 1165 0516 8401     		.2byte	0x184
 1166 0518 7D040000 		.4byte	0x47d
 1167 051c 02       		.byte	0x2
 1168 051d 23       		.byte	0x23
 1169 051e 20       		.uleb128 0x20
 1170 051f 00       		.byte	0
 1171 0520 13       		.uleb128 0x13
 1172 0521 EF000000 		.4byte	.LASF80
 1173 0525 07       		.byte	0x7
 1174 0526 8601     		.2byte	0x186
 1175 0528 92040000 		.4byte	0x492
 1176 052c 12       		.uleb128 0x12
 1177 052d 1C       		.byte	0x1c
 1178 052e 07       		.byte	0x7
 1179 052f B601     		.2byte	0x1b6
ARM GAS  /tmp/ccOw7559.s 			page 36


 1180 0531 72050000 		.4byte	0x572
 1181 0535 08       		.uleb128 0x8
 1182 0536 2D050000 		.4byte	.LASF81
 1183 053a 07       		.byte	0x7
 1184 053b B801     		.2byte	0x1b8
 1185 053d 7D040000 		.4byte	0x47d
 1186 0541 02       		.byte	0x2
 1187 0542 23       		.byte	0x23
 1188 0543 00       		.uleb128 0
 1189 0544 08       		.uleb128 0x8
 1190 0545 FF030000 		.4byte	.LASF78
 1191 0549 07       		.byte	0x7
 1192 054a B901     		.2byte	0x1b9
 1193 054c 7B000000 		.4byte	0x7b
 1194 0550 02       		.byte	0x2
 1195 0551 23       		.byte	0x23
 1196 0552 04       		.uleb128 0x4
 1197 0553 08       		.uleb128 0x8
 1198 0554 76050000 		.4byte	.LASF82
 1199 0558 07       		.byte	0x7
 1200 0559 BA01     		.2byte	0x1ba
 1201 055b 72050000 		.4byte	0x572
 1202 055f 02       		.byte	0x2
 1203 0560 23       		.byte	0x23
 1204 0561 08       		.uleb128 0x8
 1205 0562 08       		.uleb128 0x8
 1206 0563 33050000 		.4byte	.LASF83
 1207 0567 07       		.byte	0x7
 1208 0568 BB01     		.2byte	0x1bb
 1209 056a 7D040000 		.4byte	0x47d
 1210 056e 02       		.byte	0x2
 1211 056f 23       		.byte	0x23
 1212 0570 18       		.uleb128 0x18
 1213 0571 00       		.byte	0
 1214 0572 0F       		.uleb128 0xf
 1215 0573 82040000 		.4byte	0x482
 1216 0577 13       		.uleb128 0x13
 1217 0578 75030000 		.4byte	.LASF84
 1218 057c 07       		.byte	0x7
 1219 057d BC01     		.2byte	0x1bc
 1220 057f 2C050000 		.4byte	0x52c
 1221 0583 12       		.uleb128 0x12
 1222 0584 08       		.byte	0x8
 1223 0585 07       		.byte	0x7
 1224 0586 E201     		.2byte	0x1e2
 1225 0588 AA050000 		.4byte	0x5aa
 1226 058c 07       		.uleb128 0x7
 1227 058d 435200   		.ascii	"CR\000"
 1228 0590 07       		.byte	0x7
 1229 0591 E401     		.2byte	0x1e4
 1230 0593 7D040000 		.4byte	0x47d
 1231 0597 02       		.byte	0x2
 1232 0598 23       		.byte	0x23
 1233 0599 00       		.uleb128 0
 1234 059a 07       		.uleb128 0x7
 1235 059b 43535200 		.ascii	"CSR\000"
 1236 059f 07       		.byte	0x7
ARM GAS  /tmp/ccOw7559.s 			page 37


 1237 05a0 E501     		.2byte	0x1e5
 1238 05a2 7D040000 		.4byte	0x47d
 1239 05a6 02       		.byte	0x2
 1240 05a7 23       		.byte	0x23
 1241 05a8 04       		.uleb128 0x4
 1242 05a9 00       		.byte	0
 1243 05aa 13       		.uleb128 0x13
 1244 05ab 14010000 		.4byte	.LASF85
 1245 05af 07       		.byte	0x7
 1246 05b0 E601     		.2byte	0x1e6
 1247 05b2 83050000 		.4byte	0x583
 1248 05b6 12       		.uleb128 0x12
 1249 05b7 34       		.byte	0x34
 1250 05b8 07       		.byte	0x7
 1251 05b9 EB01     		.2byte	0x1eb
 1252 05bb 82060000 		.4byte	0x682
 1253 05bf 07       		.uleb128 0x7
 1254 05c0 435200   		.ascii	"CR\000"
 1255 05c3 07       		.byte	0x7
 1256 05c4 ED01     		.2byte	0x1ed
 1257 05c6 7D040000 		.4byte	0x47d
 1258 05ca 02       		.byte	0x2
 1259 05cb 23       		.byte	0x23
 1260 05cc 00       		.uleb128 0
 1261 05cd 08       		.uleb128 0x8
 1262 05ce 55050000 		.4byte	.LASF86
 1263 05d2 07       		.byte	0x7
 1264 05d3 EE01     		.2byte	0x1ee
 1265 05d5 7D040000 		.4byte	0x47d
 1266 05d9 02       		.byte	0x2
 1267 05da 23       		.byte	0x23
 1268 05db 04       		.uleb128 0x4
 1269 05dc 07       		.uleb128 0x7
 1270 05dd 43495200 		.ascii	"CIR\000"
 1271 05e1 07       		.byte	0x7
 1272 05e2 EF01     		.2byte	0x1ef
 1273 05e4 7D040000 		.4byte	0x47d
 1274 05e8 02       		.byte	0x2
 1275 05e9 23       		.byte	0x23
 1276 05ea 08       		.uleb128 0x8
 1277 05eb 08       		.uleb128 0x8
 1278 05ec 39010000 		.4byte	.LASF87
 1279 05f0 07       		.byte	0x7
 1280 05f1 F001     		.2byte	0x1f0
 1281 05f3 7D040000 		.4byte	0x47d
 1282 05f7 02       		.byte	0x2
 1283 05f8 23       		.byte	0x23
 1284 05f9 0C       		.uleb128 0xc
 1285 05fa 08       		.uleb128 0x8
 1286 05fb 6C030000 		.4byte	.LASF88
 1287 05ff 07       		.byte	0x7
 1288 0600 F101     		.2byte	0x1f1
 1289 0602 7D040000 		.4byte	0x47d
 1290 0606 02       		.byte	0x2
 1291 0607 23       		.byte	0x23
 1292 0608 10       		.uleb128 0x10
 1293 0609 08       		.uleb128 0x8
ARM GAS  /tmp/ccOw7559.s 			page 38


 1294 060a 75020000 		.4byte	.LASF89
 1295 060e 07       		.byte	0x7
 1296 060f F201     		.2byte	0x1f2
 1297 0611 7D040000 		.4byte	0x47d
 1298 0615 02       		.byte	0x2
 1299 0616 23       		.byte	0x23
 1300 0617 14       		.uleb128 0x14
 1301 0618 08       		.uleb128 0x8
 1302 0619 17040000 		.4byte	.LASF90
 1303 061d 07       		.byte	0x7
 1304 061e F301     		.2byte	0x1f3
 1305 0620 7D040000 		.4byte	0x47d
 1306 0624 02       		.byte	0x2
 1307 0625 23       		.byte	0x23
 1308 0626 18       		.uleb128 0x18
 1309 0627 08       		.uleb128 0x8
 1310 0628 D4040000 		.4byte	.LASF91
 1311 062c 07       		.byte	0x7
 1312 062d F401     		.2byte	0x1f4
 1313 062f 7D040000 		.4byte	0x47d
 1314 0633 02       		.byte	0x2
 1315 0634 23       		.byte	0x23
 1316 0635 1C       		.uleb128 0x1c
 1317 0636 08       		.uleb128 0x8
 1318 0637 28050000 		.4byte	.LASF92
 1319 063b 07       		.byte	0x7
 1320 063c F501     		.2byte	0x1f5
 1321 063e 7D040000 		.4byte	0x47d
 1322 0642 02       		.byte	0x2
 1323 0643 23       		.byte	0x23
 1324 0644 20       		.uleb128 0x20
 1325 0645 07       		.uleb128 0x7
 1326 0646 43535200 		.ascii	"CSR\000"
 1327 064a 07       		.byte	0x7
 1328 064b F601     		.2byte	0x1f6
 1329 064d 7D040000 		.4byte	0x47d
 1330 0651 02       		.byte	0x2
 1331 0652 23       		.byte	0x23
 1332 0653 24       		.uleb128 0x24
 1333 0654 08       		.uleb128 0x8
 1334 0655 4E030000 		.4byte	.LASF93
 1335 0659 07       		.byte	0x7
 1336 065a F701     		.2byte	0x1f7
 1337 065c 7D040000 		.4byte	0x47d
 1338 0660 02       		.byte	0x2
 1339 0661 23       		.byte	0x23
 1340 0662 28       		.uleb128 0x28
 1341 0663 08       		.uleb128 0x8
 1342 0664 33050000 		.4byte	.LASF83
 1343 0668 07       		.byte	0x7
 1344 0669 F801     		.2byte	0x1f8
 1345 066b 7D040000 		.4byte	0x47d
 1346 066f 02       		.byte	0x2
 1347 0670 23       		.byte	0x23
 1348 0671 2C       		.uleb128 0x2c
 1349 0672 08       		.uleb128 0x8
 1350 0673 39050000 		.4byte	.LASF94
ARM GAS  /tmp/ccOw7559.s 			page 39


 1351 0677 07       		.byte	0x7
 1352 0678 F901     		.2byte	0x1f9
 1353 067a 7D040000 		.4byte	0x47d
 1354 067e 02       		.byte	0x2
 1355 067f 23       		.byte	0x23
 1356 0680 30       		.uleb128 0x30
 1357 0681 00       		.byte	0
 1358 0682 13       		.uleb128 0x13
 1359 0683 E7010000 		.4byte	.LASF95
 1360 0687 07       		.byte	0x7
 1361 0688 FA01     		.2byte	0x1fa
 1362 068a B6050000 		.4byte	0x5b6
 1363 068e 03       		.uleb128 0x3
 1364 068f 6B010000 		.4byte	.LASF96
 1365 0693 08       		.byte	0x8
 1366 0694 65       		.byte	0x65
 1367 0695 20030000 		.4byte	0x320
 1368 0699 03       		.uleb128 0x3
 1369 069a C5020000 		.4byte	.LASF97
 1370 069e 08       		.byte	0x8
 1371 069f 6D       		.byte	0x6d
 1372 06a0 94000000 		.4byte	0x94
 1373 06a4 05       		.uleb128 0x5
 1374 06a5 DC040000 		.4byte	.LASF98
 1375 06a9 04       		.byte	0x4
 1376 06aa 08       		.byte	0x8
 1377 06ab 89       		.byte	0x89
 1378 06ac BF060000 		.4byte	0x6bf
 1379 06b0 14       		.uleb128 0x14
 1380 06b1 72313300 		.ascii	"r13\000"
 1381 06b5 08       		.byte	0x8
 1382 06b6 8A       		.byte	0x8a
 1383 06b7 4C070000 		.4byte	0x74c
 1384 06bb 02       		.byte	0x2
 1385 06bc 23       		.byte	0x23
 1386 06bd 00       		.uleb128 0
 1387 06be 00       		.byte	0
 1388 06bf 05       		.uleb128 0x5
 1389 06c0 24000000 		.4byte	.LASF99
 1390 06c4 24       		.byte	0x24
 1391 06c5 09       		.byte	0x9
 1392 06c6 FD       		.byte	0xfd
 1393 06c7 4C070000 		.4byte	0x74c
 1394 06cb 07       		.uleb128 0x7
 1395 06cc 723400   		.ascii	"r4\000"
 1396 06cf 09       		.byte	0x9
 1397 06d0 1001     		.2byte	0x110
 1398 06d2 8E060000 		.4byte	0x68e
 1399 06d6 02       		.byte	0x2
 1400 06d7 23       		.byte	0x23
 1401 06d8 00       		.uleb128 0
 1402 06d9 07       		.uleb128 0x7
 1403 06da 723500   		.ascii	"r5\000"
 1404 06dd 09       		.byte	0x9
 1405 06de 1101     		.2byte	0x111
 1406 06e0 8E060000 		.4byte	0x68e
 1407 06e4 02       		.byte	0x2
ARM GAS  /tmp/ccOw7559.s 			page 40


 1408 06e5 23       		.byte	0x23
 1409 06e6 04       		.uleb128 0x4
 1410 06e7 07       		.uleb128 0x7
 1411 06e8 723600   		.ascii	"r6\000"
 1412 06eb 09       		.byte	0x9
 1413 06ec 1201     		.2byte	0x112
 1414 06ee 8E060000 		.4byte	0x68e
 1415 06f2 02       		.byte	0x2
 1416 06f3 23       		.byte	0x23
 1417 06f4 08       		.uleb128 0x8
 1418 06f5 07       		.uleb128 0x7
 1419 06f6 723700   		.ascii	"r7\000"
 1420 06f9 09       		.byte	0x9
 1421 06fa 1301     		.2byte	0x113
 1422 06fc 8E060000 		.4byte	0x68e
 1423 0700 02       		.byte	0x2
 1424 0701 23       		.byte	0x23
 1425 0702 0C       		.uleb128 0xc
 1426 0703 07       		.uleb128 0x7
 1427 0704 723800   		.ascii	"r8\000"
 1428 0707 09       		.byte	0x9
 1429 0708 1401     		.2byte	0x114
 1430 070a 8E060000 		.4byte	0x68e
 1431 070e 02       		.byte	0x2
 1432 070f 23       		.byte	0x23
 1433 0710 10       		.uleb128 0x10
 1434 0711 07       		.uleb128 0x7
 1435 0712 723900   		.ascii	"r9\000"
 1436 0715 09       		.byte	0x9
 1437 0716 1501     		.2byte	0x115
 1438 0718 8E060000 		.4byte	0x68e
 1439 071c 02       		.byte	0x2
 1440 071d 23       		.byte	0x23
 1441 071e 14       		.uleb128 0x14
 1442 071f 07       		.uleb128 0x7
 1443 0720 72313000 		.ascii	"r10\000"
 1444 0724 09       		.byte	0x9
 1445 0725 1601     		.2byte	0x116
 1446 0727 8E060000 		.4byte	0x68e
 1447 072b 02       		.byte	0x2
 1448 072c 23       		.byte	0x23
 1449 072d 18       		.uleb128 0x18
 1450 072e 07       		.uleb128 0x7
 1451 072f 72313100 		.ascii	"r11\000"
 1452 0733 09       		.byte	0x9
 1453 0734 1701     		.2byte	0x117
 1454 0736 8E060000 		.4byte	0x68e
 1455 073a 02       		.byte	0x2
 1456 073b 23       		.byte	0x23
 1457 073c 1C       		.uleb128 0x1c
 1458 073d 07       		.uleb128 0x7
 1459 073e 6C7200   		.ascii	"lr\000"
 1460 0741 09       		.byte	0x9
 1461 0742 1801     		.2byte	0x118
 1462 0744 8E060000 		.4byte	0x68e
 1463 0748 02       		.byte	0x2
 1464 0749 23       		.byte	0x23
ARM GAS  /tmp/ccOw7559.s 			page 41


 1465 074a 20       		.uleb128 0x20
 1466 074b 00       		.byte	0
 1467 074c 09       		.uleb128 0x9
 1468 074d 04       		.byte	0x4
 1469 074e BF060000 		.4byte	0x6bf
 1470 0752 15       		.uleb128 0x15
 1471 0753 04       		.byte	0x4
 1472 0754 0A       		.byte	0xa
 1473 0755 38       		.byte	0x38
 1474 0756 69070000 		.4byte	0x769
 1475 075a 06       		.uleb128 0x6
 1476 075b CD040000 		.4byte	.LASF100
 1477 075f 0A       		.byte	0xa
 1478 0760 3C       		.byte	0x3c
 1479 0761 A6000000 		.4byte	0xa6
 1480 0765 02       		.byte	0x2
 1481 0766 23       		.byte	0x23
 1482 0767 00       		.uleb128 0
 1483 0768 00       		.byte	0
 1484 0769 03       		.uleb128 0x3
 1485 076a 3D030000 		.4byte	.LASF101
 1486 076e 0A       		.byte	0xa
 1487 076f 3D       		.byte	0x3d
 1488 0770 52070000 		.4byte	0x752
 1489 0774 16       		.uleb128 0x16
 1490 0775 04       		.byte	0x4
 1491 0776 06       		.byte	0x6
 1492 0777 FA       		.byte	0xfa
 1493 0778 D1070000 		.4byte	0x7d1
 1494 077c 17       		.uleb128 0x17
 1495 077d 14000000 		.4byte	.LASF102
 1496 0781 06       		.byte	0x6
 1497 0782 0101     		.2byte	0x101
 1498 0784 DD000000 		.4byte	0xdd
 1499 0788 17       		.uleb128 0x17
 1500 0789 56000000 		.4byte	.LASF103
 1501 078d 06       		.byte	0x6
 1502 078e 0801     		.2byte	0x108
 1503 0790 DD000000 		.4byte	0xdd
 1504 0794 17       		.uleb128 0x17
 1505 0795 47050000 		.4byte	.LASF104
 1506 0799 06       		.byte	0x6
 1507 079a 0F01     		.2byte	0x10f
 1508 079c 20030000 		.4byte	0x320
 1509 07a0 17       		.uleb128 0x17
 1510 07a1 20010000 		.4byte	.LASF105
 1511 07a5 06       		.byte	0x6
 1512 07a6 1601     		.2byte	0x116
 1513 07a8 D1070000 		.4byte	0x7d1
 1514 07ac 17       		.uleb128 0x17
 1515 07ad D5010000 		.4byte	.LASF106
 1516 07b1 06       		.byte	0x6
 1517 07b2 1E01     		.2byte	0x11e
 1518 07b4 00080000 		.4byte	0x800
 1519 07b8 17       		.uleb128 0x17
 1520 07b9 51040000 		.4byte	.LASF107
 1521 07bd 06       		.byte	0x6
ARM GAS  /tmp/ccOw7559.s 			page 42


 1522 07be 2701     		.2byte	0x127
 1523 07c0 3D080000 		.4byte	0x83d
 1524 07c4 17       		.uleb128 0x17
 1525 07c5 08040000 		.4byte	.LASF108
 1526 07c9 06       		.byte	0x6
 1527 07ca 2F01     		.2byte	0x12f
 1528 07cc E8000000 		.4byte	0xe8
 1529 07d0 00       		.byte	0
 1530 07d1 09       		.uleb128 0x9
 1531 07d2 04       		.byte	0x4
 1532 07d3 25020000 		.4byte	0x225
 1533 07d7 05       		.uleb128 0x5
 1534 07d8 30040000 		.4byte	.LASF109
 1535 07dc 0C       		.byte	0xc
 1536 07dd 0B       		.byte	0xb
 1537 07de 34       		.byte	0x34
 1538 07df 00080000 		.4byte	0x800
 1539 07e3 06       		.uleb128 0x6
 1540 07e4 5B010000 		.4byte	.LASF110
 1541 07e8 0B       		.byte	0xb
 1542 07e9 35       		.byte	0x35
 1543 07ea 5C020000 		.4byte	0x25c
 1544 07ee 02       		.byte	0x2
 1545 07ef 23       		.byte	0x23
 1546 07f0 00       		.uleb128 0
 1547 07f1 06       		.uleb128 0x6
 1548 07f2 F3010000 		.4byte	.LASF111
 1549 07f6 0B       		.byte	0xb
 1550 07f7 37       		.byte	0x37
 1551 07f8 F3000000 		.4byte	0xf3
 1552 07fc 02       		.byte	0x2
 1553 07fd 23       		.byte	0x23
 1554 07fe 08       		.uleb128 0x8
 1555 07ff 00       		.byte	0
 1556 0800 09       		.uleb128 0x9
 1557 0801 04       		.byte	0x4
 1558 0802 D7070000 		.4byte	0x7d7
 1559 0806 05       		.uleb128 0x5
 1560 0807 18050000 		.4byte	.LASF112
 1561 080b 10       		.byte	0x10
 1562 080c 0C       		.byte	0xc
 1563 080d 39       		.byte	0x39
 1564 080e 3D080000 		.4byte	0x83d
 1565 0812 06       		.uleb128 0x6
 1566 0813 05010000 		.4byte	.LASF113
 1567 0817 0C       		.byte	0xc
 1568 0818 3A       		.byte	0x3a
 1569 0819 5C020000 		.4byte	0x25c
 1570 081d 02       		.byte	0x2
 1571 081e 23       		.byte	0x23
 1572 081f 00       		.uleb128 0
 1573 0820 06       		.uleb128 0x6
 1574 0821 60050000 		.4byte	.LASF114
 1575 0825 0C       		.byte	0xc
 1576 0826 3C       		.byte	0x3c
 1577 0827 30020000 		.4byte	0x230
 1578 082b 02       		.byte	0x2
ARM GAS  /tmp/ccOw7559.s 			page 43


 1579 082c 23       		.byte	0x23
 1580 082d 08       		.uleb128 0x8
 1581 082e 06       		.uleb128 0x6
 1582 082f 9E040000 		.4byte	.LASF115
 1583 0833 0C       		.byte	0xc
 1584 0834 3E       		.byte	0x3e
 1585 0835 7B080000 		.4byte	0x87b
 1586 0839 02       		.byte	0x2
 1587 083a 23       		.byte	0x23
 1588 083b 0C       		.uleb128 0xc
 1589 083c 00       		.byte	0
 1590 083d 09       		.uleb128 0x9
 1591 083e 04       		.byte	0x4
 1592 083f 06080000 		.4byte	0x806
 1593 0843 09       		.uleb128 0x9
 1594 0844 04       		.byte	0x4
 1595 0845 49080000 		.4byte	0x849
 1596 0849 18       		.uleb128 0x18
 1597 084a 4E080000 		.4byte	0x84e
 1598 084e 04       		.uleb128 0x4
 1599 084f 01       		.byte	0x1
 1600 0850 08       		.byte	0x8
 1601 0851 90040000 		.4byte	.LASF116
 1602 0855 09       		.uleb128 0x9
 1603 0856 04       		.byte	0x4
 1604 0857 22030000 		.4byte	0x322
 1605 085b 0F       		.uleb128 0xf
 1606 085c 43080000 		.4byte	0x843
 1607 0860 10       		.uleb128 0x10
 1608 0861 99060000 		.4byte	0x699
 1609 0865 70080000 		.4byte	0x870
 1610 0869 11       		.uleb128 0x11
 1611 086a 76040000 		.4byte	0x476
 1612 086e 1A       		.byte	0x1a
 1613 086f 00       		.byte	0
 1614 0870 03       		.uleb128 0x3
 1615 0871 93010000 		.4byte	.LASF117
 1616 0875 0C       		.byte	0xc
 1617 0876 34       		.byte	0x34
 1618 0877 06080000 		.4byte	0x806
 1619 087b 09       		.uleb128 0x9
 1620 087c 04       		.byte	0x4
 1621 087d 70080000 		.4byte	0x870
 1622 0881 04       		.uleb128 0x4
 1623 0882 01       		.byte	0x1
 1624 0883 02       		.byte	0x2
 1625 0884 C0030000 		.4byte	.LASF118
 1626 0888 19       		.uleb128 0x19
 1627 0889 7C020000 		.4byte	.LASF124
 1628 088d 01       		.byte	0x1
 1629 088e 36       		.byte	0x36
 1630 088f 01       		.byte	0x1
 1631 0890 01       		.byte	0x1
 1632 0891 1A       		.uleb128 0x1a
 1633 0892 01       		.byte	0x1
 1634 0893 EC040000 		.4byte	.LASF125
 1635 0897 01       		.byte	0x1
ARM GAS  /tmp/ccOw7559.s 			page 44


 1636 0898 69       		.byte	0x69
 1637 0899 01       		.byte	0x1
 1638 089a 00000000 		.4byte	.LFB273
 1639 089e 8A000000 		.4byte	.LFE273
 1640 08a2 02       		.byte	0x2
 1641 08a3 7D       		.byte	0x7d
 1642 08a4 00       		.sleb128 0
 1643 08a5 01       		.byte	0x1
 1644 08a6 BA080000 		.4byte	0x8ba
 1645 08aa 1B       		.uleb128 0x1b
 1646 08ab 88080000 		.4byte	0x888
 1647 08af 22000000 		.4byte	.LBB4
 1648 08b3 00000000 		.4byte	.Ldebug_ranges0+0
 1649 08b7 01       		.byte	0x1
 1650 08b8 74       		.byte	0x74
 1651 08b9 00       		.byte	0
 1652 08ba 1C       		.uleb128 0x1c
 1653 08bb 01       		.byte	0x1
 1654 08bc 82010000 		.4byte	.LASF126
 1655 08c0 01       		.byte	0x1
 1656 08c1 90       		.byte	0x90
 1657 08c2 01       		.byte	0x1
 1658 08c3 00000000 		.4byte	.LFB274
 1659 08c7 B4000000 		.4byte	.LFE274
 1660 08cb 02       		.byte	0x2
 1661 08cc 7D       		.byte	0x7d
 1662 08cd 00       		.sleb128 0
 1663 08ce 01       		.byte	0x1
 1664 08cf 1D       		.uleb128 0x1d
 1665 08d0 B0000000 		.4byte	.LASF119
 1666 08d4 0D       		.byte	0xd
 1667 08d5 FA06     		.2byte	0x6fa
 1668 08d7 DD080000 		.4byte	0x8dd
 1669 08db 01       		.byte	0x1
 1670 08dc 01       		.byte	0x1
 1671 08dd 0F       		.uleb128 0xf
 1672 08de 69000000 		.4byte	0x69
 1673 08e2 1E       		.uleb128 0x1e
 1674 08e3 C5010000 		.4byte	.LASF120
 1675 08e7 01       		.byte	0x1
 1676 08e8 27       		.byte	0x27
 1677 08e9 7B000000 		.4byte	0x7b
 1678 08ed 01       		.byte	0x1
 1679 08ee 05       		.byte	0x5
 1680 08ef 03       		.byte	0x3
 1681 08f0 00000000 		.4byte	SystemCoreClock
 1682 08f4 1F       		.uleb128 0x1f
 1683 08f5 636800   		.ascii	"ch\000"
 1684 08f8 06       		.byte	0x6
 1685 08f9 0902     		.2byte	0x209
 1686 08fb 03040000 		.4byte	0x403
 1687 08ff 01       		.byte	0x1
 1688 0900 01       		.byte	0x1
 1689 0901 00       		.byte	0
 1690              		.section	.debug_abbrev,"",%progbits
 1691              	.Ldebug_abbrev0:
 1692 0000 01       		.uleb128 0x1
ARM GAS  /tmp/ccOw7559.s 			page 45


 1693 0001 11       		.uleb128 0x11
 1694 0002 01       		.byte	0x1
 1695 0003 25       		.uleb128 0x25
 1696 0004 0E       		.uleb128 0xe
 1697 0005 13       		.uleb128 0x13
 1698 0006 0B       		.uleb128 0xb
 1699 0007 03       		.uleb128 0x3
 1700 0008 0E       		.uleb128 0xe
 1701 0009 1B       		.uleb128 0x1b
 1702 000a 0E       		.uleb128 0xe
 1703 000b 55       		.uleb128 0x55
 1704 000c 06       		.uleb128 0x6
 1705 000d 11       		.uleb128 0x11
 1706 000e 01       		.uleb128 0x1
 1707 000f 52       		.uleb128 0x52
 1708 0010 01       		.uleb128 0x1
 1709 0011 10       		.uleb128 0x10
 1710 0012 06       		.uleb128 0x6
 1711 0013 00       		.byte	0
 1712 0014 00       		.byte	0
 1713 0015 02       		.uleb128 0x2
 1714 0016 24       		.uleb128 0x24
 1715 0017 00       		.byte	0
 1716 0018 0B       		.uleb128 0xb
 1717 0019 0B       		.uleb128 0xb
 1718 001a 3E       		.uleb128 0x3e
 1719 001b 0B       		.uleb128 0xb
 1720 001c 03       		.uleb128 0x3
 1721 001d 08       		.uleb128 0x8
 1722 001e 00       		.byte	0
 1723 001f 00       		.byte	0
 1724 0020 03       		.uleb128 0x3
 1725 0021 16       		.uleb128 0x16
 1726 0022 00       		.byte	0
 1727 0023 03       		.uleb128 0x3
 1728 0024 0E       		.uleb128 0xe
 1729 0025 3A       		.uleb128 0x3a
 1730 0026 0B       		.uleb128 0xb
 1731 0027 3B       		.uleb128 0x3b
 1732 0028 0B       		.uleb128 0xb
 1733 0029 49       		.uleb128 0x49
 1734 002a 13       		.uleb128 0x13
 1735 002b 00       		.byte	0
 1736 002c 00       		.byte	0
 1737 002d 04       		.uleb128 0x4
 1738 002e 24       		.uleb128 0x24
 1739 002f 00       		.byte	0
 1740 0030 0B       		.uleb128 0xb
 1741 0031 0B       		.uleb128 0xb
 1742 0032 3E       		.uleb128 0x3e
 1743 0033 0B       		.uleb128 0xb
 1744 0034 03       		.uleb128 0x3
 1745 0035 0E       		.uleb128 0xe
 1746 0036 00       		.byte	0
 1747 0037 00       		.byte	0
 1748 0038 05       		.uleb128 0x5
 1749 0039 13       		.uleb128 0x13
ARM GAS  /tmp/ccOw7559.s 			page 46


 1750 003a 01       		.byte	0x1
 1751 003b 03       		.uleb128 0x3
 1752 003c 0E       		.uleb128 0xe
 1753 003d 0B       		.uleb128 0xb
 1754 003e 0B       		.uleb128 0xb
 1755 003f 3A       		.uleb128 0x3a
 1756 0040 0B       		.uleb128 0xb
 1757 0041 3B       		.uleb128 0x3b
 1758 0042 0B       		.uleb128 0xb
 1759 0043 01       		.uleb128 0x1
 1760 0044 13       		.uleb128 0x13
 1761 0045 00       		.byte	0
 1762 0046 00       		.byte	0
 1763 0047 06       		.uleb128 0x6
 1764 0048 0D       		.uleb128 0xd
 1765 0049 00       		.byte	0
 1766 004a 03       		.uleb128 0x3
 1767 004b 0E       		.uleb128 0xe
 1768 004c 3A       		.uleb128 0x3a
 1769 004d 0B       		.uleb128 0xb
 1770 004e 3B       		.uleb128 0x3b
 1771 004f 0B       		.uleb128 0xb
 1772 0050 49       		.uleb128 0x49
 1773 0051 13       		.uleb128 0x13
 1774 0052 38       		.uleb128 0x38
 1775 0053 0A       		.uleb128 0xa
 1776 0054 00       		.byte	0
 1777 0055 00       		.byte	0
 1778 0056 07       		.uleb128 0x7
 1779 0057 0D       		.uleb128 0xd
 1780 0058 00       		.byte	0
 1781 0059 03       		.uleb128 0x3
 1782 005a 08       		.uleb128 0x8
 1783 005b 3A       		.uleb128 0x3a
 1784 005c 0B       		.uleb128 0xb
 1785 005d 3B       		.uleb128 0x3b
 1786 005e 05       		.uleb128 0x5
 1787 005f 49       		.uleb128 0x49
 1788 0060 13       		.uleb128 0x13
 1789 0061 38       		.uleb128 0x38
 1790 0062 0A       		.uleb128 0xa
 1791 0063 00       		.byte	0
 1792 0064 00       		.byte	0
 1793 0065 08       		.uleb128 0x8
 1794 0066 0D       		.uleb128 0xd
 1795 0067 00       		.byte	0
 1796 0068 03       		.uleb128 0x3
 1797 0069 0E       		.uleb128 0xe
 1798 006a 3A       		.uleb128 0x3a
 1799 006b 0B       		.uleb128 0xb
 1800 006c 3B       		.uleb128 0x3b
 1801 006d 05       		.uleb128 0x5
 1802 006e 49       		.uleb128 0x49
 1803 006f 13       		.uleb128 0x13
 1804 0070 38       		.uleb128 0x38
 1805 0071 0A       		.uleb128 0xa
 1806 0072 00       		.byte	0
ARM GAS  /tmp/ccOw7559.s 			page 47


 1807 0073 00       		.byte	0
 1808 0074 09       		.uleb128 0x9
 1809 0075 0F       		.uleb128 0xf
 1810 0076 00       		.byte	0
 1811 0077 0B       		.uleb128 0xb
 1812 0078 0B       		.uleb128 0xb
 1813 0079 49       		.uleb128 0x49
 1814 007a 13       		.uleb128 0x13
 1815 007b 00       		.byte	0
 1816 007c 00       		.byte	0
 1817 007d 0A       		.uleb128 0xa
 1818 007e 13       		.uleb128 0x13
 1819 007f 01       		.byte	0x1
 1820 0080 03       		.uleb128 0x3
 1821 0081 0E       		.uleb128 0xe
 1822 0082 0B       		.uleb128 0xb
 1823 0083 0B       		.uleb128 0xb
 1824 0084 3A       		.uleb128 0x3a
 1825 0085 0B       		.uleb128 0xb
 1826 0086 3B       		.uleb128 0x3b
 1827 0087 05       		.uleb128 0x5
 1828 0088 01       		.uleb128 0x1
 1829 0089 13       		.uleb128 0x13
 1830 008a 00       		.byte	0
 1831 008b 00       		.byte	0
 1832 008c 0B       		.uleb128 0xb
 1833 008d 15       		.uleb128 0x15
 1834 008e 01       		.byte	0x1
 1835 008f 27       		.uleb128 0x27
 1836 0090 0C       		.uleb128 0xc
 1837 0091 01       		.uleb128 0x1
 1838 0092 13       		.uleb128 0x13
 1839 0093 00       		.byte	0
 1840 0094 00       		.byte	0
 1841 0095 0C       		.uleb128 0xc
 1842 0096 05       		.uleb128 0x5
 1843 0097 00       		.byte	0
 1844 0098 49       		.uleb128 0x49
 1845 0099 13       		.uleb128 0x13
 1846 009a 00       		.byte	0
 1847 009b 00       		.byte	0
 1848 009c 0D       		.uleb128 0xd
 1849 009d 0F       		.uleb128 0xf
 1850 009e 00       		.byte	0
 1851 009f 0B       		.uleb128 0xb
 1852 00a0 0B       		.uleb128 0xb
 1853 00a1 00       		.byte	0
 1854 00a2 00       		.byte	0
 1855 00a3 0E       		.uleb128 0xe
 1856 00a4 13       		.uleb128 0x13
 1857 00a5 01       		.byte	0x1
 1858 00a6 03       		.uleb128 0x3
 1859 00a7 0E       		.uleb128 0xe
 1860 00a8 0B       		.uleb128 0xb
 1861 00a9 05       		.uleb128 0x5
 1862 00aa 3A       		.uleb128 0x3a
 1863 00ab 0B       		.uleb128 0xb
ARM GAS  /tmp/ccOw7559.s 			page 48


 1864 00ac 3B       		.uleb128 0x3b
 1865 00ad 05       		.uleb128 0x5
 1866 00ae 01       		.uleb128 0x1
 1867 00af 13       		.uleb128 0x13
 1868 00b0 00       		.byte	0
 1869 00b1 00       		.byte	0
 1870 00b2 0F       		.uleb128 0xf
 1871 00b3 35       		.uleb128 0x35
 1872 00b4 00       		.byte	0
 1873 00b5 49       		.uleb128 0x49
 1874 00b6 13       		.uleb128 0x13
 1875 00b7 00       		.byte	0
 1876 00b8 00       		.byte	0
 1877 00b9 10       		.uleb128 0x10
 1878 00ba 01       		.uleb128 0x1
 1879 00bb 01       		.byte	0x1
 1880 00bc 49       		.uleb128 0x49
 1881 00bd 13       		.uleb128 0x13
 1882 00be 01       		.uleb128 0x1
 1883 00bf 13       		.uleb128 0x13
 1884 00c0 00       		.byte	0
 1885 00c1 00       		.byte	0
 1886 00c2 11       		.uleb128 0x11
 1887 00c3 21       		.uleb128 0x21
 1888 00c4 00       		.byte	0
 1889 00c5 49       		.uleb128 0x49
 1890 00c6 13       		.uleb128 0x13
 1891 00c7 2F       		.uleb128 0x2f
 1892 00c8 0B       		.uleb128 0xb
 1893 00c9 00       		.byte	0
 1894 00ca 00       		.byte	0
 1895 00cb 12       		.uleb128 0x12
 1896 00cc 13       		.uleb128 0x13
 1897 00cd 01       		.byte	0x1
 1898 00ce 0B       		.uleb128 0xb
 1899 00cf 0B       		.uleb128 0xb
 1900 00d0 3A       		.uleb128 0x3a
 1901 00d1 0B       		.uleb128 0xb
 1902 00d2 3B       		.uleb128 0x3b
 1903 00d3 05       		.uleb128 0x5
 1904 00d4 01       		.uleb128 0x1
 1905 00d5 13       		.uleb128 0x13
 1906 00d6 00       		.byte	0
 1907 00d7 00       		.byte	0
 1908 00d8 13       		.uleb128 0x13
 1909 00d9 16       		.uleb128 0x16
 1910 00da 00       		.byte	0
 1911 00db 03       		.uleb128 0x3
 1912 00dc 0E       		.uleb128 0xe
 1913 00dd 3A       		.uleb128 0x3a
 1914 00de 0B       		.uleb128 0xb
 1915 00df 3B       		.uleb128 0x3b
 1916 00e0 05       		.uleb128 0x5
 1917 00e1 49       		.uleb128 0x49
 1918 00e2 13       		.uleb128 0x13
 1919 00e3 00       		.byte	0
 1920 00e4 00       		.byte	0
ARM GAS  /tmp/ccOw7559.s 			page 49


 1921 00e5 14       		.uleb128 0x14
 1922 00e6 0D       		.uleb128 0xd
 1923 00e7 00       		.byte	0
 1924 00e8 03       		.uleb128 0x3
 1925 00e9 08       		.uleb128 0x8
 1926 00ea 3A       		.uleb128 0x3a
 1927 00eb 0B       		.uleb128 0xb
 1928 00ec 3B       		.uleb128 0x3b
 1929 00ed 0B       		.uleb128 0xb
 1930 00ee 49       		.uleb128 0x49
 1931 00ef 13       		.uleb128 0x13
 1932 00f0 38       		.uleb128 0x38
 1933 00f1 0A       		.uleb128 0xa
 1934 00f2 00       		.byte	0
 1935 00f3 00       		.byte	0
 1936 00f4 15       		.uleb128 0x15
 1937 00f5 13       		.uleb128 0x13
 1938 00f6 01       		.byte	0x1
 1939 00f7 0B       		.uleb128 0xb
 1940 00f8 0B       		.uleb128 0xb
 1941 00f9 3A       		.uleb128 0x3a
 1942 00fa 0B       		.uleb128 0xb
 1943 00fb 3B       		.uleb128 0x3b
 1944 00fc 0B       		.uleb128 0xb
 1945 00fd 01       		.uleb128 0x1
 1946 00fe 13       		.uleb128 0x13
 1947 00ff 00       		.byte	0
 1948 0100 00       		.byte	0
 1949 0101 16       		.uleb128 0x16
 1950 0102 17       		.uleb128 0x17
 1951 0103 01       		.byte	0x1
 1952 0104 0B       		.uleb128 0xb
 1953 0105 0B       		.uleb128 0xb
 1954 0106 3A       		.uleb128 0x3a
 1955 0107 0B       		.uleb128 0xb
 1956 0108 3B       		.uleb128 0x3b
 1957 0109 0B       		.uleb128 0xb
 1958 010a 01       		.uleb128 0x1
 1959 010b 13       		.uleb128 0x13
 1960 010c 00       		.byte	0
 1961 010d 00       		.byte	0
 1962 010e 17       		.uleb128 0x17
 1963 010f 0D       		.uleb128 0xd
 1964 0110 00       		.byte	0
 1965 0111 03       		.uleb128 0x3
 1966 0112 0E       		.uleb128 0xe
 1967 0113 3A       		.uleb128 0x3a
 1968 0114 0B       		.uleb128 0xb
 1969 0115 3B       		.uleb128 0x3b
 1970 0116 05       		.uleb128 0x5
 1971 0117 49       		.uleb128 0x49
 1972 0118 13       		.uleb128 0x13
 1973 0119 00       		.byte	0
 1974 011a 00       		.byte	0
 1975 011b 18       		.uleb128 0x18
 1976 011c 26       		.uleb128 0x26
 1977 011d 00       		.byte	0
ARM GAS  /tmp/ccOw7559.s 			page 50


 1978 011e 49       		.uleb128 0x49
 1979 011f 13       		.uleb128 0x13
 1980 0120 00       		.byte	0
 1981 0121 00       		.byte	0
 1982 0122 19       		.uleb128 0x19
 1983 0123 2E       		.uleb128 0x2e
 1984 0124 00       		.byte	0
 1985 0125 03       		.uleb128 0x3
 1986 0126 0E       		.uleb128 0xe
 1987 0127 3A       		.uleb128 0x3a
 1988 0128 0B       		.uleb128 0xb
 1989 0129 3B       		.uleb128 0x3b
 1990 012a 0B       		.uleb128 0xb
 1991 012b 27       		.uleb128 0x27
 1992 012c 0C       		.uleb128 0xc
 1993 012d 20       		.uleb128 0x20
 1994 012e 0B       		.uleb128 0xb
 1995 012f 00       		.byte	0
 1996 0130 00       		.byte	0
 1997 0131 1A       		.uleb128 0x1a
 1998 0132 2E       		.uleb128 0x2e
 1999 0133 01       		.byte	0x1
 2000 0134 3F       		.uleb128 0x3f
 2001 0135 0C       		.uleb128 0xc
 2002 0136 03       		.uleb128 0x3
 2003 0137 0E       		.uleb128 0xe
 2004 0138 3A       		.uleb128 0x3a
 2005 0139 0B       		.uleb128 0xb
 2006 013a 3B       		.uleb128 0x3b
 2007 013b 0B       		.uleb128 0xb
 2008 013c 27       		.uleb128 0x27
 2009 013d 0C       		.uleb128 0xc
 2010 013e 11       		.uleb128 0x11
 2011 013f 01       		.uleb128 0x1
 2012 0140 12       		.uleb128 0x12
 2013 0141 01       		.uleb128 0x1
 2014 0142 40       		.uleb128 0x40
 2015 0143 0A       		.uleb128 0xa
 2016 0144 9742     		.uleb128 0x2117
 2017 0146 0C       		.uleb128 0xc
 2018 0147 01       		.uleb128 0x1
 2019 0148 13       		.uleb128 0x13
 2020 0149 00       		.byte	0
 2021 014a 00       		.byte	0
 2022 014b 1B       		.uleb128 0x1b
 2023 014c 1D       		.uleb128 0x1d
 2024 014d 00       		.byte	0
 2025 014e 31       		.uleb128 0x31
 2026 014f 13       		.uleb128 0x13
 2027 0150 52       		.uleb128 0x52
 2028 0151 01       		.uleb128 0x1
 2029 0152 55       		.uleb128 0x55
 2030 0153 06       		.uleb128 0x6
 2031 0154 58       		.uleb128 0x58
 2032 0155 0B       		.uleb128 0xb
 2033 0156 59       		.uleb128 0x59
 2034 0157 0B       		.uleb128 0xb
ARM GAS  /tmp/ccOw7559.s 			page 51


 2035 0158 00       		.byte	0
 2036 0159 00       		.byte	0
 2037 015a 1C       		.uleb128 0x1c
 2038 015b 2E       		.uleb128 0x2e
 2039 015c 00       		.byte	0
 2040 015d 3F       		.uleb128 0x3f
 2041 015e 0C       		.uleb128 0xc
 2042 015f 03       		.uleb128 0x3
 2043 0160 0E       		.uleb128 0xe
 2044 0161 3A       		.uleb128 0x3a
 2045 0162 0B       		.uleb128 0xb
 2046 0163 3B       		.uleb128 0x3b
 2047 0164 0B       		.uleb128 0xb
 2048 0165 27       		.uleb128 0x27
 2049 0166 0C       		.uleb128 0xc
 2050 0167 11       		.uleb128 0x11
 2051 0168 01       		.uleb128 0x1
 2052 0169 12       		.uleb128 0x12
 2053 016a 01       		.uleb128 0x1
 2054 016b 40       		.uleb128 0x40
 2055 016c 0A       		.uleb128 0xa
 2056 016d 9742     		.uleb128 0x2117
 2057 016f 0C       		.uleb128 0xc
 2058 0170 00       		.byte	0
 2059 0171 00       		.byte	0
 2060 0172 1D       		.uleb128 0x1d
 2061 0173 34       		.uleb128 0x34
 2062 0174 00       		.byte	0
 2063 0175 03       		.uleb128 0x3
 2064 0176 0E       		.uleb128 0xe
 2065 0177 3A       		.uleb128 0x3a
 2066 0178 0B       		.uleb128 0xb
 2067 0179 3B       		.uleb128 0x3b
 2068 017a 05       		.uleb128 0x5
 2069 017b 49       		.uleb128 0x49
 2070 017c 13       		.uleb128 0x13
 2071 017d 3F       		.uleb128 0x3f
 2072 017e 0C       		.uleb128 0xc
 2073 017f 3C       		.uleb128 0x3c
 2074 0180 0C       		.uleb128 0xc
 2075 0181 00       		.byte	0
 2076 0182 00       		.byte	0
 2077 0183 1E       		.uleb128 0x1e
 2078 0184 34       		.uleb128 0x34
 2079 0185 00       		.byte	0
 2080 0186 03       		.uleb128 0x3
 2081 0187 0E       		.uleb128 0xe
 2082 0188 3A       		.uleb128 0x3a
 2083 0189 0B       		.uleb128 0xb
 2084 018a 3B       		.uleb128 0x3b
 2085 018b 0B       		.uleb128 0xb
 2086 018c 49       		.uleb128 0x49
 2087 018d 13       		.uleb128 0x13
 2088 018e 3F       		.uleb128 0x3f
 2089 018f 0C       		.uleb128 0xc
 2090 0190 02       		.uleb128 0x2
 2091 0191 0A       		.uleb128 0xa
ARM GAS  /tmp/ccOw7559.s 			page 52


 2092 0192 00       		.byte	0
 2093 0193 00       		.byte	0
 2094 0194 1F       		.uleb128 0x1f
 2095 0195 34       		.uleb128 0x34
 2096 0196 00       		.byte	0
 2097 0197 03       		.uleb128 0x3
 2098 0198 08       		.uleb128 0x8
 2099 0199 3A       		.uleb128 0x3a
 2100 019a 0B       		.uleb128 0xb
 2101 019b 3B       		.uleb128 0x3b
 2102 019c 05       		.uleb128 0x5
 2103 019d 49       		.uleb128 0x49
 2104 019e 13       		.uleb128 0x13
 2105 019f 3F       		.uleb128 0x3f
 2106 01a0 0C       		.uleb128 0xc
 2107 01a1 3C       		.uleb128 0x3c
 2108 01a2 0C       		.uleb128 0xc
 2109 01a3 00       		.byte	0
 2110 01a4 00       		.byte	0
 2111 01a5 00       		.byte	0
 2112              		.section	.debug_aranges,"",%progbits
 2113 0000 24000000 		.4byte	0x24
 2114 0004 0200     		.2byte	0x2
 2115 0006 00000000 		.4byte	.Ldebug_info0
 2116 000a 04       		.byte	0x4
 2117 000b 00       		.byte	0
 2118 000c 0000     		.2byte	0
 2119 000e 0000     		.2byte	0
 2120 0010 00000000 		.4byte	.LFB273
 2121 0014 8A000000 		.4byte	.LFE273-.LFB273
 2122 0018 00000000 		.4byte	.LFB274
 2123 001c B4000000 		.4byte	.LFE274-.LFB274
 2124 0020 00000000 		.4byte	0
 2125 0024 00000000 		.4byte	0
 2126              		.section	.debug_ranges,"",%progbits
 2127              	.Ldebug_ranges0:
 2128 0000 22000000 		.4byte	.LBB4
 2129 0004 2A000000 		.4byte	.LBE4
 2130 0008 30000000 		.4byte	.LBB7
 2131 000c 6A000000 		.4byte	.LBE7
 2132 0010 00000000 		.4byte	0
 2133 0014 00000000 		.4byte	0
 2134 0018 00000000 		.4byte	.LFB273
 2135 001c 8A000000 		.4byte	.LFE273
 2136 0020 00000000 		.4byte	.LFB274
 2137 0024 B4000000 		.4byte	.LFE274
 2138 0028 00000000 		.4byte	0
 2139 002c 00000000 		.4byte	0
 2140              		.section	.debug_line,"",%progbits
 2141              	.Ldebug_line0:
 2142 0000 75020000 		.section	.debug_str,"MS",%progbits,1
 2142      02000602 
 2142      00000201 
 2142      FB0E0D00 
 2142      01010101 
 2143              	.LASF47:
 2144 0000 72656164 		.ascii	"ready_list_t\000"
ARM GAS  /tmp/ccOw7559.s 			page 53


 2144      795F6C69 
 2144      73745F74 
 2144      00
 2145              	.LASF2:
 2146 000d 73697A65 		.ascii	"size_t\000"
 2146      5F7400
 2147              	.LASF102:
 2148 0014 7264796D 		.ascii	"rdymsg\000"
 2148      736700
 2149              	.LASF12:
 2150 001b 75696E74 		.ascii	"uint64_t\000"
 2150      36345F74 
 2150      00
 2151              	.LASF99:
 2152 0024 706F7274 		.ascii	"port_intctx\000"
 2152      5F696E74 
 2152      63747800 
 2153              	.LASF66:
 2154 0030 73797374 		.ascii	"system_debug_t\000"
 2154      656D5F64 
 2154      65627567 
 2154      5F7400
 2155              	.LASF13:
 2156 003f 6C6F6E67 		.ascii	"long long unsigned int\000"
 2156      206C6F6E 
 2156      6720756E 
 2156      7369676E 
 2156      65642069 
 2157              	.LASF103:
 2158 0056 65786974 		.ascii	"exitcode\000"
 2158      636F6465 
 2158      00
 2159              	.LASF73:
 2160 005f 6D61696E 		.ascii	"mainthread\000"
 2160      74687265 
 2160      616400
 2161              	.LASF63:
 2162 006a 76697274 		.ascii	"virtual_timers_list_t\000"
 2162      75616C5F 
 2162      74696D65 
 2162      72735F6C 
 2162      6973745F 
 2163              	.LASF122:
 2164 0080 2E2E2F2E 		.ascii	"../../../os/hal/ports/STM32/STM32F3xx/hal_lld.c\000"
 2164      2E2F2E2E 
 2164      2F6F732F 
 2164      68616C2F 
 2164      706F7274 
 2165              	.LASF119:
 2166 00b0 49544D5F 		.ascii	"ITM_RxBuffer\000"
 2166      52784275 
 2166      66666572 
 2166      00
 2167              	.LASF46:
 2168 00bd 63685F74 		.ascii	"ch_threads_queue\000"
 2168      68726561 
 2168      64735F71 
ARM GAS  /tmp/ccOw7559.s 			page 54


 2168      75657565 
 2168      00
 2169              	.LASF26:
 2170 00ce 705F7072 		.ascii	"p_prio\000"
 2170      696F00
 2171              	.LASF11:
 2172 00d5 6C6F6E67 		.ascii	"long long int\000"
 2172      206C6F6E 
 2172      6720696E 
 2172      7400
 2173              	.LASF1:
 2174 00e3 7369676E 		.ascii	"signed char\000"
 2174      65642063 
 2174      68617200 
 2175              	.LASF80:
 2176 00ef 464C4153 		.ascii	"FLASH_TypeDef\000"
 2176      485F5479 
 2176      70654465 
 2176      6600
 2177              	.LASF40:
 2178 00fd 705F6D70 		.ascii	"p_mpool\000"
 2178      6F6F6C00 
 2179              	.LASF113:
 2180 0105 6D5F7175 		.ascii	"m_queue\000"
 2180      65756500 
 2181              	.LASF72:
 2182 010d 76746C69 		.ascii	"vtlist\000"
 2182      737400
 2183              	.LASF85:
 2184 0114 5057525F 		.ascii	"PWR_TypeDef\000"
 2184      54797065 
 2184      44656600 
 2185              	.LASF105:
 2186 0120 77747472 		.ascii	"wttrp\000"
 2186      7000
 2187              	.LASF70:
 2188 0126 63685F73 		.ascii	"ch_system\000"
 2188      79737465 
 2188      6D00
 2189              	.LASF8:
 2190 0130 6C6F6E67 		.ascii	"long int\000"
 2190      20696E74 
 2190      00
 2191              	.LASF87:
 2192 0139 41504232 		.ascii	"APB2RSTR\000"
 2192      52535452 
 2192      00
 2193              	.LASF16:
 2194 0142 74737461 		.ascii	"tstate_t\000"
 2194      74655F74 
 2194      00
 2195              	.LASF77:
 2196 014b 4F50544B 		.ascii	"OPTKEYR\000"
 2196      45595200 
 2197              	.LASF28:
 2198 0153 705F6E65 		.ascii	"p_newer\000"
 2198      77657200 
ARM GAS  /tmp/ccOw7559.s 			page 55


 2199              	.LASF110:
 2200 015b 735F7175 		.ascii	"s_queue\000"
 2200      65756500 
 2201              	.LASF52:
 2202 0163 725F6E65 		.ascii	"r_newer\000"
 2202      77657200 
 2203              	.LASF96:
 2204 016b 72656761 		.ascii	"regarm_t\000"
 2204      726D5F74 
 2204      00
 2205              	.LASF59:
 2206 0174 76745F70 		.ascii	"vt_prev\000"
 2206      72657600 
 2207              	.LASF71:
 2208 017c 726C6973 		.ascii	"rlist\000"
 2208      7400
 2209              	.LASF126:
 2210 0182 73746D33 		.ascii	"stm32_clock_init\000"
 2210      325F636C 
 2210      6F636B5F 
 2210      696E6974 
 2210      00
 2211              	.LASF117:
 2212 0193 6D757465 		.ascii	"mutex_t\000"
 2212      785F7400 
 2213              	.LASF74:
 2214 019b 69646C65 		.ascii	"idle_thread_wa\000"
 2214      5F746872 
 2214      6561645F 
 2214      776100
 2215              	.LASF21:
 2216 01aa 636E745F 		.ascii	"cnt_t\000"
 2216      7400
 2217              	.LASF0:
 2218 01b0 756E7369 		.ascii	"unsigned int\000"
 2218      676E6564 
 2218      20696E74 
 2218      00
 2219              	.LASF58:
 2220 01bd 76745F6E 		.ascii	"vt_next\000"
 2220      65787400 
 2221              	.LASF120:
 2222 01c5 53797374 		.ascii	"SystemCoreClock\000"
 2222      656D436F 
 2222      7265436C 
 2222      6F636B00 
 2223              	.LASF106:
 2224 01d5 77747365 		.ascii	"wtsemp\000"
 2224      6D7000
 2225              	.LASF35:
 2226 01dc 705F6D73 		.ascii	"p_msgqueue\000"
 2226      67717565 
 2226      756500
 2227              	.LASF95:
 2228 01e7 5243435F 		.ascii	"RCC_TypeDef\000"
 2228      54797065 
 2228      44656600 
ARM GAS  /tmp/ccOw7559.s 			page 56


 2229              	.LASF111:
 2230 01f3 735F636E 		.ascii	"s_cnt\000"
 2230      7400
 2231              	.LASF6:
 2232 01f9 73686F72 		.ascii	"short unsigned int\000"
 2232      7420756E 
 2232      7369676E 
 2232      65642069 
 2232      6E7400
 2233              	.LASF123:
 2234 020c 2F686F6D 		.ascii	"/home/sylvain/Documents/TelecomRobotics/ChibiOS_16."
 2234      652F7379 
 2234      6C766169 
 2234      6E2F446F 
 2234      63756D65 
 2235 023f 312E372F 		.ascii	"1.7/demos/STM32/RT-STM32F302R8-NUCLEO\000"
 2235      64656D6F 
 2235      732F5354 
 2235      4D33322F 
 2235      52542D53 
 2236              	.LASF43:
 2237 0265 63685F74 		.ascii	"ch_thread\000"
 2237      68726561 
 2237      6400
 2238              	.LASF19:
 2239 026f 6D73675F 		.ascii	"msg_t\000"
 2239      7400
 2240              	.LASF89:
 2241 0275 41484245 		.ascii	"AHBENR\000"
 2241      4E5200
 2242              	.LASF124:
 2243 027c 68616C5F 		.ascii	"hal_lld_backup_domain_init\000"
 2243      6C6C645F 
 2243      6261636B 
 2243      75705F64 
 2243      6F6D6169 
 2244              	.LASF69:
 2245 0297 63685F73 		.ascii	"ch_system_t\000"
 2245      79737465 
 2245      6D5F7400 
 2246              	.LASF15:
 2247 02a3 746D6F64 		.ascii	"tmode_t\000"
 2247      655F7400 
 2248              	.LASF48:
 2249 02ab 63685F72 		.ascii	"ch_ready_list\000"
 2249      65616479 
 2249      5F6C6973 
 2249      7400
 2250              	.LASF20:
 2251 02b9 6576656E 		.ascii	"eventmask_t\000"
 2251      746D6173 
 2251      6B5F7400 
 2252              	.LASF97:
 2253 02c5 73746B61 		.ascii	"stkalign_t\000"
 2253      6C69676E 
 2253      5F7400
 2254              	.LASF42:
ARM GAS  /tmp/ccOw7559.s 			page 57


 2255 02d0 74687265 		.ascii	"threads_list_t\000"
 2255      6164735F 
 2255      6C697374 
 2255      5F7400
 2256              	.LASF34:
 2257 02df 705F7761 		.ascii	"p_waiting\000"
 2257      6974696E 
 2257      6700
 2258              	.LASF75:
 2259 02e9 73697A65 		.ascii	"sizetype\000"
 2259      74797065 
 2259      00
 2260              	.LASF41:
 2261 02f2 74687265 		.ascii	"thread_reference_t\000"
 2261      61645F72 
 2261      65666572 
 2261      656E6365 
 2261      5F7400
 2262              	.LASF64:
 2263 0305 63685F76 		.ascii	"ch_virtual_timers_list\000"
 2263      69727475 
 2263      616C5F74 
 2263      696D6572 
 2263      735F6C69 
 2264              	.LASF24:
 2265 031c 705F6E65 		.ascii	"p_next\000"
 2265      787400
 2266              	.LASF65:
 2267 0323 76745F6C 		.ascii	"vt_lasttime\000"
 2267      61737474 
 2267      696D6500 
 2268              	.LASF29:
 2269 032f 705F6F6C 		.ascii	"p_older\000"
 2269      64657200 
 2270              	.LASF51:
 2271 0337 725F6374 		.ascii	"r_ctx\000"
 2271      7800
 2272              	.LASF101:
 2273 033d 746D5F63 		.ascii	"tm_calibration_t\000"
 2273      616C6962 
 2273      72617469 
 2273      6F6E5F74 
 2273      00
 2274              	.LASF93:
 2275 034e 41484252 		.ascii	"AHBRSTR\000"
 2275      53545200 
 2276              	.LASF121:
 2277 0356 474E5520 		.ascii	"GNU C 4.7.2\000"
 2277      4320342E 
 2277      372E3200 
 2278              	.LASF54:
 2279 0362 725F6375 		.ascii	"r_current\000"
 2279      7272656E 
 2279      7400
 2280              	.LASF88:
 2281 036c 41504231 		.ascii	"APB1RSTR\000"
 2281      52535452 
ARM GAS  /tmp/ccOw7559.s 			page 58


 2281      00
 2282              	.LASF84:
 2283 0375 53595343 		.ascii	"SYSCFG_TypeDef\000"
 2283      46475F54 
 2283      79706544 
 2283      656600
 2284              	.LASF17:
 2285 0384 74726566 		.ascii	"trefs_t\000"
 2285      735F7400 
 2286              	.LASF76:
 2287 038c 4B455952 		.ascii	"KEYR\000"
 2287      00
 2288              	.LASF56:
 2289 0391 76697274 		.ascii	"virtual_timer_t\000"
 2289      75616C5F 
 2289      74696D65 
 2289      725F7400 
 2290              	.LASF25:
 2291 03a1 705F7072 		.ascii	"p_prev\000"
 2291      657600
 2292              	.LASF18:
 2293 03a8 74707269 		.ascii	"tprio_t\000"
 2293      6F5F7400 
 2294              	.LASF67:
 2295 03b0 63685F73 		.ascii	"ch_system_debug\000"
 2295      79737465 
 2295      6D5F6465 
 2295      62756700 
 2296              	.LASF118:
 2297 03c0 5F426F6F 		.ascii	"_Bool\000"
 2297      6C00
 2298              	.LASF7:
 2299 03c6 696E7433 		.ascii	"int32_t\000"
 2299      325F7400 
 2300              	.LASF4:
 2301 03ce 756E7369 		.ascii	"unsigned char\000"
 2301      676E6564 
 2301      20636861 
 2301      7200
 2302              	.LASF38:
 2303 03dc 705F6D74 		.ascii	"p_mtxlist\000"
 2303      786C6973 
 2303      7400
 2304              	.LASF5:
 2305 03e6 73686F72 		.ascii	"short int\000"
 2305      7420696E 
 2305      7400
 2306              	.LASF31:
 2307 03f0 705F7374 		.ascii	"p_state\000"
 2307      61746500 
 2308              	.LASF50:
 2309 03f8 725F7072 		.ascii	"r_prio\000"
 2309      696F00
 2310              	.LASF78:
 2311 03ff 52455345 		.ascii	"RESERVED\000"
 2311      52564544 
 2311      00
ARM GAS  /tmp/ccOw7559.s 			page 59


 2312              	.LASF108:
 2313 0408 65776D61 		.ascii	"ewmask\000"
 2313      736B00
 2314              	.LASF32:
 2315 040f 705F666C 		.ascii	"p_flags\000"
 2315      61677300 
 2316              	.LASF90:
 2317 0417 41504232 		.ascii	"APB2ENR\000"
 2317      454E5200 
 2318              	.LASF57:
 2319 041f 63685F76 		.ascii	"ch_virtual_timer\000"
 2319      69727475 
 2319      616C5F74 
 2319      696D6572 
 2319      00
 2320              	.LASF109:
 2321 0430 63685F73 		.ascii	"ch_semaphore\000"
 2321      656D6170 
 2321      686F7265 
 2321      00
 2322              	.LASF37:
 2323 043d 705F6570 		.ascii	"p_epending\000"
 2323      656E6469 
 2323      6E6700
 2324              	.LASF9:
 2325 0448 75696E74 		.ascii	"uint32_t\000"
 2325      33325F74 
 2325      00
 2326              	.LASF107:
 2327 0451 77746D74 		.ascii	"wtmtxp\000"
 2327      787000
 2328              	.LASF49:
 2329 0458 725F7175 		.ascii	"r_queue\000"
 2329      65756500 
 2330              	.LASF60:
 2331 0460 76745F64 		.ascii	"vt_delta\000"
 2331      656C7461 
 2331      00
 2332              	.LASF44:
 2333 0469 63685F74 		.ascii	"ch_threads_list\000"
 2333      68726561 
 2333      64735F6C 
 2333      69737400 
 2334              	.LASF10:
 2335 0479 6C6F6E67 		.ascii	"long unsigned int\000"
 2335      20756E73 
 2335      69676E65 
 2335      6420696E 
 2335      7400
 2336              	.LASF79:
 2337 048b 57525052 		.ascii	"WRPR\000"
 2337      00
 2338              	.LASF116:
 2339 0490 63686172 		.ascii	"char\000"
 2339      00
 2340              	.LASF23:
 2341 0495 74687265 		.ascii	"thread_t\000"
ARM GAS  /tmp/ccOw7559.s 			page 60


 2341      61645F74 
 2341      00
 2342              	.LASF115:
 2343 049e 6D5F6E65 		.ascii	"m_next\000"
 2343      787400
 2344              	.LASF22:
 2345 04a5 73797374 		.ascii	"systime_t\000"
 2345      696D655F 
 2345      7400
 2346              	.LASF39:
 2347 04af 705F7265 		.ascii	"p_realprio\000"
 2347      616C7072 
 2347      696F00
 2348              	.LASF55:
 2349 04ba 76746675 		.ascii	"vtfunc_t\000"
 2349      6E635F74 
 2349      00
 2350              	.LASF68:
 2351 04c3 70616E69 		.ascii	"panic_msg\000"
 2351      635F6D73 
 2351      6700
 2352              	.LASF100:
 2353 04cd 6F666673 		.ascii	"offset\000"
 2353      657400
 2354              	.LASF91:
 2355 04d4 41504231 		.ascii	"APB1ENR\000"
 2355      454E5200 
 2356              	.LASF98:
 2357 04dc 636F6E74 		.ascii	"context\000"
 2357      65787400 
 2358              	.LASF53:
 2359 04e4 725F6F6C 		.ascii	"r_older\000"
 2359      64657200 
 2360              	.LASF125:
 2361 04ec 68616C5F 		.ascii	"hal_lld_init\000"
 2361      6C6C645F 
 2361      696E6974 
 2361      00
 2362              	.LASF14:
 2363 04f9 7274636E 		.ascii	"rtcnt_t\000"
 2363      745F7400 
 2364              	.LASF62:
 2365 0501 76745F70 		.ascii	"vt_par\000"
 2365      617200
 2366              	.LASF45:
 2367 0508 74687265 		.ascii	"threads_queue_t\000"
 2367      6164735F 
 2367      71756575 
 2367      655F7400 
 2368              	.LASF112:
 2369 0518 63685F6D 		.ascii	"ch_mutex\000"
 2369      75746578 
 2369      00
 2370              	.LASF33:
 2371 0521 705F7265 		.ascii	"p_refs\000"
 2371      667300
 2372              	.LASF92:
ARM GAS  /tmp/ccOw7559.s 			page 61


 2373 0528 42444352 		.ascii	"BDCR\000"
 2373      00
 2374              	.LASF81:
 2375 052d 43464752 		.ascii	"CFGR1\000"
 2375      3100
 2376              	.LASF83:
 2377 0533 43464752 		.ascii	"CFGR2\000"
 2377      3200
 2378              	.LASF94:
 2379 0539 43464752 		.ascii	"CFGR3\000"
 2379      3300
 2380              	.LASF3:
 2381 053f 75696E74 		.ascii	"uint8_t\000"
 2381      385F7400 
 2382              	.LASF104:
 2383 0547 77746F62 		.ascii	"wtobjp\000"
 2383      6A7000
 2384              	.LASF30:
 2385 054e 705F6E61 		.ascii	"p_name\000"
 2385      6D6500
 2386              	.LASF86:
 2387 0555 43464752 		.ascii	"CFGR\000"
 2387      00
 2388              	.LASF36:
 2389 055a 705F6D73 		.ascii	"p_msg\000"
 2389      6700
 2390              	.LASF114:
 2391 0560 6D5F6F77 		.ascii	"m_owner\000"
 2391      6E657200 
 2392              	.LASF27:
 2393 0568 705F6374 		.ascii	"p_ctx\000"
 2393      7800
 2394              	.LASF61:
 2395 056e 76745F66 		.ascii	"vt_func\000"
 2395      756E6300 
 2396              	.LASF82:
 2397 0576 45585449 		.ascii	"EXTICR\000"
 2397      435200
 2398              		.comm	__gnu_lto_v1,1,1
 2399              		.ident	"GCC: (GNU) 4.7.2"
ARM GAS  /tmp/ccOw7559.s 			page 62


DEFINED SYMBOLS
                            *ABS*:00000000 hal_lld.c
     /tmp/ccOw7559.s:266    .text.hal_lld_init:00000000 $t
     /tmp/ccOw7559.s:272    .text.hal_lld_init:00000000 hal_lld_init
     /tmp/ccOw7559.s:362    .text.stm32_clock_init:00000000 $t
     /tmp/ccOw7559.s:368    .text.stm32_clock_init:00000000 stm32_clock_init
     /tmp/ccOw7559.s:475    .data.SystemCoreClock:00000000 SystemCoreClock
     /tmp/ccOw7559.s:472    .data.SystemCoreClock:00000000 $d
                            *COM*:00000001 __gnu_lto_v1
                     .debug_frame:00000010 $d

NO UNDEFINED SYMBOLS
