ARM GAS  /tmp/cchTuLYH.s 			page 1


   1              		.syntax unified
   2              		.cpu cortex-m4
   3              		.fpu softvfp
   4              		.eabi_attribute 20, 1
   5              		.eabi_attribute 21, 1
   6              		.eabi_attribute 23, 3
   7              		.eabi_attribute 24, 1
   8              		.eabi_attribute 25, 1
   9              		.eabi_attribute 26, 1
  10              		.eabi_attribute 30, 2
  11              		.eabi_attribute 34, 1
  12              		.eabi_attribute 18, 4
  13              		.thumb
  14              		.file	"main.c"
  15              		.text
  16              	.Ltext0:
  17              		.section	.gnu.lto_.jmpfuncs.40fb8eb46ae01d86,"",%progbits
  18 0000 789C6362 		.ascii	"x\234cb`d`g\300\016\346\0021\007\02031002I2\244220t"
  18      60646067 
  18      C00EE602 
  18      31071033 
  18      31303032 
  19 001b A8A33051 		.ascii	"\250\2430Q\305\253\030~6p\244222f22\034\353Y,\012\324"
  19      C5AB187E 
  19      3670A432 
  19      32326632 
  19      321CEB59 
  20 0032 CA0A1364 		.ascii	"\312\012\023d\002\0122>\331\316\0152\016\244\205\231"
  20      020A323E 
  20      D9CE0D32 
  20      0EA48599 
  21 0042 E1041303 		.ascii	"\341\004\023\003T\263\003\003L\025\013c<#\303\011V\230"
  21      54B30303 
  21      4C150B63 
  21      3C23C309 
  21      5698
  22 0054 223003C5 		.ascii	"\"0\003\305\330?\327\330`\222l\020G\262\347&f\346\351"
  22      D83FD7D8 
  22      60926C10 
  22      47B2E726 
  22      66E6E9
  23 0067 25330000 		.ascii	"%3\000\000\2425\0333"
  23      A2351B33 
  24              		.text
  25              		.section	.gnu.lto_.inline.40fb8eb46ae01d86,"",%progbits
  26 0000 789C6362 		.ascii	"x\234cb`d\340e\300\016\302\2414\023\003\003\327#!F\006"
  26      6064E065 
  26      C00EC2A1 
  26      34130303 
  26      D7232146 
  27 0015 268E0557 		.ascii	"&\216\005W$\030X\200|&nF\240>\010\311\310 \266[\024"
  27      24185880 
  27      7C266E46 
  27      A03E08C9 
  27      C820B65B 
  28 002a C8E13AD0 		.ascii	"\310\341:\320b\213!\311\306\317\300\300\0126\204\231"
  28      628B21C9 
ARM GAS  /tmp/cchTuLYH.s 			page 2


  28      C6CFC0C0 
  28      0A368499 
  29 003a 076C1023 		.ascii	"\007l\020#\027\003\224`\000\000\2024\005\375"
  29      17039460 
  29      00008234 
  29      05FD
  30              		.text
  31              		.section	.gnu.lto_.pureconst.40fb8eb46ae01d86,"",%progbits
  32 0000 789C6362 		.ascii	"x\234cb`d`f```e\200\000&\0063F3\000\001\252\000{"
  32      60646066 
  32      60606065 
  32      80002606 
  32      33463300 
  33              		.text
  34              		.section	.gnu.lto_Thread1.40fb8eb46ae01d86,"",%progbits
  35 0000 789CB553 		.ascii	"x\234\265S=kTA\024=gf\366#\233D\243\026j\241F\211\010"
  35      3D6B5441 
  35      143D6766 
  35      F6239B44 
  35      A3166AA1 
  36 0017 06F7155A 		.ascii	"\006\367\025Zl\2312`\225\200 \302&\254\353\220<LVxI"
  36      6C993260 
  36      958020C2 
  36      26ACEB90 
  36      3C4C5678 
  37 002c 8AD8ECB8 		.ascii	"\212\330\354\270\246Hg\320F\003\202\022!bkc\025C\024"
  37      A64867D0 
  37      46038212 
  37      21626B63 
  37      154314
  38 003f 8B65B1B1 		.ascii	"\213e\261\261\261\260H\241\350\017\260\021\204\365\316"
  38      B1B048A1 
  38      E80FB011 
  38      84F5CE
  39 004e FB581583 		.ascii	"\373X\025\203\330x\337\307=o\336}\347\234\2713O\201"
  39      D878DFC7 
  39      3D6FDE7D 
  39      E79CB933 
  39      4F81
  40 0060 72FC19E7 		.ascii	"r\374\031\347\344:\246\2011\311\314\201j\355-pkXQ'@"
  40      E43AA681 
  40      31C9CC81 
  40      6AED2D70 
  40      6B585127 
  41 0075 D324C024 		.ascii	"\323$\300$#'\211\246\322\206\315K1\033O\341\261sw\327"
  41      232789A6 
  41      D286CD4B 
  41      311B4FE1 
  41      B17377D7 
  42 0089 5EB5C65B 		.ascii	"^\265\306[\273\335\356\011\353G\247\211\366\235O\203"
  42      BBDDEE09 
  42      EB47A789 
  42      F69D4F83 
  43 0099 4761490C 		.ascii	"GaI\014\303g\005\363\273\356\326\372\347\323\037.\274"
  43      C36705F3 
  43      BBEED6FA 
  43      E7D31F2E 
ARM GAS  /tmp/cchTuLYH.s 			page 3


  43      BC
  44 00aa 54DBBBDD 		.ascii	"T\333\273\335\346\0106<\307m7n\251\025\002z\206\316"
  44      E608363C 
  44      C76D376E 
  44      A915027A 
  44      86CE
  45 00bc BDFC1E04 		.ascii	"\275\374\036\004R\200\201\022\252|$\312\0229\25487\344"
  45      52808112 
  45      AA7C24CA 
  45      1239AC38 
  45      37E4
  46 00ce EBE398F0 		.ascii	"\353\343\230\360\231\230\224rP\277\201\222\347\324\241"
  46      99989472 
  46      50BF8192 
  46      E7D4A1
  47 00dd B0A70E8D 		.ascii	"\260\247\016\215\302\371X\002\177ux\023\337\334\021"
  47      C2F95802 
  47      7F757813 
  47      DFDC11
  48 00ec CB1C8FA3 		.ascii	"\313\034\217\243\362\320\335\037\263\314\343\343\273"
  48      F2D0DD1F 
  48      B3CCE3E3 
  48      BB
  49 00f9 FEF85D1B 		.ascii	"\376\370]\033\255+~\212\251|\222X\345\023qU\345\206"
  49      AD2B7E8A 
  49      A97C9258 
  49      E5137155 
  49      E586
  50 010b 34F267D4 		.ascii	"4\362g\324Y\032\305Yi\214\216SA\257\343\001-\213\312"
  50      591AC559 
  50      698C8E53 
  50      41AFE301 
  50      2D8BCA
  51 011e 0B142DFB 		.ascii	"\013\024-\373\030&K\343]\364\305\376\201)\177\273\034"
  51      18264BE3 
  51      5DF4C5FE 
  51      81297FBB 
  51      1C
  52 012f 03412F74 		.ascii	"\003A/t\246z\361K\241\312\247\302\037s\231\224\253\244"
  52      A67AF14B 
  52      A1CAA7C2 
  52      1F739994 
  52      ABA4
  53 0141 44C47F8E 		.ascii	"D\304\177\216\336\347\322\200\367\271_gQ\345\246\314"
  53      DEE7D280 
  53      F7B95F67 
  53      51E5A6CC 
  54 0151 64ABBD79 		.ascii	"d\253\275y\270\347lR\232IYT\335\306N\345\353s&\316G"
  54      B8E76C52 
  54      9A495954 
  54      DDC64EE5 
  54      EB7326CE 
  55 0166 F1CCAD08 		.ascii	"\361\314\255\010i\277\316\320@\017\015\246\202\373\224"
  55      69BFCED0 
  55      400F0DA6 
  55      82FB94
  56 0175 57DB0FB7 		.ascii	"W\333\017\267\352\266\015\022\234\304\024u\006L\006"
ARM GAS  /tmp/cchTuLYH.s 			page 4


  56      EAB60D12 
  56      9CC41475 
  56      064C06
  57 0184 D26EF8B2 		.ascii	"\322n\370\262!8\277\323:0\337u\326\250\264\017\0078"
  57      2138BFD3 
  57      3A30DF75 
  57      D6A8B40F 
  57      0738
  58 0196 4DB25779 		.ascii	"M\262Wy\020\253g$\035\362\323\336\251\2746\377\313\\"
  58      10AB6724 
  58      1DF2D3DE 
  58      A9BC36FF 
  58      CB5C
  59 01a8 7E2F731D 		.ascii	"~/s\035\363\257\346\222]g\342>r\202\331/6R.\007\311"
  59      F3AFE692 
  59      5D67E23E 
  59      7282D92F 
  59      36522E07 
  60 01bd 79632188 		.ascii	"yc!\210\026\203\260Q\237[\272f\203\372ldg\302\205\305"
  60      1683B051 
  60      9F5BBA66 
  60      83FA6C64 
  60      67C285C5 
  61 01d1 68B93C8B 		.ascii	"h\271<\213\302|-l\224\353\320\265h\3064j\363\266xu."
  61      C27C2D6C 
  61      94EBD0B5 
  61      68C6346A 
  61      F3B67875 
  62 01e6 6C5CB711 		.ascii	"l\\\267\021~\000+\221\245\344"
  62      7E002B91 
  62      A5E4
  63              		.text
  64              		.section	.gnu.lto_main.40fb8eb46ae01d86,"",%progbits
  65 0000 789CAD52 		.ascii	"x\234\255R\317+DQ\024\376\316\375\361\206a\3746\261"
  65      CF2B4451 
  65      14FECEFD 
  65      F18661FC 
  65      36B1
  66 0012 32D9504A 		.ascii	"2\331PJvV\312\322\326\224\215B\322[P\374\0016s\375X"
  66      7656CAD2 
  66      D6948D42 
  66      D25B50FC 
  66      013673FD 
  67 0027 289B4961 		.ascii	"(\233IaX\031J\222\177@)b\3244\311j\222\205\205\205\254"
  67      58194A92 
  67      7F402962 
  67      D434C96A 
  67      92858585 
  68 003c FC034A8D 		.ascii	"\374\003J\215s\337\365\214\231a\347\274^\337}\347|\337"
  68      73DFF58C 
  68      9961E7BC 
  68      5EDF7DE7 
  68      7CDF
  69 004e F7EE39F7 		.ascii	"\367\3569\367\012\020?\2651\302oT\002\365\214\344\201"
  69      0A103FB5 
  69      31C26F54 
  69      02F58CE4 
ARM GAS  /tmp/cchTuLYH.s 			page 5


  69      81
  70 005f 44FA1E58 		.ascii	"D\372\036XI\010\222n!\205*\306a\372\365\3050\314\220"
  70      4908926E 
  70      21852AC6 
  70      61FAF5C5 
  70      30CC90
  71 0072 22EDD2DA 		.ascii	"\"\355\322\332\325\263\011BJH\245)5\021\270\313^d\215"
  71      D5B30942 
  71      4A48A529 
  71      3511B8CB 
  71      5E648D
  72 0085 D94ADFAC 		.ascii	"\331J\337\254\216\255>\227J=\276\315\316\020\012\233"
  72      8EAD3E97 
  72      4A3DBECD 
  72      CE100A9B 
  73 0095 47B16EF8 		.ascii	"G\261n\370DH\300\242\200\252\334\307\037:\374\277(\267"
  73      4448C0A2 
  73      80AADCC7 
  73      1F3AFCBF 
  73      28B7
  74 00a7 1DFDC878 		.ascii	"\035\375\310x\227\342\352\271\224\002\232\004\246\350"
  74      97E2EAB9 
  74      94029A04 
  74      A6E8
  75 00b5 807A2119 		.ascii	"\200z!\031\263\214\212\361\220\221Cc\335\230\226\300"
  75      B38C8AF1 
  75      90914363 
  75      DD9896C0 
  76 00c5 D1C6B845 		.ascii	"\321\306\270EB\222-A\362\016\362\356\301\233\242#\322"
  76      42922D41 
  76      F20EF2EE 
  76      C19BA223 
  76      D2
  77 00d6 9C5EC6BB 		.ascii	"\234^\306\273\251\363I\322\014\221\243\373\304\377e"
  77      A9F349D2 
  77      0C91A3FB 
  77      C4FF65
  78 00e5 527127F2 		.ascii	"Rq'\362\013IT\220\364G\215\223f\222t\244\257\214G\363"
  78      0B495490 
  78      F4478D93 
  78      669274A4 
  78      AF8C47F3 
  79 00f9 EEDB7615 		.ascii	"\356\333v\025\011\304uV\334\365\262\333P%\256g\261\252"
  79      09C47556 
  79      DCF5B2DB 
  79      5025AE67 
  79      B1AA
  80 010b 1047594C 		.ascii	"\020GYL\217\372K\335\200\274\010\026\300h\310hd\215"
  80      8FFA4BDD 
  80      80BC0816 
  80      C068C868 
  80      648D
  81 011d CE878C58 		.ascii	"\316\207\214X\340\337\344\032O\222\004\361q\313\002"
  81      E0DFE41A 
  81      4F9204F1 
  81      71CB02
  82 012c AE279F32 		.ascii	"\256'\2372\013\356os$\006pj\326\311\247f\271\217=\306"
ARM GAS  /tmp/cchTuLYH.s 			page 6


  82      0BEE6F73 
  82      2406706A 
  82      D6C9A766 
  82      B98F3DC6 
  83 0140 1661B5AD 		.ascii	"\026a\265\2550is\245\340\326.\246\313w\257\200\2653"
  83      306973A5 
  83      E0D62EA6 
  83      CB77AF80 
  83      B533
  84 0152 3B6CE721 		.ascii	";l\347!\331\306\022\333\020s\265\363rMq\331\355\322"
  84      D9C612DB 
  84      1073B5F3 
  84      724D71D9 
  84      EDD2
  85 0164 AA6F917B 		.ascii	"\252o\221{\245\015\371]t\225\237\221\344iR1\316G\243"
  85      A50DF95D 
  85      74959F91 
  85      E4695231 
  85      CE47A3
  86 0177 5E32C754 		.ascii	"^2\307T5\024\333\240W;\321\023\035\264\332\036Zh\327"
  86      3514DBA0 
  86      573BD113 
  86      1DB4DA1E 
  86      5A68D7
  87 018a 2A7BBC65 		.ascii	"*{\274e\342U\026\035l\021)\037\002\260\321\307\320\031"
  87      E255161D 
  87      6C11291F 
  87      02B0D1C7 
  87      D019
  88 019c 5E8F703B 		.ascii	"^\217p;\221\305\331\371\245\3019|\002\307\202\226\247"
  88      91C5D9F9 
  88      A5C1397C 
  88      02C78296 
  88      A7
  89              		.text
  90              		.section	.gnu.lto_.cgraph.40fb8eb46ae01d86,"",%progbits
  91 0000 789C3DC7 		.ascii	"x\234=\307;\012\302P\024\204\3419s\222\334m\272\005"
  91      3B0AC250 
  91      1484E139 
  91      7392DC6D 
  91      BA05
  92 0012 5730810B 		.ascii	"W0\201\01366>QA\004\311\006\254m\323hci-\350:Dr\324"
  92      36363E51 
  92      4104C906 
  92      AC6DD368 
  92      63692DE8 
  93 002a 3BCD3F1F 		.ascii	";\315?\037ap\000'\374\3069\005\314n\220\366\327\021"
  93      61700027 
  93      FCC63905 
  93      CC6E90F6 
  93      D711
  94 003c 17947D75 		.ascii	"\027\224}u\270\320v\024Cmk\266\245\274`CU\005k\252."
  94      B8D07614 
  94      436D6BB6 
  94      A5BC6043 
  94      55056BAA 
  95 0051 58514DC1 		.ascii	"XQM\301\222J\1778\210|\274O\323p\3728\226\220\037os"
ARM GAS  /tmp/cchTuLYH.s 			page 7


  95      924A7F38 
  95      887CBC4F 
  95      D370FA38 
  95      96901F6F 
  96 0066 6BD0456B 		.ascii	"k\320Ek\364\321\012\317\250#O^\347\261\033\321\015\007"
  96      F4D10ACF 
  96      A8234F5E 
  96      E7B11BD1 
  96      0D07
  97 0078 1FB2DD38 		.ascii	"\037\262\3358\322"
  97      D2
  98              		.text
  99              		.section	.gnu.lto_.vars.40fb8eb46ae01d86,"",%progbits
 100 0000 789C6362 		.ascii	"x\234cb`d`f``\020f\200\000\346YLL\014\365\014\323\230"
 100      60646066 
 100      60601066 
 100      8000E659 
 100      4C4C0CF5 
 101 0017 1880E404 		.ascii	"\030\200\344\004&F\226zf\000$\272\003j"
 101      2646967A 
 101      660024BA 
 101      036A
 102              		.text
 103              		.section	.gnu.lto_.refs.40fb8eb46ae01d86,"",%progbits
 104 0000 789C25C1 		.ascii	"x\234%\301\301\015\0000\010\304\260\204r\177\366\237"
 104      C10D0030 
 104      08C4B084 
 104      727FF69F 
 105 0010 964AD885 		.ascii	"\226J\330\205<`8\376mL5\021\026\003K\0005"
 105      3C6038FE 
 105      6D4C3511 
 105      16034B00 
 105      35
 106              		.text
 107              		.section	.gnu.lto_.statics.40fb8eb46ae01d86,"",%progbits
 108 0000 789C6362 		.ascii	"x\234cb`d`b\300\016@\342\214\020&\000\000\375\000\011"
 108      60646062 
 108      C00E40E2 
 108      8C102600 
 108      00FD0009 
 109              		.text
 110              		.section	.gnu.lto_.decls.40fb8eb46ae01d86,"",%progbits
 111 0000 789CB55C 		.ascii	"x\234\265\\yx\024U\266\257\245\2274\011\001q\371\230"
 111      79781455 
 111      B6AFA597 
 111      34090171 
 111      F998
 112 0012 798EC679 		.ascii	"y\216\306y\372>\237\337Hd\031\305y\243\243C\030\341"
 112      FA3E9FDF 
 112      486419C5 
 112      79A3A343 
 112      18E1
 113 0024 8D082F89 		.ascii	"\215\010/\211\316\370G\277\236\320i\222\036\223tS]a"
 113      CEF847BF 
 113      9ED06992 
 113      1E937453 
 113      5D61
ARM GAS  /tmp/cchTuLYH.s 			page 8


 114 0036 99EFFDD1 		.ascii	"\231\357\375\321\200\340\202\016`D\001\027\"\010\203"
 114      80E0820E 
 114      60440117 
 114      220883
 115 0045 E0C2228B 		.ascii	"\340\302\"\213\"\0201\004\030b\004\015\017\225\260("
 115      22103104 
 115      1862040D 
 115      0F95B028 
 116 0055 91A7312E 		.ascii	"\221\2471.@D\331\314;\367T\325\255[\225\252\256\252"
 116      4044D9CC 
 116      3BF754D5 
 116      AD5B95AA 
 116      AEAA
 117 0067 0ED6973A 		.ascii	"\016\326\227:U]]\367w\3179\367\234s\317]:\002\307s\344"
 117      555D5DF7 
 117      77CF39F7 
 117      9C73CF5D 
 117      3A02C773 
 118 007c 5801976E 		.ascii	"X\001\227n8n\210p\334\362\020\307\211\360\35468\203"
 118      386E8870 
 118      DCF210C7 
 118      89F0EC36 
 118      3883
 119 008e EA590FE7 		.ascii	"\352Y\017\347e\002\307\371\341\372\013\270\336\016\327"
 119      6502C7F9 
 119      E1FA0BB8 
 119      DE0ED7
 120 009d 02018B72 		.ascii	"\002\001\213r9p\026\302\37508o\201\363?\340\274\015"
 120      397016C2 
 120      FD30386F 
 120      81F33FE0 
 120      BC0D
 121 00af CE51708E 		.ascii	"\316Qp\216\201s\234\240\340\025\303\265\024\316\373"
 121      81739CA0 
 121      E015C3B5 
 121      14CEFB
 122 00be D472DA41 		.ascii	"\324r\332A\312^\006\327\\\340!\037\256y\234\202\177"
 122      CA5E06D7 
 122      5CE0211F 
 122      AE799C82 
 122      7F
 123 00cf 077C5E0D 		.ascii	"\007|^\015\337\255\201\363\277\341\374\023\234\353\340"
 123      DFAD81F3 
 123      BFE1FC13 
 123      9CEBE0
 124 00de CC83E701 		.ascii	"\314\203\347\001\270\276\016\347f8\267\303\331\246\326"
 124      B8BE0EE7 
 124      6638B7C3 
 124      D9A6D6
 125 00ed 714850F8 		.ascii	"qHP\370\035\256^\303p\255\201\363wP\346\003\2706\300"
 125      1DAE5EC3 
 125      70AD81F3 
 125      7750E603 
 125      B836C0
 126 0100 F9069C1B 		.ascii	"\371\006\234\033\341\024\324\272\011\317D\013f\276\210"
 126      E114D4BA 
 126      09CF440B 
ARM GAS  /tmp/cchTuLYH.s 			page 9


 126      66BE88
 127 010f 3C57A8F2 		.ascii	"<W\250\362k|\035\206g\367\300yDPtBt0\032\316\243BO\375"
 127      6B7C1D86 
 127      67F7C079 
 127      44507442 
 127      74301ACE 
 128 0127 DC0ED753 		.ascii	"\334\016\327S\274\316\237\017\236]%(<\016W\353|OP\364"
 128      BCCE9F0F 
 128      9E5D2528 
 128      3C0E57EB 
 128      7C4F50F4 
 129 013b 374CD5D3 		.ascii	"7L\325\323\030UoD\177\205\252.oQy\325\364\307\036\271"
 129      18556F44 
 129      7F85AA2E 
 129      6F5179D5 
 129      F4C71EB9 
 130 014f DCA3E9F4 		.ascii	"\334\243\351\364\364t\375\254\364\250]\371\003\270y"
 130      F474FDAC 
 130      F4A85DF9 
 130      03B879
 131 015e 69380A76 		.ascii	"i8\012v\001\267?\343\302|>4\344\321 \336\346\301\355"
 131      01B73FE3 
 131      C27C3E34 
 131      E4D120DE 
 131      E6C1ED
 132 0171 FFC0FBD7 		.ascii	"\377\300\373\327q/\246\323s\341%>\314\277\300\017\000"
 132      712FA6D3 
 132      73E1253E 
 132      CCBFC00F 
 132      00
 133 0182 5C81E76E 		.ascii	"\\\201\347n\340^J\343\241\330\202j\022\\?\356\315/6"
 133      E05E4AE3 
 133      A1D8826A 
 133      125C3FEE 
 133      CD2F36
 134 0195 768ACA07 		.ascii	"v\212\312\007\027\330a~)/\000]\006\270a\376E\376\006"
 134      17D8617E 
 134      292F005D 
 134      06B861FE 
 134      45FE06
 135 01a8 A5B6B452 		.ascii	"\245\266\264R\033y\312\251\317\033\027\217\347z\036"
 135      1B79CAA9 
 135      CF1B178F 
 135      E77A1E
 136 01b7 A16BB87A 		.ascii	"\241k\270z\020f\356\214\364\250\200\225\\\360%\317V"
 136      1066EE8C 
 136      F4A88095 
 136      5CF025CF 
 136      56
 137 01c8 9F1668F5 		.ascii	"\237\026h\365\005\034Q\321p\336\222M\323{a~%\262\271"
 137      051C51D1 
 137      70DE924D 
 137      D37B617E 
 137      25B2B9
 138 01db CA92CD55 		.ascii	"\312\222\315U\014\233\235\277\260\3402\307\216\313+"
 138      0C9B9DBF 
 138      B0E032C7 
ARM GAS  /tmp/cchTuLYH.s 			page 10


 138      8ECB2B
 139 01ea B8F9C8E5 		.ascii	"\270\371\310\345,\300\221C\334\303\3727:+\005\224\023"
 139      2CC09143 
 139      DCC3FA37 
 139      3A2B0594 
 139      13
 140 01fb 9FA93156 		.ascii	"\237\2511V\363!\220`\024\257V\375\343c\007[\012\225"
 140      F3219060 
 140      14AF56FD 
 140      E363075B 
 140      0A95
 141 020d 0AC3BC3F 		.ascii	"\012\303\274?\3042\200\237\225\267\024`\345k\355\216"
 141      C432809F 
 141      95B71460 
 141      E56BED8E 
 142 021d 78713FBB 		.ascii	"xq?\273\032I\351\327\370+\360ND\243\202\007\267\347"
 142      1A49E9D7 
 142      F82BF04E 
 142      44A38207 
 142      B7E7
 143 022f 72A2FAC1 		.ascii	"r\242\372\301 \220*\303\321e\015\003\02702\344PD\336"
 143      20902AC3 
 143      D1650D03 
 143      173032E4 
 143      5044DE
 144 0242 20037D3D 		.ascii	" \003}=\235\341\3650\277\221\277\016(o\024\201\247\""
 144      9DE1F530 
 144      BF91BF0E 
 144      286F1481 
 144      A722
 145 0254 90BB6E9E 		.ascii	"\220\273n\236\264\346\034^S\306\326\371\353yMv\336\244"
 145      B4E61C5E 
 145      53C6D6F9 
 145      EB794D76 
 145      DEA4
 146 0266 0B47207B 		.ascii	"\013G {E\254\347su$\252\215\325\010\021\346KU\303\317"
 146      45ACE773 
 146      7524AA8D 
 146      D50811E6 
 146      4B55C3CF 
 147 027a 00F0AA0E 		.ascii	"\000\360\252\016 p'\220]b>o~\261\371J\353B\332\275\021"
 147      20702790 
 147      5D623E6F 
 147      7EB1F94A 
 147      EB42DABD 
 148 028f 583D5CD9 		.ascii	"X=\\\331\225\302\237=K[\3356n\230\337\224\021\350\355"
 148      95C29F3D 
 148      4B5BDD36 
 148      6E98DF94 
 148      11E8ED
 149 02a2 DE2A670B 		.ascii	"\336*g\013\253\234\357\251rlJXk\246\300\203f\320\374"
 149      AB9CEFA9 
 149      726C4A58 
 149      6BA6C083 
 149      66D0FC
 150 02b5 D21E3C6E 		.ascii	"\322\036<n'z\334yje+_\254k\272M\251\3203\326?\021k\243"
 150      277ADC79 
ARM GAS  /tmp/cchTuLYH.s 			page 11


 150      6A652B5F 
 150      AC6BBA4D 
 150      A9D033D6 
 151 02cd A05BECB6 		.ascii	"\240[\354\266\246\0335\023\015\230L6`4Y\3625\251\355"
 151      A61B3513 
 151      0D984C36 
 151      603459F2 
 151      35A9ED
 152 02e0 07E2B97C 		.ascii	"\007\342\271|\267v\360\332w\344C\220\273\030\020\366"
 152      B776F0DA 
 152      77E44390 
 152      BB1810F6 
 153 02f0 8DD56461 		.ascii	"\215\325da6\002\375\260\311}\253\357`[}\233\340\336"
 153      3602FDB0 
 153      C97DABEF 
 153      605B7D9B 
 153      E0DE
 154 0302 25727AE1 		.ascii	"%rz\341\022;3Z\362\373\026\262\361\256\204\331\307\012"
 154      123B335A 
 154      F2FB16B2 
 154      F1AE84D9 
 154      C70A
 155 0314 F38EE0D2 		.ascii	"\363\216\340\322\204sL\250\027O\222\003\031\234[k%\365"
 155      84734CA8 
 155      174F9203 
 155      199C5B6B 
 155      25F5
 156 0326 A3E7FEE7 		.ascii	"\243\347\376\347 Z\360Nj\301\313_9\260_`\274\301\013"
 156      205AF04E 
 156      6AC1CB5F 
 156      39B05F60 
 156      BCC10B
 157 0339 D661C43A 		.ascii	"\326a\304:\315x\303\276&\332\231\005M\336\0204\232r"
 157      CD78C3BE 
 157      26DA9905 
 157      4DDE1034 
 157      9A72
 158 034b 9006F0A0 		.ascii	"\220\006\360\240\336\231eQ\300U\003\377/\333\300\335"
 158      DE996551 
 158      C05503FF 
 158      2FDBC0DD 
 159 035b 1EACB5FF 		.ascii	"\036\254\265\377Of\255\355\031=\361\240{O<\306\312\366"
 159      4F66ADED 
 159      193DF1A0 
 159      7B4F3CC6 
 159      CAF6
 160 036d A0E8D278 		.ascii	"\240\350\322x\373\233P\275\010\226\271g\352\260\020"
 160      FB9B50BD 
 160      0896B967 
 160      EAB010
 161 037c CC473F28 		.ascii	"\314G?(}\261\251\237\311F\354/X\261\037q+\366\300^\264"
 161      7DB1A99F 
 161      C946EC2F 
 161      58B11F71 
 161      2BF6C05E 
 162 0391 6766B14F 		.ascii	"gf\261Of\024\373\355\213%\366\011V\354\271\331\211]"
 162      6614FBED 
ARM GAS  /tmp/cchTuLYH.s 			page 12


 162      8B25F609 
 162      56ECB9D9 
 162      895D
 163 03a3 C0B187E6 		.ascii	"\300\261\207\346c9a\376\025\376\032\370\370\026\322"
 163      633961FE 
 163      15FE1AF8 
 163      F816D2
 164 03b2 46A47B91 		.ascii	"F\244{\221\356G\372)\322\317\221~\013\324\221\327\025"
 164      EE47FA29 
 164      D2CF917E 
 164      0BD491D7 
 164      15
 165 03c3 2CAF4F21 		.ascii	",\257O!\257dp\320\272x\271\220m\332\224\306V\322\306"
 165      AF6470D0 
 165      BA78B990 
 165      6DDA94C6 
 165      56D2C6
 166 03d6 09017761 		.ascii	"\011\001wa\352,\216\177\026\211Z\230:\276aK\223q\264"
 166      EA2C8E7F 
 166      16895A98 
 166      3ABE614B 
 166      9371B4
 167 03e9 930949E0 		.ascii	"\223\011I\340\232\261\344\005\313a\304\005f\030\321"
 167      9AB1E405 
 167      CB61C405 
 167      6618D1
 168 03f8 BA7009CF 		.ascii	"\272p\011\317\365<x\207\341\216a\014S\317\323\312/3"
 168      F53C7887 
 168      E18E610C 
 168      53CFD3CA 
 168      2F33
 169 040a 89315D20 		.ascii	"\2111] b|D\305h?\335\317 D&\034\201\353\300r3\005+!"
 169      627C44C5 
 169      683FDDCF 
 169      2044261C 
 169      81EBC072 
 170 0422 C8534D88 		.ascii	"\310SM\210\346\247\003\0262\370\031\031\302\3744\001"
 170      E6A70316 
 170      32F81919 
 170      C2FC3401 
 171 0432 62157786 		.ascii	"b\025w\206\"\266\036\310\277\210y\260\2458>\212UdR\313"
 171      22B61EC8 
 171      BF8879B0 
 171      A5383E8A 
 171      556452CB 
 172 0446 63A89669 		.ascii	"c\250\226i>\275C\353\3463\350\305\010$p\217b\3019\226"
 172      3EBD43EB 
 172      E633E8C5 
 172      0824708F 
 172      62C13996 
 173 045a 7A99C3E8 		.ascii	"z\231\303\350e\355\216}\237>\"r=\217\001\006\325\314"
 173      65ED8E7D 
 173      9F3E2272 
 173      3D8F0106 
 173      D5CC
 174 046c 46D5ACA7 		.ascii	"F\325\254\247\240m\233:\370\336\351F\303|\213bv\016"
 174      A06D9B3A 
ARM GAS  /tmp/cchTuLYH.s 			page 13


 174      F8DEE946 
 174      C37C8B62 
 174      760E
 175 047e EF5D6EED 		.ascii	"\357]n\355\271\237\177Z \375\374;>=\203\236\247e\320"
 175      B99F7F5A 
 175      20FDFC3B 
 175      3E3D839E 
 175      A765D0
 176 0491 4A12C01C 		.ascii	"J\022\300\034\356\372m\201\333C\305Y\273\343\304\261"
 176      EEFA6D81 
 176      DB43C559 
 176      BBE3C4B1 
 177 04a1 85C16CB3 		.ascii	"\205\301l\263F\327\021A\340\336\307*\237\265l\352g\231"
 177      46D71141 
 177      E0DEC72A 
 177      9FB56CEA 
 177      6799
 178 04b3 A6EE7877 		.ascii	"\246\356xw\315r\313\246\366\346\311\372l\304\265X}\332"
 178      CD72CBA6 
 178      F6E6C9FA 
 178      6CC4B558 
 178      7DDA
 179 04c5 4FAA7FC1 		.ascii	"O\252\177\301\262\372\027\230\352O\266\256\351\266\212"
 179      B2FA1798 
 179      EA4FB6AE 
 179      E9B68A
 180 04d4 23B6D326 		.ascii	"#\266\323&a\376\266\313]\264\34224\243\015~^\027\363"
 180      61FEB6CB 
 180      5DB4E232 
 180      34A30D7E 
 180      5E17F3
 181 04e7 D40FA2D6 		.ascii	"\324\017\242\326j\267\347\262u\341g\255\025\221\373"
 181      6AB7E7B2 
 181      75E167AD 
 181      1591FB
 182 04f6 6D94FB93 		.ascii	"m\224\373\223\255\363V.\362\367\326\250\025n\266S\324"
 182      ADF3562E 
 182      F2F7D6A8 
 182      156EB653 
 182      D4
 183 0507 E6FFEC9D 		.ascii	"\346\377\354\235Qk\210;(b\253\003\242\323HDC\334E\021"
 183      516B883B 
 183      2862AB03 
 183      A2D34844 
 183      43DC4511 
 184 051b DB3C21DA 		.ascii	"\333<!\332\363\270\207\"\266; :\345\237\032b\013E\354"
 184      F3B88722 
 184      B63B203A 
 184      E59F1A62 
 184      0B45EC
 185 052e F48468CF 		.ascii	"\364\204h\317\343>\212\330\345\200\350\224Si\210\373"
 185      E33E8AD8 
 185      E580E894 
 185      536988FB 
 186 053e 29E2794F 		.ascii	")\342yO\210\366<~D\021\033\377\230\031\261\300\212\307"
 186      88F63C7E 
 186      44111BFF 
ARM GAS  /tmp/cchTuLYH.s 			page 14


 186      9819B1C0 
 186      8AC7
 187 0550 1E36654E 		.ascii	"\0366eN`\352\005&\201i\363k\321\243\343\335}\313\317"
 187      60EA0526 
 187      8169F36B 
 187      D1A3E3DD 
 187      7DCBCF
 188 0563 64E30014 		.ascii	"d\343\000\024\353\250_\017~\363\216{\013~V\352Pz\210"
 188      EBA85F0F 
 188      7EF38E7B 
 188      0B7E56EA 
 188      507A88
 189 0576 E314B5F5 		.ascii	"\343\024\265\365\015\247^\307\331\260\024\314\257)f"
 189      0DA75EC7 
 189      D9B014CC 
 189      AF2966
 190 0585 DBAD1771 		.ascii	"\333\255\027qD\341~\3121m\232r\034h\367v\230\337.\220"
 190      44E17ECA 
 190      316D9A72 
 190      1C68F776 
 190      98DF2E90 
 191 0599 19C77784 		.ascii	"\031\307w\204\020\345D\275\247\267\312\204\343i?y\337"
 191      10E544BD 
 191      A7B7CA84 
 191      E3693F79 
 191      DF
 192 05aa 2AC43A97 		.ascii	"*\304:\227\2667\226\006\326X\316\351M\361\233\254\275"
 192      B6379606 
 192      D658CEE9 
 192      4DF19BAC 
 192      BD
 193 05bb E7DBE9E9 		.ascii	"\347\333\351\351\201\001W\263\255\206\351.\354\254\247"
 193      810157B3 
 193      AD86E92E 
 193      ECACA7
 194 05ca 07F4CEFA 		.ascii	"\007\364\316\372\334W4\312o\362<\255*p\263\003\272\261"
 194      DC5734CA 
 194      6FF23CAD 
 194      2A70B303 
 194      BAB1
 195 05dc AEF94637 		.ascii	"\256\371F7V#\013.|7;y\232Q\236:F\2363\275\223\347\031"
 195      56230B2E 
 195      7C373B79 
 195      9A519E3A 
 195      469E33BD 
 196 05f3 569E93DE 		.ascii	"V\236\223\336\344\271\276\367\362\354Cy\2262\362\\\350"
 196      E4B9BEF7 
 196      F2EC4379 
 196      9632F25C 
 196      E8
 197 0604 9D3CAB18 		.ascii	"\235<\253\030y\366\235\362&\317M\214<J&u)\367\204S&"
 197      79F69DF2 
 197      26CF4D8C 
 197      3C4A2675 
 197      29F78453 
 198 0619 85332AC2 		.ascii	"\2053*\302\245\\\3174\206<\245\243\241m\371\026\036"
 198      A55CCF34 
ARM GAS  /tmp/cchTuLYH.s 			page 15


 198      863CA5A3 
 198      A16DF916 
 198      1E
 199 062a 1664AAD2 		.ascii	"\026d\252\322\246f\327\242\000\244l\363\256\343Yg\313"
 199      A666D7A2 
 199      00A46CF3 
 199      AEE35967 
 199      CB
 200 063b 46CC3728 		.ascii	"F\3147(f\343\350\336\246*\267c\246B\001\317\357\356"
 200      66E3E8DE 
 200      A62AB763 
 200      A64201CF 
 200      EFEE
 201 064d 6D4A6F08 		.ascii	"mJo\010\205\246T\216\014g\234s\271\243\030\234w\007"
 201      85A6548E 
 201      0C679C73 
 201      B9A3189C 
 201      7707
 202 065f F441CFC2 		.ascii	"\364A\317\302\246_i63[0\345r\344\001\223\314\331\267"
 202      A65F6936 
 202      335B30E5 
 202      72E40193 
 202      CCD9B7
 203 0672 EA114387 		.ascii	"\352\021C\207G%\006\273Z\265\322\241\223\362$\263U\276"
 203      472506BB 
 203      5AB5D2A1 
 203      93F224B3 
 203      55BE
 204 0684 FC170A95 		.ascii	"\374\027\012\225\207\325\177\212\325\037\267L\227\217"
 204      87D57F8A 
 204      D51FB74C 
 204      978F
 205 0692 33E9F28F 		.ascii	"3\351\362\217_\317;x\275\205\245\011\252U\244\365\341"
 205      5FCF3B78 
 205      BD85A509 
 205      AA55A4F5 
 205      E1
 206 06a3 81A1BE3B 		.ascii	"\201\241\276;\014\375+\253\334\016\034Q\316\011\352"
 206      0CFD2BAB 
 206      DC0E1C51 
 206      CE09EA
 207 06b2 CADDD734 		.ascii	"\312\335\3274Z\001\325\306\031w\330#\011\334b,\371\225"
 207      5A01D5C6 
 207      1977D823 
 207      09DC622C 
 207      F995
 208 06c4 25E75F19 		.ascii	"%\347_\031\206\224'6[\2163\204\036\035q\230\257\023"
 208      86942736 
 208      5B8E3384 
 208      1E1D7198 
 208      AF13
 209 06d6 0415B4F1 		.ascii	"\004\025\264\361\265\2133\244\014\363\363)fsa\026\331"
 209      B58B33A4 
 209      0CF3F329 
 209      66736116 
 209      D9
 210 06e7 77CF8395 		.ascii	"w\317\203\225:\314\177\003\375\261\020\346\277\025\310"
ARM GAS  /tmp/cchTuLYH.s 			page 16


 210      3ACC7F03 
 210      FDB110E6 
 210      BF15C8
 211 06f6 8CD10981 		.ascii	"\214\321\011\201\316\030\011\334\352\240\326\266?~\275"
 211      CE1809DC 
 211      EAA0D6B6 
 211      3F7EBD
 212 0705 E6E0ADD6 		.ascii	"\346\340\255\326\212t\353\362\236\027q\2720\002o\012"
 212      8A74EBF2 
 212      9E1771BA 
 212      30026F0A 
 213 0715 EA11F819 		.ascii	"\352\021\370\031}8\373Os\004\316n\011F\340\26622\236"
 213      7D38FB4F 
 213      7304CE6E 
 213      0946E0B6 
 213      32329E
 214 0728 38E8903C 		.ascii	"8\350\220<Y\216Ezh\335\354\256\237\261\356\332\030d"
 214      598E457A 
 214      68DDECAE 
 214      9FB1EEDA 
 214      1864
 215 073a DCF5B59F 		.ascii	"\334\365\265\237\334]\323\372\004S\177\254\177\017\326"
 215      DC5DD3FA 
 215      04537FAC 
 215      7F0FD6
 216 0749 7FCED2EA 		.ascii	"\177\316\322\352\317\261V\177a\315\341\201\026\266#"
 216      CFB1567F 
 216      61CDE181 
 216      16B623
 217 0758 32FEAAF9 		.ascii	"2\376\252\371`\027\305l\335\230\237\255\225\030\023"
 217      6017C56C 
 217      DD989FAD 
 217      951813
 218 0767 DAF314B2 		.ascii	"\332\363\024\262\335i\326\312\323R\225\013\035\2616"
 218      DD69D6CA 
 218      D352950B 
 218      1DB136
 219 0776 F8A048E4 		.ascii	"\370\240H\344{0\207N\346m\310\327\014NQ\026c\201\347"
 219      7B30874E 
 219      E66DC8D7 
 219      0C4E5116 
 219      6381E7
 220 0789 189FBA00 		.ascii	"\030\237\272\000>%\206\371\037\321\247\322\"\241\323"
 220      3E2586F9 
 220      1FD1A7D2 
 220      22A1D3
 221 0798 451773B1 		.ascii	"E\027s\2613D\306T\036\313\321t\320\345M\007\005.\015"
 221      3344C654 
 221      1ECBD174 
 221      D0E54D07 
 221      052E0D
 222 07ab F32C6B98 		.ascii	"\363,k\230u9\272a\236X\227\365\324o\226sW\217\212\304"
 222      7539BA61 
 222      9E5897F5 
 222      D46F9673 
 222      578F8AC4 
 223 07bf D917E5E8 		.ascii	"\331\027\345\350\316\376t\257\347\256\226\263\022m\\"
ARM GAS  /tmp/cchTuLYH.s 			page 17


 223      CEFE74AF 
 223      E7AE96B3 
 223      126D5C
 224 07ce 948D     		.ascii	"\224\215"
 225 07d0 AB51EDBC 		.ascii	"\253Q\355\274\222\243eo\315\367d\306)\260UMV\263\342"
 225      92A3656F 
 225      CDF764C6 
 225      29B0554D 
 225      56B3E2
 226 07e3 73D102D7 		.ascii	"s\321\002\327\344\350\275\334\272\246Q\012\250\253\331"
 226      E4E8BDDC 
 226      BAA6510A 
 226      A8ABD9
 227 07f2 B4062C59 		.ascii	"\264\006,Y'Z\371;y\252\367r\363\336t\234M3\366r\244"
 227      275AF93B 
 227      79AAF772 
 227      F3DE749C 
 227      4D33F672 
 228 0807 78F3AB59 		.ascii	"x\363\253Y\365r=\017\226G\350\362\304\353\310\242\360"
 228      F5723D0F 
 228      9647E8F2 
 228      C4EBC8A2 
 228      F0
 229 0818 5322D31B 		.ascii	"S\"\323\033\355\245M\320\325\342\224\177\032\033\241"
 229      EDA54DD0 
 229      D5E2947F 
 229      1A1BA1
 230 0827 C0D0086C 		.ascii	"\300\320\010l\344\372\230b\266\217\315\034\270\256w"
 230      E4FA9862 
 230      B68FCD1C 
 230      B8AE77
 231 0836 68562DA3 		.ascii	"hV-\243\375\214\"6\37693\2177\331\"j\312V\234\342K]"
 231      FD8C2236 
 231      FE39338F 
 231      37D9226A 
 231      CA569CE2 
 232 084c 6E4F8805 		.ascii	"nO\210\005\026\210g1\270\236\246\210\235\03795\337p"
 232      16886731 
 232      B89EA688 
 232      9D1F3935 
 232      DF70
 233 085e 472E9569 		.ascii	"G.\225i\347t\210:\310\307N\2553\334\221O\314\345gS\310"
 233      E774883A 
 233      C8C74EAD 
 233      33DC914F 
 233      CCE56753 
 234 0873 C6834E6C 		.ascii	"\306\203Nl\336\341\326\312\3460Qz\036D\351\001a\376"
 234      DEE1D6CA 
 234      E630517A 
 234      1E44E901 
 234      61FE
 235 0885 098CD24F 		.ascii	"\011\214\322O\"}\012\3513H7#\335\202t\033\322&\244{"
 235      227D0AE9 
 235      33483723 
 235      DD82741B 
 235      D226A47B 
 236 0899 90EE45BA 		.ascii	"\220\356E\272\037\351\034\214\360\013\220.B\372,\322"
ARM GAS  /tmp/cchTuLYH.s 			page 18


 236      1FE91C8C 
 236      F00B902E 
 236      42FA2CD2 
 237 08a9 E791D623 		.ascii	"\347\221\326#]\342&\376\233\206\000\020\225C\332\352"
 237      5DE226FE 
 237      9B860010 
 237      9543DAEA 
 238 08b9 CDF10DE7 		.ascii	"\315\361\015\347<y\232\225Z\025\203ZL1\317o\354e\337"
 238      3C799A95 
 238      5A15835A 
 238      4C31CF6F 
 238      EC65DF
 239 08cc EA39CEAF 		.ascii	"\3529\316\257@\016^\012\351q~a\257\343\374\006FGuM\236"
 239      400E5E0A 
 239      E9717E61 
 239      AFE3FC06 
 239      4647754D 
 240 08e1 52382B25 		.ascii	"R8+%),n\243\240m\0033#Z\316\321Y\231\336L\306\364\036"
 240      292C6EA3 
 240      A06D0333 
 240      235ACED1 
 240      5999DE4C 
 241 08f8 02D3F387 		.ascii	"\002\323\363\207\371\207\321|\036E\272\014\315\344\037"
 241      F987D17C 
 241      1E45BA0C 
 241      CDE41F
 242 0907 485F7663 		.ascii	"H_vc,\323\330\356{wH[\375l[x\321B\262\276\230\032\346"
 242      2CD3D8EE 
 242      7B77485B 
 242      FD6C5B78 
 242      D142B2BE 
 243 091e BB790CC9 		.ascii	"\273y\014\311iv\200\260/\244\255\026\277\371\3066O\233"
 243      697680B0 
 243      2FA4AD16 
 243      BFF9C636 
 243      4F9B
 244 0930 EC0C8AC7 		.ascii	"\354\014\212\307\031\232 7\013ghfNw9C\263F\014\002\013"
 244      199A2037 
 244      0B676866 
 244      4E773943 
 244      B3460C02 
 245 0945 07A82935 		.ascii	"\007\250)5\377\213\202\351\012\210H\367:\000\364\354"
 245      FF8B82E9 
 245      0A8848F7 
 245      3A00F4EC 
 246 0955 14C953BA 		.ascii	"\024\311S\272\343t\321\337,\364\202\033\002\004\356"
 246      E374D1DF 
 246      2CF4821B 
 246      0204EE
 247 0964 93909237 		.ascii	"\223\220\2227\372P8A}\372%\363\224\327_>\305<\0264E"
 247      FA503841 
 247      7DFA25F3 
 247      94D75F3E 
 247      C53C1634 
 248 0979 F49C2632 		.ascii	"\364\234&2h_\347/\314\257\027\311\244\351\006Q\264)"
 248      685FE72F 
 248      CCAF17C9 
ARM GAS  /tmp/cchTuLYH.s 			page 19


 248      A4E90651 
 248      B429
 249 098b 0819336D 		.ascii	"\010\0313m\213\266\305\371\326B;{\265\3758\334\264N"
 249      8BB6C5F9 
 249      D6423B7B 
 249      B5FD38DC 
 249      B44E
 250 099d C636C456 		.ascii	"\3066\304VLQ\246\367\321\032b\311gO\234\332\345WP=B"
 250      4C51A6F7 
 250      D11A62C9 
 250      674F9CDA 
 250      E557503D 
 251 09b2 BD8D50EB 		.ascii	"\275\215P\353(\024\004(\32780\226\303r\215\226\271N"
 251      28140428 
 251      D7383096 
 251      C3728D96 
 251      B94E
 252 09c4 2393EB74 		.ascii	"#\223\353t.\264\332\357\234c\221\037\354\244\210]\013"
 252      2EB4DAEF 
 252      9C63911F 
 252      ECA4885D 
 252      0B
 253 09d5 F55ECDE3 		.ascii	"\365^\315\343\320\346\301\031z\254\234\341\020+\301"
 253      D0E6C119 
 253      7AAC9CE1 
 253      102BC1
 254 09e4 AC7143AE 		.ascii	"\254qC\256\233=\305\340\177\224\275\363?\353] W\366"
 254      9B3DC5E0 
 254      7F94BDF3 
 254      3FEB5D20 
 254      57F6
 255 09f6 BE08DC41 		.ascii	"\276\010\334A\212\330\270\310)\2148\207R\005\263\235"
 255      8AD8B8C8 
 255      298C3887 
 255      5205B39D 
 256 0a06 6236FF3C 		.ascii	"b6\377<\213Pj\201\330A\021\333<!\332\363x\222\"\266"
 256      8B506A81 
 256      D84111DB 
 256      3C21DAF3 
 256      789222B6 
 257 0a1a 3B20F666 		.ascii	"; \366fo\222\355\0020\316\325\212\206\255I\246\011G"
 257      6F92ED02 
 257      30CED58A 
 257      86AD49A6 
 257      0947
 258 0a2c E219F665 		.ascii	"\342\031\366e?\324\307\215\316{)Y\207\333/\022\351\317"
 258      3FD4C78D 
 258      CE7B2959 
 258      87DB2F12 
 258      E9CF
 259 0a3e 52876B5D 		.ascii	"R\207k]\240m\2161\325O\270\263\257\377\240h\310[\230"
 259      A06D8E31 
 259      D54FB8B3 
 259      AFFFA068 
 259      C85B98
 260 0a51 A3C77730 		.ascii	"\243\307w0\234\316\325t\335\271\310)Ut^c\304T\361q\012"
 260      9CCED574 
ARM GAS  /tmp/cchTuLYH.s 			page 20


 260      DDB9C829 
 260      55745E63 
 260      C454F171 
 261 0a66 D9E568B6 		.ascii	"\331\345h\266\005V\015\330\363`\003\011d~\020\177s "
 261      05560DD8 
 261      F3600309 
 261      647E107F 
 261      7320
 262 0a78 C7C7DE79 		.ascii	"\307\307\336y7\322f\244-H\367\"}\037i+\322Cz\017\376"
 262      37D266A4 
 262      2D48F722 
 262      7D1F692B 
 262      D2437A0F 
 263 0a8d 93800ADC 		.ascii	"\223\200\012\334\223\271V\235\257)(:\373jV!\377\023"
 263      93B9569D 
 263      AF29283A 
 263      FB6A5621 
 263      FF13
 264 0a9f 8CD3CFE4 		.ascii	"\214\323\317\344\352!\177\355Y-\344+\266\372\023\011"
 264      EA217FED 
 264      592DE42B 
 264      B6FA1309 
 265 0aaf BDD28BD0 		.ascii	"\275\322\213\320\366#,\"\307\300\300%\334\\\364N\"\323"
 265      F6232C22 
 265      C7C0C025 
 265      DC5CF44E 
 265      22D3
 266 0ac1 44E30E7C 		.ascii	"D\343\016|\323\234\020\021\342\270x\011\336\031&2\361"
 266      D39C1011 
 266      E2B87809 
 266      DE192632 
 266      F1
 267 0ad2 157BBFF8 		.ascii	"\025{\277\370?1Dy\310\013\261w\375\250Hk\250Hv\265k"
 267      3F314479 
 267      C80BB177 
 267      FDA8486B 
 267      A84876B5 
 268 0ae7 F7E33236 		.ascii	"\367\34326\342\300\200\302\243\300\275\356\032\361/"
 268      E2C080C2 
 268      A3C0BDEE 
 268      1AF12F
 269 0af6 B6882EE7 		.ascii	"\266\210.\347\316\216\352\232\377\225\311F\276B\033"
 269      CE8EEA9A 
 269      FF95C946 
 269      BE421B
 270 0b05 D9486D64 		.ascii	"\331Hmd\303\371\265K\373*5\270@\"\332\373\326\262'\377"
 270      C3F9B54B 
 270      FB2A35B8 
 270      4022DAFB 
 270      D6B227FF 
 271 0b19 96E9C9BB 		.ascii	"\226\351\311\273\236?\226g\341f}\275w\273G\260\333u"
 271      9E3F9667 
 271      E1667DBD 
 271      77BB47B0 
 271      DB75
 272 0b2b 37E0F81E 		.ascii	"7\340\370\036e\"|4.>vY\026\2716\303^\230?\205\343\215"
 272      65227C34 
ARM GAS  /tmp/cchTuLYH.s 			page 21


 272      2E3E7659 
 272      16B936C3 
 272      5E983F85 
 273 0b41 7314B379 		.ascii	"s\024\263y\261\230e&m\202\354\246\220\255N\220\266\351"
 273      B1986526 
 273      6D82ECA6 
 273      90AD4E90 
 273      B6E9
 274 0b53 81097246 		.ascii	"\201\011rF\236\006\331\346\015\322\236\313\207(d\273"
 274      9E06D9E6 
 274      0DD29ECB 
 274      872864BB 
 275 0b63 13A46D7A 		.ascii	"\023\244mz`\202|\214Bvz\203\264\347r\036\205\354r\202"
 275      60827C8C 
 275      42767A83 
 275      B4E7721E 
 275      85EC7282 
 276 0b77 B44D104C 		.ascii	"\264M\020L\220\363)\344yo\220\366\\.\244\220\215+\034"
 276      90F329E4 
 276      796F90F6 
 276      5C2EA490 
 276      8D2B1C
 277 0b8a 200BECB9 		.ascii	" \013\354\271\004o\271^s\233\364\254\364\365+\030\267"
 277      046FB95E 
 277      739BF4AC 
 277      F4F52B18 
 277      B7
 278 0b9b E94F0104 		.ascii	"\351O\001\004\316\342\327f\231_\207a\257\217x\231h\364"
 278      CEE2D766 
 278      995F8761 
 278      AF8F7899 
 278      68F4
 279 0bad 32917A99 		.ascii	"2\221z\231\210^&\222\267\237\313\323\342\306\326\371"
 279      885E2692 
 279      B79FCBD3 
 279      E2C6D6F9 
 280 0bbd 8776D095 		.ascii	"\207v\320\225w\321\320e\273\203ZN\265\002!h\311\343"
 280      77D1D065 
 280      BB835A4E 
 280      B5022168 
 280      C9E3
 281 0bcf 25D6CC59 		.ascii	"%\326\314Y+\206\3215\210G\024\003\203v\037\321\365J"
 281      2B86D135 
 281      88471403 
 281      83761FD1 
 281      F54A
 282 0be1 8ADABAE2 		.ascii	"\212\332\272\342X\276\027Lf5_Uv\230\237\205\230\257"
 282      58BE174C 
 282      66355F55 
 282      76989F85 
 282      98AF
 283 0bf3 EBEEB542 		.ascii	"\353\356\265B\017,\326\230\366\023\222F>7\351\376\345"
 283      0F2CD698 
 283      F6139246 
 283      3E37E9FE 
 283      E5
 284 0c04 C8A711B3 		.ascii	"\310\247\021\263?gs\260\2219\314\237\200\016\275o\230"
ARM GAS  /tmp/cchTuLYH.s 			page 22


 284      3F6773B0 
 284      9139CC9F 
 284      800EBD6F 
 284      98
 285 0c15 3F899DF5 		.ascii	"?\211\235\365wH\277Gz\006\3519\244\027\220v#\235\346"
 285      7748BF47 
 285      7A06E939 
 285      A4179076 
 285      239DE6
 286 0c28 237406D2 		.ascii	"#t\006\322\231Hg#}\034\351\034\237\213\251\217Nv\235"
 286      99486723 
 286      7D1CE91C 
 286      9F8BA98F 
 286      4E769D
 287 0c3b 647B9EFB 		.ascii	"d{\236\373Y\210\244}\353\252\236\244\374ZfW^\217.\324"
 287      5988A47D 
 287      EBAA9EA4 
 287      FC5A6657 
 287      5E8F2ED4 
 288 0c4f 1A708A55 		.ascii	"\032p\212U3X\251l\0313\227\262\034:\233P\230\377\007"
 288      3358A96C 
 288      193397B2 
 288      1C3A9B50 
 288      98FF07
 289 0c62 8F6A42BA 		.ascii	"\217jB\272\032U\263\005\351Q\244\237!\375\002\351\227"
 289      1A55B305 
 289      E951A49F 
 289      21FD02E9 
 289      97
 290 0c73 489F70A3 		.ascii	"H\237p\243\232z};\277\241\367f\223\235\005\371\252\277"
 290      9A7A7D3B 
 290      BFA1F766 
 290      939D05F9 
 290      AABF
 291 0c85 36CC4A3F 		.ascii	"6\314J?\314O[s\245\016h\034\333\262\375\371ShN-\324"
 291      CC4F5B73 
 291      A50E681C 
 291      DBB2FDF9 
 291      53684E2D 
 292 0c9a 2F3BDE5D 		.ascii	"/;\336]\363\375\0125\347\313\002n!\302}\304\270\371"
 292      F3FD0A35 
 292      E7CB026E 
 292      21C27DC4 
 292      B8F9
 293 0cac 899DBFD5 		.ascii	"\211\235\277\325\224\0252\271y\310\350\346!\352\346"
 293      941532B9 
 293      79C8E8E6 
 293      21EAE6
 294 0cbb 21B55F56 		.ascii	"!\265_VVw\271,Ki\3346\\F\331\335%\250 \363}\336\323"
 294      5677B92C 
 294      4B69DC36 
 294      5C46D9DD 
 294      25A820F3 
 295 0cd2 BE677D76 		.ascii	"\276g}vi\237\266\005\302\276\354\223>\353\366\3632\224"
 295      699FB605 
 295      C2BEEC93 
 295      3EEBF6F3 
ARM GAS  /tmp/cchTuLYH.s 			page 23


 295      3294
 296 0ce4 7CDE97ED 		.ascii	"|\336\227\355o\354\236\363\031\006k\256~\367m\267|\352"
 296      6FEC9EF3 
 296      19066BAE 
 296      7EF76DB7 
 296      7CEA
 297 0cf6 62AD35CC 		.ascii	"b\2555\314/\201\036\301\305\213\230\360\371\254\322"
 297      2F811EC1 
 297      C58B98F0 
 297      F9ACD2
 298 0d05 41F2544B 		.ascii	"A\362TK\007W\266\324m\\d\265\210\345\263p\361\005}y"
 298      0757B6D4 
 298      6D5C64B5 
 298      88E5B370 
 298      F1057D79 
 299 0d19 15B4B1E5 		.ascii	"\025\264\261\345t\257\267j(\230\317S\314N\207eBsC\330"
 299      74AFB76A 
 299      2898CF53 
 299      CC4E8765 
 299      427343D8 
 300 0d2d 212EA188 		.ascii	"!.\241\210\315c3#:O\361(\210\313u\036=!\026\230\274"
 300      CD633323 
 300      3A4FF128 
 300      88CB751E 
 300      3D211698 
 301 0d42 4B0965CB 		.ascii	"K\011e\313\240\375|\020\3210v\257@\272\022\351\313z"
 301      A0FD7C10 
 301      D13076AF 
 301      40BA12E9 
 301      CB7A
 302 0d54 B082CEB2 		.ascii	"\260\202\316\262\257\346\346]\357\321\025t\245\345X"
 302      AFE6E65D 
 302      EFD11574 
 302      A5E558
 303 0d63 44DAC09C 		.ascii	"D\332\300\234#f\206\000\250;\320\325\334\363\351\206"
 303      23668600 
 303      A83BD0D5 
 303      DCF3E986 
 304 0d73 1344FA1F 		.ascii	"\023D\372\037\272\273\203\212_\300\220\2042\363\343"
 304      BABB838A 
 304      5FC09084 
 304      32F3E3
 305 0d82 81752DEA 		.ascii	"\201u-\352&\207k\271\245\351\364\023\344UuJa'\276\365"
 305      26876BB9 
 305      A5E9F413 
 305      E455754A 
 305      6127BEF5 
 306 0d96 9AEF6ADB 		.ascii	"\232\357j\333\272\224\335\370\377\306-#\226\3300} :"
 306      BA94DDF8 
 306      FFC62D23 
 306      96D8307D 
 306      203A
 307 0da8 25A71532 		.ascii	"%\247\0252H\266\332g\370G\021\204\257\372O4\276L\236"
 307      48B6DA67 
 307      F8471184 
 307      AFFA4F34 
 307      BE4C9E
ARM GAS  /tmp/cchTuLYH.s 			page 24


 308 0dbb EDCB1459 		.ascii	"\355\313\024Y\326\253\236\255;s\230\277WP\305i\\O#\240"
 308      D6AB9EAD 
 308      3B7398BF 
 308      5750C569 
 308      5C4F23A0 
 309 0dcf C2D5DC77 		.ascii	"\302\325\334w\246\217R'\250\303\374\353\031D\241@&&"
 309      A68F5227 
 309      A8C3FCEB 
 309      1944A140 
 309      2626
 310 0de1 8FCE9D3B 		.ascii	"\217\316\235;\243\336\212\311\214\341g\2239\374\220"
 310      A3DE8AC9 
 310      8CE16793 
 310      39FC90
 311 0df0 5FCEB1F1 		.ascii	"_\316\261\361G\340\366\3206x\363\320\007\253\214\013"
 311      47E0F6D0 
 311      3678F3D0 
 311      07AB8C0B 
 312 0e00 CF61FECD 		.ascii	"\317a\376\315\236\352\3229\321\232\361,\205\330\320"
 312      9EEAD239 
 312      D19AF12C 
 312      85D8D0
 313 0e0f 5EF78011 		.ascii	"^\367\200\021\340\255L\000&Q\310\232\233\275,[-B\251"
 313      E0AD4C00 
 313      2651C89A 
 313      9BBD2C5B 
 313      2D42A9
 314 0e22 DFEE1782 		.ascii	"\337\356\027\202O\013\314G\323\004\032a\332\272\032"
 314      4F0BCC47 
 314      D3041A61 
 314      DABA1A
 315 0e31 B6577CC7 		.ascii	"\266W|\307Gl\357\371|];u\332\2669%8\033\3044Ek#\227"
 315      476CEFF9 
 315      7C5D3B75 
 315      DAB63925 
 315      381BC434 
 316 0e49 869F2A82 		.ascii	"\206\237*\202\333S\314\346\227&\031avz\320V\306\206"
 316      DB53CCE6 
 316      97261961 
 316      767AD056 
 316      C686
 317 0e5b DF6D5616 		.ascii	"\337mV\026IF\364\237\313*\236i\340j\223.\351#\363w\030"
 317      4946F49F 
 317      CB2A9E69 
 317      E06A932E 
 317      E923F377 
 318 0e70 3AF030DF 		.ascii	":\3600\337|\261\370j\351\3415\002\327@k\356\350\\\267"
 318      7CB1F86A 
 318      E9E13502 
 318      D7406BEE 
 318      E85CB7
 319 0e83 4A30D6FC 		.ascii	"J0\326\374^f\003lA\003\354\240\010+\2779\365\252\211"
 319      5E66036C 
 319      4103ECA0 
 319      082BBF39 
 319      F5AA89
 320 0e96 F77D4684 		.ascii	"\367}F\204_r/\020\204t\375\250\364\321\356\356\253\265"
ARM GAS  /tmp/cchTuLYH.s 			page 25


 320      5F722F10 
 320      8474FDA8 
 320      F4D1EEEE 
 320      ABB5
 321 0ea8 FFF632AF 		.ascii	"\377\3662\257\037\205hYw\372c\372k\005\323\277r!\200"
 321      1F856859 
 321      77FA63FA 
 321      6B05D3BF 
 321      722180
 322 0ebb 1FE88004 		.ascii	"\037\350\200\004\254a/X\314\303b:}\036F9J\226\002C\312"
 322      AC612F58 
 322      CCC3623A 
 322      7D1E4639 
 322      4A960243 
 323 0ed0 7E7A64AB 		.ascii	"~zd\253k\241\353\226Vi\315~#\034\362\246\301i\375\361"
 323      6BA1EB96 
 323      5669CD7E 
 323      231CF2A6 
 323      C169FDF1 
 324 0ee4 C3C798DC 		.ascii	"\303\307\230\334(}9\005\331k\034\373\205\371\003>\""
 324      287D3905 
 324      D96B1CFB 
 324      85F9033E 
 324      22
 325 0ef5 CC625AFB 		.ascii	"\314bZ\373\362W\366\355\374\215\002\356\012K\340Va\331"
 325      F257F6ED 
 325      FC8D02EE 
 325      0A4BE056 
 325      61D9
 326 0f07 8F2D7BF8 		.ascii	"\217-{\370\217}\306\337\367\315\266\352\341\003\016"
 326      8F7DC6DF 
 326      F7CDB6EA 
 326      E1030E
 327 0f16 939947F5 		.ascii	"\223\231G\365|\342J\023\367\207\221\373\365\014\367"
 327      7CE24A13 
 327      F78791FB 
 327      F50CF7
 328 0f25 479A6E37 		.ascii	"G\232n7r\237\001\011\306\037X\362\023K\336?1\360>o\245"
 328      729F0109 
 328      C61F58F2 
 328      134BDE3F 
 328      31F03E6F 
 329 0f3a 23EFDACA 		.ascii	"#\357\332\312\323^\012\332\334\221\365\312\223i\217"
 329      D35E0ADA 
 329      DC91F5CA 
 329      93698F
 330 0f49 C68714B3 		.ascii	"\306\207\024\263\365\257\331\346\022\332n\227g\221\313"
 330      F5AFD9E6 
 330      12DA6E97 
 330      6791CB
 331 0f58 2314B1DD 		.ascii	"#\024\261\335\023b\201\005\217\312\306\277\317(\342"
 331      13628105 
 331      8FCAC6BF 
 331      CF28E2
 332 0f67 F98E8BF5 		.ascii	"\371\216\213\365\353\230\257(f\343\003^\020\355\271"
 332      EB98AF28 
 332      66E3035E 
ARM GAS  /tmp/cchTuLYH.s 			page 26


 332      10EDB9
 333 0f76 FC8E22B6 		.ascii	"\374\216\"\2669 Z\316\006\365<X\373\011\363\307 \251"
 333      39205ACE 
 333      06F53C58 
 333      FB09F3C7 
 333      20A9
 334 0f88 82BADA31 		.ascii	"\202\272\3321\3519\216\364s\244\035H;\221~\315&X\335"
 334      E9398EF4 
 334      73A41D48 
 334      3B917ECD 
 334      2658DD
 335 0f9b D47FBA7E 		.ascii	"\324\177\272~\320"
 335      D0
 336 0fa0 CDC564AA 		.ascii	"\315\305d\252\316\366b\357?\0316I\236D\377\231\331_"
 336      CEF662EF 
 336      3F193649 
 336      9E44FF99 
 336      D95F
 337 0fb2 F79FE776 		.ascii	"\367\237\347v\376\331\336\177zlI}\006K~g\351?\337\031"
 337      FED9DE7F 
 337      7A6C497D 
 337      064B7E67 
 337      E93FDF19 
 338 0fc6 FCE7C48F 		.ascii	"\374\347\304\217\217:e\367\275\371\351\366Y\024d-#H"
 338      8F3A65F7 
 338      BDF9E9F6 
 338      5914642D 
 338      2348
 339 0fd8 DDCED1F6 		.ascii	"\335\316\321\366\202\324\233\177\274\275\035K^\260\024"
 339      82D49B7F 
 339      BCBD1D4B 
 339      5EB014
 340 0fe7 E4825190 		.ascii	"\344\202Q\220\323\226\202\030\177\277}\006s\201\017"
 340      D3968218 
 340      7FBF7D06 
 340      73810F
 341 0ff6 2868FBA1 		.ascii	"(h\373\241\336\357(W0\017"
 341      DEEF2857 
 341      300F
 342 1000 52CCCE70 		.ascii	"R\314\316po\207)\312\177*9F\021\273\0169\255\351y\332"
 342      6F8729CA 
 342      7F2A3946 
 342      11BB0E39 
 342      ADE979DA 
 343 1014 B0EB3671 		.ascii	"\260\3536qz\310O\004\353d\332\356L\223\353\304\011\034"
 343      7AC84F04 
 343      EB64DAEE 
 343      4C93EBC4 
 343      091C
 344 1026 9AF20F8D 		.ascii	"\232\362\017\215\363\275\323^Q\347`\206C\210\013\024"
 344      F3BDD35E 
 344      51E76086 
 344      43880B14 
 345 1036 B4F97056 		.ascii	"\264\371pV\261\254\347\301\232W\230\357\366\341.\242"
 345      B1ACE7C1 
 345      9A5798EF 
 345      F6E12EA2 
ARM GAS  /tmp/cchTuLYH.s 			page 27


 346 1046 B49FC483 		.ascii	"\264\237\304\203\351H\037D:\013\351l\277\213\341\322"
 346      E9481F44 
 346      3A0BE96C 
 346      BF8BE1D2 
 347 1056 195D3761 		.ascii	"\031]7a~\232_P]\261=r1L-\314\317\240\210]\236\020\355"
 347      7E9A5F50 
 347      5DB13D72 
 347      314C2DCC 
 347      CFA0885D 
 348 106d 4C2DCCCF 		.ascii	"L-\314\317\244\210\215\237\367\326\3244\363}\360\022"
 348      A4888D9F 
 348      F7D6D434 
 348      F37DF012 
 349 107d 2D0435C6 		.ascii	"-\0045\306\263\037\023\033\332\351;\246\235\276W\006"
 349      B31F131B 
 349      DAE93BA6 
 349      9DBE5706 
 350 108d C93F28D3 		.ascii	"\311?(\323\234\3306\177G:\307\317\304\360\271\227h1"
 350      9CD8367F 
 350      473AC7CF 
 350      C4F0B997 
 350      6831
 351 109f BC75AA4D 		.ascii	"\274u\252M\260\264\356UX]e\265\311\270\316O\002\337"
 351      B0B4EE55 
 351      585D65B5 
 351      C9B8CE4F 
 351      02DF
 352 10b1 D397E8CE 		.ascii	"\323\227\350\316\263q\247\227M\306\313\261\344S~\253"
 352      B371A797 
 352      4DC6CBB1 
 352      E4537EAB 
 353 10c1 C0479E32 		.ascii	"\300G\2362\331\333Z\313\014\210g\0263\320\375g\350\033"
 353      D9DB5ACB 
 353      0C886716 
 353      33D0FD67 
 353      E81B
 354 10d3 1F844CE3 		.ascii	"\037\204L\343a\303\31797P6Z\277Z\233\315\016v\253v\324"
 354      61C3CF39 
 354      3750365A 
 354      BF5A9BCD 
 354      0E76AB76 
 355 10e8 A50AF30B 		.ascii	"\245\012\363\013\374\270\007n!\333j\015\264\325\272"
 355      FCB8076E 
 355      21DB6A0D 
 355      B4D5BA
 356 10f7 CE3899A3 		.ascii	"\3168\231\243q~\335\330lJ\362\247\374\233\214F\335\022"
 356      717EDDD8 
 356      6C4AF2A7 
 356      FC9B8C46 
 356      DD12
 357 1109 FE467B1B 		.ascii	"\376F{\033\343\277\304\320\3563\255qga\011\365h\011"
 357      E3BFC4D0 
 357      EE33AD71 
 357      676109F5 
 357      6809
 358 111b EF514B58 		.ascii	"\357QKXr\370\365#\356\377\011\013\321\327RK+X\312XA"
 358      72F8F523 
ARM GAS  /tmp/cchTuLYH.s 			page 28


 358      EEFF090B 
 358      D1D7524B 
 358      2B58CA58 
 359 1130 E346ABFF 		.ascii	"\343F\253\377]\302\367f[\351r?.xR\266W\276xJ\377\265"
 359      5DC2F766 
 359      5BE9723F 
 359      2E7852B6 
 359      57BE784A 
 360 1146 6696DB4A 		.ascii	"f\226\333J\037\032\300\253\342,9\374\344\021\207m\245"
 360      1F1AC0AB 
 360      E22C39FC 
 360      E411876D 
 360      A5
 361 1157 AECD6929 		.ascii	"\256\315i)cN/*\346\264\2145\247\277\017\320\232\036"
 361      634E2F2A 
 361      E6B48C35 
 361      A7BF0FD0 
 361      9A1E
 362 1169 3AA22F1D 		.ascii	":\242/\035\026\361\354W3\3228:\014\030'\375\2259|:*"
 362      16F1EC57 
 362      33D2383A 
 362      0C1827FD 
 362      95397C3A 
 363 117e EC4B713E 		.ascii	"\354Kq>\324\266D\276\354\367>\331\375\212\372\3770u"
 363      D4B644BE 
 363      ECF73ED9 
 363      FD8AFAFF 
 363      3075
 364 1190 5568773F 		.ascii	"Uhw?\247R\315\243R\265\235\317\267c@\373\340zI\345c"
 364      A752CDA3 
 364      52B59DCF 
 364      B76340FB 
 364      E07A49E5 
 365 11a5 26C4B629 		.ascii	"&\304\266))\363!\014\261'\220>\201!\3669\244\213\221"
 365      29F3210C 
 365      B127903E 
 365      8121F639 
 365      A48B91
 366 11b8 AE62355D 		.ascii	"\256b5]?\200N\210<\262\364\012\032pMCS\234\317\363\323"
 366      3F804E88 
 366      3CB2F40A 
 366      1A704D43 
 366      539CCFF3 
 367 11cd B1B2E592 		.ascii	"\261\262\345\222J\203\262\177\344\035&R\031\007j\270"
 367      4A83B27F 
 367      E41D2652 
 367      19076AB8 
 368 11dd AF2F0BD5 		.ascii	"\257/\013\325\256\265U\255\366\037\010\355\313\256\366"
 368      AEB555AD 
 368      F61F08ED 
 368      CBAEF6
 369 11ec 5BAF2328 		.ascii	"[\257#(\243u\373r\353\364r\350\361\323\322\365w\254"
 369      A375FB72 
 369      EBF472E8 
 369      F1D3D2F5 
 369      77AC
 370 11fe C8E0F1F4 		.ascii	"\310\340\361\364\267\226\231^\012\363\353-\303\302z"
ARM GAS  /tmp/cchTuLYH.s 			page 29


 370      B796995E 
 370      0AF3EB2D 
 370      C3C27A
 371 120d 262CBC7A 		.ascii	"&,\274z\274\353\324\375\026\355,X,j\356\307\266#\245"
 371      BCEBD4FD 
 371      16ED2C58 
 371      2C6AEEC7 
 371      B623A5
 372 1220 1BB7E841 		.ascii	"\033\267\350A\327zQ\323\250(\365\260\300\374\210b6\337"
 372      D77A51D3 
 372      A828F5B0 
 372      C0FC8862 
 372      36DF
 373 1232 E605D1B8 		.ascii	"\346\005\321\270L\252\005\026!\314oD\233{C\2679\374"
 373      4CAA0516 
 373      21CC6F44 
 373      9B7B43B7 
 373      39FC
 374 1244 D1F63487 		.ascii	"\321\3664\207\010\352\362\227\335o\371\255~\331M\236"
 374      08EAF297 
 374      DD6FF9AD 
 374      7ED94D9E 
 375 1254 D25DAE6F 		.ascii	"\322]\256oI\366\3324\254\010\034A\311I\331\256\267z"
 375      49F6DA34 
 375      AC081C41 
 375      C949D9AE 
 375      B77A
 376 1266 F3CBEE34 		.ascii	"\363\313\3564js=v!\237P\314\326-We\037;\031unEu6\350"
 376      6A733D76 
 376      219F50CC 
 376      D62D5765 
 376      1F3B1975 
 377 127f EAF4B81F 		.ascii	"\352\364\270\037i;\362u\214z}\343\326\014{\213-v#\355"
 377      693BF275 
 377      8C7A7DE3 
 377      D60C7B8B 
 377      2D7623ED 
 378 1293 B0B4E01D 		.ascii	"\260\264\340\035\214\005wn\236`\241\361\\\213\215\032"
 378      8C05776E 
 378      9E60A1F1 
 378      5C8B8D1A 
 379 12a3 DF2217A4 		.ascii	"\337\"\027\244\354\371\315Yk\334\204y\232b6\3766\313"
 379      ECF9CD59 
 379      6BDC8479 
 379      9A6236FE 
 379      36CB
 380 12b5 4CDB8478 		.ascii	"L\333\204x\201\"6; \272\335?4\363R\015\261\325\023\242"
 380      8122363B 
 380      20BADD3F 
 380      34F3520D 
 380      B1D513A2 
 381 12c9 3D8FB329 		.ascii	"=\217\263)b\233\003\242\333\335Cs(b\273'D\226\307i*"
 381      629B03A2 
 381      DBDD4373 
 381      2862BB27 
 381      4496C769 
 382 12de E266B07F 		.ascii	"\342f\260\177\201\253\323y\334rEfH\267\233\207\026\350"
ARM GAS  /tmp/cchTuLYH.s 			page 30


 382      81ABD379 
 382      DC724566 
 382      48B79B87 
 382      16E8
 383 12f0 4C6EC97A 		.ascii	"Ln\311z\017\255\011\3639\212\331y[f\304\002\227\\.\241"
 383      0FAD09F3 
 383      398AD979 
 383      5B66C402 
 383      975C2EA1 
 384 1304 885D9E10 		.ascii	"\210]\236\020\355x\014\363gEAs\034\007D\313\3751=\017"
 384      ED780CF3 
 384      67454173 
 384      1C0744CB 
 384      FD313D0F 
 385 1318 D6AFC37C 		.ascii	"\326\257\303|\023dd\271a~'\206\232\335H\367 }\027\351"
 385      136464B9 
 385      617E2786 
 385      9ADD48F7 
 385      207D17E9 
 386 132c 7B48F721 		.ascii	"{H\367!\375\000\351~\244\007\220~\204\364\240\036\240"
 386      FD00E97E 
 386      A407907E 
 386      84F4A01E 
 386      A0
 387 133d 4CFD2E09 		.ascii	"L\375.\011@\366\001\275\315o\277\362\256,\251\331\227"
 387      40F601BD 
 387      CD6FBFF2 
 387      AE2CA9D9 
 387      97
 388 134e 3D64DBD7 		.ascii	"=d\333\327\267d,w\330\266\334\356\214\345\216\330\226"
 388      B7642C77 
 388      D8B6DCEE 
 388      8CE58ED8 
 388      96
 389 135f DB9AB1DC 		.ascii	"\333\232\261\334Q\275\034\227W\022\223\342eUER|RL\012"
 389      51BD1C97 
 389      571293E2 
 389      65554552 
 389      7C524C0A 
 390 1373 DC75CFBD 		.ascii	"\334u\317\275\005#\270k\006\015*T\376\022\251\302\312"
 390      0523B86B 
 390      060D2A54 
 390      FE12A9C2 
 390      CA
 391 1384 B2AAC278 		.ascii	"\262\252\302xM\264\252\266<V\230\302w\007Ur\375\330"
 391      4DB4AAB6 
 391      3C5698C2 
 391      77075572 
 391      FDD8
 392 1396 52F78D29 		.ascii	"R\367\215)\015\244\342\177\213E\344\337\025\326\246"
 392      0DA4E27F 
 392      8B45E4DF 
 392      15D6A6
 393 13a5 A4C2AA44 		.ascii	"\244\302\252D\024\312\214\217\327\020\204\252\370\370"
 393      14CA8C8F 
 393      D71084AA 
 393      F8F8
ARM GAS  /tmp/cchTuLYH.s 			page 31


 394 13b3 C28A68B4 		.ascii	"\302\212h\264\260L\252\276\261&Q\023\2731V6>^8l\320"
 394      B04CAABE 
 394      B1265113 
 394      BB315636 
 394      3E5E386C 
 395 13c8 2D8386E8 		.ascii	"-\203\206\350\260ryyl\002\300\006k\3435\362\360\210"
 395      B0727979 
 395      6C02C006 
 395      6BE335F2 
 395      F088
 396 13da 7CBF371C 		.ascii	"|\2777\034\312.\374\031\277gj\000d\250\301?Y\212\313"
 396      CA2EFC19 
 396      BF676A00 
 396      64A8C13F 
 396      598ACB
 397 13ed 319F142B 		.ascii	"1\237\024++\367W\247*\"\3620VVI.L&$9Uxg\361\230\021"
 397      2BF757A7 
 397      2A22F230 
 397      5656492E 
 397      4C262439 
 398 1407 63A61446 		.ascii	"c\246\024F\023\325\311xULJ\025\3365bDa\264R\236\232"
 398      13D5C978 
 398      554C4A15 
 398      DE356244 
 398      61B4529E 
 399 141c 8CA5089F 		.ascii	"\214\245\010\237\0006tHD\026\223\265\262X\021\223C\251"
 399      00367448 
 399      441693B5 
 399      B2581193 
 399      43A9
 400 142e A929395E 		.ascii	"\251)9^\015\032\270\326\004\2471\020\255$\257\250\305"
 400      0D1AB8D6 
 400      04A73110 
 400      AD24AFA8 
 400      C5
 401 143f 736AD5F2 		.ascii	"sj\325\362>(/\373\000@\016 _\262\2370&\213\223\252\345"
 401      3E282FFB 
 401      00400E20 
 401      5FB29F30 
 401      268B93AA 
 402 1454 FCD8A458 		.ascii	"\374\330\244X\215\034I%j\245(\340\376\322\026\027\337"
 402      8D1C4925 
 402      6AA528E0 
 402      FED21617 
 402      DF
 403 1465 23A8796C 		.ascii	"#\250yl\211\376\312\207\252xJ\216\325\304\244\210\206"
 403      89FECA87 
 403      AA784A8E 
 403      D5C4A488 
 403      86
 404 1476 A73D08C6 		.ascii	"\247=\010\306\252\"5\261)r\216\\I\252\214\310\241he"
 404      AA2235B1 
 404      29728E5C 
 404      49AA8CC8 
 404      A16865
 405 1489 44B92FB0 		.ascii	"D\271/\260\027!ZY\016\025\005\222X\024.I)6)('\245x\""
 405      17215A59 
ARM GAS  /tmp/cchTuLYH.s 			page 32


 405      0E150592 
 405      58142E49 
 405      29362928 
 406 14a1 A27C8C27 		.ascii	"\242|\214'\202\321D\215\014\337^\227Q\257\225\321\204"
 406      82D1448D 
 406      0CDF5E97 
 406      51AF95D1 
 406      84
 407 14b2 1403A85C 		.ascii	"\024\003\250\\\3628\002\332\210\312S\376\335\271Dd\322"
 407      F23802DA 
 407      88CA53FE 
 407      DDB94464 
 407      D2
 408 14c3 2DD5447F 		.ascii	"-\325D\177R\254\002\3329\"\013\3220A\372\265 \335,H"
 408      52AC02DA 
 408      39220BD2 
 408      3041FAB5 
 408      20DD2C48 
 409 14d7 B708D270 		.ascii	"\267\010\322pA\272U\224\006\337\004\347`\241J\202\313"
 409      41BA5594 
 409      06DF04E7 
 409      60A14A82 
 409      CB
 410 14e8 507F3202 		.ascii	"P\1772\002\310A\302\360d\020:\031IT\225\307$_\264\262"
 410      C841C2F0 
 410      64103A19 
 410      495495C7 
 410      245FB4B2 
 411 14fc 4C225294 		.ascii	"L\"R\224U\307r\344\224\\&\203\206\341K\274\013\312\325"
 411      55C772E4 
 411      945C2683 
 411      86E14BBC 
 411      0BCAD5
 412 150f 8972E5F3 		.ascii	"\211r\345\363\204\252\262\212TP\226b\023R(\037\271\011"
 412      84AAB28A 
 412      54509662 
 412      1352281F 
 412      B909
 413 1521 48E553C1 		.ascii	"H\345S\301prbS\342r\024^\014L\226\023\343\377\232\034"
 413      70726253 
 413      E272145E 
 413      0C4C9613 
 413      E3FF9A1C 
 414 1535 A0EA115E 		.ascii	"\240\352\021^\211I\261\032\322d\376\311\262,%\363@\257"
 414      8949B11A 
 414      D264FEC9 
 414      B22C25F3 
 414      40AF
 415 1547 A9587559 		.ascii	"\251XuY\262\022\370\277\332^\2651\"X?\005%\025\231X"
 415      B212F8BF 
 415      DA5EB531 
 415      22583F05 
 415      25159958 
 416 155b 1BAB0588 		.ascii	"\033\253\005\210\376\264Q\324GA\365\352\217B[\312\376"
 416      FEB451D4 
 416      4741F5EA 
 416      8F425BCA 
ARM GAS  /tmp/cchTuLYH.s 			page 33


 416      FE
 417 156c 5404AEC0 		.ascii	"T\004\256\300\001\224N\346\300\273\325\265\240z\373"
 417      01944EE6 
 417      C0BBD5B5 
 417      A07AFB
 418 157b 4AAAE529 		.ascii	"J\252\345)\304x\253U\254\352Hb21\005,\005\002V+\315"
 418      C478AB55 
 418      ACEA4862 
 418      3231052C 
 418      0502562B 
 419 1590 3A5986F7 		.ascii	":Y\206\367\222\271h/\325e\251\007\340\233\330dr#&#\265"
 419      92B9682F 
 419      D565A907 
 419      E09BD864 
 419      72232623 
 420 15a5 F91A3BC4 		.ascii	"\371\032;\304\220\"r?\206A\362$\224\214L.\213\313\361"
 420      9022723F 
 420      8641F224 
 420      948C4C2E 
 420      8BCBF1
 421 15b8 9A8A3EC9 		.ascii	"\232\212>\311\010\250Ia\026o\341A,\031\253\001?\254"
 421      08A84961 
 421      166FE141 
 421      2C19AB01 
 421      3FAC
 422 15ca 80B7A00A 		.ascii	"\200\267\240\012\362~\037\242\324\262*4\034x\230L$\252"
 422      F27E1FA2 
 422      D4B22A34 
 422      1C78984C 
 422      24AA
 423 15dc 72C13235 		.ascii	"r\30125+\015\301\275b\337\212qc\203D\344\034x\214\267"
 423      2B0DC1BD 
 423      62DF8A71 
 423      638344E4 
 423      1C788CB7 
 424 15f0 E4FBC94A 		.ascii	"\344\373\311J+\305R\310\275\037\337\013\245\312\325"
 424      2BC552C8 
 424      BD1FDF0B 
 424      A5CAD5
 425 15ff 560D9514 		.ascii	"V\015\225\024E\356\275g\364=\243K\203pWR:v\\\016\\\213"
 425      45EEBD67 
 425      F43DA34B 
 425      83705752 
 425      3A765C0E 
 426 1615 47DE5974 		.ascii	"G\336Yt\277\037_\351\033\257\001'\324\024n\357f\370"
 426      BF1F5FE9 
 426      1BAF0127 
 426      D4146EEF 
 426      66F8
 427 1627 0271B33E 		.ascii	"\002q\263>`\354\352\3339\332mh\242&6\334E\023\265\340"
 427      60ECEADB 
 427      39DA6D68 
 427      A22636DC 
 427      4513B5E0 
 428 163b 0152CEC4 		.ascii	"\001R\316\304\310\370\332\011`\015\376\211\0219\221"
 428      C8F8DA09 
 428      600DFE89 
ARM GAS  /tmp/cchTuLYH.s 			page 34


 428      113991
 429 164a 0CC22B52 		.ascii	"\014\302+RR\226\340*\225\30354\261&!\307'L\005\224\211"
 429      5296E02A 
 429      95C33534 
 429      B12621C7 
 429      274C0594 
 430 165f 11E53630 		.ascii	"\021\34560\021\004\257y \020G\314\374D\255\314p\026"
 430      1104AF79 
 430      201047CC 
 430      FC44ADCC 
 430      7016
 431 1671 48E08D10 		.ascii	"H\340\215\020\037/$\306\367\275\267\344\316\342\322"
 431      1F2F24C6 
 431      F7BDB7E4 
 431      CEE2D2
 432 1680 4829C493 		.ascii	"H)\304\223\242\330\204\301,\323\240\203\302\021cJF\227"
 432      A2D884C1 
 432      2CD3A083 
 432      C211634A 
 432      4697
 433 1692 149694C2 		.ascii	"\024\226\224\302\337\230\241C\3760t\312\024\010\200"
 433      DF98A143 
 433      FE3074CA 
 433      140880
 434 16a1 D543874C 		.ascii	"\325C\207L\030z\323\220)\303A\006qD\361`8\207\3009T"
 434      187AD390 
 434      29C34106 
 434      7144F160 
 434      3887C039 
 435 16b6 FC7D71B1 		.ascii	"\374}q\261\357\256\322q\305\276\342\322\261\305b\361"
 435      EFAED271 
 435      C5BEE2D2 
 435      B1C562F1 
 436 16c6 7F158BA3 		.ascii	"\177\025\213\243K\340\034Q\214aj\360\315\020\346\212"
 436      4BE01C51 
 436      8C616AF0 
 436      CD10E68A 
 437 16d6 8B8A43C5 		.ascii	"\213\212C\305#KF\026\3377\262h\260X\312|\032\342\257"
 437      234B4616 
 437      DF37B268 
 437      B058CA7C 
 437      1AE2AF
 438 16e9 4D9549B2 		.ascii	"M\225I\262?\012\301\372\201>)\371\201\262\252xE\015"
 438      3F0AC1FA 
 438      813E29F9 
 438      81B2AA78 
 438      450D
 439 16fb 0845CADE 		.ascii	"\010E\312\336<,\"\377\332\334\227(n\215\234\025\336"
 439      3C2C22FF 
 439      DADC9728 
 439      6E8D9C15 
 439      DE
 440 170c 7D775121 		.ascii	"}wQ!\2122i\210\332\267D\252\252H\210\361\247\222\261"
 440      8A326988 
 440      DAB744AA 
 440      AA4888F1 
 440      A792B1
ARM GAS  /tmp/cchTuLYH.s 			page 35


 441 171f 58B91895 		.ascii	"X\271\030\225\006\3039\004\316\241j?5\"Q3!^\021,E\233"
 441      06C33904 
 441      CEA16A3F 
 441      35225133 
 441      215E112C 
 442 1735 1B1CAC2E 		.ascii	"\033\034\254.\213\327\014\212rb\231T\321'ZYZY^R\025"
 442      8BD70C8A 
 442      72629954 
 442      D1275A59 
 442      5A595E52 
 443 174a 8B25FFD5 		.ascii	"\213%\377\325\266\025U[%\315X\032K\311\012\314@\372"
 443      B615555B 
 443      25CD581A 
 443      4BC90ACC 
 443      40FA
 444 175c BA0CCF48 		.ascii	"\272\014\317H\001r%\236\"O\250\255\211F\344K\020z\004"
 444      0172259E 
 444      224FA8AD 
 444      8946E44B 
 444      107A04
 445 176f BC2BC74A 		.ascii	"\274+\307J\300h\342\321`\252\034n$\0225K\246\246F\327"
 445      C068E2D1 
 445      60AA1C6E 
 445      2412354B 
 445      A6A646D7 
 446 1783 C4E50CAE 		.ascii	"\304\345\014\256=\025\273\014\220\235\274w\225]\337"
 446      3D15BB0C 
 446      909DBC77 
 446      955DDF
 447 1792 5A891DAB 		.ascii	"Z\211\035\253XR4$4\271L\225/\227\004\017\3507b\325J"
 447      58523424 
 447      34B94C95 
 447      2F97040F 
 447      E83762D5 
 448 17a7 8056EEF3 		.ascii	"\200V\356\363\310wSU\017\354\013\217\365\317AI\261\227"
 448      C8775355 
 448      0FEC0B8F 
 448      F5CF4149 
 448      B197
 449 17b9 8084C1D8 		.ascii	"\200\204\301\330/a\370\223\324\360')\341/\004Ok%\210"
 449      2F61F893 
 449      D4F02729 
 449      E12F044F 
 449      6B2588
 450 17cc 52D0DD90 		.ascii	"R\320\335\220"
 451 17d0 42974F8A 		.ascii	"B\227O\212Kr-\350\236ta\222\346\332W\000\260\305\027"
 451      4B722DE8 
 451      9E746192 
 451      E6DA5700 
 451      B0C517
 452 17e3 FD0CCF94 		.ascii	"\375\014\317\224\020ex\024\234$\243'\222+\351\037r\340"
 452      10657814 
 452      9C24A327 
 452      922BE91F 
 452      72E0
 453 17f5 5A1EAB92 		.ascii	"Z\036\253\222\313\340FQ'\371\206\334\005\310\033eR."
 453      CBE04651 
ARM GAS  /tmp/cchTuLYH.s 			page 36


 453      27F986DC 
 453      05C81B65 
 453      522E
 454 1807 5CAACA52 		.ascii	"\\\252\312R2)\015\217H%\371\252\320\345\261\361\265"
 454      32290D8F 
 454      4825F9AA 
 454      D0E5B1F1 
 454      B5
 455 1818 154A9461 		.ascii	"\025J\224a\237\204\222e5\361(\011*b\371\370\212>\304"
 455      9F849265 
 455      35F12809 
 455      2A62F9F8 
 455      8A3EC4
 456 182b 089486ED 		.ascii	"\010\224\206\355/WG g\210\217\227\240\221\022`\206W"
 456      2F574720 
 456      67888F97 
 456      A0911260 
 456      8657
 457 183d D95B0289 		.ascii	"\331[\002\211\267AI\306@\032HL\230\220\212\311\202\\"
 457      B74149C6 
 457      401A484C 
 457      98908AC9 
 457      825C
 458 184f 9D1F2FAF 		.ascii	"\235\037/\257\212\251!\015|Z\210V\016v2\340\273\306"
 458      8AA9210D 
 458      7C5A8856 
 458      0E7632E0 
 458      BBC6
 459 1861 8D1E0BF6 		.ascii	"\215\036\013\366\233\244\306+\002\0248D\254L\342\377"
 459      9BA4C62B 
 459      02143844 
 459      AC4CE2FF 
 460 1871 C48FCA43 		.ascii	"\304\217\312C\327\213T$I'\351\0373\266hdq`l\351\375"
 460      D78B5424 
 460      4927E91F 
 460      33B66864 
 460      71606CE9 
 461 1886 E3461607 		.ascii	"\343F\026\007\307\226\214\0339\262\250\330?\356\336"
 461      C7968C1B 
 461      39B2A8D8 
 461      3FEEDE
 462 1895 7145E071 		.ascii	"qE\340qp\216-*\366\375\276\004\034\362\356\021\177,"
 462      708E2D2A 
 462      F6FDBE04 
 462      1CF2EE11 
 462      7F2C
 463 18a7 F6DDF987 		.ascii	"\366\335\371\207\342\273\011\031\365\377!Ad\250"
 463      E2BB0919 
 463      F5FF2141 
 463      64A8
 464              		.text
 465              		.section	.gnu.lto_.symtab.40fb8eb46ae01d86,"",%progbits
 466 0000 6D61696E 		.ascii	"main\000\000\000\000\000\000\000\000\000\000\000\000"
 466      00000000 
 466      00000000 
 466      00000000 
 467 0010 34020000 		.ascii	"4\002\000\000chThdSleep\000\000\002\000\000\000\000"
ARM GAS  /tmp/cchTuLYH.s 			page 37


 467      63685468 
 467      64536C65 
 467      65700000 
 467      02000000 
 468 0025 00000000 		.ascii	"\000\000\000\000\0007\002\000\000TestThread\000\000"
 468      00370200 
 468      00546573 
 468      74546872 
 468      65616400 
 469 003a 02000000 		.ascii	"\002\000\000\000\000\000\000\000\000\000;\002\000\000"
 469      00000000 
 469      00003B02 
 469      0000
 470 0048 63685468 		.ascii	"chThdCreateStatic\000\000\002\000\000\000\000\000\000"
 470      64437265 
 470      61746553 
 470      74617469 
 470      63000002 
 471 0062 0000003D 		.ascii	"\000\000\000=\002\000\000sdStart\000\000\002\000\000"
 471      02000073 
 471      64537461 
 471      72740000 
 471      020000
 472 0075 00000000 		.ascii	"\000\000\000\000\000\000\000H\002\000\000chSysInit\000"
 472      00000048 
 472      02000063 
 472      68537973 
 472      496E6974 
 473 008a 00020000 		.ascii	"\000\002\000\000\000\000\000\000\000\000\000M\002\000"
 473      00000000 
 473      0000004D 
 473      0200
 474 0098 0068616C 		.ascii	"\000halInit\000\000\002\000\000\000\000\000\000\000"
 474      496E6974 
 474      00000200 
 474      00000000 
 474      0000
 475 00aa 00005002 		.ascii	"\000\000P\002\000\000ch\000\000\002\000\000\000\000"
 475      00006368 
 475      00000200 
 475      000000
 476 00b9 00000000 		.ascii	"\000\000\000\000\000V\002\000\000SD2\000\000\002\000"
 476      00560200 
 476      00534432 
 476      00000200 
 477 00c9 00000000 		.ascii	"\000\000\000\000\000\000\000\000R\002\000\000"
 477      00000000 
 477      52020000 
 478              		.text
 479              		.section	.gnu.lto_.opts,"",%progbits
 480 0000 272D6D63 		.ascii	"'-mcpu=cortex-m4''-mno-thumb-interwork''-mthumb''-g"
 480      70753D63 
 480      6F727465 
 480      782D6D34 
 480      27272D6D 
 481 0033 67646227 		.ascii	"gdb''-O2''-fomit-frame-pointer''-falign-functions=1"
 481      272D4F32 
ARM GAS  /tmp/cchTuLYH.s 			page 38


 481      27272D66 
 481      6F6D6974 
 481      2D667261 
 482 0066 3627272D 		.ascii	"6''-ffunction-sections''-fdata-sections''-fno-commo"
 482      6666756E 
 482      6374696F 
 482      6E2D7365 
 482      6374696F 
 483 0099 6E27272D 		.ascii	"n''-flto'\000"
 483      666C746F 
 483      2700
 484              		.text
 485              		.cfi_sections	.debug_frame
 486              		.section	.text.Thread1,"ax",%progbits
 487              		.align	2
 488              		.p2align 4,,15
 489              		.thumb
 490              		.thumb_func
 491              		.type	Thread1, %function
 492              	Thread1:
 493              	.LFB272:
 494              		.file 1 "main.c"
 495              		.loc 1 25 0
 496              		.cfi_startproc
 497              		@ args = 0, pretend = 0, frame = 0
 498              		@ frame_needed = 0, uses_anonymous_args = 0
 499              	.LVL0:
 500              	.LBB4:
 501              	.LBB5:
 502              		.file 2 "../../../os/rt/include/chregistry.h"
 503              		.loc 2 135 0
 504 0000 0B4B     		ldr	r3, .L4
 505 0002 0C4A     		ldr	r2, .L4+4
 506 0004 9B69     		ldr	r3, [r3, #24]
 507              	.LBE5:
 508              	.LBE4:
 509              		.loc 1 25 0
 510 0006 70B5     		push	{r4, r5, r6, lr}
 511              	.LCFI0:
 512              		.cfi_def_cfa_offset 16
 513              		.cfi_offset 4, -16
 514              		.cfi_offset 5, -12
 515              		.cfi_offset 6, -8
 516              		.cfi_offset 14, -4
 517              		.loc 1 30 0
 518 0008 4FF48064 		mov	r4, #1024
 519 000c 4FF40055 		mov	r5, #8192
 520              	.LBB7:
 521              	.LBB6:
 522              		.loc 2 135 0
 523 0010 9A61     		str	r2, [r3, #24]
 524              	.LBE6:
 525              	.LBE7:
 526              		.loc 1 30 0
 527 0012 C4F60004 		movt	r4, 18432
 528 0016 2E46     		mov	r6, r5	@ movhi
 529              	.LVL1:
ARM GAS  /tmp/cchTuLYH.s 			page 39


 530              	.L2:
 531              		.loc 1 30 0 is_stmt 0 discriminator 1
 532 0018 6683     		strh	r6, [r4, #26]	@ movhi
 533              		.loc 1 31 0 is_stmt 1 discriminator 1
 534 001a 41F28830 		movw	r0, #5000
 535 001e FFF7FEFF 		bl	chThdSleep
 536              	.LVL2:
 537              		.loc 1 32 0 discriminator 1
 538 0022 2583     		strh	r5, [r4, #24]	@ movhi
 539              		.loc 1 33 0 discriminator 1
 540 0024 41F28830 		movw	r0, #5000
 541 0028 FFF7FEFF 		bl	chThdSleep
 542              	.LVL3:
 543 002c F4E7     		b	.L2
 544              	.L5:
 545 002e 00BF     		.align	2
 546              	.L4:
 547 0030 00000000 		.word	ch
 548 0034 00000000 		.word	.LC0
 549              		.cfi_endproc
 550              	.LFE272:
 551              		.size	Thread1, .-Thread1
 552 0038 AFF30080 		.section	.text.startup.main,"ax",%progbits
 552      AFF30080 
 553              		.align	2
 554              		.p2align 4,,15
 555              		.global	main
 556              		.thumb
 557              		.thumb_func
 558              		.type	main, %function
 559              	main:
 560              	.LFB273:
 561              		.loc 1 40 0
 562              		.cfi_startproc
 563              		@ args = 0, pretend = 0, frame = 0
 564              		@ frame_needed = 0, uses_anonymous_args = 0
 565 0000 10B5     		push	{r4, lr}
 566              	.LCFI1:
 567              		.cfi_def_cfa_offset 8
 568              		.cfi_offset 4, -8
 569              		.cfi_offset 14, -4
 570 0002 82B0     		sub	sp, sp, #8
 571              	.LCFI2:
 572              		.cfi_def_cfa_offset 16
 573              		.loc 1 49 0
 574 0004 FFF7FEFF 		bl	halInit
 575              	.LVL4:
 576              		.loc 1 50 0
 577 0008 FFF7FEFF 		bl	chSysInit
 578              	.LVL5:
 579              		.loc 1 55 0
 580 000c 0E48     		ldr	r0, .L9
 581 000e 0021     		movs	r1, #0
 582 0010 FFF7FEFF 		bl	sdStart
 583              	.LVL6:
 584              		.loc 1 60 0
 585 0014 0023     		movs	r3, #0
ARM GAS  /tmp/cchTuLYH.s 			page 40


 586 0016 0093     		str	r3, [sp, #0]
 587 0018 0C48     		ldr	r0, .L9+4
 588 001a 0D4B     		ldr	r3, .L9+8
 589 001c 4FF4A471 		mov	r1, #328
 590 0020 4022     		movs	r2, #64
 591              		.loc 1 67 0
 592 0022 4FF40064 		mov	r4, #2048
 593              		.loc 1 60 0
 594 0026 FFF7FEFF 		bl	chThdCreateStatic
 595              	.LVL7:
 596              		.loc 1 67 0
 597 002a C4F60004 		movt	r4, 18432
 598 002e 03E0     		b	.L8
 599              	.L7:
 600              		.loc 1 69 0
 601 0030 41F28830 		movw	r0, #5000
 602 0034 FFF7FEFF 		bl	chThdSleep
 603              	.LVL8:
 604              	.L8:
 605              		.loc 1 67 0
 606 0038 2369     		ldr	r3, [r4, #16]
 607 003a 9B04     		lsls	r3, r3, #18
 608 003c F8D4     		bmi	.L7
 609              		.loc 1 68 0
 610 003e 0248     		ldr	r0, .L9
 611 0040 FFF7FEFF 		bl	TestThread
 612              	.LVL9:
 613 0044 F4E7     		b	.L7
 614              	.L10:
 615 0046 00BF     		.align	2
 616              	.L9:
 617 0048 00000000 		.word	SD2
 618 004c 00000000 		.word	.LANCHOR0
 619 0050 00000000 		.word	Thread1
 620              		.cfi_endproc
 621              	.LFE273:
 622              		.size	main, .-main
 623 0054 AFF30080 		.section	.bss.waThread1,"aw",%nobits
 623      AFF30080 
 623      AFF30080 
 624              		.align	3
 625              		.set	.LANCHOR0,. + 0
 626              		.type	waThread1, %object
 627              		.size	waThread1, 328
 628              	waThread1:
 629 0000 00000000 		.space	328
 629      00000000 
 629      00000000 
 629      00000000 
 629      00000000 
 630              		.section	.rodata.str1.4,"aMS",%progbits,1
 631              		.align	2
 632              	.LC0:
 633 0000 626C696E 		.ascii	"blinker\000"
 633      6B657200 
 634              		.text
 635              	.Letext0:
ARM GAS  /tmp/cchTuLYH.s 			page 41


 636              		.file 3 "/usr/local/bin/../lib/gcc/arm-none-eabi/4.7.2/include/stddef.h"
 637              		.file 4 "/usr/local/bin/../lib/gcc/arm-none-eabi/4.7.2/../../../../arm-none-eabi/include/stdint.h"
 638              		.file 5 "../../../os/rt/ports/ARMCMx/compilers/GCC/chtypes.h"
 639              		.file 6 "../../../os/rt/include/chsystypes.h"
 640              		.file 7 "../../../os/rt/include/chschd.h"
 641              		.file 8 "../../../os/ext/CMSIS/ST/STM32F3xx/stm32f302x8.h"
 642              		.file 9 "../../../os/rt/ports/ARMCMx/chcore.h"
 643              		.file 10 "../../../os/rt/ports/ARMCMx/chcore_v7m.h"
 644              		.file 11 "../../../os/rt/include/chtm.h"
 645              		.file 12 "../../../os/rt/include/chsem.h"
 646              		.file 13 "../../../os/rt/include/chmtx.h"
 647              		.file 14 "../../../os/rt/include/chthreads.h"
 648              		.file 15 "../../../os/rt/include/chevents.h"
 649              		.file 16 "../../../os/rt/include/chqueues.h"
 650              		.file 17 "../../../os/hal/ports/STM32/LLD/GPIOv2/pal_lld.h"
 651              		.file 18 "../../../os/hal/include/serial.h"
 652              		.file 19 "../../../os/hal/ports/STM32/LLD/USARTv2/serial_lld.h"
 653              		.file 20 "../../../os/hal/include/hal.h"
 654              		.file 21 "../../../os/rt/include/chsys.h"
 655              		.file 22 "../../../os/ext/CMSIS/include/core_cm4.h"
 656              		.file 23 "../../../test/rt/test.h"
 657              		.section	.debug_info,"",%progbits
 658              	.Ldebug_info0:
 659 0000 740E0000 		.4byte	0xe74
 660 0004 0200     		.2byte	0x2
 661 0006 00000000 		.4byte	.Ldebug_abbrev0
 662 000a 04       		.byte	0x4
 663 000b 01       		.uleb128 0x1
 664 000c FC030000 		.4byte	.LASF166
 665 0010 01       		.byte	0x1
 666 0011 08040000 		.4byte	.LASF167
 667 0015 66020000 		.4byte	.LASF168
 668 0019 18000000 		.4byte	.Ldebug_ranges0+0x18
 669 001d 00000000 		.4byte	0
 670 0021 00000000 		.4byte	0
 671 0025 00000000 		.4byte	.Ldebug_line0
 672 0029 02       		.uleb128 0x2
 673 002a 04       		.byte	0x4
 674 002b 05       		.byte	0x5
 675 002c 696E7400 		.ascii	"int\000"
 676 0030 03       		.uleb128 0x3
 677 0031 15000000 		.4byte	.LASF2
 678 0035 03       		.byte	0x3
 679 0036 D5       		.byte	0xd5
 680 0037 3B000000 		.4byte	0x3b
 681 003b 04       		.uleb128 0x4
 682 003c 04       		.byte	0x4
 683 003d 07       		.byte	0x7
 684 003e EE010000 		.4byte	.LASF0
 685 0042 04       		.uleb128 0x4
 686 0043 01       		.byte	0x1
 687 0044 06       		.byte	0x6
 688 0045 F6000000 		.4byte	.LASF1
 689 0049 03       		.uleb128 0x3
 690 004a A0060000 		.4byte	.LASF3
 691 004e 04       		.byte	0x4
 692 004f 2A       		.byte	0x2a
ARM GAS  /tmp/cchTuLYH.s 			page 42


 693 0050 54000000 		.4byte	0x54
 694 0054 04       		.uleb128 0x4
 695 0055 01       		.byte	0x1
 696 0056 08       		.byte	0x8
 697 0057 AE040000 		.4byte	.LASF4
 698 005b 04       		.uleb128 0x4
 699 005c 02       		.byte	0x2
 700 005d 05       		.byte	0x5
 701 005e E6040000 		.4byte	.LASF5
 702 0062 03       		.uleb128 0x3
 703 0063 03020000 		.4byte	.LASF6
 704 0067 04       		.byte	0x4
 705 0068 36       		.byte	0x36
 706 0069 6D000000 		.4byte	0x6d
 707 006d 04       		.uleb128 0x4
 708 006e 02       		.byte	0x2
 709 006f 07       		.byte	0x7
 710 0070 53020000 		.4byte	.LASF7
 711 0074 03       		.uleb128 0x3
 712 0075 A6040000 		.4byte	.LASF8
 713 0079 04       		.byte	0x4
 714 007a 4F       		.byte	0x4f
 715 007b 7F000000 		.4byte	0x7f
 716 007f 04       		.uleb128 0x4
 717 0080 04       		.byte	0x4
 718 0081 05       		.byte	0x5
 719 0082 3D010000 		.4byte	.LASF9
 720 0086 03       		.uleb128 0x3
 721 0087 5A060000 		.4byte	.LASF10
 722 008b 04       		.byte	0x4
 723 008c 50       		.byte	0x50
 724 008d 91000000 		.4byte	0x91
 725 0091 04       		.uleb128 0x4
 726 0092 04       		.byte	0x4
 727 0093 07       		.byte	0x7
 728 0094 AB050000 		.4byte	.LASF11
 729 0098 04       		.uleb128 0x4
 730 0099 08       		.byte	0x8
 731 009a 05       		.byte	0x5
 732 009b E8000000 		.4byte	.LASF12
 733 009f 03       		.uleb128 0x3
 734 00a0 23000000 		.4byte	.LASF13
 735 00a4 04       		.byte	0x4
 736 00a5 78       		.byte	0x78
 737 00a6 AA000000 		.4byte	0xaa
 738 00aa 04       		.uleb128 0x4
 739 00ab 08       		.byte	0x8
 740 00ac 07       		.byte	0x7
 741 00ad 61000000 		.4byte	.LASF14
 742 00b1 03       		.uleb128 0x3
 743 00b2 35060000 		.4byte	.LASF15
 744 00b6 05       		.byte	0x5
 745 00b7 39       		.byte	0x39
 746 00b8 86000000 		.4byte	0x86
 747 00bc 03       		.uleb128 0x3
 748 00bd 09030000 		.4byte	.LASF16
 749 00c1 05       		.byte	0x5
ARM GAS  /tmp/cchTuLYH.s 			page 43


 750 00c2 3C       		.byte	0x3c
 751 00c3 49000000 		.4byte	0x49
 752 00c7 03       		.uleb128 0x3
 753 00c8 46010000 		.4byte	.LASF17
 754 00cc 05       		.byte	0x5
 755 00cd 3D       		.byte	0x3d
 756 00ce 49000000 		.4byte	0x49
 757 00d2 03       		.uleb128 0x3
 758 00d3 4D040000 		.4byte	.LASF18
 759 00d7 05       		.byte	0x5
 760 00d8 3E       		.byte	0x3e
 761 00d9 49000000 		.4byte	0x49
 762 00dd 03       		.uleb128 0x3
 763 00de 80040000 		.4byte	.LASF19
 764 00e2 05       		.byte	0x5
 765 00e3 40       		.byte	0x40
 766 00e4 86000000 		.4byte	0x86
 767 00e8 03       		.uleb128 0x3
 768 00e9 D3020000 		.4byte	.LASF20
 769 00ed 05       		.byte	0x5
 770 00ee 41       		.byte	0x41
 771 00ef 74000000 		.4byte	0x74
 772 00f3 03       		.uleb128 0x3
 773 00f4 1F030000 		.4byte	.LASF21
 774 00f8 05       		.byte	0x5
 775 00f9 43       		.byte	0x43
 776 00fa 86000000 		.4byte	0x86
 777 00fe 03       		.uleb128 0x3
 778 00ff 4D060000 		.4byte	.LASF22
 779 0103 05       		.byte	0x5
 780 0104 44       		.byte	0x44
 781 0105 86000000 		.4byte	0x86
 782 0109 03       		.uleb128 0x3
 783 010a E2010000 		.4byte	.LASF23
 784 010e 05       		.byte	0x5
 785 010f 45       		.byte	0x45
 786 0110 74000000 		.4byte	0x74
 787 0114 03       		.uleb128 0x3
 788 0115 E9050000 		.4byte	.LASF24
 789 0119 06       		.byte	0x6
 790 011a 33       		.byte	0x33
 791 011b 86000000 		.4byte	0x86
 792 011f 03       		.uleb128 0x3
 793 0120 D9050000 		.4byte	.LASF25
 794 0124 06       		.byte	0x6
 795 0125 3F       		.byte	0x3f
 796 0126 2A010000 		.4byte	0x12a
 797 012a 05       		.uleb128 0x5
 798 012b BF020000 		.4byte	.LASF45
 799 012f 44       		.byte	0x44
 800 0130 07       		.byte	0x7
 801 0131 C2       		.byte	0xc2
 802 0132 3B020000 		.4byte	0x23b
 803 0136 06       		.uleb128 0x6
 804 0137 06050000 		.4byte	.LASF26
 805 013b 07       		.byte	0x7
 806 013c C3       		.byte	0xc3
ARM GAS  /tmp/cchTuLYH.s 			page 44


 807 013d 46020000 		.4byte	0x246
 808 0141 02       		.byte	0x2
 809 0142 23       		.byte	0x23
 810 0143 00       		.uleb128 0
 811 0144 06       		.uleb128 0x6
 812 0145 79040000 		.4byte	.LASF27
 813 0149 07       		.byte	0x7
 814 014a C5       		.byte	0xc5
 815 014b 46020000 		.4byte	0x246
 816 014f 02       		.byte	0x2
 817 0150 23       		.byte	0x23
 818 0151 04       		.uleb128 0x4
 819 0152 06       		.uleb128 0x6
 820 0153 D1000000 		.4byte	.LASF28
 821 0157 07       		.byte	0x7
 822 0158 C7       		.byte	0xc7
 823 0159 DD000000 		.4byte	0xdd
 824 015d 02       		.byte	0x2
 825 015e 23       		.byte	0x23
 826 015f 08       		.uleb128 0x8
 827 0160 06       		.uleb128 0x6
 828 0161 E4060000 		.4byte	.LASF29
 829 0165 07       		.byte	0x7
 830 0166 C8       		.byte	0xc8
 831 0167 8C050000 		.4byte	0x58c
 832 016b 02       		.byte	0x2
 833 016c 23       		.byte	0x23
 834 016d 0C       		.uleb128 0xc
 835 016e 06       		.uleb128 0x6
 836 016f 6E010000 		.4byte	.LASF30
 837 0173 07       		.byte	0x7
 838 0174 CA       		.byte	0xca
 839 0175 46020000 		.4byte	0x246
 840 0179 02       		.byte	0x2
 841 017a 23       		.byte	0x23
 842 017b 10       		.uleb128 0x10
 843 017c 06       		.uleb128 0x6
 844 017d DD030000 		.4byte	.LASF31
 845 0181 07       		.byte	0x7
 846 0182 CB       		.byte	0xcb
 847 0183 46020000 		.4byte	0x246
 848 0187 02       		.byte	0x2
 849 0188 23       		.byte	0x23
 850 0189 14       		.uleb128 0x14
 851 018a 06       		.uleb128 0x6
 852 018b 15050000 		.4byte	.LASF32
 853 018f 07       		.byte	0x7
 854 0190 D2       		.byte	0xd2
 855 0191 2B070000 		.4byte	0x72b
 856 0195 02       		.byte	0x2
 857 0196 23       		.byte	0x23
 858 0197 18       		.uleb128 0x18
 859 0198 06       		.uleb128 0x6
 860 0199 F0040000 		.4byte	.LASF33
 861 019d 07       		.byte	0x7
 862 019e DD       		.byte	0xdd
 863 019f C7000000 		.4byte	0xc7
ARM GAS  /tmp/cchTuLYH.s 			page 45


 864 01a3 02       		.byte	0x2
 865 01a4 23       		.byte	0x23
 866 01a5 1C       		.uleb128 0x1c
 867 01a6 06       		.uleb128 0x6
 868 01a7 0D050000 		.4byte	.LASF34
 869 01ab 07       		.byte	0x7
 870 01ac E1       		.byte	0xe1
 871 01ad BC000000 		.4byte	0xbc
 872 01b1 02       		.byte	0x2
 873 01b2 23       		.byte	0x23
 874 01b3 1D       		.uleb128 0x1d
 875 01b4 06       		.uleb128 0x6
 876 01b5 4F010000 		.4byte	.LASF35
 877 01b9 07       		.byte	0x7
 878 01ba E6       		.byte	0xe6
 879 01bb D2000000 		.4byte	0xd2
 880 01bf 02       		.byte	0x2
 881 01c0 23       		.byte	0x23
 882 01c1 1E       		.uleb128 0x1e
 883 01c2 07       		.uleb128 0x7
 884 01c3 705F7500 		.ascii	"p_u\000"
 885 01c7 07       		.byte	0x7
 886 01c8 3101     		.2byte	0x131
 887 01ca 5C060000 		.4byte	0x65c
 888 01ce 02       		.byte	0x2
 889 01cf 23       		.byte	0x23
 890 01d0 20       		.uleb128 0x20
 891 01d1 08       		.uleb128 0x8
 892 01d2 88030000 		.4byte	.LASF36
 893 01d6 07       		.byte	0x7
 894 01d7 3601     		.2byte	0x136
 895 01d9 4C020000 		.4byte	0x24c
 896 01dd 02       		.byte	0x2
 897 01de 23       		.byte	0x23
 898 01df 24       		.uleb128 0x24
 899 01e0 08       		.uleb128 0x8
 900 01e1 2A020000 		.4byte	.LASF37
 901 01e5 07       		.byte	0x7
 902 01e6 3C01     		.2byte	0x13c
 903 01e8 72020000 		.4byte	0x272
 904 01ec 02       		.byte	0x2
 905 01ed 23       		.byte	0x23
 906 01ee 28       		.uleb128 0x28
 907 01ef 08       		.uleb128 0x8
 908 01f0 2F060000 		.4byte	.LASF38
 909 01f4 07       		.byte	0x7
 910 01f5 4001     		.2byte	0x140
 911 01f7 E8000000 		.4byte	0xe8
 912 01fb 02       		.byte	0x2
 913 01fc 23       		.byte	0x23
 914 01fd 30       		.uleb128 0x30
 915 01fe 08       		.uleb128 0x8
 916 01ff 57050000 		.4byte	.LASF39
 917 0203 07       		.byte	0x7
 918 0204 4601     		.2byte	0x146
 919 0206 F3000000 		.4byte	0xf3
 920 020a 02       		.byte	0x2
ARM GAS  /tmp/cchTuLYH.s 			page 46


 921 020b 23       		.byte	0x23
 922 020c 34       		.uleb128 0x34
 923 020d 08       		.uleb128 0x8
 924 020e DC040000 		.4byte	.LASF40
 925 0212 07       		.byte	0x7
 926 0213 4D01     		.2byte	0x14d
 927 0215 25070000 		.4byte	0x725
 928 0219 02       		.byte	0x2
 929 021a 23       		.byte	0x23
 930 021b 38       		.uleb128 0x38
 931 021c 08       		.uleb128 0x8
 932 021d F3050000 		.4byte	.LASF41
 933 0221 07       		.byte	0x7
 934 0222 5101     		.2byte	0x151
 935 0224 DD000000 		.4byte	0xdd
 936 0228 02       		.byte	0x2
 937 0229 23       		.byte	0x23
 938 022a 3C       		.uleb128 0x3c
 939 022b 08       		.uleb128 0x8
 940 022c 16010000 		.4byte	.LASF42
 941 0230 07       		.byte	0x7
 942 0231 5801     		.2byte	0x158
 943 0233 36030000 		.4byte	0x336
 944 0237 02       		.byte	0x2
 945 0238 23       		.byte	0x23
 946 0239 40       		.uleb128 0x40
 947 023a 00       		.byte	0
 948 023b 03       		.uleb128 0x3
 949 023c 9B030000 		.4byte	.LASF43
 950 0240 06       		.byte	0x6
 951 0241 44       		.byte	0x44
 952 0242 46020000 		.4byte	0x246
 953 0246 09       		.uleb128 0x9
 954 0247 04       		.byte	0x4
 955 0248 1F010000 		.4byte	0x11f
 956 024c 03       		.uleb128 0x3
 957 024d AF060000 		.4byte	.LASF44
 958 0251 06       		.byte	0x6
 959 0252 49       		.byte	0x49
 960 0253 57020000 		.4byte	0x257
 961 0257 05       		.uleb128 0x5
 962 0258 8E050000 		.4byte	.LASF46
 963 025c 04       		.byte	0x4
 964 025d 07       		.byte	0x7
 965 025e B0       		.byte	0xb0
 966 025f 72020000 		.4byte	0x272
 967 0263 06       		.uleb128 0x6
 968 0264 06050000 		.4byte	.LASF26
 969 0268 07       		.byte	0x7
 970 0269 B1       		.byte	0xb1
 971 026a 46020000 		.4byte	0x246
 972 026e 02       		.byte	0x2
 973 026f 23       		.byte	0x23
 974 0270 00       		.uleb128 0
 975 0271 00       		.byte	0
 976 0272 03       		.uleb128 0x3
 977 0273 24050000 		.4byte	.LASF47
ARM GAS  /tmp/cchTuLYH.s 			page 47


 978 0277 06       		.byte	0x6
 979 0278 50       		.byte	0x50
 980 0279 7D020000 		.4byte	0x27d
 981 027d 05       		.uleb128 0x5
 982 027e C0000000 		.4byte	.LASF48
 983 0282 08       		.byte	0x8
 984 0283 07       		.byte	0x7
 985 0284 B7       		.byte	0xb7
 986 0285 A6020000 		.4byte	0x2a6
 987 0289 06       		.uleb128 0x6
 988 028a 06050000 		.4byte	.LASF26
 989 028e 07       		.byte	0x7
 990 028f B8       		.byte	0xb8
 991 0290 46020000 		.4byte	0x246
 992 0294 02       		.byte	0x2
 993 0295 23       		.byte	0x23
 994 0296 00       		.uleb128 0
 995 0297 06       		.uleb128 0x6
 996 0298 79040000 		.4byte	.LASF27
 997 029c 07       		.byte	0x7
 998 029d B9       		.byte	0xb9
 999 029e 46020000 		.4byte	0x246
 1000 02a2 02       		.byte	0x2
 1001 02a3 23       		.byte	0x23
 1002 02a4 04       		.uleb128 0x4
 1003 02a5 00       		.byte	0
 1004 02a6 03       		.uleb128 0x3
 1005 02a7 08000000 		.4byte	.LASF49
 1006 02ab 06       		.byte	0x6
 1007 02ac 57       		.byte	0x57
 1008 02ad B1020000 		.4byte	0x2b1
 1009 02b1 0A       		.uleb128 0xa
 1010 02b2 11030000 		.4byte	.LASF50
 1011 02b6 1C       		.byte	0x1c
 1012 02b7 07       		.byte	0x7
 1013 02b8 9001     		.2byte	0x190
 1014 02ba 19030000 		.4byte	0x319
 1015 02be 08       		.uleb128 0x8
 1016 02bf 7D050000 		.4byte	.LASF51
 1017 02c3 07       		.byte	0x7
 1018 02c4 9101     		.2byte	0x191
 1019 02c6 72020000 		.4byte	0x272
 1020 02ca 02       		.byte	0x2
 1021 02cb 23       		.byte	0x23
 1022 02cc 00       		.uleb128 0
 1023 02cd 08       		.uleb128 0x8
 1024 02ce F8040000 		.4byte	.LASF52
 1025 02d2 07       		.byte	0x7
 1026 02d3 9201     		.2byte	0x192
 1027 02d5 DD000000 		.4byte	0xdd
 1028 02d9 02       		.byte	0x2
 1029 02da 23       		.byte	0x23
 1030 02db 08       		.uleb128 0x8
 1031 02dc 08       		.uleb128 0x8
 1032 02dd E5030000 		.4byte	.LASF53
 1033 02e1 07       		.byte	0x7
 1034 02e2 9401     		.2byte	0x194
ARM GAS  /tmp/cchTuLYH.s 			page 48


 1035 02e4 8C050000 		.4byte	0x58c
 1036 02e8 02       		.byte	0x2
 1037 02e9 23       		.byte	0x23
 1038 02ea 0C       		.uleb128 0xc
 1039 02eb 08       		.uleb128 0x8
 1040 02ec 86010000 		.4byte	.LASF54
 1041 02f0 07       		.byte	0x7
 1042 02f1 9701     		.2byte	0x197
 1043 02f3 46020000 		.4byte	0x246
 1044 02f7 02       		.byte	0x2
 1045 02f8 23       		.byte	0x23
 1046 02f9 10       		.uleb128 0x10
 1047 02fa 08       		.uleb128 0x8
 1048 02fb 0F040000 		.4byte	.LASF55
 1049 02ff 07       		.byte	0x7
 1050 0300 9801     		.2byte	0x198
 1051 0302 46020000 		.4byte	0x246
 1052 0306 02       		.byte	0x2
 1053 0307 23       		.byte	0x23
 1054 0308 14       		.uleb128 0x14
 1055 0309 08       		.uleb128 0x8
 1056 030a BD050000 		.4byte	.LASF56
 1057 030e 07       		.byte	0x7
 1058 030f 9B01     		.2byte	0x19b
 1059 0311 46020000 		.4byte	0x246
 1060 0315 02       		.byte	0x2
 1061 0316 23       		.byte	0x23
 1062 0317 18       		.uleb128 0x18
 1063 0318 00       		.byte	0
 1064 0319 03       		.uleb128 0x3
 1065 031a FE050000 		.4byte	.LASF57
 1066 031e 06       		.byte	0x6
 1067 031f 5C       		.byte	0x5c
 1068 0320 24030000 		.4byte	0x324
 1069 0324 09       		.uleb128 0x9
 1070 0325 04       		.byte	0x4
 1071 0326 2A030000 		.4byte	0x32a
 1072 032a 0B       		.uleb128 0xb
 1073 032b 01       		.byte	0x1
 1074 032c 36030000 		.4byte	0x336
 1075 0330 0C       		.uleb128 0xc
 1076 0331 36030000 		.4byte	0x336
 1077 0335 00       		.byte	0
 1078 0336 0D       		.uleb128 0xd
 1079 0337 04       		.byte	0x4
 1080 0338 03       		.uleb128 0x3
 1081 0339 69040000 		.4byte	.LASF58
 1082 033d 06       		.byte	0x6
 1083 033e 61       		.byte	0x61
 1084 033f 43030000 		.4byte	0x343
 1085 0343 0A       		.uleb128 0xa
 1086 0344 34050000 		.4byte	.LASF59
 1087 0348 14       		.byte	0x14
 1088 0349 07       		.byte	0x7
 1089 034a 6B01     		.2byte	0x16b
 1090 034c 9C030000 		.4byte	0x39c
 1091 0350 08       		.uleb128 0x8
ARM GAS  /tmp/cchTuLYH.s 			page 49


 1092 0351 FB010000 		.4byte	.LASF60
 1093 0355 07       		.byte	0x7
 1094 0356 6C01     		.2byte	0x16c
 1095 0358 3D070000 		.4byte	0x73d
 1096 035c 02       		.byte	0x2
 1097 035d 23       		.byte	0x23
 1098 035e 00       		.uleb128 0
 1099 035f 08       		.uleb128 0x8
 1100 0360 97010000 		.4byte	.LASF61
 1101 0364 07       		.byte	0x7
 1102 0365 6D01     		.2byte	0x16d
 1103 0367 3D070000 		.4byte	0x73d
 1104 036b 02       		.byte	0x2
 1105 036c 23       		.byte	0x23
 1106 036d 04       		.uleb128 0x4
 1107 036e 08       		.uleb128 0x8
 1108 036f 85050000 		.4byte	.LASF62
 1109 0373 07       		.byte	0x7
 1110 0374 6E01     		.2byte	0x16e
 1111 0376 14010000 		.4byte	0x114
 1112 037a 02       		.byte	0x2
 1113 037b 23       		.byte	0x23
 1114 037c 08       		.uleb128 0x8
 1115 037d 08       		.uleb128 0x8
 1116 037e EA060000 		.4byte	.LASF63
 1117 0382 07       		.byte	0x7
 1118 0383 6F01     		.2byte	0x16f
 1119 0385 19030000 		.4byte	0x319
 1120 0389 02       		.byte	0x2
 1121 038a 23       		.byte	0x23
 1122 038b 0C       		.uleb128 0xc
 1123 038c 08       		.uleb128 0x8
 1124 038d 46060000 		.4byte	.LASF64
 1125 0391 07       		.byte	0x7
 1126 0392 7101     		.2byte	0x171
 1127 0394 36030000 		.4byte	0x336
 1128 0398 02       		.byte	0x2
 1129 0399 23       		.byte	0x23
 1130 039a 10       		.uleb128 0x10
 1131 039b 00       		.byte	0
 1132 039c 03       		.uleb128 0x3
 1133 039d 92000000 		.4byte	.LASF65
 1134 03a1 06       		.byte	0x6
 1135 03a2 66       		.byte	0x66
 1136 03a3 A7030000 		.4byte	0x3a7
 1137 03a7 0A       		.uleb128 0xa
 1138 03a8 AE030000 		.4byte	.LASF66
 1139 03ac 10       		.byte	0x10
 1140 03ad 07       		.byte	0x7
 1141 03ae 7B01     		.2byte	0x17b
 1142 03b0 F1030000 		.4byte	0x3f1
 1143 03b4 08       		.uleb128 0x8
 1144 03b5 FB010000 		.4byte	.LASF60
 1145 03b9 07       		.byte	0x7
 1146 03ba 7C01     		.2byte	0x17c
 1147 03bc 3D070000 		.4byte	0x73d
 1148 03c0 02       		.byte	0x2
ARM GAS  /tmp/cchTuLYH.s 			page 50


 1149 03c1 23       		.byte	0x23
 1150 03c2 00       		.uleb128 0
 1151 03c3 08       		.uleb128 0x8
 1152 03c4 97010000 		.4byte	.LASF61
 1153 03c8 07       		.byte	0x7
 1154 03c9 7E01     		.2byte	0x17e
 1155 03cb 3D070000 		.4byte	0x73d
 1156 03cf 02       		.byte	0x2
 1157 03d0 23       		.byte	0x23
 1158 03d1 04       		.uleb128 0x4
 1159 03d2 08       		.uleb128 0x8
 1160 03d3 85050000 		.4byte	.LASF62
 1161 03d7 07       		.byte	0x7
 1162 03d8 8001     		.2byte	0x180
 1163 03da 14010000 		.4byte	0x114
 1164 03de 02       		.byte	0x2
 1165 03df 23       		.byte	0x23
 1166 03e0 08       		.uleb128 0x8
 1167 03e1 08       		.uleb128 0x8
 1168 03e2 D1030000 		.4byte	.LASF67
 1169 03e6 07       		.byte	0x7
 1170 03e7 8801     		.2byte	0x188
 1171 03e9 14010000 		.4byte	0x114
 1172 03ed 02       		.byte	0x2
 1173 03ee 23       		.byte	0x23
 1174 03ef 0C       		.uleb128 0xc
 1175 03f0 00       		.byte	0
 1176 03f1 03       		.uleb128 0x3
 1177 03f2 3F000000 		.4byte	.LASF68
 1178 03f6 06       		.byte	0x6
 1179 03f7 6B       		.byte	0x6b
 1180 03f8 FC030000 		.4byte	0x3fc
 1181 03fc 0A       		.uleb128 0xa
 1182 03fd 90040000 		.4byte	.LASF69
 1183 0401 04       		.byte	0x4
 1184 0402 07       		.byte	0x7
 1185 0403 A201     		.2byte	0x1a2
 1186 0405 19040000 		.4byte	0x419
 1187 0409 08       		.uleb128 0x8
 1188 040a 07060000 		.4byte	.LASF70
 1189 040e 07       		.byte	0x7
 1190 040f AA01     		.2byte	0x1aa
 1191 0411 43070000 		.4byte	0x743
 1192 0415 02       		.byte	0x2
 1193 0416 23       		.byte	0x23
 1194 0417 00       		.uleb128 0
 1195 0418 00       		.byte	0
 1196 0419 03       		.uleb128 0x3
 1197 041a E8020000 		.4byte	.LASF71
 1198 041e 06       		.byte	0x6
 1199 041f 70       		.byte	0x70
 1200 0420 24040000 		.4byte	0x424
 1201 0424 0E       		.uleb128 0xe
 1202 0425 33010000 		.4byte	.LASF72
 1203 0429 5001     		.2byte	0x150
 1204 042b 07       		.byte	0x7
 1205 042c C201     		.2byte	0x1c2
ARM GAS  /tmp/cchTuLYH.s 			page 51


 1206 042e 8C040000 		.4byte	0x48c
 1207 0432 08       		.uleb128 0x8
 1208 0433 8D060000 		.4byte	.LASF73
 1209 0437 07       		.byte	0x7
 1210 0438 C601     		.2byte	0x1c6
 1211 043a A6020000 		.4byte	0x2a6
 1212 043e 02       		.byte	0x2
 1213 043f 23       		.byte	0x23
 1214 0440 00       		.uleb128 0
 1215 0441 08       		.uleb128 0x8
 1216 0442 26010000 		.4byte	.LASF74
 1217 0446 07       		.byte	0x7
 1218 0447 CA01     		.2byte	0x1ca
 1219 0449 9C030000 		.4byte	0x39c
 1220 044d 02       		.byte	0x2
 1221 044e 23       		.byte	0x23
 1222 044f 1C       		.uleb128 0x1c
 1223 0450 07       		.uleb128 0x7
 1224 0451 64626700 		.ascii	"dbg\000"
 1225 0455 07       		.byte	0x7
 1226 0456 CE01     		.2byte	0x1ce
 1227 0458 F1030000 		.4byte	0x3f1
 1228 045c 02       		.byte	0x2
 1229 045d 23       		.byte	0x23
 1230 045e 2C       		.uleb128 0x2c
 1231 045f 08       		.uleb128 0x8
 1232 0460 87000000 		.4byte	.LASF75
 1233 0464 07       		.byte	0x7
 1234 0465 D201     		.2byte	0x1d2
 1235 0467 1F010000 		.4byte	0x11f
 1236 046b 02       		.byte	0x2
 1237 046c 23       		.byte	0x23
 1238 046d 30       		.uleb128 0x30
 1239 046e 07       		.uleb128 0x7
 1240 046f 746D00   		.ascii	"tm\000"
 1241 0472 07       		.byte	0x7
 1242 0473 D701     		.2byte	0x1d7
 1243 0475 51060000 		.4byte	0x651
 1244 0479 02       		.byte	0x2
 1245 047a 23       		.byte	0x23
 1246 047b 74       		.uleb128 0x74
 1247 047c 08       		.uleb128 0x8
 1248 047d D3010000 		.4byte	.LASF76
 1249 0481 07       		.byte	0x7
 1250 0482 E301     		.2byte	0x1e3
 1251 0484 48070000 		.4byte	0x748
 1252 0488 02       		.byte	0x2
 1253 0489 23       		.byte	0x23
 1254 048a 78       		.uleb128 0x78
 1255 048b 00       		.byte	0
 1256 048c 04       		.uleb128 0x4
 1257 048d 04       		.byte	0x4
 1258 048e 07       		.byte	0x7
 1259 048f 92030000 		.4byte	.LASF77
 1260 0493 0F       		.uleb128 0xf
 1261 0494 86000000 		.4byte	0x86
 1262 0498 0F       		.uleb128 0xf
ARM GAS  /tmp/cchTuLYH.s 			page 52


 1263 0499 62000000 		.4byte	0x62
 1264 049d 10       		.uleb128 0x10
 1265 049e 2C       		.byte	0x2c
 1266 049f 08       		.byte	0x8
 1267 04a0 7602     		.2byte	0x276
 1268 04a2 6A050000 		.4byte	0x56a
 1269 04a6 07       		.uleb128 0x7
 1270 04a7 43523100 		.ascii	"CR1\000"
 1271 04ab 08       		.byte	0x8
 1272 04ac 7802     		.2byte	0x278
 1273 04ae 93040000 		.4byte	0x493
 1274 04b2 02       		.byte	0x2
 1275 04b3 23       		.byte	0x23
 1276 04b4 00       		.uleb128 0
 1277 04b5 07       		.uleb128 0x7
 1278 04b6 43523200 		.ascii	"CR2\000"
 1279 04ba 08       		.byte	0x8
 1280 04bb 7902     		.2byte	0x279
 1281 04bd 93040000 		.4byte	0x493
 1282 04c1 02       		.byte	0x2
 1283 04c2 23       		.byte	0x23
 1284 04c3 04       		.uleb128 0x4
 1285 04c4 07       		.uleb128 0x7
 1286 04c5 43523300 		.ascii	"CR3\000"
 1287 04c9 08       		.byte	0x8
 1288 04ca 7A02     		.2byte	0x27a
 1289 04cc 93040000 		.4byte	0x493
 1290 04d0 02       		.byte	0x2
 1291 04d1 23       		.byte	0x23
 1292 04d2 08       		.uleb128 0x8
 1293 04d3 07       		.uleb128 0x7
 1294 04d4 42525200 		.ascii	"BRR\000"
 1295 04d8 08       		.byte	0x8
 1296 04d9 7B02     		.2byte	0x27b
 1297 04db 93040000 		.4byte	0x493
 1298 04df 02       		.byte	0x2
 1299 04e0 23       		.byte	0x23
 1300 04e1 0C       		.uleb128 0xc
 1301 04e2 08       		.uleb128 0x8
 1302 04e3 11010000 		.4byte	.LASF78
 1303 04e7 08       		.byte	0x8
 1304 04e8 7C02     		.2byte	0x27c
 1305 04ea 93040000 		.4byte	0x493
 1306 04ee 02       		.byte	0x2
 1307 04ef 23       		.byte	0x23
 1308 04f0 10       		.uleb128 0x10
 1309 04f1 08       		.uleb128 0x8
 1310 04f2 11060000 		.4byte	.LASF79
 1311 04f6 08       		.byte	0x8
 1312 04f7 7D02     		.2byte	0x27d
 1313 04f9 93040000 		.4byte	0x493
 1314 04fd 02       		.byte	0x2
 1315 04fe 23       		.byte	0x23
 1316 04ff 14       		.uleb128 0x14
 1317 0500 07       		.uleb128 0x7
 1318 0501 52515200 		.ascii	"RQR\000"
 1319 0505 08       		.byte	0x8
ARM GAS  /tmp/cchTuLYH.s 			page 53


 1320 0506 7E02     		.2byte	0x27e
 1321 0508 93040000 		.4byte	0x493
 1322 050c 02       		.byte	0x2
 1323 050d 23       		.byte	0x23
 1324 050e 18       		.uleb128 0x18
 1325 050f 07       		.uleb128 0x7
 1326 0510 49535200 		.ascii	"ISR\000"
 1327 0514 08       		.byte	0x8
 1328 0515 7F02     		.2byte	0x27f
 1329 0517 93040000 		.4byte	0x493
 1330 051b 02       		.byte	0x2
 1331 051c 23       		.byte	0x23
 1332 051d 1C       		.uleb128 0x1c
 1333 051e 07       		.uleb128 0x7
 1334 051f 49435200 		.ascii	"ICR\000"
 1335 0523 08       		.byte	0x8
 1336 0524 8002     		.2byte	0x280
 1337 0526 93040000 		.4byte	0x493
 1338 052a 02       		.byte	0x2
 1339 052b 23       		.byte	0x23
 1340 052c 20       		.uleb128 0x20
 1341 052d 07       		.uleb128 0x7
 1342 052e 52445200 		.ascii	"RDR\000"
 1343 0532 08       		.byte	0x8
 1344 0533 8102     		.2byte	0x281
 1345 0535 98040000 		.4byte	0x498
 1346 0539 02       		.byte	0x2
 1347 053a 23       		.byte	0x23
 1348 053b 24       		.uleb128 0x24
 1349 053c 08       		.uleb128 0x8
 1350 053d 55040000 		.4byte	.LASF80
 1351 0541 08       		.byte	0x8
 1352 0542 8202     		.2byte	0x282
 1353 0544 62000000 		.4byte	0x62
 1354 0548 02       		.byte	0x2
 1355 0549 23       		.byte	0x23
 1356 054a 26       		.uleb128 0x26
 1357 054b 07       		.uleb128 0x7
 1358 054c 54445200 		.ascii	"TDR\000"
 1359 0550 08       		.byte	0x8
 1360 0551 8302     		.2byte	0x283
 1361 0553 98040000 		.4byte	0x498
 1362 0557 02       		.byte	0x2
 1363 0558 23       		.byte	0x23
 1364 0559 28       		.uleb128 0x28
 1365 055a 08       		.uleb128 0x8
 1366 055b 5F040000 		.4byte	.LASF81
 1367 055f 08       		.byte	0x8
 1368 0560 8402     		.2byte	0x284
 1369 0562 62000000 		.4byte	0x62
 1370 0566 02       		.byte	0x2
 1371 0567 23       		.byte	0x23
 1372 0568 2A       		.uleb128 0x2a
 1373 0569 00       		.byte	0
 1374 056a 11       		.uleb128 0x11
 1375 056b F4020000 		.4byte	.LASF82
 1376 056f 08       		.byte	0x8
ARM GAS  /tmp/cchTuLYH.s 			page 54


 1377 0570 8502     		.2byte	0x285
 1378 0572 9D040000 		.4byte	0x49d
 1379 0576 03       		.uleb128 0x3
 1380 0577 8E010000 		.4byte	.LASF83
 1381 057b 09       		.byte	0x9
 1382 057c 65       		.byte	0x65
 1383 057d 36030000 		.4byte	0x336
 1384 0581 03       		.uleb128 0x3
 1385 0582 3B030000 		.4byte	.LASF84
 1386 0586 09       		.byte	0x9
 1387 0587 6D       		.byte	0x6d
 1388 0588 9F000000 		.4byte	0x9f
 1389 058c 05       		.uleb128 0x5
 1390 058d 27060000 		.4byte	.LASF85
 1391 0591 04       		.byte	0x4
 1392 0592 09       		.byte	0x9
 1393 0593 89       		.byte	0x89
 1394 0594 A7050000 		.4byte	0x5a7
 1395 0598 12       		.uleb128 0x12
 1396 0599 72313300 		.ascii	"r13\000"
 1397 059d 09       		.byte	0x9
 1398 059e 8A       		.byte	0x8a
 1399 059f 34060000 		.4byte	0x634
 1400 05a3 02       		.byte	0x2
 1401 05a4 23       		.byte	0x23
 1402 05a5 00       		.uleb128 0
 1403 05a6 00       		.byte	0
 1404 05a7 05       		.uleb128 0x5
 1405 05a8 33000000 		.4byte	.LASF86
 1406 05ac 24       		.byte	0x24
 1407 05ad 0A       		.byte	0xa
 1408 05ae FD       		.byte	0xfd
 1409 05af 34060000 		.4byte	0x634
 1410 05b3 07       		.uleb128 0x7
 1411 05b4 723400   		.ascii	"r4\000"
 1412 05b7 0A       		.byte	0xa
 1413 05b8 1001     		.2byte	0x110
 1414 05ba 76050000 		.4byte	0x576
 1415 05be 02       		.byte	0x2
 1416 05bf 23       		.byte	0x23
 1417 05c0 00       		.uleb128 0
 1418 05c1 07       		.uleb128 0x7
 1419 05c2 723500   		.ascii	"r5\000"
 1420 05c5 0A       		.byte	0xa
 1421 05c6 1101     		.2byte	0x111
 1422 05c8 76050000 		.4byte	0x576
 1423 05cc 02       		.byte	0x2
 1424 05cd 23       		.byte	0x23
 1425 05ce 04       		.uleb128 0x4
 1426 05cf 07       		.uleb128 0x7
 1427 05d0 723600   		.ascii	"r6\000"
 1428 05d3 0A       		.byte	0xa
 1429 05d4 1201     		.2byte	0x112
 1430 05d6 76050000 		.4byte	0x576
 1431 05da 02       		.byte	0x2
 1432 05db 23       		.byte	0x23
 1433 05dc 08       		.uleb128 0x8
ARM GAS  /tmp/cchTuLYH.s 			page 55


 1434 05dd 07       		.uleb128 0x7
 1435 05de 723700   		.ascii	"r7\000"
 1436 05e1 0A       		.byte	0xa
 1437 05e2 1301     		.2byte	0x113
 1438 05e4 76050000 		.4byte	0x576
 1439 05e8 02       		.byte	0x2
 1440 05e9 23       		.byte	0x23
 1441 05ea 0C       		.uleb128 0xc
 1442 05eb 07       		.uleb128 0x7
 1443 05ec 723800   		.ascii	"r8\000"
 1444 05ef 0A       		.byte	0xa
 1445 05f0 1401     		.2byte	0x114
 1446 05f2 76050000 		.4byte	0x576
 1447 05f6 02       		.byte	0x2
 1448 05f7 23       		.byte	0x23
 1449 05f8 10       		.uleb128 0x10
 1450 05f9 07       		.uleb128 0x7
 1451 05fa 723900   		.ascii	"r9\000"
 1452 05fd 0A       		.byte	0xa
 1453 05fe 1501     		.2byte	0x115
 1454 0600 76050000 		.4byte	0x576
 1455 0604 02       		.byte	0x2
 1456 0605 23       		.byte	0x23
 1457 0606 14       		.uleb128 0x14
 1458 0607 07       		.uleb128 0x7
 1459 0608 72313000 		.ascii	"r10\000"
 1460 060c 0A       		.byte	0xa
 1461 060d 1601     		.2byte	0x116
 1462 060f 76050000 		.4byte	0x576
 1463 0613 02       		.byte	0x2
 1464 0614 23       		.byte	0x23
 1465 0615 18       		.uleb128 0x18
 1466 0616 07       		.uleb128 0x7
 1467 0617 72313100 		.ascii	"r11\000"
 1468 061b 0A       		.byte	0xa
 1469 061c 1701     		.2byte	0x117
 1470 061e 76050000 		.4byte	0x576
 1471 0622 02       		.byte	0x2
 1472 0623 23       		.byte	0x23
 1473 0624 1C       		.uleb128 0x1c
 1474 0625 07       		.uleb128 0x7
 1475 0626 6C7200   		.ascii	"lr\000"
 1476 0629 0A       		.byte	0xa
 1477 062a 1801     		.2byte	0x118
 1478 062c 76050000 		.4byte	0x576
 1479 0630 02       		.byte	0x2
 1480 0631 23       		.byte	0x23
 1481 0632 20       		.uleb128 0x20
 1482 0633 00       		.byte	0
 1483 0634 09       		.uleb128 0x9
 1484 0635 04       		.byte	0x4
 1485 0636 A7050000 		.4byte	0x5a7
 1486 063a 13       		.uleb128 0x13
 1487 063b 04       		.byte	0x4
 1488 063c 0B       		.byte	0xb
 1489 063d 38       		.byte	0x38
 1490 063e 51060000 		.4byte	0x651
ARM GAS  /tmp/cchTuLYH.s 			page 56


 1491 0642 06       		.uleb128 0x6
 1492 0643 9F010000 		.4byte	.LASF87
 1493 0647 0B       		.byte	0xb
 1494 0648 3C       		.byte	0x3c
 1495 0649 B1000000 		.4byte	0xb1
 1496 064d 02       		.byte	0x2
 1497 064e 23       		.byte	0x23
 1498 064f 00       		.uleb128 0
 1499 0650 00       		.byte	0
 1500 0651 03       		.uleb128 0x3
 1501 0652 EB030000 		.4byte	.LASF88
 1502 0656 0B       		.byte	0xb
 1503 0657 3D       		.byte	0x3d
 1504 0658 3A060000 		.4byte	0x63a
 1505 065c 14       		.uleb128 0x14
 1506 065d 04       		.byte	0x4
 1507 065e 07       		.byte	0x7
 1508 065f FA       		.byte	0xfa
 1509 0660 B9060000 		.4byte	0x6b9
 1510 0664 15       		.uleb128 0x15
 1511 0665 1C000000 		.4byte	.LASF89
 1512 0669 07       		.byte	0x7
 1513 066a 0101     		.2byte	0x101
 1514 066c E8000000 		.4byte	0xe8
 1515 0670 15       		.uleb128 0x15
 1516 0671 7E000000 		.4byte	.LASF90
 1517 0675 07       		.byte	0x7
 1518 0676 0801     		.2byte	0x108
 1519 0678 E8000000 		.4byte	0xe8
 1520 067c 15       		.uleb128 0x15
 1521 067d A8060000 		.4byte	.LASF91
 1522 0681 07       		.byte	0x7
 1523 0682 0F01     		.2byte	0x10f
 1524 0684 36030000 		.4byte	0x336
 1525 0688 15       		.uleb128 0x15
 1526 0689 CB030000 		.4byte	.LASF92
 1527 068d 07       		.byte	0x7
 1528 068e 1601     		.2byte	0x116
 1529 0690 B9060000 		.4byte	0x6b9
 1530 0694 15       		.uleb128 0x15
 1531 0695 1C020000 		.4byte	.LASF93
 1532 0699 07       		.byte	0x7
 1533 069a 1E01     		.2byte	0x11e
 1534 069c E8060000 		.4byte	0x6e8
 1535 06a0 15       		.uleb128 0x15
 1536 06a1 76050000 		.4byte	.LASF94
 1537 06a5 07       		.byte	0x7
 1538 06a6 2701     		.2byte	0x127
 1539 06a8 25070000 		.4byte	0x725
 1540 06ac 15       		.uleb128 0x15
 1541 06ad FF040000 		.4byte	.LASF95
 1542 06b1 07       		.byte	0x7
 1543 06b2 2F01     		.2byte	0x12f
 1544 06b4 F3000000 		.4byte	0xf3
 1545 06b8 00       		.byte	0
 1546 06b9 09       		.uleb128 0x9
 1547 06ba 04       		.byte	0x4
ARM GAS  /tmp/cchTuLYH.s 			page 57


 1548 06bb 3B020000 		.4byte	0x23b
 1549 06bf 05       		.uleb128 0x5
 1550 06c0 4A050000 		.4byte	.LASF96
 1551 06c4 0C       		.byte	0xc
 1552 06c5 0C       		.byte	0xc
 1553 06c6 34       		.byte	0x34
 1554 06c7 E8060000 		.4byte	0x6e8
 1555 06cb 06       		.uleb128 0x6
 1556 06cc 76010000 		.4byte	.LASF97
 1557 06d0 0C       		.byte	0xc
 1558 06d1 35       		.byte	0x35
 1559 06d2 72020000 		.4byte	0x272
 1560 06d6 02       		.byte	0x2
 1561 06d7 23       		.byte	0x23
 1562 06d8 00       		.uleb128 0
 1563 06d9 06       		.uleb128 0x6
 1564 06da 47020000 		.4byte	.LASF98
 1565 06de 0C       		.byte	0xc
 1566 06df 37       		.byte	0x37
 1567 06e0 09010000 		.4byte	0x109
 1568 06e4 02       		.byte	0x2
 1569 06e5 23       		.byte	0x23
 1570 06e6 08       		.uleb128 0x8
 1571 06e7 00       		.byte	0
 1572 06e8 09       		.uleb128 0x9
 1573 06e9 04       		.byte	0x4
 1574 06ea BF060000 		.4byte	0x6bf
 1575 06ee 05       		.uleb128 0x5
 1576 06ef 73060000 		.4byte	.LASF99
 1577 06f3 10       		.byte	0x10
 1578 06f4 0D       		.byte	0xd
 1579 06f5 39       		.byte	0x39
 1580 06f6 25070000 		.4byte	0x725
 1581 06fa 06       		.uleb128 0x6
 1582 06fb 1E010000 		.4byte	.LASF100
 1583 06ff 0D       		.byte	0xd
 1584 0700 3A       		.byte	0x3a
 1585 0701 72020000 		.4byte	0x272
 1586 0705 02       		.byte	0x2
 1587 0706 23       		.byte	0x23
 1588 0707 00       		.uleb128 0
 1589 0708 06       		.uleb128 0x6
 1590 0709 DC060000 		.4byte	.LASF101
 1591 070d 0D       		.byte	0xd
 1592 070e 3C       		.byte	0x3c
 1593 070f 46020000 		.4byte	0x246
 1594 0713 02       		.byte	0x2
 1595 0714 23       		.byte	0x23
 1596 0715 08       		.uleb128 0x8
 1597 0716 06       		.uleb128 0x6
 1598 0717 E2050000 		.4byte	.LASF102
 1599 071b 0D       		.byte	0xd
 1600 071c 3E       		.byte	0x3e
 1601 071d 6E070000 		.4byte	0x76e
 1602 0721 02       		.byte	0x2
 1603 0722 23       		.byte	0x23
 1604 0723 0C       		.uleb128 0xc
ARM GAS  /tmp/cchTuLYH.s 			page 58


 1605 0724 00       		.byte	0
 1606 0725 09       		.uleb128 0x9
 1607 0726 04       		.byte	0x4
 1608 0727 EE060000 		.4byte	0x6ee
 1609 072b 09       		.uleb128 0x9
 1610 072c 04       		.byte	0x4
 1611 072d 31070000 		.4byte	0x731
 1612 0731 16       		.uleb128 0x16
 1613 0732 36070000 		.4byte	0x736
 1614 0736 04       		.uleb128 0x4
 1615 0737 01       		.byte	0x1
 1616 0738 08       		.byte	0x8
 1617 0739 CC050000 		.4byte	.LASF103
 1618 073d 09       		.uleb128 0x9
 1619 073e 04       		.byte	0x4
 1620 073f 38030000 		.4byte	0x338
 1621 0743 0F       		.uleb128 0xf
 1622 0744 2B070000 		.4byte	0x72b
 1623 0748 17       		.uleb128 0x17
 1624 0749 81050000 		.4byte	0x581
 1625 074d 58070000 		.4byte	0x758
 1626 0751 18       		.uleb128 0x18
 1627 0752 8C040000 		.4byte	0x48c
 1628 0756 1A       		.byte	0x1a
 1629 0757 00       		.byte	0
 1630 0758 03       		.uleb128 0x3
 1631 0759 00000000 		.4byte	.LASF104
 1632 075d 0E       		.byte	0xe
 1633 075e 34       		.byte	0x34
 1634 075f 24030000 		.4byte	0x324
 1635 0763 03       		.uleb128 0x3
 1636 0764 B3010000 		.4byte	.LASF105
 1637 0768 0D       		.byte	0xd
 1638 0769 34       		.byte	0x34
 1639 076a EE060000 		.4byte	0x6ee
 1640 076e 09       		.uleb128 0x9
 1641 076f 04       		.byte	0x4
 1642 0770 63070000 		.4byte	0x763
 1643 0774 03       		.uleb128 0x3
 1644 0775 16060000 		.4byte	.LASF106
 1645 0779 0F       		.byte	0xf
 1646 077a 34       		.byte	0x34
 1647 077b 7F070000 		.4byte	0x77f
 1648 077f 05       		.uleb128 0x5
 1649 0780 F2060000 		.4byte	.LASF107
 1650 0784 14       		.byte	0x14
 1651 0785 0F       		.byte	0xf
 1652 0786 39       		.byte	0x39
 1653 0787 D2070000 		.4byte	0x7d2
 1654 078b 06       		.uleb128 0x6
 1655 078c E0020000 		.4byte	.LASF108
 1656 0790 0F       		.byte	0xf
 1657 0791 3A       		.byte	0x3a
 1658 0792 D2070000 		.4byte	0x7d2
 1659 0796 02       		.byte	0x2
 1660 0797 23       		.byte	0x23
 1661 0798 00       		.uleb128 0
ARM GAS  /tmp/cchTuLYH.s 			page 59


 1662 0799 06       		.uleb128 0x6
 1663 079a C7040000 		.4byte	.LASF109
 1664 079e 0F       		.byte	0xf
 1665 079f 3D       		.byte	0x3d
 1666 07a0 46020000 		.4byte	0x246
 1667 07a4 02       		.byte	0x2
 1668 07a5 23       		.byte	0x23
 1669 07a6 04       		.uleb128 0x4
 1670 07a7 06       		.uleb128 0x6
 1671 07a8 22040000 		.4byte	.LASF110
 1672 07ac 0F       		.byte	0xf
 1673 07ad 3F       		.byte	0x3f
 1674 07ae F3000000 		.4byte	0xf3
 1675 07b2 02       		.byte	0x2
 1676 07b3 23       		.byte	0x23
 1677 07b4 08       		.uleb128 0x8
 1678 07b5 06       		.uleb128 0x6
 1679 07b6 D3040000 		.4byte	.LASF111
 1680 07ba 0F       		.byte	0xf
 1681 07bb 41       		.byte	0x41
 1682 07bc FE000000 		.4byte	0xfe
 1683 07c0 02       		.byte	0x2
 1684 07c1 23       		.byte	0x23
 1685 07c2 0C       		.uleb128 0xc
 1686 07c3 06       		.uleb128 0x6
 1687 07c4 C9020000 		.4byte	.LASF112
 1688 07c8 0F       		.byte	0xf
 1689 07c9 43       		.byte	0x43
 1690 07ca FE000000 		.4byte	0xfe
 1691 07ce 02       		.byte	0x2
 1692 07cf 23       		.byte	0x23
 1693 07d0 10       		.uleb128 0x10
 1694 07d1 00       		.byte	0
 1695 07d2 09       		.uleb128 0x9
 1696 07d3 04       		.byte	0x4
 1697 07d4 74070000 		.4byte	0x774
 1698 07d8 05       		.uleb128 0x5
 1699 07d9 93060000 		.4byte	.LASF113
 1700 07dd 04       		.byte	0x4
 1701 07de 0F       		.byte	0xf
 1702 07df 4A       		.byte	0x4a
 1703 07e0 F3070000 		.4byte	0x7f3
 1704 07e4 06       		.uleb128 0x6
 1705 07e5 7C060000 		.4byte	.LASF114
 1706 07e9 0F       		.byte	0xf
 1707 07ea 4B       		.byte	0x4b
 1708 07eb D2070000 		.4byte	0x7d2
 1709 07ef 02       		.byte	0x2
 1710 07f0 23       		.byte	0x23
 1711 07f1 00       		.uleb128 0
 1712 07f2 00       		.byte	0
 1713 07f3 03       		.uleb128 0x3
 1714 07f4 C4010000 		.4byte	.LASF115
 1715 07f8 0F       		.byte	0xf
 1716 07f9 4E       		.byte	0x4e
 1717 07fa D8070000 		.4byte	0x7d8
 1718 07fe 03       		.uleb128 0x3
ARM GAS  /tmp/cchTuLYH.s 			page 60


 1719 07ff B5000000 		.4byte	.LASF116
 1720 0803 10       		.byte	0x10
 1721 0804 3F       		.byte	0x3f
 1722 0805 09080000 		.4byte	0x809
 1723 0809 05       		.uleb128 0x5
 1724 080a BB010000 		.4byte	.LASF117
 1725 080e 24       		.byte	0x24
 1726 080f 10       		.byte	0x10
 1727 0810 4D       		.byte	0x4d
 1728 0811 86080000 		.4byte	0x886
 1729 0815 06       		.uleb128 0x6
 1730 0816 DE000000 		.4byte	.LASF118
 1731 081a 10       		.byte	0x10
 1732 081b 4E       		.byte	0x4e
 1733 081c 72020000 		.4byte	0x272
 1734 0820 02       		.byte	0x2
 1735 0821 23       		.byte	0x23
 1736 0822 00       		.uleb128 0
 1737 0823 06       		.uleb128 0x6
 1738 0824 6C050000 		.4byte	.LASF119
 1739 0828 10       		.byte	0x10
 1740 0829 4F       		.byte	0x4f
 1741 082a A9080000 		.4byte	0x8a9
 1742 082e 02       		.byte	0x2
 1743 082f 23       		.byte	0x23
 1744 0830 08       		.uleb128 0x8
 1745 0831 06       		.uleb128 0x6
 1746 0832 56010000 		.4byte	.LASF120
 1747 0836 10       		.byte	0x10
 1748 0837 50       		.byte	0x50
 1749 0838 AE080000 		.4byte	0x8ae
 1750 083c 02       		.byte	0x2
 1751 083d 23       		.byte	0x23
 1752 083e 0C       		.uleb128 0xc
 1753 083f 06       		.uleb128 0x6
 1754 0840 6D060000 		.4byte	.LASF121
 1755 0844 10       		.byte	0x10
 1756 0845 51       		.byte	0x51
 1757 0846 AE080000 		.4byte	0x8ae
 1758 084a 02       		.byte	0x2
 1759 084b 23       		.byte	0x23
 1760 084c 10       		.uleb128 0x10
 1761 084d 06       		.uleb128 0x6
 1762 084e 5F010000 		.4byte	.LASF122
 1763 0852 10       		.byte	0x10
 1764 0853 53       		.byte	0x53
 1765 0854 AE080000 		.4byte	0x8ae
 1766 0858 02       		.byte	0x2
 1767 0859 23       		.byte	0x23
 1768 085a 14       		.uleb128 0x14
 1769 085b 06       		.uleb128 0x6
 1770 085c 88040000 		.4byte	.LASF123
 1771 0860 10       		.byte	0x10
 1772 0861 54       		.byte	0x54
 1773 0862 AE080000 		.4byte	0x8ae
 1774 0866 02       		.byte	0x2
 1775 0867 23       		.byte	0x23
ARM GAS  /tmp/cchTuLYH.s 			page 61


 1776 0868 18       		.uleb128 0x18
 1777 0869 06       		.uleb128 0x6
 1778 086a 84060000 		.4byte	.LASF124
 1779 086e 10       		.byte	0x10
 1780 086f 55       		.byte	0x55
 1781 0870 86080000 		.4byte	0x886
 1782 0874 02       		.byte	0x2
 1783 0875 23       		.byte	0x23
 1784 0876 1C       		.uleb128 0x1c
 1785 0877 06       		.uleb128 0x6
 1786 0878 67010000 		.4byte	.LASF125
 1787 087c 10       		.byte	0x10
 1788 087d 56       		.byte	0x56
 1789 087e 36030000 		.4byte	0x336
 1790 0882 02       		.byte	0x2
 1791 0883 23       		.byte	0x23
 1792 0884 20       		.uleb128 0x20
 1793 0885 00       		.byte	0
 1794 0886 03       		.uleb128 0x3
 1795 0887 31030000 		.4byte	.LASF126
 1796 088b 10       		.byte	0x10
 1797 088c 42       		.byte	0x42
 1798 088d 91080000 		.4byte	0x891
 1799 0891 09       		.uleb128 0x9
 1800 0892 04       		.byte	0x4
 1801 0893 97080000 		.4byte	0x897
 1802 0897 0B       		.uleb128 0xb
 1803 0898 01       		.byte	0x1
 1804 0899 A3080000 		.4byte	0x8a3
 1805 089d 0C       		.uleb128 0xc
 1806 089e A3080000 		.4byte	0x8a3
 1807 08a2 00       		.byte	0
 1808 08a3 09       		.uleb128 0x9
 1809 08a4 04       		.byte	0x4
 1810 08a5 FE070000 		.4byte	0x7fe
 1811 08a9 0F       		.uleb128 0xf
 1812 08aa 30000000 		.4byte	0x30
 1813 08ae 09       		.uleb128 0x9
 1814 08af 04       		.byte	0x4
 1815 08b0 49000000 		.4byte	0x49
 1816 08b4 03       		.uleb128 0x3
 1817 08b5 66030000 		.4byte	.LASF127
 1818 08b9 10       		.byte	0x10
 1819 08ba 64       		.byte	0x64
 1820 08bb FE070000 		.4byte	0x7fe
 1821 08bf 03       		.uleb128 0x3
 1822 08c0 79030000 		.4byte	.LASF128
 1823 08c4 10       		.byte	0x10
 1824 08c5 71       		.byte	0x71
 1825 08c6 FE070000 		.4byte	0x7fe
 1826 08ca 19       		.uleb128 0x19
 1827 08cb 01       		.byte	0x1
 1828 08cc 30000000 		.4byte	0x30
 1829 08d0 E4080000 		.4byte	0x8e4
 1830 08d4 0C       		.uleb128 0xc
 1831 08d5 36030000 		.4byte	0x336
 1832 08d9 0C       		.uleb128 0xc
ARM GAS  /tmp/cchTuLYH.s 			page 62


 1833 08da E4080000 		.4byte	0x8e4
 1834 08de 0C       		.uleb128 0xc
 1835 08df 30000000 		.4byte	0x30
 1836 08e3 00       		.byte	0
 1837 08e4 09       		.uleb128 0x9
 1838 08e5 04       		.byte	0x4
 1839 08e6 EA080000 		.4byte	0x8ea
 1840 08ea 16       		.uleb128 0x16
 1841 08eb 49000000 		.4byte	0x49
 1842 08ef 09       		.uleb128 0x9
 1843 08f0 04       		.byte	0x4
 1844 08f1 CA080000 		.4byte	0x8ca
 1845 08f5 19       		.uleb128 0x19
 1846 08f6 01       		.byte	0x1
 1847 08f7 30000000 		.4byte	0x30
 1848 08fb 0F090000 		.4byte	0x90f
 1849 08ff 0C       		.uleb128 0xc
 1850 0900 36030000 		.4byte	0x336
 1851 0904 0C       		.uleb128 0xc
 1852 0905 AE080000 		.4byte	0x8ae
 1853 0909 0C       		.uleb128 0xc
 1854 090a 30000000 		.4byte	0x30
 1855 090e 00       		.byte	0
 1856 090f 09       		.uleb128 0x9
 1857 0910 04       		.byte	0x4
 1858 0911 F5080000 		.4byte	0x8f5
 1859 0915 19       		.uleb128 0x19
 1860 0916 01       		.byte	0x1
 1861 0917 E8000000 		.4byte	0xe8
 1862 091b 2A090000 		.4byte	0x92a
 1863 091f 0C       		.uleb128 0xc
 1864 0920 36030000 		.4byte	0x336
 1865 0924 0C       		.uleb128 0xc
 1866 0925 49000000 		.4byte	0x49
 1867 0929 00       		.byte	0
 1868 092a 09       		.uleb128 0x9
 1869 092b 04       		.byte	0x4
 1870 092c 15090000 		.4byte	0x915
 1871 0930 19       		.uleb128 0x19
 1872 0931 01       		.byte	0x1
 1873 0932 E8000000 		.4byte	0xe8
 1874 0936 40090000 		.4byte	0x940
 1875 093a 0C       		.uleb128 0xc
 1876 093b 36030000 		.4byte	0x336
 1877 093f 00       		.byte	0
 1878 0940 09       		.uleb128 0x9
 1879 0941 04       		.byte	0x4
 1880 0942 30090000 		.4byte	0x930
 1881 0946 19       		.uleb128 0x19
 1882 0947 01       		.byte	0x1
 1883 0948 E8000000 		.4byte	0xe8
 1884 094c 60090000 		.4byte	0x960
 1885 0950 0C       		.uleb128 0xc
 1886 0951 36030000 		.4byte	0x336
 1887 0955 0C       		.uleb128 0xc
 1888 0956 49000000 		.4byte	0x49
 1889 095a 0C       		.uleb128 0xc
ARM GAS  /tmp/cchTuLYH.s 			page 63


 1890 095b 14010000 		.4byte	0x114
 1891 095f 00       		.byte	0
 1892 0960 09       		.uleb128 0x9
 1893 0961 04       		.byte	0x4
 1894 0962 46090000 		.4byte	0x946
 1895 0966 19       		.uleb128 0x19
 1896 0967 01       		.byte	0x1
 1897 0968 E8000000 		.4byte	0xe8
 1898 096c 7B090000 		.4byte	0x97b
 1899 0970 0C       		.uleb128 0xc
 1900 0971 36030000 		.4byte	0x336
 1901 0975 0C       		.uleb128 0xc
 1902 0976 14010000 		.4byte	0x114
 1903 097a 00       		.byte	0
 1904 097b 09       		.uleb128 0x9
 1905 097c 04       		.byte	0x4
 1906 097d 66090000 		.4byte	0x966
 1907 0981 19       		.uleb128 0x19
 1908 0982 01       		.byte	0x1
 1909 0983 30000000 		.4byte	0x30
 1910 0987 A0090000 		.4byte	0x9a0
 1911 098b 0C       		.uleb128 0xc
 1912 098c 36030000 		.4byte	0x336
 1913 0990 0C       		.uleb128 0xc
 1914 0991 E4080000 		.4byte	0x8e4
 1915 0995 0C       		.uleb128 0xc
 1916 0996 30000000 		.4byte	0x30
 1917 099a 0C       		.uleb128 0xc
 1918 099b 14010000 		.4byte	0x114
 1919 099f 00       		.byte	0
 1920 09a0 09       		.uleb128 0x9
 1921 09a1 04       		.byte	0x4
 1922 09a2 81090000 		.4byte	0x981
 1923 09a6 19       		.uleb128 0x19
 1924 09a7 01       		.byte	0x1
 1925 09a8 30000000 		.4byte	0x30
 1926 09ac C5090000 		.4byte	0x9c5
 1927 09b0 0C       		.uleb128 0xc
 1928 09b1 36030000 		.4byte	0x336
 1929 09b5 0C       		.uleb128 0xc
 1930 09b6 AE080000 		.4byte	0x8ae
 1931 09ba 0C       		.uleb128 0xc
 1932 09bb 30000000 		.4byte	0x30
 1933 09bf 0C       		.uleb128 0xc
 1934 09c0 14010000 		.4byte	0x114
 1935 09c4 00       		.byte	0
 1936 09c5 09       		.uleb128 0x9
 1937 09c6 04       		.byte	0x4
 1938 09c7 A6090000 		.4byte	0x9a6
 1939 09cb 04       		.uleb128 0x4
 1940 09cc 01       		.byte	0x1
 1941 09cd 02       		.byte	0x2
 1942 09ce A0040000 		.4byte	.LASF129
 1943 09d2 13       		.uleb128 0x13
 1944 09d3 04       		.byte	0x4
 1945 09d4 11       		.byte	0x11
 1946 09d5 E7       		.byte	0xe7
ARM GAS  /tmp/cchTuLYH.s 			page 64


 1947 09d6 F7090000 		.4byte	0x9f7
 1948 09da 12       		.uleb128 0x12
 1949 09db 73657400 		.ascii	"set\000"
 1950 09df 11       		.byte	0x11
 1951 09e0 E8       		.byte	0xe8
 1952 09e1 62000000 		.4byte	0x62
 1953 09e5 02       		.byte	0x2
 1954 09e6 23       		.byte	0x23
 1955 09e7 00       		.uleb128 0
 1956 09e8 06       		.uleb128 0x6
 1957 09e9 C5030000 		.4byte	.LASF130
 1958 09ed 11       		.byte	0x11
 1959 09ee E9       		.byte	0xe9
 1960 09ef 62000000 		.4byte	0x62
 1961 09f3 02       		.byte	0x2
 1962 09f4 23       		.byte	0x23
 1963 09f5 02       		.uleb128 0x2
 1964 09f6 00       		.byte	0
 1965 09f7 14       		.uleb128 0x14
 1966 09f8 04       		.byte	0x4
 1967 09f9 11       		.byte	0x11
 1968 09fa E5       		.byte	0xe5
 1969 09fb 120A0000 		.4byte	0xa12
 1970 09ff 1A       		.uleb128 0x1a
 1971 0a00 5700     		.ascii	"W\000"
 1972 0a02 11       		.byte	0x11
 1973 0a03 E6       		.byte	0xe6
 1974 0a04 86000000 		.4byte	0x86
 1975 0a08 1A       		.uleb128 0x1a
 1976 0a09 4800     		.ascii	"H\000"
 1977 0a0b 11       		.byte	0x11
 1978 0a0c EA       		.byte	0xea
 1979 0a0d D2090000 		.4byte	0x9d2
 1980 0a11 00       		.byte	0
 1981 0a12 13       		.uleb128 0x13
 1982 0a13 2C       		.byte	0x2c
 1983 0a14 11       		.byte	0x11
 1984 0a15 DD       		.byte	0xdd
 1985 0a16 B50A0000 		.4byte	0xab5
 1986 0a1a 06       		.uleb128 0x6
 1987 0a1b 5B000000 		.4byte	.LASF131
 1988 0a1f 11       		.byte	0x11
 1989 0a20 DF       		.byte	0xdf
 1990 0a21 93040000 		.4byte	0x493
 1991 0a25 02       		.byte	0x2
 1992 0a26 23       		.byte	0x23
 1993 0a27 00       		.uleb128 0
 1994 0a28 06       		.uleb128 0x6
 1995 0a29 2C000000 		.4byte	.LASF132
 1996 0a2d 11       		.byte	0x11
 1997 0a2e E0       		.byte	0xe0
 1998 0a2f 93040000 		.4byte	0x493
 1999 0a33 02       		.byte	0x2
 2000 0a34 23       		.byte	0x23
 2001 0a35 04       		.uleb128 0x4
 2002 0a36 06       		.uleb128 0x6
 2003 0a37 7E010000 		.4byte	.LASF133
ARM GAS  /tmp/cchTuLYH.s 			page 65


 2004 0a3b 11       		.byte	0x11
 2005 0a3c E1       		.byte	0xe1
 2006 0a3d 93040000 		.4byte	0x493
 2007 0a41 02       		.byte	0x2
 2008 0a42 23       		.byte	0x23
 2009 0a43 08       		.uleb128 0x8
 2010 0a44 06       		.uleb128 0x6
 2011 0a45 78000000 		.4byte	.LASF134
 2012 0a49 11       		.byte	0x11
 2013 0a4a E2       		.byte	0xe2
 2014 0a4b 93040000 		.4byte	0x493
 2015 0a4f 02       		.byte	0x2
 2016 0a50 23       		.byte	0x23
 2017 0a51 0C       		.uleb128 0xc
 2018 0a52 12       		.uleb128 0x12
 2019 0a53 49445200 		.ascii	"IDR\000"
 2020 0a57 11       		.byte	0x11
 2021 0a58 E3       		.byte	0xe3
 2022 0a59 93040000 		.4byte	0x493
 2023 0a5d 02       		.byte	0x2
 2024 0a5e 23       		.byte	0x23
 2025 0a5f 10       		.uleb128 0x10
 2026 0a60 12       		.uleb128 0x12
 2027 0a61 4F445200 		.ascii	"ODR\000"
 2028 0a65 11       		.byte	0x11
 2029 0a66 E4       		.byte	0xe4
 2030 0a67 93040000 		.4byte	0x493
 2031 0a6b 02       		.byte	0x2
 2032 0a6c 23       		.byte	0x23
 2033 0a6d 14       		.uleb128 0x14
 2034 0a6e 06       		.uleb128 0x6
 2035 0a6f 02010000 		.4byte	.LASF135
 2036 0a73 11       		.byte	0x11
 2037 0a74 EB       		.byte	0xeb
 2038 0a75 B50A0000 		.4byte	0xab5
 2039 0a79 02       		.byte	0x2
 2040 0a7a 23       		.byte	0x23
 2041 0a7b 18       		.uleb128 0x18
 2042 0a7c 06       		.uleb128 0x6
 2043 0a7d 45050000 		.4byte	.LASF136
 2044 0a81 11       		.byte	0x11
 2045 0a82 EC       		.byte	0xec
 2046 0a83 93040000 		.4byte	0x493
 2047 0a87 02       		.byte	0x2
 2048 0a88 23       		.byte	0x23
 2049 0a89 1C       		.uleb128 0x1c
 2050 0a8a 06       		.uleb128 0x6
 2051 0a8b 3E040000 		.4byte	.LASF137
 2052 0a8f 11       		.byte	0x11
 2053 0a90 ED       		.byte	0xed
 2054 0a91 93040000 		.4byte	0x493
 2055 0a95 02       		.byte	0x2
 2056 0a96 23       		.byte	0x23
 2057 0a97 20       		.uleb128 0x20
 2058 0a98 06       		.uleb128 0x6
 2059 0a99 39040000 		.4byte	.LASF138
 2060 0a9d 11       		.byte	0x11
ARM GAS  /tmp/cchTuLYH.s 			page 66


 2061 0a9e EE       		.byte	0xee
 2062 0a9f 93040000 		.4byte	0x493
 2063 0aa3 02       		.byte	0x2
 2064 0aa4 23       		.byte	0x23
 2065 0aa5 24       		.uleb128 0x24
 2066 0aa6 12       		.uleb128 0x12
 2067 0aa7 42525200 		.ascii	"BRR\000"
 2068 0aab 11       		.byte	0x11
 2069 0aac EF       		.byte	0xef
 2070 0aad 93040000 		.4byte	0x493
 2071 0ab1 02       		.byte	0x2
 2072 0ab2 23       		.byte	0x23
 2073 0ab3 28       		.uleb128 0x28
 2074 0ab4 00       		.byte	0
 2075 0ab5 0F       		.uleb128 0xf
 2076 0ab6 F7090000 		.4byte	0x9f7
 2077 0aba 03       		.uleb128 0x3
 2078 0abb A6010000 		.4byte	.LASF139
 2079 0abf 11       		.byte	0x11
 2080 0ac0 F0       		.byte	0xf0
 2081 0ac1 120A0000 		.4byte	0xa12
 2082 0ac5 11       		.uleb128 0x11
 2083 0ac6 4E000000 		.4byte	.LASF140
 2084 0aca 11       		.byte	0x11
 2085 0acb 3F01     		.2byte	0x13f
 2086 0acd 86000000 		.4byte	0x86
 2087 0ad1 1B       		.uleb128 0x1b
 2088 0ad2 01       		.byte	0x1
 2089 0ad3 12       		.byte	0x12
 2090 0ad4 55       		.byte	0x55
 2091 0ad5 EC0A0000 		.4byte	0xaec
 2092 0ad9 1C       		.uleb128 0x1c
 2093 0ada 62050000 		.4byte	.LASF141
 2094 0ade 00       		.sleb128 0
 2095 0adf 1C       		.uleb128 0x1c
 2096 0ae0 1C050000 		.4byte	.LASF142
 2097 0ae4 01       		.sleb128 1
 2098 0ae5 1C       		.uleb128 0x1c
 2099 0ae6 3D060000 		.4byte	.LASF143
 2100 0aea 02       		.sleb128 2
 2101 0aeb 00       		.byte	0
 2102 0aec 03       		.uleb128 0x3
 2103 0aed 63060000 		.4byte	.LASF144
 2104 0af1 12       		.byte	0x12
 2105 0af2 59       		.byte	0x59
 2106 0af3 D10A0000 		.4byte	0xad1
 2107 0af7 03       		.uleb128 0x3
 2108 0af8 9E050000 		.4byte	.LASF145
 2109 0afc 12       		.byte	0x12
 2110 0afd 5E       		.byte	0x5e
 2111 0afe 020B0000 		.4byte	0xb02
 2112 0b02 05       		.uleb128 0x5
 2113 0b03 9E050000 		.4byte	.LASF145
 2114 0b07 7C       		.byte	0x7c
 2115 0b08 12       		.byte	0x12
 2116 0b09 78       		.byte	0x78
 2117 0b0a 8B0B0000 		.4byte	0xb8b
ARM GAS  /tmp/cchTuLYH.s 			page 67


 2118 0b0e 12       		.uleb128 0x12
 2119 0b0f 766D7400 		.ascii	"vmt\000"
 2120 0b13 12       		.byte	0x12
 2121 0b14 7A       		.byte	0x7a
 2122 0b15 5A0C0000 		.4byte	0xc5a
 2123 0b19 02       		.byte	0x2
 2124 0b1a 23       		.byte	0x23
 2125 0b1b 00       		.uleb128 0
 2126 0b1c 06       		.uleb128 0x6
 2127 0b1d 4D020000 		.4byte	.LASF146
 2128 0b21 12       		.byte	0x12
 2129 0b22 7B       		.byte	0x7b
 2130 0b23 F3070000 		.4byte	0x7f3
 2131 0b27 02       		.byte	0x2
 2132 0b28 23       		.byte	0x23
 2133 0b29 04       		.uleb128 0x4
 2134 0b2a 06       		.uleb128 0x6
 2135 0b2b 2D010000 		.4byte	.LASF147
 2136 0b2f 12       		.byte	0x12
 2137 0b30 7B       		.byte	0x7b
 2138 0b31 EC0A0000 		.4byte	0xaec
 2139 0b35 02       		.byte	0x2
 2140 0b36 23       		.byte	0x23
 2141 0b37 08       		.uleb128 0x8
 2142 0b38 06       		.uleb128 0x6
 2143 0b39 23020000 		.4byte	.LASF148
 2144 0b3d 12       		.byte	0x12
 2145 0b3e 7B       		.byte	0x7b
 2146 0b3f B4080000 		.4byte	0x8b4
 2147 0b43 02       		.byte	0x2
 2148 0b44 23       		.byte	0x23
 2149 0b45 0C       		.uleb128 0xc
 2150 0b46 06       		.uleb128 0x6
 2151 0b47 D9020000 		.4byte	.LASF149
 2152 0b4b 12       		.byte	0x12
 2153 0b4c 7B       		.byte	0x7b
 2154 0b4d BF080000 		.4byte	0x8bf
 2155 0b51 02       		.byte	0x2
 2156 0b52 23       		.byte	0x23
 2157 0b53 30       		.uleb128 0x30
 2158 0b54 12       		.uleb128 0x12
 2159 0b55 696200   		.ascii	"ib\000"
 2160 0b58 12       		.byte	0x12
 2161 0b59 7B       		.byte	0x7b
 2162 0b5a 650C0000 		.4byte	0xc65
 2163 0b5e 02       		.byte	0x2
 2164 0b5f 23       		.byte	0x23
 2165 0b60 54       		.uleb128 0x54
 2166 0b61 12       		.uleb128 0x12
 2167 0b62 6F6200   		.ascii	"ob\000"
 2168 0b65 12       		.byte	0x12
 2169 0b66 7B       		.byte	0x7b
 2170 0b67 650C0000 		.4byte	0xc65
 2171 0b6b 02       		.byte	0x2
 2172 0b6c 23       		.byte	0x23
 2173 0b6d 64       		.uleb128 0x64
 2174 0b6e 06       		.uleb128 0x6
ARM GAS  /tmp/cchTuLYH.s 			page 68


 2175 0b6f E8010000 		.4byte	.LASF150
 2176 0b73 12       		.byte	0x12
 2177 0b74 7B       		.byte	0x7b
 2178 0b75 750C0000 		.4byte	0xc75
 2179 0b79 02       		.byte	0x2
 2180 0b7a 23       		.byte	0x23
 2181 0b7b 74       		.uleb128 0x74
 2182 0b7c 06       		.uleb128 0x6
 2183 0b7d BE060000 		.4byte	.LASF151
 2184 0b81 12       		.byte	0x12
 2185 0b82 7B       		.byte	0x7b
 2186 0b83 86000000 		.4byte	0x86
 2187 0b87 02       		.byte	0x2
 2188 0b88 23       		.byte	0x23
 2189 0b89 78       		.uleb128 0x78
 2190 0b8a 00       		.byte	0
 2191 0b8b 10       		.uleb128 0x10
 2192 0b8c 10       		.byte	0x10
 2193 0b8d 13       		.byte	0x13
 2194 0b8e 2C01     		.2byte	0x12c
 2195 0b90 D10B0000 		.4byte	0xbd1
 2196 0b94 08       		.uleb128 0x8
 2197 0b95 2B030000 		.4byte	.LASF152
 2198 0b99 13       		.byte	0x13
 2199 0b9a 3001     		.2byte	0x130
 2200 0b9c 86000000 		.4byte	0x86
 2201 0ba0 02       		.byte	0x2
 2202 0ba1 23       		.byte	0x23
 2203 0ba2 00       		.uleb128 0
 2204 0ba3 07       		.uleb128 0x7
 2205 0ba4 63723100 		.ascii	"cr1\000"
 2206 0ba8 13       		.byte	0x13
 2207 0ba9 3501     		.2byte	0x135
 2208 0bab 86000000 		.4byte	0x86
 2209 0baf 02       		.byte	0x2
 2210 0bb0 23       		.byte	0x23
 2211 0bb1 04       		.uleb128 0x4
 2212 0bb2 07       		.uleb128 0x7
 2213 0bb3 63723200 		.ascii	"cr2\000"
 2214 0bb7 13       		.byte	0x13
 2215 0bb8 3901     		.2byte	0x139
 2216 0bba 86000000 		.4byte	0x86
 2217 0bbe 02       		.byte	0x2
 2218 0bbf 23       		.byte	0x23
 2219 0bc0 08       		.uleb128 0x8
 2220 0bc1 07       		.uleb128 0x7
 2221 0bc2 63723300 		.ascii	"cr3\000"
 2222 0bc6 13       		.byte	0x13
 2223 0bc7 3D01     		.2byte	0x13d
 2224 0bc9 86000000 		.4byte	0x86
 2225 0bcd 02       		.byte	0x2
 2226 0bce 23       		.byte	0x23
 2227 0bcf 0C       		.uleb128 0xc
 2228 0bd0 00       		.byte	0
 2229 0bd1 11       		.uleb128 0x11
 2230 0bd2 2C040000 		.4byte	.LASF153
 2231 0bd6 13       		.byte	0x13
ARM GAS  /tmp/cchTuLYH.s 			page 69


 2232 0bd7 3E01     		.2byte	0x13e
 2233 0bd9 8B0B0000 		.4byte	0xb8b
 2234 0bdd 05       		.uleb128 0x5
 2235 0bde 0C020000 		.4byte	.LASF154
 2236 0be2 20       		.byte	0x20
 2237 0be3 12       		.byte	0x12
 2238 0be4 6D       		.byte	0x6d
 2239 0be5 5A0C0000 		.4byte	0xc5a
 2240 0be9 06       		.uleb128 0x6
 2241 0bea 60030000 		.4byte	.LASF155
 2242 0bee 12       		.byte	0x12
 2243 0bef 6E       		.byte	0x6e
 2244 0bf0 EF080000 		.4byte	0x8ef
 2245 0bf4 02       		.byte	0x2
 2246 0bf5 23       		.byte	0x23
 2247 0bf6 00       		.uleb128 0
 2248 0bf7 06       		.uleb128 0x6
 2249 0bf8 C7050000 		.4byte	.LASF156
 2250 0bfc 12       		.byte	0x12
 2251 0bfd 6E       		.byte	0x6e
 2252 0bfe 0F090000 		.4byte	0x90f
 2253 0c02 02       		.byte	0x2
 2254 0c03 23       		.byte	0x23
 2255 0c04 04       		.uleb128 0x4
 2256 0c05 12       		.uleb128 0x12
 2257 0c06 70757400 		.ascii	"put\000"
 2258 0c0a 12       		.byte	0x12
 2259 0c0b 6E       		.byte	0x6e
 2260 0c0c 2A090000 		.4byte	0x92a
 2261 0c10 02       		.byte	0x2
 2262 0c11 23       		.byte	0x23
 2263 0c12 08       		.uleb128 0x8
 2264 0c13 12       		.uleb128 0x12
 2265 0c14 67657400 		.ascii	"get\000"
 2266 0c18 12       		.byte	0x12
 2267 0c19 6E       		.byte	0x6e
 2268 0c1a 40090000 		.4byte	0x940
 2269 0c1e 02       		.byte	0x2
 2270 0c1f 23       		.byte	0x23
 2271 0c20 0C       		.uleb128 0xc
 2272 0c21 06       		.uleb128 0x6
 2273 0c22 74030000 		.4byte	.LASF157
 2274 0c26 12       		.byte	0x12
 2275 0c27 6E       		.byte	0x6e
 2276 0c28 60090000 		.4byte	0x960
 2277 0c2c 02       		.byte	0x2
 2278 0c2d 23       		.byte	0x23
 2279 0c2e 10       		.uleb128 0x10
 2280 0c2f 06       		.uleb128 0x6
 2281 0c30 3D020000 		.4byte	.LASF158
 2282 0c34 12       		.byte	0x12
 2283 0c35 6E       		.byte	0x6e
 2284 0c36 7B090000 		.4byte	0x97b
 2285 0c3a 02       		.byte	0x2
 2286 0c3b 23       		.byte	0x23
 2287 0c3c 14       		.uleb128 0x14
 2288 0c3d 06       		.uleb128 0x6
ARM GAS  /tmp/cchTuLYH.s 			page 70


 2289 0c3e 02030000 		.4byte	.LASF159
 2290 0c42 12       		.byte	0x12
 2291 0c43 6E       		.byte	0x6e
 2292 0c44 A0090000 		.4byte	0x9a0
 2293 0c48 02       		.byte	0x2
 2294 0c49 23       		.byte	0x23
 2295 0c4a 18       		.uleb128 0x18
 2296 0c4b 06       		.uleb128 0x6
 2297 0c4c D8000000 		.4byte	.LASF160
 2298 0c50 12       		.byte	0x12
 2299 0c51 6E       		.byte	0x6e
 2300 0c52 C5090000 		.4byte	0x9c5
 2301 0c56 02       		.byte	0x2
 2302 0c57 23       		.byte	0x23
 2303 0c58 1C       		.uleb128 0x1c
 2304 0c59 00       		.byte	0
 2305 0c5a 09       		.uleb128 0x9
 2306 0c5b 04       		.byte	0x4
 2307 0c5c 600C0000 		.4byte	0xc60
 2308 0c60 16       		.uleb128 0x16
 2309 0c61 DD0B0000 		.4byte	0xbdd
 2310 0c65 17       		.uleb128 0x17
 2311 0c66 49000000 		.4byte	0x49
 2312 0c6a 750C0000 		.4byte	0xc75
 2313 0c6e 18       		.uleb128 0x18
 2314 0c6f 8C040000 		.4byte	0x48c
 2315 0c73 0F       		.byte	0xf
 2316 0c74 00       		.byte	0
 2317 0c75 09       		.uleb128 0x9
 2318 0c76 04       		.byte	0x4
 2319 0c77 6A050000 		.4byte	0x56a
 2320 0c7b 17       		.uleb128 0x17
 2321 0c7c 81050000 		.4byte	0x581
 2322 0c80 8B0C0000 		.4byte	0xc8b
 2323 0c84 18       		.uleb128 0x18
 2324 0c85 8C040000 		.4byte	0x48c
 2325 0c89 28       		.byte	0x28
 2326 0c8a 00       		.byte	0
 2327 0c8b 1D       		.uleb128 0x1d
 2328 0c8c C9060000 		.4byte	.LASF169
 2329 0c90 02       		.byte	0x2
 2330 0c91 84       		.byte	0x84
 2331 0c92 01       		.byte	0x1
 2332 0c93 03       		.byte	0x3
 2333 0c94 A40C0000 		.4byte	0xca4
 2334 0c98 1E       		.uleb128 0x1e
 2335 0c99 42020000 		.4byte	.LASF170
 2336 0c9d 02       		.byte	0x2
 2337 0c9e 84       		.byte	0x84
 2338 0c9f 2B070000 		.4byte	0x72b
 2339 0ca3 00       		.byte	0
 2340 0ca4 1F       		.uleb128 0x1f
 2341 0ca5 46030000 		.4byte	.LASF171
 2342 0ca9 01       		.byte	0x1
 2343 0caa 19       		.byte	0x19
 2344 0cab 01       		.byte	0x1
 2345 0cac 00000000 		.4byte	.LFB272
ARM GAS  /tmp/cchTuLYH.s 			page 71


 2346 0cb0 38000000 		.4byte	.LFE272
 2347 0cb4 00000000 		.4byte	.LLST0
 2348 0cb8 01       		.byte	0x1
 2349 0cb9 130D0000 		.4byte	0xd13
 2350 0cbd 20       		.uleb128 0x20
 2351 0cbe 61726700 		.ascii	"arg\000"
 2352 0cc2 01       		.byte	0x1
 2353 0cc3 19       		.byte	0x19
 2354 0cc4 36030000 		.4byte	0x336
 2355 0cc8 20000000 		.4byte	.LLST1
 2356 0ccc 21       		.uleb128 0x21
 2357 0ccd 8B0C0000 		.4byte	0xc8b
 2358 0cd1 00000000 		.4byte	.LBB4
 2359 0cd5 00000000 		.4byte	.Ldebug_ranges0+0
 2360 0cd9 01       		.byte	0x1
 2361 0cda 1C       		.byte	0x1c
 2362 0cdb EC0C0000 		.4byte	0xcec
 2363 0cdf 22       		.uleb128 0x22
 2364 0ce0 980C0000 		.4byte	0xc98
 2365 0ce4 06       		.byte	0x6
 2366 0ce5 03       		.byte	0x3
 2367 0ce6 00000000 		.4byte	.LC0
 2368 0cea 9F       		.byte	0x9f
 2369 0ceb 00       		.byte	0
 2370 0cec 23       		.uleb128 0x23
 2371 0ced 22000000 		.4byte	.LVL2
 2372 0cf1 E70D0000 		.4byte	0xde7
 2373 0cf5 010D0000 		.4byte	0xd01
 2374 0cf9 24       		.uleb128 0x24
 2375 0cfa 01       		.byte	0x1
 2376 0cfb 50       		.byte	0x50
 2377 0cfc 03       		.byte	0x3
 2378 0cfd 0A       		.byte	0xa
 2379 0cfe 8813     		.2byte	0x1388
 2380 0d00 00       		.byte	0
 2381 0d01 25       		.uleb128 0x25
 2382 0d02 2C000000 		.4byte	.LVL3
 2383 0d06 E70D0000 		.4byte	0xde7
 2384 0d0a 24       		.uleb128 0x24
 2385 0d0b 01       		.byte	0x1
 2386 0d0c 50       		.byte	0x50
 2387 0d0d 03       		.byte	0x3
 2388 0d0e 0A       		.byte	0xa
 2389 0d0f 8813     		.2byte	0x1388
 2390 0d11 00       		.byte	0
 2391 0d12 00       		.byte	0
 2392 0d13 26       		.uleb128 0x26
 2393 0d14 01       		.byte	0x1
 2394 0d15 C4060000 		.4byte	.LASF172
 2395 0d19 01       		.byte	0x1
 2396 0d1a 28       		.byte	0x28
 2397 0d1b 01       		.byte	0x1
 2398 0d1c 29000000 		.4byte	0x29
 2399 0d20 00000000 		.4byte	.LFB273
 2400 0d24 54000000 		.4byte	.LFE273
 2401 0d28 41000000 		.4byte	.LLST2
 2402 0d2c 01       		.byte	0x1
ARM GAS  /tmp/cchTuLYH.s 			page 72


 2403 0d2d A80D0000 		.4byte	0xda8
 2404 0d31 27       		.uleb128 0x27
 2405 0d32 08000000 		.4byte	.LVL4
 2406 0d36 FB0D0000 		.4byte	0xdfb
 2407 0d3a 27       		.uleb128 0x27
 2408 0d3b 0C000000 		.4byte	.LVL5
 2409 0d3f 050E0000 		.4byte	0xe05
 2410 0d43 23       		.uleb128 0x23
 2411 0d44 14000000 		.4byte	.LVL6
 2412 0d48 100E0000 		.4byte	0xe10
 2413 0d4c 560D0000 		.4byte	0xd56
 2414 0d50 24       		.uleb128 0x24
 2415 0d51 01       		.byte	0x1
 2416 0d52 51       		.byte	0x51
 2417 0d53 01       		.byte	0x1
 2418 0d54 30       		.byte	0x30
 2419 0d55 00       		.byte	0
 2420 0d56 23       		.uleb128 0x23
 2421 0d57 2A000000 		.4byte	.LVL7
 2422 0d5b 3B0E0000 		.4byte	0xe3b
 2423 0d5f 890D0000 		.4byte	0xd89
 2424 0d63 24       		.uleb128 0x24
 2425 0d64 01       		.byte	0x1
 2426 0d65 53       		.byte	0x53
 2427 0d66 05       		.byte	0x5
 2428 0d67 03       		.byte	0x3
 2429 0d68 00000000 		.4byte	Thread1
 2430 0d6c 24       		.uleb128 0x24
 2431 0d6d 01       		.byte	0x1
 2432 0d6e 52       		.byte	0x52
 2433 0d6f 02       		.byte	0x2
 2434 0d70 08       		.byte	0x8
 2435 0d71 40       		.byte	0x40
 2436 0d72 24       		.uleb128 0x24
 2437 0d73 01       		.byte	0x1
 2438 0d74 51       		.byte	0x51
 2439 0d75 03       		.byte	0x3
 2440 0d76 0A       		.byte	0xa
 2441 0d77 4801     		.2byte	0x148
 2442 0d79 24       		.uleb128 0x24
 2443 0d7a 01       		.byte	0x1
 2444 0d7b 50       		.byte	0x50
 2445 0d7c 05       		.byte	0x5
 2446 0d7d 03       		.byte	0x3
 2447 0d7e 00000000 		.4byte	.LANCHOR0
 2448 0d82 24       		.uleb128 0x24
 2449 0d83 02       		.byte	0x2
 2450 0d84 7D       		.byte	0x7d
 2451 0d85 00       		.sleb128 0
 2452 0d86 01       		.byte	0x1
 2453 0d87 30       		.byte	0x30
 2454 0d88 00       		.byte	0
 2455 0d89 23       		.uleb128 0x23
 2456 0d8a 38000000 		.4byte	.LVL8
 2457 0d8e E70D0000 		.4byte	0xde7
 2458 0d92 9E0D0000 		.4byte	0xd9e
 2459 0d96 24       		.uleb128 0x24
ARM GAS  /tmp/cchTuLYH.s 			page 73


 2460 0d97 01       		.byte	0x1
 2461 0d98 50       		.byte	0x50
 2462 0d99 03       		.byte	0x3
 2463 0d9a 0A       		.byte	0xa
 2464 0d9b 8813     		.2byte	0x1388
 2465 0d9d 00       		.byte	0
 2466 0d9e 27       		.uleb128 0x27
 2467 0d9f 44000000 		.4byte	.LVL9
 2468 0da3 670E0000 		.4byte	0xe67
 2469 0da7 00       		.byte	0
 2470 0da8 28       		.uleb128 0x28
 2471 0da9 43040000 		.4byte	.LASF173
 2472 0dad 01       		.byte	0x1
 2473 0dae 18       		.byte	0x18
 2474 0daf 7B0C0000 		.4byte	0xc7b
 2475 0db3 05       		.byte	0x5
 2476 0db4 03       		.byte	0x3
 2477 0db5 00000000 		.4byte	waThread1
 2478 0db9 29       		.uleb128 0x29
 2479 0dba A8000000 		.4byte	.LASF161
 2480 0dbe 16       		.byte	0x16
 2481 0dbf FA06     		.2byte	0x6fa
 2482 0dc1 C70D0000 		.4byte	0xdc7
 2483 0dc5 01       		.byte	0x1
 2484 0dc6 01       		.byte	0x1
 2485 0dc7 0F       		.uleb128 0xf
 2486 0dc8 74000000 		.4byte	0x74
 2487 0dcc 2A       		.uleb128 0x2a
 2488 0dcd 636800   		.ascii	"ch\000"
 2489 0dd0 07       		.byte	0x7
 2490 0dd1 0902     		.2byte	0x209
 2491 0dd3 19040000 		.4byte	0x419
 2492 0dd7 01       		.byte	0x1
 2493 0dd8 01       		.byte	0x1
 2494 0dd9 2A       		.uleb128 0x2a
 2495 0dda 53443200 		.ascii	"SD2\000"
 2496 0dde 13       		.byte	0x13
 2497 0ddf 6901     		.2byte	0x169
 2498 0de1 F70A0000 		.4byte	0xaf7
 2499 0de5 01       		.byte	0x1
 2500 0de6 01       		.byte	0x1
 2501 0de7 2B       		.uleb128 0x2b
 2502 0de8 01       		.byte	0x1
 2503 0de9 17040000 		.4byte	.LASF164
 2504 0ded 0E       		.byte	0xe
 2505 0dee 96       		.byte	0x96
 2506 0def 01       		.byte	0x1
 2507 0df0 01       		.byte	0x1
 2508 0df1 FB0D0000 		.4byte	0xdfb
 2509 0df5 0C       		.uleb128 0xc
 2510 0df6 14010000 		.4byte	0x114
 2511 0dfa 00       		.byte	0
 2512 0dfb 2C       		.uleb128 0x2c
 2513 0dfc 01       		.byte	0x1
 2514 0dfd 35020000 		.4byte	.LASF162
 2515 0e01 14       		.byte	0x14
 2516 0e02 9B       		.byte	0x9b
ARM GAS  /tmp/cchTuLYH.s 			page 74


 2517 0e03 01       		.byte	0x1
 2518 0e04 01       		.byte	0x1
 2519 0e05 2D       		.uleb128 0x2d
 2520 0e06 01       		.byte	0x1
 2521 0e07 07010000 		.4byte	.LASF163
 2522 0e0b 15       		.byte	0x15
 2523 0e0c 1501     		.2byte	0x115
 2524 0e0e 01       		.byte	0x1
 2525 0e0f 01       		.byte	0x1
 2526 0e10 2E       		.uleb128 0x2e
 2527 0e11 01       		.byte	0x1
 2528 0e12 D1050000 		.4byte	.LASF165
 2529 0e16 12       		.byte	0x12
 2530 0e17 1001     		.2byte	0x110
 2531 0e19 01       		.byte	0x1
 2532 0e1a 01       		.byte	0x1
 2533 0e1b 2A0E0000 		.4byte	0xe2a
 2534 0e1f 0C       		.uleb128 0xc
 2535 0e20 2A0E0000 		.4byte	0xe2a
 2536 0e24 0C       		.uleb128 0xc
 2537 0e25 300E0000 		.4byte	0xe30
 2538 0e29 00       		.byte	0
 2539 0e2a 09       		.uleb128 0x9
 2540 0e2b 04       		.byte	0x4
 2541 0e2c F70A0000 		.4byte	0xaf7
 2542 0e30 09       		.uleb128 0x9
 2543 0e31 04       		.byte	0x4
 2544 0e32 360E0000 		.4byte	0xe36
 2545 0e36 16       		.uleb128 0x16
 2546 0e37 D10B0000 		.4byte	0xbd1
 2547 0e3b 2F       		.uleb128 0x2f
 2548 0e3c 01       		.byte	0x1
 2549 0e3d 4E030000 		.4byte	.LASF174
 2550 0e41 0E       		.byte	0xe
 2551 0e42 89       		.byte	0x89
 2552 0e43 01       		.byte	0x1
 2553 0e44 46020000 		.4byte	0x246
 2554 0e48 01       		.byte	0x1
 2555 0e49 670E0000 		.4byte	0xe67
 2556 0e4d 0C       		.uleb128 0xc
 2557 0e4e 36030000 		.4byte	0x336
 2558 0e52 0C       		.uleb128 0xc
 2559 0e53 30000000 		.4byte	0x30
 2560 0e57 0C       		.uleb128 0xc
 2561 0e58 DD000000 		.4byte	0xdd
 2562 0e5c 0C       		.uleb128 0xc
 2563 0e5d 58070000 		.4byte	0x758
 2564 0e61 0C       		.uleb128 0xc
 2565 0e62 36030000 		.4byte	0x336
 2566 0e66 00       		.byte	0
 2567 0e67 30       		.uleb128 0x30
 2568 0e68 01       		.byte	0x1
 2569 0e69 BC040000 		.4byte	.LASF175
 2570 0e6d 17       		.byte	0x17
 2571 0e6e 54       		.byte	0x54
 2572 0e6f 01       		.byte	0x1
 2573 0e70 01       		.byte	0x1
ARM GAS  /tmp/cchTuLYH.s 			page 75


 2574 0e71 0C       		.uleb128 0xc
 2575 0e72 36030000 		.4byte	0x336
 2576 0e76 00       		.byte	0
 2577 0e77 00       		.byte	0
 2578              		.section	.debug_abbrev,"",%progbits
 2579              	.Ldebug_abbrev0:
 2580 0000 01       		.uleb128 0x1
 2581 0001 11       		.uleb128 0x11
 2582 0002 01       		.byte	0x1
 2583 0003 25       		.uleb128 0x25
 2584 0004 0E       		.uleb128 0xe
 2585 0005 13       		.uleb128 0x13
 2586 0006 0B       		.uleb128 0xb
 2587 0007 03       		.uleb128 0x3
 2588 0008 0E       		.uleb128 0xe
 2589 0009 1B       		.uleb128 0x1b
 2590 000a 0E       		.uleb128 0xe
 2591 000b 55       		.uleb128 0x55
 2592 000c 06       		.uleb128 0x6
 2593 000d 11       		.uleb128 0x11
 2594 000e 01       		.uleb128 0x1
 2595 000f 52       		.uleb128 0x52
 2596 0010 01       		.uleb128 0x1
 2597 0011 10       		.uleb128 0x10
 2598 0012 06       		.uleb128 0x6
 2599 0013 00       		.byte	0
 2600 0014 00       		.byte	0
 2601 0015 02       		.uleb128 0x2
 2602 0016 24       		.uleb128 0x24
 2603 0017 00       		.byte	0
 2604 0018 0B       		.uleb128 0xb
 2605 0019 0B       		.uleb128 0xb
 2606 001a 3E       		.uleb128 0x3e
 2607 001b 0B       		.uleb128 0xb
 2608 001c 03       		.uleb128 0x3
 2609 001d 08       		.uleb128 0x8
 2610 001e 00       		.byte	0
 2611 001f 00       		.byte	0
 2612 0020 03       		.uleb128 0x3
 2613 0021 16       		.uleb128 0x16
 2614 0022 00       		.byte	0
 2615 0023 03       		.uleb128 0x3
 2616 0024 0E       		.uleb128 0xe
 2617 0025 3A       		.uleb128 0x3a
 2618 0026 0B       		.uleb128 0xb
 2619 0027 3B       		.uleb128 0x3b
 2620 0028 0B       		.uleb128 0xb
 2621 0029 49       		.uleb128 0x49
 2622 002a 13       		.uleb128 0x13
 2623 002b 00       		.byte	0
 2624 002c 00       		.byte	0
 2625 002d 04       		.uleb128 0x4
 2626 002e 24       		.uleb128 0x24
 2627 002f 00       		.byte	0
 2628 0030 0B       		.uleb128 0xb
 2629 0031 0B       		.uleb128 0xb
 2630 0032 3E       		.uleb128 0x3e
ARM GAS  /tmp/cchTuLYH.s 			page 76


 2631 0033 0B       		.uleb128 0xb
 2632 0034 03       		.uleb128 0x3
 2633 0035 0E       		.uleb128 0xe
 2634 0036 00       		.byte	0
 2635 0037 00       		.byte	0
 2636 0038 05       		.uleb128 0x5
 2637 0039 13       		.uleb128 0x13
 2638 003a 01       		.byte	0x1
 2639 003b 03       		.uleb128 0x3
 2640 003c 0E       		.uleb128 0xe
 2641 003d 0B       		.uleb128 0xb
 2642 003e 0B       		.uleb128 0xb
 2643 003f 3A       		.uleb128 0x3a
 2644 0040 0B       		.uleb128 0xb
 2645 0041 3B       		.uleb128 0x3b
 2646 0042 0B       		.uleb128 0xb
 2647 0043 01       		.uleb128 0x1
 2648 0044 13       		.uleb128 0x13
 2649 0045 00       		.byte	0
 2650 0046 00       		.byte	0
 2651 0047 06       		.uleb128 0x6
 2652 0048 0D       		.uleb128 0xd
 2653 0049 00       		.byte	0
 2654 004a 03       		.uleb128 0x3
 2655 004b 0E       		.uleb128 0xe
 2656 004c 3A       		.uleb128 0x3a
 2657 004d 0B       		.uleb128 0xb
 2658 004e 3B       		.uleb128 0x3b
 2659 004f 0B       		.uleb128 0xb
 2660 0050 49       		.uleb128 0x49
 2661 0051 13       		.uleb128 0x13
 2662 0052 38       		.uleb128 0x38
 2663 0053 0A       		.uleb128 0xa
 2664 0054 00       		.byte	0
 2665 0055 00       		.byte	0
 2666 0056 07       		.uleb128 0x7
 2667 0057 0D       		.uleb128 0xd
 2668 0058 00       		.byte	0
 2669 0059 03       		.uleb128 0x3
 2670 005a 08       		.uleb128 0x8
 2671 005b 3A       		.uleb128 0x3a
 2672 005c 0B       		.uleb128 0xb
 2673 005d 3B       		.uleb128 0x3b
 2674 005e 05       		.uleb128 0x5
 2675 005f 49       		.uleb128 0x49
 2676 0060 13       		.uleb128 0x13
 2677 0061 38       		.uleb128 0x38
 2678 0062 0A       		.uleb128 0xa
 2679 0063 00       		.byte	0
 2680 0064 00       		.byte	0
 2681 0065 08       		.uleb128 0x8
 2682 0066 0D       		.uleb128 0xd
 2683 0067 00       		.byte	0
 2684 0068 03       		.uleb128 0x3
 2685 0069 0E       		.uleb128 0xe
 2686 006a 3A       		.uleb128 0x3a
 2687 006b 0B       		.uleb128 0xb
ARM GAS  /tmp/cchTuLYH.s 			page 77


 2688 006c 3B       		.uleb128 0x3b
 2689 006d 05       		.uleb128 0x5
 2690 006e 49       		.uleb128 0x49
 2691 006f 13       		.uleb128 0x13
 2692 0070 38       		.uleb128 0x38
 2693 0071 0A       		.uleb128 0xa
 2694 0072 00       		.byte	0
 2695 0073 00       		.byte	0
 2696 0074 09       		.uleb128 0x9
 2697 0075 0F       		.uleb128 0xf
 2698 0076 00       		.byte	0
 2699 0077 0B       		.uleb128 0xb
 2700 0078 0B       		.uleb128 0xb
 2701 0079 49       		.uleb128 0x49
 2702 007a 13       		.uleb128 0x13
 2703 007b 00       		.byte	0
 2704 007c 00       		.byte	0
 2705 007d 0A       		.uleb128 0xa
 2706 007e 13       		.uleb128 0x13
 2707 007f 01       		.byte	0x1
 2708 0080 03       		.uleb128 0x3
 2709 0081 0E       		.uleb128 0xe
 2710 0082 0B       		.uleb128 0xb
 2711 0083 0B       		.uleb128 0xb
 2712 0084 3A       		.uleb128 0x3a
 2713 0085 0B       		.uleb128 0xb
 2714 0086 3B       		.uleb128 0x3b
 2715 0087 05       		.uleb128 0x5
 2716 0088 01       		.uleb128 0x1
 2717 0089 13       		.uleb128 0x13
 2718 008a 00       		.byte	0
 2719 008b 00       		.byte	0
 2720 008c 0B       		.uleb128 0xb
 2721 008d 15       		.uleb128 0x15
 2722 008e 01       		.byte	0x1
 2723 008f 27       		.uleb128 0x27
 2724 0090 0C       		.uleb128 0xc
 2725 0091 01       		.uleb128 0x1
 2726 0092 13       		.uleb128 0x13
 2727 0093 00       		.byte	0
 2728 0094 00       		.byte	0
 2729 0095 0C       		.uleb128 0xc
 2730 0096 05       		.uleb128 0x5
 2731 0097 00       		.byte	0
 2732 0098 49       		.uleb128 0x49
 2733 0099 13       		.uleb128 0x13
 2734 009a 00       		.byte	0
 2735 009b 00       		.byte	0
 2736 009c 0D       		.uleb128 0xd
 2737 009d 0F       		.uleb128 0xf
 2738 009e 00       		.byte	0
 2739 009f 0B       		.uleb128 0xb
 2740 00a0 0B       		.uleb128 0xb
 2741 00a1 00       		.byte	0
 2742 00a2 00       		.byte	0
 2743 00a3 0E       		.uleb128 0xe
 2744 00a4 13       		.uleb128 0x13
ARM GAS  /tmp/cchTuLYH.s 			page 78


 2745 00a5 01       		.byte	0x1
 2746 00a6 03       		.uleb128 0x3
 2747 00a7 0E       		.uleb128 0xe
 2748 00a8 0B       		.uleb128 0xb
 2749 00a9 05       		.uleb128 0x5
 2750 00aa 3A       		.uleb128 0x3a
 2751 00ab 0B       		.uleb128 0xb
 2752 00ac 3B       		.uleb128 0x3b
 2753 00ad 05       		.uleb128 0x5
 2754 00ae 01       		.uleb128 0x1
 2755 00af 13       		.uleb128 0x13
 2756 00b0 00       		.byte	0
 2757 00b1 00       		.byte	0
 2758 00b2 0F       		.uleb128 0xf
 2759 00b3 35       		.uleb128 0x35
 2760 00b4 00       		.byte	0
 2761 00b5 49       		.uleb128 0x49
 2762 00b6 13       		.uleb128 0x13
 2763 00b7 00       		.byte	0
 2764 00b8 00       		.byte	0
 2765 00b9 10       		.uleb128 0x10
 2766 00ba 13       		.uleb128 0x13
 2767 00bb 01       		.byte	0x1
 2768 00bc 0B       		.uleb128 0xb
 2769 00bd 0B       		.uleb128 0xb
 2770 00be 3A       		.uleb128 0x3a
 2771 00bf 0B       		.uleb128 0xb
 2772 00c0 3B       		.uleb128 0x3b
 2773 00c1 05       		.uleb128 0x5
 2774 00c2 01       		.uleb128 0x1
 2775 00c3 13       		.uleb128 0x13
 2776 00c4 00       		.byte	0
 2777 00c5 00       		.byte	0
 2778 00c6 11       		.uleb128 0x11
 2779 00c7 16       		.uleb128 0x16
 2780 00c8 00       		.byte	0
 2781 00c9 03       		.uleb128 0x3
 2782 00ca 0E       		.uleb128 0xe
 2783 00cb 3A       		.uleb128 0x3a
 2784 00cc 0B       		.uleb128 0xb
 2785 00cd 3B       		.uleb128 0x3b
 2786 00ce 05       		.uleb128 0x5
 2787 00cf 49       		.uleb128 0x49
 2788 00d0 13       		.uleb128 0x13
 2789 00d1 00       		.byte	0
 2790 00d2 00       		.byte	0
 2791 00d3 12       		.uleb128 0x12
 2792 00d4 0D       		.uleb128 0xd
 2793 00d5 00       		.byte	0
 2794 00d6 03       		.uleb128 0x3
 2795 00d7 08       		.uleb128 0x8
 2796 00d8 3A       		.uleb128 0x3a
 2797 00d9 0B       		.uleb128 0xb
 2798 00da 3B       		.uleb128 0x3b
 2799 00db 0B       		.uleb128 0xb
 2800 00dc 49       		.uleb128 0x49
 2801 00dd 13       		.uleb128 0x13
ARM GAS  /tmp/cchTuLYH.s 			page 79


 2802 00de 38       		.uleb128 0x38
 2803 00df 0A       		.uleb128 0xa
 2804 00e0 00       		.byte	0
 2805 00e1 00       		.byte	0
 2806 00e2 13       		.uleb128 0x13
 2807 00e3 13       		.uleb128 0x13
 2808 00e4 01       		.byte	0x1
 2809 00e5 0B       		.uleb128 0xb
 2810 00e6 0B       		.uleb128 0xb
 2811 00e7 3A       		.uleb128 0x3a
 2812 00e8 0B       		.uleb128 0xb
 2813 00e9 3B       		.uleb128 0x3b
 2814 00ea 0B       		.uleb128 0xb
 2815 00eb 01       		.uleb128 0x1
 2816 00ec 13       		.uleb128 0x13
 2817 00ed 00       		.byte	0
 2818 00ee 00       		.byte	0
 2819 00ef 14       		.uleb128 0x14
 2820 00f0 17       		.uleb128 0x17
 2821 00f1 01       		.byte	0x1
 2822 00f2 0B       		.uleb128 0xb
 2823 00f3 0B       		.uleb128 0xb
 2824 00f4 3A       		.uleb128 0x3a
 2825 00f5 0B       		.uleb128 0xb
 2826 00f6 3B       		.uleb128 0x3b
 2827 00f7 0B       		.uleb128 0xb
 2828 00f8 01       		.uleb128 0x1
 2829 00f9 13       		.uleb128 0x13
 2830 00fa 00       		.byte	0
 2831 00fb 00       		.byte	0
 2832 00fc 15       		.uleb128 0x15
 2833 00fd 0D       		.uleb128 0xd
 2834 00fe 00       		.byte	0
 2835 00ff 03       		.uleb128 0x3
 2836 0100 0E       		.uleb128 0xe
 2837 0101 3A       		.uleb128 0x3a
 2838 0102 0B       		.uleb128 0xb
 2839 0103 3B       		.uleb128 0x3b
 2840 0104 05       		.uleb128 0x5
 2841 0105 49       		.uleb128 0x49
 2842 0106 13       		.uleb128 0x13
 2843 0107 00       		.byte	0
 2844 0108 00       		.byte	0
 2845 0109 16       		.uleb128 0x16
 2846 010a 26       		.uleb128 0x26
 2847 010b 00       		.byte	0
 2848 010c 49       		.uleb128 0x49
 2849 010d 13       		.uleb128 0x13
 2850 010e 00       		.byte	0
 2851 010f 00       		.byte	0
 2852 0110 17       		.uleb128 0x17
 2853 0111 01       		.uleb128 0x1
 2854 0112 01       		.byte	0x1
 2855 0113 49       		.uleb128 0x49
 2856 0114 13       		.uleb128 0x13
 2857 0115 01       		.uleb128 0x1
 2858 0116 13       		.uleb128 0x13
ARM GAS  /tmp/cchTuLYH.s 			page 80


 2859 0117 00       		.byte	0
 2860 0118 00       		.byte	0
 2861 0119 18       		.uleb128 0x18
 2862 011a 21       		.uleb128 0x21
 2863 011b 00       		.byte	0
 2864 011c 49       		.uleb128 0x49
 2865 011d 13       		.uleb128 0x13
 2866 011e 2F       		.uleb128 0x2f
 2867 011f 0B       		.uleb128 0xb
 2868 0120 00       		.byte	0
 2869 0121 00       		.byte	0
 2870 0122 19       		.uleb128 0x19
 2871 0123 15       		.uleb128 0x15
 2872 0124 01       		.byte	0x1
 2873 0125 27       		.uleb128 0x27
 2874 0126 0C       		.uleb128 0xc
 2875 0127 49       		.uleb128 0x49
 2876 0128 13       		.uleb128 0x13
 2877 0129 01       		.uleb128 0x1
 2878 012a 13       		.uleb128 0x13
 2879 012b 00       		.byte	0
 2880 012c 00       		.byte	0
 2881 012d 1A       		.uleb128 0x1a
 2882 012e 0D       		.uleb128 0xd
 2883 012f 00       		.byte	0
 2884 0130 03       		.uleb128 0x3
 2885 0131 08       		.uleb128 0x8
 2886 0132 3A       		.uleb128 0x3a
 2887 0133 0B       		.uleb128 0xb
 2888 0134 3B       		.uleb128 0x3b
 2889 0135 0B       		.uleb128 0xb
 2890 0136 49       		.uleb128 0x49
 2891 0137 13       		.uleb128 0x13
 2892 0138 00       		.byte	0
 2893 0139 00       		.byte	0
 2894 013a 1B       		.uleb128 0x1b
 2895 013b 04       		.uleb128 0x4
 2896 013c 01       		.byte	0x1
 2897 013d 0B       		.uleb128 0xb
 2898 013e 0B       		.uleb128 0xb
 2899 013f 3A       		.uleb128 0x3a
 2900 0140 0B       		.uleb128 0xb
 2901 0141 3B       		.uleb128 0x3b
 2902 0142 0B       		.uleb128 0xb
 2903 0143 01       		.uleb128 0x1
 2904 0144 13       		.uleb128 0x13
 2905 0145 00       		.byte	0
 2906 0146 00       		.byte	0
 2907 0147 1C       		.uleb128 0x1c
 2908 0148 28       		.uleb128 0x28
 2909 0149 00       		.byte	0
 2910 014a 03       		.uleb128 0x3
 2911 014b 0E       		.uleb128 0xe
 2912 014c 1C       		.uleb128 0x1c
 2913 014d 0D       		.uleb128 0xd
 2914 014e 00       		.byte	0
 2915 014f 00       		.byte	0
ARM GAS  /tmp/cchTuLYH.s 			page 81


 2916 0150 1D       		.uleb128 0x1d
 2917 0151 2E       		.uleb128 0x2e
 2918 0152 01       		.byte	0x1
 2919 0153 03       		.uleb128 0x3
 2920 0154 0E       		.uleb128 0xe
 2921 0155 3A       		.uleb128 0x3a
 2922 0156 0B       		.uleb128 0xb
 2923 0157 3B       		.uleb128 0x3b
 2924 0158 0B       		.uleb128 0xb
 2925 0159 27       		.uleb128 0x27
 2926 015a 0C       		.uleb128 0xc
 2927 015b 20       		.uleb128 0x20
 2928 015c 0B       		.uleb128 0xb
 2929 015d 01       		.uleb128 0x1
 2930 015e 13       		.uleb128 0x13
 2931 015f 00       		.byte	0
 2932 0160 00       		.byte	0
 2933 0161 1E       		.uleb128 0x1e
 2934 0162 05       		.uleb128 0x5
 2935 0163 00       		.byte	0
 2936 0164 03       		.uleb128 0x3
 2937 0165 0E       		.uleb128 0xe
 2938 0166 3A       		.uleb128 0x3a
 2939 0167 0B       		.uleb128 0xb
 2940 0168 3B       		.uleb128 0x3b
 2941 0169 0B       		.uleb128 0xb
 2942 016a 49       		.uleb128 0x49
 2943 016b 13       		.uleb128 0x13
 2944 016c 00       		.byte	0
 2945 016d 00       		.byte	0
 2946 016e 1F       		.uleb128 0x1f
 2947 016f 2E       		.uleb128 0x2e
 2948 0170 01       		.byte	0x1
 2949 0171 03       		.uleb128 0x3
 2950 0172 0E       		.uleb128 0xe
 2951 0173 3A       		.uleb128 0x3a
 2952 0174 0B       		.uleb128 0xb
 2953 0175 3B       		.uleb128 0x3b
 2954 0176 0B       		.uleb128 0xb
 2955 0177 27       		.uleb128 0x27
 2956 0178 0C       		.uleb128 0xc
 2957 0179 11       		.uleb128 0x11
 2958 017a 01       		.uleb128 0x1
 2959 017b 12       		.uleb128 0x12
 2960 017c 01       		.uleb128 0x1
 2961 017d 40       		.uleb128 0x40
 2962 017e 06       		.uleb128 0x6
 2963 017f 9742     		.uleb128 0x2117
 2964 0181 0C       		.uleb128 0xc
 2965 0182 01       		.uleb128 0x1
 2966 0183 13       		.uleb128 0x13
 2967 0184 00       		.byte	0
 2968 0185 00       		.byte	0
 2969 0186 20       		.uleb128 0x20
 2970 0187 05       		.uleb128 0x5
 2971 0188 00       		.byte	0
 2972 0189 03       		.uleb128 0x3
ARM GAS  /tmp/cchTuLYH.s 			page 82


 2973 018a 08       		.uleb128 0x8
 2974 018b 3A       		.uleb128 0x3a
 2975 018c 0B       		.uleb128 0xb
 2976 018d 3B       		.uleb128 0x3b
 2977 018e 0B       		.uleb128 0xb
 2978 018f 49       		.uleb128 0x49
 2979 0190 13       		.uleb128 0x13
 2980 0191 02       		.uleb128 0x2
 2981 0192 06       		.uleb128 0x6
 2982 0193 00       		.byte	0
 2983 0194 00       		.byte	0
 2984 0195 21       		.uleb128 0x21
 2985 0196 1D       		.uleb128 0x1d
 2986 0197 01       		.byte	0x1
 2987 0198 31       		.uleb128 0x31
 2988 0199 13       		.uleb128 0x13
 2989 019a 52       		.uleb128 0x52
 2990 019b 01       		.uleb128 0x1
 2991 019c 55       		.uleb128 0x55
 2992 019d 06       		.uleb128 0x6
 2993 019e 58       		.uleb128 0x58
 2994 019f 0B       		.uleb128 0xb
 2995 01a0 59       		.uleb128 0x59
 2996 01a1 0B       		.uleb128 0xb
 2997 01a2 01       		.uleb128 0x1
 2998 01a3 13       		.uleb128 0x13
 2999 01a4 00       		.byte	0
 3000 01a5 00       		.byte	0
 3001 01a6 22       		.uleb128 0x22
 3002 01a7 05       		.uleb128 0x5
 3003 01a8 00       		.byte	0
 3004 01a9 31       		.uleb128 0x31
 3005 01aa 13       		.uleb128 0x13
 3006 01ab 02       		.uleb128 0x2
 3007 01ac 0A       		.uleb128 0xa
 3008 01ad 00       		.byte	0
 3009 01ae 00       		.byte	0
 3010 01af 23       		.uleb128 0x23
 3011 01b0 898201   		.uleb128 0x4109
 3012 01b3 01       		.byte	0x1
 3013 01b4 11       		.uleb128 0x11
 3014 01b5 01       		.uleb128 0x1
 3015 01b6 31       		.uleb128 0x31
 3016 01b7 13       		.uleb128 0x13
 3017 01b8 01       		.uleb128 0x1
 3018 01b9 13       		.uleb128 0x13
 3019 01ba 00       		.byte	0
 3020 01bb 00       		.byte	0
 3021 01bc 24       		.uleb128 0x24
 3022 01bd 8A8201   		.uleb128 0x410a
 3023 01c0 00       		.byte	0
 3024 01c1 02       		.uleb128 0x2
 3025 01c2 0A       		.uleb128 0xa
 3026 01c3 9142     		.uleb128 0x2111
 3027 01c5 0A       		.uleb128 0xa
 3028 01c6 00       		.byte	0
 3029 01c7 00       		.byte	0
ARM GAS  /tmp/cchTuLYH.s 			page 83


 3030 01c8 25       		.uleb128 0x25
 3031 01c9 898201   		.uleb128 0x4109
 3032 01cc 01       		.byte	0x1
 3033 01cd 11       		.uleb128 0x11
 3034 01ce 01       		.uleb128 0x1
 3035 01cf 31       		.uleb128 0x31
 3036 01d0 13       		.uleb128 0x13
 3037 01d1 00       		.byte	0
 3038 01d2 00       		.byte	0
 3039 01d3 26       		.uleb128 0x26
 3040 01d4 2E       		.uleb128 0x2e
 3041 01d5 01       		.byte	0x1
 3042 01d6 3F       		.uleb128 0x3f
 3043 01d7 0C       		.uleb128 0xc
 3044 01d8 03       		.uleb128 0x3
 3045 01d9 0E       		.uleb128 0xe
 3046 01da 3A       		.uleb128 0x3a
 3047 01db 0B       		.uleb128 0xb
 3048 01dc 3B       		.uleb128 0x3b
 3049 01dd 0B       		.uleb128 0xb
 3050 01de 27       		.uleb128 0x27
 3051 01df 0C       		.uleb128 0xc
 3052 01e0 49       		.uleb128 0x49
 3053 01e1 13       		.uleb128 0x13
 3054 01e2 11       		.uleb128 0x11
 3055 01e3 01       		.uleb128 0x1
 3056 01e4 12       		.uleb128 0x12
 3057 01e5 01       		.uleb128 0x1
 3058 01e6 40       		.uleb128 0x40
 3059 01e7 06       		.uleb128 0x6
 3060 01e8 9742     		.uleb128 0x2117
 3061 01ea 0C       		.uleb128 0xc
 3062 01eb 01       		.uleb128 0x1
 3063 01ec 13       		.uleb128 0x13
 3064 01ed 00       		.byte	0
 3065 01ee 00       		.byte	0
 3066 01ef 27       		.uleb128 0x27
 3067 01f0 898201   		.uleb128 0x4109
 3068 01f3 00       		.byte	0
 3069 01f4 11       		.uleb128 0x11
 3070 01f5 01       		.uleb128 0x1
 3071 01f6 31       		.uleb128 0x31
 3072 01f7 13       		.uleb128 0x13
 3073 01f8 00       		.byte	0
 3074 01f9 00       		.byte	0
 3075 01fa 28       		.uleb128 0x28
 3076 01fb 34       		.uleb128 0x34
 3077 01fc 00       		.byte	0
 3078 01fd 03       		.uleb128 0x3
 3079 01fe 0E       		.uleb128 0xe
 3080 01ff 3A       		.uleb128 0x3a
 3081 0200 0B       		.uleb128 0xb
 3082 0201 3B       		.uleb128 0x3b
 3083 0202 0B       		.uleb128 0xb
 3084 0203 49       		.uleb128 0x49
 3085 0204 13       		.uleb128 0x13
 3086 0205 02       		.uleb128 0x2
ARM GAS  /tmp/cchTuLYH.s 			page 84


 3087 0206 0A       		.uleb128 0xa
 3088 0207 00       		.byte	0
 3089 0208 00       		.byte	0
 3090 0209 29       		.uleb128 0x29
 3091 020a 34       		.uleb128 0x34
 3092 020b 00       		.byte	0
 3093 020c 03       		.uleb128 0x3
 3094 020d 0E       		.uleb128 0xe
 3095 020e 3A       		.uleb128 0x3a
 3096 020f 0B       		.uleb128 0xb
 3097 0210 3B       		.uleb128 0x3b
 3098 0211 05       		.uleb128 0x5
 3099 0212 49       		.uleb128 0x49
 3100 0213 13       		.uleb128 0x13
 3101 0214 3F       		.uleb128 0x3f
 3102 0215 0C       		.uleb128 0xc
 3103 0216 3C       		.uleb128 0x3c
 3104 0217 0C       		.uleb128 0xc
 3105 0218 00       		.byte	0
 3106 0219 00       		.byte	0
 3107 021a 2A       		.uleb128 0x2a
 3108 021b 34       		.uleb128 0x34
 3109 021c 00       		.byte	0
 3110 021d 03       		.uleb128 0x3
 3111 021e 08       		.uleb128 0x8
 3112 021f 3A       		.uleb128 0x3a
 3113 0220 0B       		.uleb128 0xb
 3114 0221 3B       		.uleb128 0x3b
 3115 0222 05       		.uleb128 0x5
 3116 0223 49       		.uleb128 0x49
 3117 0224 13       		.uleb128 0x13
 3118 0225 3F       		.uleb128 0x3f
 3119 0226 0C       		.uleb128 0xc
 3120 0227 3C       		.uleb128 0x3c
 3121 0228 0C       		.uleb128 0xc
 3122 0229 00       		.byte	0
 3123 022a 00       		.byte	0
 3124 022b 2B       		.uleb128 0x2b
 3125 022c 2E       		.uleb128 0x2e
 3126 022d 01       		.byte	0x1
 3127 022e 3F       		.uleb128 0x3f
 3128 022f 0C       		.uleb128 0xc
 3129 0230 03       		.uleb128 0x3
 3130 0231 0E       		.uleb128 0xe
 3131 0232 3A       		.uleb128 0x3a
 3132 0233 0B       		.uleb128 0xb
 3133 0234 3B       		.uleb128 0x3b
 3134 0235 0B       		.uleb128 0xb
 3135 0236 27       		.uleb128 0x27
 3136 0237 0C       		.uleb128 0xc
 3137 0238 3C       		.uleb128 0x3c
 3138 0239 0C       		.uleb128 0xc
 3139 023a 01       		.uleb128 0x1
 3140 023b 13       		.uleb128 0x13
 3141 023c 00       		.byte	0
 3142 023d 00       		.byte	0
 3143 023e 2C       		.uleb128 0x2c
ARM GAS  /tmp/cchTuLYH.s 			page 85


 3144 023f 2E       		.uleb128 0x2e
 3145 0240 00       		.byte	0
 3146 0241 3F       		.uleb128 0x3f
 3147 0242 0C       		.uleb128 0xc
 3148 0243 03       		.uleb128 0x3
 3149 0244 0E       		.uleb128 0xe
 3150 0245 3A       		.uleb128 0x3a
 3151 0246 0B       		.uleb128 0xb
 3152 0247 3B       		.uleb128 0x3b
 3153 0248 0B       		.uleb128 0xb
 3154 0249 27       		.uleb128 0x27
 3155 024a 0C       		.uleb128 0xc
 3156 024b 3C       		.uleb128 0x3c
 3157 024c 0C       		.uleb128 0xc
 3158 024d 00       		.byte	0
 3159 024e 00       		.byte	0
 3160 024f 2D       		.uleb128 0x2d
 3161 0250 2E       		.uleb128 0x2e
 3162 0251 00       		.byte	0
 3163 0252 3F       		.uleb128 0x3f
 3164 0253 0C       		.uleb128 0xc
 3165 0254 03       		.uleb128 0x3
 3166 0255 0E       		.uleb128 0xe
 3167 0256 3A       		.uleb128 0x3a
 3168 0257 0B       		.uleb128 0xb
 3169 0258 3B       		.uleb128 0x3b
 3170 0259 05       		.uleb128 0x5
 3171 025a 27       		.uleb128 0x27
 3172 025b 0C       		.uleb128 0xc
 3173 025c 3C       		.uleb128 0x3c
 3174 025d 0C       		.uleb128 0xc
 3175 025e 00       		.byte	0
 3176 025f 00       		.byte	0
 3177 0260 2E       		.uleb128 0x2e
 3178 0261 2E       		.uleb128 0x2e
 3179 0262 01       		.byte	0x1
 3180 0263 3F       		.uleb128 0x3f
 3181 0264 0C       		.uleb128 0xc
 3182 0265 03       		.uleb128 0x3
 3183 0266 0E       		.uleb128 0xe
 3184 0267 3A       		.uleb128 0x3a
 3185 0268 0B       		.uleb128 0xb
 3186 0269 3B       		.uleb128 0x3b
 3187 026a 05       		.uleb128 0x5
 3188 026b 27       		.uleb128 0x27
 3189 026c 0C       		.uleb128 0xc
 3190 026d 3C       		.uleb128 0x3c
 3191 026e 0C       		.uleb128 0xc
 3192 026f 01       		.uleb128 0x1
 3193 0270 13       		.uleb128 0x13
 3194 0271 00       		.byte	0
 3195 0272 00       		.byte	0
 3196 0273 2F       		.uleb128 0x2f
 3197 0274 2E       		.uleb128 0x2e
 3198 0275 01       		.byte	0x1
 3199 0276 3F       		.uleb128 0x3f
 3200 0277 0C       		.uleb128 0xc
ARM GAS  /tmp/cchTuLYH.s 			page 86


 3201 0278 03       		.uleb128 0x3
 3202 0279 0E       		.uleb128 0xe
 3203 027a 3A       		.uleb128 0x3a
 3204 027b 0B       		.uleb128 0xb
 3205 027c 3B       		.uleb128 0x3b
 3206 027d 0B       		.uleb128 0xb
 3207 027e 27       		.uleb128 0x27
 3208 027f 0C       		.uleb128 0xc
 3209 0280 49       		.uleb128 0x49
 3210 0281 13       		.uleb128 0x13
 3211 0282 3C       		.uleb128 0x3c
 3212 0283 0C       		.uleb128 0xc
 3213 0284 01       		.uleb128 0x1
 3214 0285 13       		.uleb128 0x13
 3215 0286 00       		.byte	0
 3216 0287 00       		.byte	0
 3217 0288 30       		.uleb128 0x30
 3218 0289 2E       		.uleb128 0x2e
 3219 028a 01       		.byte	0x1
 3220 028b 3F       		.uleb128 0x3f
 3221 028c 0C       		.uleb128 0xc
 3222 028d 03       		.uleb128 0x3
 3223 028e 0E       		.uleb128 0xe
 3224 028f 3A       		.uleb128 0x3a
 3225 0290 0B       		.uleb128 0xb
 3226 0291 3B       		.uleb128 0x3b
 3227 0292 0B       		.uleb128 0xb
 3228 0293 27       		.uleb128 0x27
 3229 0294 0C       		.uleb128 0xc
 3230 0295 3C       		.uleb128 0x3c
 3231 0296 0C       		.uleb128 0xc
 3232 0297 00       		.byte	0
 3233 0298 00       		.byte	0
 3234 0299 00       		.byte	0
 3235              		.section	.debug_loc,"",%progbits
 3236              	.Ldebug_loc0:
 3237              	.LLST0:
 3238 0000 00000000 		.4byte	.LFB272
 3239 0004 08000000 		.4byte	.LCFI0
 3240 0008 0200     		.2byte	0x2
 3241 000a 7D       		.byte	0x7d
 3242 000b 00       		.sleb128 0
 3243 000c 08000000 		.4byte	.LCFI0
 3244 0010 38000000 		.4byte	.LFE272
 3245 0014 0200     		.2byte	0x2
 3246 0016 7D       		.byte	0x7d
 3247 0017 10       		.sleb128 16
 3248 0018 00000000 		.4byte	0
 3249 001c 00000000 		.4byte	0
 3250              	.LLST1:
 3251 0020 00000000 		.4byte	.LVL0
 3252 0024 18000000 		.4byte	.LVL1
 3253 0028 0100     		.2byte	0x1
 3254 002a 50       		.byte	0x50
 3255 002b 18000000 		.4byte	.LVL1
 3256 002f 38000000 		.4byte	.LFE272
 3257 0033 0400     		.2byte	0x4
ARM GAS  /tmp/cchTuLYH.s 			page 87


 3258 0035 F3       		.byte	0xf3
 3259 0036 01       		.uleb128 0x1
 3260 0037 50       		.byte	0x50
 3261 0038 9F       		.byte	0x9f
 3262 0039 00000000 		.4byte	0
 3263 003d 00000000 		.4byte	0
 3264              	.LLST2:
 3265 0041 00000000 		.4byte	.LFB273
 3266 0045 02000000 		.4byte	.LCFI1
 3267 0049 0200     		.2byte	0x2
 3268 004b 7D       		.byte	0x7d
 3269 004c 00       		.sleb128 0
 3270 004d 02000000 		.4byte	.LCFI1
 3271 0051 04000000 		.4byte	.LCFI2
 3272 0055 0200     		.2byte	0x2
 3273 0057 7D       		.byte	0x7d
 3274 0058 08       		.sleb128 8
 3275 0059 04000000 		.4byte	.LCFI2
 3276 005d 54000000 		.4byte	.LFE273
 3277 0061 0200     		.2byte	0x2
 3278 0063 7D       		.byte	0x7d
 3279 0064 10       		.sleb128 16
 3280 0065 00000000 		.4byte	0
 3281 0069 00000000 		.4byte	0
 3282              		.section	.debug_aranges,"",%progbits
 3283 0000 24000000 		.4byte	0x24
 3284 0004 0200     		.2byte	0x2
 3285 0006 00000000 		.4byte	.Ldebug_info0
 3286 000a 04       		.byte	0x4
 3287 000b 00       		.byte	0
 3288 000c 0000     		.2byte	0
 3289 000e 0000     		.2byte	0
 3290 0010 00000000 		.4byte	.LFB272
 3291 0014 38000000 		.4byte	.LFE272-.LFB272
 3292 0018 00000000 		.4byte	.LFB273
 3293 001c 54000000 		.4byte	.LFE273-.LFB273
 3294 0020 00000000 		.4byte	0
 3295 0024 00000000 		.4byte	0
 3296              		.section	.debug_ranges,"",%progbits
 3297              	.Ldebug_ranges0:
 3298 0000 00000000 		.4byte	.LBB4
 3299 0004 06000000 		.4byte	.LBE4
 3300 0008 10000000 		.4byte	.LBB7
 3301 000c 12000000 		.4byte	.LBE7
 3302 0010 00000000 		.4byte	0
 3303 0014 00000000 		.4byte	0
 3304 0018 00000000 		.4byte	.LFB272
 3305 001c 38000000 		.4byte	.LFE272
 3306 0020 00000000 		.4byte	.LFB273
 3307 0024 54000000 		.4byte	.LFE273
 3308 0028 00000000 		.4byte	0
 3309 002c 00000000 		.4byte	0
 3310              		.section	.debug_line,"",%progbits
 3311              	.Ldebug_line0:
 3312 0000 38030000 		.section	.debug_str,"MS",%progbits,1
 3312      0200D702 
 3312      00000201 
ARM GAS  /tmp/cchTuLYH.s 			page 88


 3312      FB0E0D00 
 3312      01010101 
 3313              	.LASF104:
 3314 0000 7466756E 		.ascii	"tfunc_t\000"
 3314      635F7400 
 3315              	.LASF49:
 3316 0008 72656164 		.ascii	"ready_list_t\000"
 3316      795F6C69 
 3316      73745F74 
 3316      00
 3317              	.LASF2:
 3318 0015 73697A65 		.ascii	"size_t\000"
 3318      5F7400
 3319              	.LASF89:
 3320 001c 7264796D 		.ascii	"rdymsg\000"
 3320      736700
 3321              	.LASF13:
 3322 0023 75696E74 		.ascii	"uint64_t\000"
 3322      36345F74 
 3322      00
 3323              	.LASF132:
 3324 002c 4F545950 		.ascii	"OTYPER\000"
 3324      455200
 3325              	.LASF86:
 3326 0033 706F7274 		.ascii	"port_intctx\000"
 3326      5F696E74 
 3326      63747800 
 3327              	.LASF68:
 3328 003f 73797374 		.ascii	"system_debug_t\000"
 3328      656D5F64 
 3328      65627567 
 3328      5F7400
 3329              	.LASF140:
 3330 004e 696F706F 		.ascii	"ioportmask_t\000"
 3330      72746D61 
 3330      736B5F74 
 3330      00
 3331              	.LASF131:
 3332 005b 4D4F4445 		.ascii	"MODER\000"
 3332      5200
 3333              	.LASF14:
 3334 0061 6C6F6E67 		.ascii	"long long unsigned int\000"
 3334      206C6F6E 
 3334      6720756E 
 3334      7369676E 
 3334      65642069 
 3335              	.LASF134:
 3336 0078 50555044 		.ascii	"PUPDR\000"
 3336      5200
 3337              	.LASF90:
 3338 007e 65786974 		.ascii	"exitcode\000"
 3338      636F6465 
 3338      00
 3339              	.LASF75:
 3340 0087 6D61696E 		.ascii	"mainthread\000"
 3340      74687265 
 3340      616400
ARM GAS  /tmp/cchTuLYH.s 			page 89


 3341              	.LASF65:
 3342 0092 76697274 		.ascii	"virtual_timers_list_t\000"
 3342      75616C5F 
 3342      74696D65 
 3342      72735F6C 
 3342      6973745F 
 3343              	.LASF161:
 3344 00a8 49544D5F 		.ascii	"ITM_RxBuffer\000"
 3344      52784275 
 3344      66666572 
 3344      00
 3345              	.LASF116:
 3346 00b5 696F5F71 		.ascii	"io_queue_t\000"
 3346      75657565 
 3346      5F7400
 3347              	.LASF48:
 3348 00c0 63685F74 		.ascii	"ch_threads_queue\000"
 3348      68726561 
 3348      64735F71 
 3348      75657565 
 3348      00
 3349              	.LASF28:
 3350 00d1 705F7072 		.ascii	"p_prio\000"
 3350      696F00
 3351              	.LASF160:
 3352 00d8 72656164 		.ascii	"readt\000"
 3352      7400
 3353              	.LASF118:
 3354 00de 715F7761 		.ascii	"q_waiting\000"
 3354      6974696E 
 3354      6700
 3355              	.LASF12:
 3356 00e8 6C6F6E67 		.ascii	"long long int\000"
 3356      206C6F6E 
 3356      6720696E 
 3356      7400
 3357              	.LASF1:
 3358 00f6 7369676E 		.ascii	"signed char\000"
 3358      65642063 
 3358      68617200 
 3359              	.LASF135:
 3360 0102 42535252 		.ascii	"BSRR\000"
 3360      00
 3361              	.LASF163:
 3362 0107 63685379 		.ascii	"chSysInit\000"
 3362      73496E69 
 3362      7400
 3363              	.LASF78:
 3364 0111 47545052 		.ascii	"GTPR\000"
 3364      00
 3365              	.LASF42:
 3366 0116 705F6D70 		.ascii	"p_mpool\000"
 3366      6F6F6C00 
 3367              	.LASF100:
 3368 011e 6D5F7175 		.ascii	"m_queue\000"
 3368      65756500 
 3369              	.LASF74:
ARM GAS  /tmp/cchTuLYH.s 			page 90


 3370 0126 76746C69 		.ascii	"vtlist\000"
 3370      737400
 3371              	.LASF147:
 3372 012d 73746174 		.ascii	"state\000"
 3372      6500
 3373              	.LASF72:
 3374 0133 63685F73 		.ascii	"ch_system\000"
 3374      79737465 
 3374      6D00
 3375              	.LASF9:
 3376 013d 6C6F6E67 		.ascii	"long int\000"
 3376      20696E74 
 3376      00
 3377              	.LASF17:
 3378 0146 74737461 		.ascii	"tstate_t\000"
 3378      74655F74 
 3378      00
 3379              	.LASF35:
 3380 014f 705F7265 		.ascii	"p_refs\000"
 3380      667300
 3381              	.LASF120:
 3382 0156 715F6275 		.ascii	"q_buffer\000"
 3382      66666572 
 3382      00
 3383              	.LASF122:
 3384 015f 715F7772 		.ascii	"q_wrptr\000"
 3384      70747200 
 3385              	.LASF125:
 3386 0167 715F6C69 		.ascii	"q_link\000"
 3386      6E6B00
 3387              	.LASF30:
 3388 016e 705F6E65 		.ascii	"p_newer\000"
 3388      77657200 
 3389              	.LASF97:
 3390 0176 735F7175 		.ascii	"s_queue\000"
 3390      65756500 
 3391              	.LASF133:
 3392 017e 4F535045 		.ascii	"OSPEEDR\000"
 3392      45445200 
 3393              	.LASF54:
 3394 0186 725F6E65 		.ascii	"r_newer\000"
 3394      77657200 
 3395              	.LASF83:
 3396 018e 72656761 		.ascii	"regarm_t\000"
 3396      726D5F74 
 3396      00
 3397              	.LASF61:
 3398 0197 76745F70 		.ascii	"vt_prev\000"
 3398      72657600 
 3399              	.LASF87:
 3400 019f 6F666673 		.ascii	"offset\000"
 3400      657400
 3401              	.LASF139:
 3402 01a6 73746D33 		.ascii	"stm32_gpio_t\000"
 3402      325F6770 
 3402      696F5F74 
 3402      00
ARM GAS  /tmp/cchTuLYH.s 			page 91


 3403              	.LASF105:
 3404 01b3 6D757465 		.ascii	"mutex_t\000"
 3404      785F7400 
 3405              	.LASF117:
 3406 01bb 696F5F71 		.ascii	"io_queue\000"
 3406      75657565 
 3406      00
 3407              	.LASF115:
 3408 01c4 6576656E 		.ascii	"event_source_t\000"
 3408      745F736F 
 3408      75726365 
 3408      5F7400
 3409              	.LASF76:
 3410 01d3 69646C65 		.ascii	"idle_thread_wa\000"
 3410      5F746872 
 3410      6561645F 
 3410      776100
 3411              	.LASF23:
 3412 01e2 636E745F 		.ascii	"cnt_t\000"
 3412      7400
 3413              	.LASF150:
 3414 01e8 75736172 		.ascii	"usart\000"
 3414      7400
 3415              	.LASF0:
 3416 01ee 756E7369 		.ascii	"unsigned int\000"
 3416      676E6564 
 3416      20696E74 
 3416      00
 3417              	.LASF60:
 3418 01fb 76745F6E 		.ascii	"vt_next\000"
 3418      65787400 
 3419              	.LASF6:
 3420 0203 75696E74 		.ascii	"uint16_t\000"
 3420      31365F74 
 3420      00
 3421              	.LASF154:
 3422 020c 53657269 		.ascii	"SerialDriverVMT\000"
 3422      616C4472 
 3422      69766572 
 3422      564D5400 
 3423              	.LASF93:
 3424 021c 77747365 		.ascii	"wtsemp\000"
 3424      6D7000
 3425              	.LASF148:
 3426 0223 69717565 		.ascii	"iqueue\000"
 3426      756500
 3427              	.LASF37:
 3428 022a 705F6D73 		.ascii	"p_msgqueue\000"
 3428      67717565 
 3428      756500
 3429              	.LASF162:
 3430 0235 68616C49 		.ascii	"halInit\000"
 3430      6E697400 
 3431              	.LASF158:
 3432 023d 67657474 		.ascii	"gett\000"
 3432      00
 3433              	.LASF170:
ARM GAS  /tmp/cchTuLYH.s 			page 92


 3434 0242 6E616D65 		.ascii	"name\000"
 3434      00
 3435              	.LASF98:
 3436 0247 735F636E 		.ascii	"s_cnt\000"
 3436      7400
 3437              	.LASF146:
 3438 024d 6576656E 		.ascii	"event\000"
 3438      7400
 3439              	.LASF7:
 3440 0253 73686F72 		.ascii	"short unsigned int\000"
 3440      7420756E 
 3440      7369676E 
 3440      65642069 
 3440      6E7400
 3441              	.LASF168:
 3442 0266 2F686F6D 		.ascii	"/home/sylvain/Documents/TelecomRobotics/ChibiOS_16."
 3442      652F7379 
 3442      6C766169 
 3442      6E2F446F 
 3442      63756D65 
 3443 0299 312E372F 		.ascii	"1.7/demos/STM32/RT-STM32F302R8-NUCLEO\000"
 3443      64656D6F 
 3443      732F5354 
 3443      4D33322F 
 3443      52542D53 
 3444              	.LASF45:
 3445 02bf 63685F74 		.ascii	"ch_thread\000"
 3445      68726561 
 3445      6400
 3446              	.LASF112:
 3447 02c9 656C5F77 		.ascii	"el_wflags\000"
 3447      666C6167 
 3447      7300
 3448              	.LASF20:
 3449 02d3 6D73675F 		.ascii	"msg_t\000"
 3449      7400
 3450              	.LASF149:
 3451 02d9 6F717565 		.ascii	"oqueue\000"
 3451      756500
 3452              	.LASF108:
 3453 02e0 656C5F6E 		.ascii	"el_next\000"
 3453      65787400 
 3454              	.LASF71:
 3455 02e8 63685F73 		.ascii	"ch_system_t\000"
 3455      79737465 
 3455      6D5F7400 
 3456              	.LASF82:
 3457 02f4 55534152 		.ascii	"USART_TypeDef\000"
 3457      545F5479 
 3457      70654465 
 3457      6600
 3458              	.LASF159:
 3459 0302 77726974 		.ascii	"writet\000"
 3459      657400
 3460              	.LASF16:
 3461 0309 746D6F64 		.ascii	"tmode_t\000"
 3461      655F7400 
ARM GAS  /tmp/cchTuLYH.s 			page 93


 3462              	.LASF50:
 3463 0311 63685F72 		.ascii	"ch_ready_list\000"
 3463      65616479 
 3463      5F6C6973 
 3463      7400
 3464              	.LASF21:
 3465 031f 6576656E 		.ascii	"eventmask_t\000"
 3465      746D6173 
 3465      6B5F7400 
 3466              	.LASF152:
 3467 032b 73706565 		.ascii	"speed\000"
 3467      6400
 3468              	.LASF126:
 3469 0331 716E6F74 		.ascii	"qnotify_t\000"
 3469      6966795F 
 3469      7400
 3470              	.LASF84:
 3471 033b 73746B61 		.ascii	"stkalign_t\000"
 3471      6C69676E 
 3471      5F7400
 3472              	.LASF171:
 3473 0346 54687265 		.ascii	"Thread1\000"
 3473      61643100 
 3474              	.LASF174:
 3475 034e 63685468 		.ascii	"chThdCreateStatic\000"
 3475      64437265 
 3475      61746553 
 3475      74617469 
 3475      6300
 3476              	.LASF155:
 3477 0360 77726974 		.ascii	"write\000"
 3477      6500
 3478              	.LASF127:
 3479 0366 696E7075 		.ascii	"input_queue_t\000"
 3479      745F7175 
 3479      6575655F 
 3479      7400
 3480              	.LASF157:
 3481 0374 70757474 		.ascii	"putt\000"
 3481      00
 3482              	.LASF128:
 3483 0379 6F757470 		.ascii	"output_queue_t\000"
 3483      75745F71 
 3483      75657565 
 3483      5F7400
 3484              	.LASF36:
 3485 0388 705F7761 		.ascii	"p_waiting\000"
 3485      6974696E 
 3485      6700
 3486              	.LASF77:
 3487 0392 73697A65 		.ascii	"sizetype\000"
 3487      74797065 
 3487      00
 3488              	.LASF43:
 3489 039b 74687265 		.ascii	"thread_reference_t\000"
 3489      61645F72 
 3489      65666572 
ARM GAS  /tmp/cchTuLYH.s 			page 94


 3489      656E6365 
 3489      5F7400
 3490              	.LASF66:
 3491 03ae 63685F76 		.ascii	"ch_virtual_timers_list\000"
 3491      69727475 
 3491      616C5F74 
 3491      696D6572 
 3491      735F6C69 
 3492              	.LASF130:
 3493 03c5 636C6561 		.ascii	"clear\000"
 3493      7200
 3494              	.LASF92:
 3495 03cb 77747472 		.ascii	"wttrp\000"
 3495      7000
 3496              	.LASF67:
 3497 03d1 76745F6C 		.ascii	"vt_lasttime\000"
 3497      61737474 
 3497      696D6500 
 3498              	.LASF31:
 3499 03dd 705F6F6C 		.ascii	"p_older\000"
 3499      64657200 
 3500              	.LASF53:
 3501 03e5 725F6374 		.ascii	"r_ctx\000"
 3501      7800
 3502              	.LASF88:
 3503 03eb 746D5F63 		.ascii	"tm_calibration_t\000"
 3503      616C6962 
 3503      72617469 
 3503      6F6E5F74 
 3503      00
 3504              	.LASF166:
 3505 03fc 474E5520 		.ascii	"GNU C 4.7.2\000"
 3505      4320342E 
 3505      372E3200 
 3506              	.LASF167:
 3507 0408 6D61696E 		.ascii	"main.c\000"
 3507      2E6300
 3508              	.LASF55:
 3509 040f 725F6F6C 		.ascii	"r_older\000"
 3509      64657200 
 3510              	.LASF164:
 3511 0417 63685468 		.ascii	"chThdSleep\000"
 3511      64536C65 
 3511      657000
 3512              	.LASF110:
 3513 0422 656C5F65 		.ascii	"el_events\000"
 3513      76656E74 
 3513      7300
 3514              	.LASF153:
 3515 042c 53657269 		.ascii	"SerialConfig\000"
 3515      616C436F 
 3515      6E666967 
 3515      00
 3516              	.LASF138:
 3517 0439 41465248 		.ascii	"AFRH\000"
 3517      00
 3518              	.LASF137:
ARM GAS  /tmp/cchTuLYH.s 			page 95


 3519 043e 4146524C 		.ascii	"AFRL\000"
 3519      00
 3520              	.LASF173:
 3521 0443 77615468 		.ascii	"waThread1\000"
 3521      72656164 
 3521      3100
 3522              	.LASF18:
 3523 044d 74726566 		.ascii	"trefs_t\000"
 3523      735F7400 
 3524              	.LASF80:
 3525 0455 52455345 		.ascii	"RESERVED1\000"
 3525      52564544 
 3525      3100
 3526              	.LASF81:
 3527 045f 52455345 		.ascii	"RESERVED2\000"
 3527      52564544 
 3527      3200
 3528              	.LASF58:
 3529 0469 76697274 		.ascii	"virtual_timer_t\000"
 3529      75616C5F 
 3529      74696D65 
 3529      725F7400 
 3530              	.LASF27:
 3531 0479 705F7072 		.ascii	"p_prev\000"
 3531      657600
 3532              	.LASF19:
 3533 0480 74707269 		.ascii	"tprio_t\000"
 3533      6F5F7400 
 3534              	.LASF123:
 3535 0488 715F7264 		.ascii	"q_rdptr\000"
 3535      70747200 
 3536              	.LASF69:
 3537 0490 63685F73 		.ascii	"ch_system_debug\000"
 3537      79737465 
 3537      6D5F6465 
 3537      62756700 
 3538              	.LASF129:
 3539 04a0 5F426F6F 		.ascii	"_Bool\000"
 3539      6C00
 3540              	.LASF8:
 3541 04a6 696E7433 		.ascii	"int32_t\000"
 3541      325F7400 
 3542              	.LASF4:
 3543 04ae 756E7369 		.ascii	"unsigned char\000"
 3543      676E6564 
 3543      20636861 
 3543      7200
 3544              	.LASF175:
 3545 04bc 54657374 		.ascii	"TestThread\000"
 3545      54687265 
 3545      616400
 3546              	.LASF109:
 3547 04c7 656C5F6C 		.ascii	"el_listener\000"
 3547      69737465 
 3547      6E657200 
 3548              	.LASF111:
 3549 04d3 656C5F66 		.ascii	"el_flags\000"
ARM GAS  /tmp/cchTuLYH.s 			page 96


 3549      6C616773 
 3549      00
 3550              	.LASF40:
 3551 04dc 705F6D74 		.ascii	"p_mtxlist\000"
 3551      786C6973 
 3551      7400
 3552              	.LASF5:
 3553 04e6 73686F72 		.ascii	"short int\000"
 3553      7420696E 
 3553      7400
 3554              	.LASF33:
 3555 04f0 705F7374 		.ascii	"p_state\000"
 3555      61746500 
 3556              	.LASF52:
 3557 04f8 725F7072 		.ascii	"r_prio\000"
 3557      696F00
 3558              	.LASF95:
 3559 04ff 65776D61 		.ascii	"ewmask\000"
 3559      736B00
 3560              	.LASF26:
 3561 0506 705F6E65 		.ascii	"p_next\000"
 3561      787400
 3562              	.LASF34:
 3563 050d 705F666C 		.ascii	"p_flags\000"
 3563      61677300 
 3564              	.LASF32:
 3565 0515 705F6E61 		.ascii	"p_name\000"
 3565      6D6500
 3566              	.LASF142:
 3567 051c 53445F53 		.ascii	"SD_STOP\000"
 3567      544F5000 
 3568              	.LASF47:
 3569 0524 74687265 		.ascii	"threads_queue_t\000"
 3569      6164735F 
 3569      71756575 
 3569      655F7400 
 3570              	.LASF59:
 3571 0534 63685F76 		.ascii	"ch_virtual_timer\000"
 3571      69727475 
 3571      616C5F74 
 3571      696D6572 
 3571      00
 3572              	.LASF136:
 3573 0545 4C434B52 		.ascii	"LCKR\000"
 3573      00
 3574              	.LASF96:
 3575 054a 63685F73 		.ascii	"ch_semaphore\000"
 3575      656D6170 
 3575      686F7265 
 3575      00
 3576              	.LASF39:
 3577 0557 705F6570 		.ascii	"p_epending\000"
 3577      656E6469 
 3577      6E6700
 3578              	.LASF141:
 3579 0562 53445F55 		.ascii	"SD_UNINIT\000"
 3579      4E494E49 
ARM GAS  /tmp/cchTuLYH.s 			page 97


 3579      5400
 3580              	.LASF119:
 3581 056c 715F636F 		.ascii	"q_counter\000"
 3581      756E7465 
 3581      7200
 3582              	.LASF94:
 3583 0576 77746D74 		.ascii	"wtmtxp\000"
 3583      787000
 3584              	.LASF51:
 3585 057d 725F7175 		.ascii	"r_queue\000"
 3585      65756500 
 3586              	.LASF62:
 3587 0585 76745F64 		.ascii	"vt_delta\000"
 3587      656C7461 
 3587      00
 3588              	.LASF46:
 3589 058e 63685F74 		.ascii	"ch_threads_list\000"
 3589      68726561 
 3589      64735F6C 
 3589      69737400 
 3590              	.LASF145:
 3591 059e 53657269 		.ascii	"SerialDriver\000"
 3591      616C4472 
 3591      69766572 
 3591      00
 3592              	.LASF11:
 3593 05ab 6C6F6E67 		.ascii	"long unsigned int\000"
 3593      20756E73 
 3593      69676E65 
 3593      6420696E 
 3593      7400
 3594              	.LASF56:
 3595 05bd 725F6375 		.ascii	"r_current\000"
 3595      7272656E 
 3595      7400
 3596              	.LASF156:
 3597 05c7 72656164 		.ascii	"read\000"
 3597      00
 3598              	.LASF103:
 3599 05cc 63686172 		.ascii	"char\000"
 3599      00
 3600              	.LASF165:
 3601 05d1 73645374 		.ascii	"sdStart\000"
 3601      61727400 
 3602              	.LASF25:
 3603 05d9 74687265 		.ascii	"thread_t\000"
 3603      61645F74 
 3603      00
 3604              	.LASF102:
 3605 05e2 6D5F6E65 		.ascii	"m_next\000"
 3605      787400
 3606              	.LASF24:
 3607 05e9 73797374 		.ascii	"systime_t\000"
 3607      696D655F 
 3607      7400
 3608              	.LASF41:
 3609 05f3 705F7265 		.ascii	"p_realprio\000"
ARM GAS  /tmp/cchTuLYH.s 			page 98


 3609      616C7072 
 3609      696F00
 3610              	.LASF57:
 3611 05fe 76746675 		.ascii	"vtfunc_t\000"
 3611      6E635F74 
 3611      00
 3612              	.LASF70:
 3613 0607 70616E69 		.ascii	"panic_msg\000"
 3613      635F6D73 
 3613      6700
 3614              	.LASF79:
 3615 0611 52544F52 		.ascii	"RTOR\000"
 3615      00
 3616              	.LASF106:
 3617 0616 6576656E 		.ascii	"event_listener_t\000"
 3617      745F6C69 
 3617      7374656E 
 3617      65725F74 
 3617      00
 3618              	.LASF85:
 3619 0627 636F6E74 		.ascii	"context\000"
 3619      65787400 
 3620              	.LASF38:
 3621 062f 705F6D73 		.ascii	"p_msg\000"
 3621      6700
 3622              	.LASF15:
 3623 0635 7274636E 		.ascii	"rtcnt_t\000"
 3623      745F7400 
 3624              	.LASF143:
 3625 063d 53445F52 		.ascii	"SD_READY\000"
 3625      45414459 
 3625      00
 3626              	.LASF64:
 3627 0646 76745F70 		.ascii	"vt_par\000"
 3627      617200
 3628              	.LASF22:
 3629 064d 6576656E 		.ascii	"eventflags_t\000"
 3629      74666C61 
 3629      67735F74 
 3629      00
 3630              	.LASF10:
 3631 065a 75696E74 		.ascii	"uint32_t\000"
 3631      33325F74 
 3631      00
 3632              	.LASF144:
 3633 0663 73647374 		.ascii	"sdstate_t\000"
 3633      6174655F 
 3633      7400
 3634              	.LASF121:
 3635 066d 715F746F 		.ascii	"q_top\000"
 3635      7000
 3636              	.LASF99:
 3637 0673 63685F6D 		.ascii	"ch_mutex\000"
 3637      75746578 
 3637      00
 3638              	.LASF114:
 3639 067c 65735F6E 		.ascii	"es_next\000"
ARM GAS  /tmp/cchTuLYH.s 			page 99


 3639      65787400 
 3640              	.LASF124:
 3641 0684 715F6E6F 		.ascii	"q_notify\000"
 3641      74696679 
 3641      00
 3642              	.LASF73:
 3643 068d 726C6973 		.ascii	"rlist\000"
 3643      7400
 3644              	.LASF113:
 3645 0693 6576656E 		.ascii	"event_source\000"
 3645      745F736F 
 3645      75726365 
 3645      00
 3646              	.LASF3:
 3647 06a0 75696E74 		.ascii	"uint8_t\000"
 3647      385F7400 
 3648              	.LASF91:
 3649 06a8 77746F62 		.ascii	"wtobjp\000"
 3649      6A7000
 3650              	.LASF44:
 3651 06af 74687265 		.ascii	"threads_list_t\000"
 3651      6164735F 
 3651      6C697374 
 3651      5F7400
 3652              	.LASF151:
 3653 06be 636C6F63 		.ascii	"clock\000"
 3653      6B00
 3654              	.LASF172:
 3655 06c4 6D61696E 		.ascii	"main\000"
 3655      00
 3656              	.LASF169:
 3657 06c9 63685265 		.ascii	"chRegSetThreadName\000"
 3657      67536574 
 3657      54687265 
 3657      61644E61 
 3657      6D6500
 3658              	.LASF101:
 3659 06dc 6D5F6F77 		.ascii	"m_owner\000"
 3659      6E657200 
 3660              	.LASF29:
 3661 06e4 705F6374 		.ascii	"p_ctx\000"
 3661      7800
 3662              	.LASF63:
 3663 06ea 76745F66 		.ascii	"vt_func\000"
 3663      756E6300 
 3664              	.LASF107:
 3665 06f2 6576656E 		.ascii	"event_listener\000"
 3665      745F6C69 
 3665      7374656E 
 3665      657200
 3666              		.comm	__gnu_lto_v1,1,1
 3667              		.ident	"GCC: (GNU) 4.7.2"
ARM GAS  /tmp/cchTuLYH.s 			page 100


DEFINED SYMBOLS
                            *ABS*:00000000 main.c
     /tmp/cchTuLYH.s:487    .text.Thread1:00000000 $t
     /tmp/cchTuLYH.s:492    .text.Thread1:00000000 Thread1
     /tmp/cchTuLYH.s:547    .text.Thread1:00000030 $d
     /tmp/cchTuLYH.s:553    .text.startup.main:00000000 $t
     /tmp/cchTuLYH.s:559    .text.startup.main:00000000 main
     /tmp/cchTuLYH.s:617    .text.startup.main:00000048 $d
     /tmp/cchTuLYH.s:624    .bss.waThread1:00000000 $d
     /tmp/cchTuLYH.s:628    .bss.waThread1:00000000 waThread1
     /tmp/cchTuLYH.s:631    .rodata.str1.4:00000000 $d
                            *COM*:00000001 __gnu_lto_v1
                     .debug_frame:00000010 $d
     /tmp/cchTuLYH.s:552    .text.Thread1:00000038 $t
     /tmp/cchTuLYH.s:623    .text.startup.main:00000054 $t

UNDEFINED SYMBOLS
chThdSleep
ch
halInit
chSysInit
sdStart
chThdCreateStatic
TestThread
SD2
