ARM GAS  /tmp/cchTuLYH.s 			page 1


   1              		.syntax unified
   2              		.cpu cortex-m4
   3              		.fpu softvfp
   4              		.eabi_attribute 20, 1
   5              		.eabi_attribute 21, 1
   6              		.eabi_attribute 23, 3
   7              		.eabi_attribute 24, 1
   8              		.eabi_attribute 25, 1
   9              		.eabi_attribute 26, 1
  10              		.eabi_attribute 30, 2
  11              		.eabi_attribute 34, 1
  12              		.eabi_attribute 18, 4
  13              		.thumb
  14              		.file	"main.c"
  15              		.text
  16              	.Ltext0:
  17              		.section	.gnu.lto_.jmpfuncs.40fb8eb46ae01d86,"",%progbits
  18 0000 789C6362 		.ascii	"x\234cb`d`g\300\016\346\0021\007\02031002I2\244220t"
  18      60646067 
  18      C00EE602 
  18      31071033 
  18      31303032 
  19 001b A8A33051 		.ascii	"\250\2430Q\305\253\030~6p\244222f22\034\353Y,\012\324"
  19      C5AB187E 
  19      3670A432 
  19      32326632 
  19      321CEB59 
  20 0032 CA0A1364 		.ascii	"\312\012\023d\002\0122>\331\316\0152\016\244\205\231"
  20      020A323E 
  20      D9CE0D32 
  20      0EA48599 
  21 0042 E1041303 		.ascii	"\341\004\023\003T\263\003\003L\025\013c<#\303\011V\230"
  21      54B30303 
  21      4C150B63 
  21      3C23C309 
  21      5698
  22 0054 223003C5 		.ascii	"\"0\003\305\330?\327\330`\222l\020G\262\347&f\346\351"
  22      D83FD7D8 
  22      60926C10 
  22      47B2E726 
  22      66E6E9
  23 0067 25330000 		.ascii	"%3\000\000\2425\0333"
  23      A2351B33 
  24              		.text
  25              		.section	.gnu.lto_.inline.40fb8eb46ae01d86,"",%progbits
  26 0000 789C6362 		.ascii	"x\234cb`d\340e\300\016\302\2414\023\003\003\327#!F\006"
  26      6064E065 
  26      C00EC2A1 
  26      34130303 
  26      D7232146 
  27 0015 268E0557 		.ascii	"&\216\005W$\030X\200|&nF\240>\010\311\310 \266[\024"
  27      24185880 
  27      7C266E46 
  27      A03E08C9 
  27      C820B65B 
  28 002a C8E13AD0 		.ascii	"\310\341:\320b\213!\311\306\317\300\300\0126\204\231"
  28      628B21C9 
ARM GAS  /tmp/cchTuLYH.s 			page 2


  28      C6CFC0C0 
  28      0A368499 
  29 003a 076C1023 		.ascii	"\007l\020#\027\003\224`\000\000\2024\005\375"
  29      17039460 
  29      00008234 
  29      05FD
  30              		.text
  31              		.section	.gnu.lto_.pureconst.40fb8eb46ae01d86,"",%progbits
  32 0000 789C6362 		.ascii	"x\234cb`d`f```e\200\000&\0063F3\000\001\252\000{"
  32      60646066 
  32      60606065 
  32      80002606 
  32      33463300 
  33              		.text
  34              		.section	.gnu.lto_Thread1.40fb8eb46ae01d86,"",%progbits
  35 0000 789CB553 		.ascii	"x\234\265S=kTA\024=gf\366#\233D\243\026j\241F\211\010"
  35      3D6B5441 
  35      143D6766 
  35      F6239B44 
  35      A3166AA1 
  36 0017 06F7155A 		.ascii	"\006\367\025Zl\2312`\225\200 \302&\254\353\220<LVxI"
  36      6C993260 
  36      958020C2 
  36      26ACEB90 
  36      3C4C5678 
  37 002c 8AD8ECB8 		.ascii	"\212\330\354\270\246Hg\320F\003\202\022!bkc\025C\024"
  37      A64867D0 
  37      46038212 
  37      21626B63 
  37      154314
  38 003f 8B65B1B1 		.ascii	"\213e\261\261\261\260H\241\350\017\260\021\204\365\316"
  38      B1B048A1 
  38      E80FB011 
  38      84F5CE
  39 004e FB581583 		.ascii	"\373X\025\203\330x\337\307=o\336}\347\234\2713O\201"
  39      D878DFC7 
  39      3D6FDE7D 
  39      E79CB933 
  39      4F81
  40 0060 72FC19E7 		.ascii	"r\374\031\347\344:\246\2011\311\314\201j\355-pkXQ'@"
  40      E43AA681 
  40      31C9CC81 
  40      6AED2D70 
  40      6B585127 
  41 0075 D324C024 		.ascii	"\323$\300$#'\211\246\322\206\315K1\033O\341\261sw\327"
  41      232789A6 
  41      D286CD4B 
  41      311B4FE1 
  41      B17377D7 
  42 0089 5EB5C65B 		.ascii	"^\265\306[\273\335\356\011\353G\247\211\366\235O\203"
  42      BBDDEE09 
  42      EB47A789 
  42      F69D4F83 
  43 0099 4761490C 		.ascii	"GaI\014\303g\005\363\273\356\326\372\347\323\037.\274"
  43      C36705F3 
  43      BBEED6FA 
  43      E7D31F2E 
ARM GAS  /tmp/cchTuLYH.s 			page 3


  43      BC
  44 00aa 54DBBBDD 		.ascii	"T\333\273\335\346\0106<\307m7n\251\025\002z\206\316"
  44      E608363C 
  44      C76D376E 
  44      A915027A 
  44      86CE
  45 00bc BDFC1E04 		.ascii	"\275\374\036\004R\200\201\022\252|$\312\0229\25487\344"
  45      52808112 
  45      AA7C24CA 
  45      1239AC38 
  45      37E4
  46 00ce EBE398F0 		.ascii	"\353\343\230\360\231\230\224rP\277\201\222\347\324\241"
  46      99989472 
  46      50BF8192 
  46      E7D4A1
  47 00dd B0A70E8D 		.ascii	"\260\247\016\215\302\371X\002\177ux\023\337\334\021"
  47      C2F95802 
  47      7F757813 
  47      DFDC11
  48 00ec CB1C8FA3 		.ascii	"\313\034\217\243\362\320\335\037\263\314\343\343\273"
  48      F2D0DD1F 
  48      B3CCE3E3 
  48      BB
  49 00f9 FEF85D1B 		.ascii	"\376\370]\033\255+~\212\251|\222X\345\023qU\345\206"
  49      AD2B7E8A 
  49      A97C9258 
  49      E5137155 
  49      E586
  50 010b 34F267D4 		.ascii	"4\362g\324Y\032\305Yi\214\216SA\257\343\001-\213\312"
  50      591AC559 
  50      698C8E53 
  50      41AFE301 
  50      2D8BCA
  51 011e 0B142DFB 		.ascii	"\013\024-\373\030&K\343]\364\305\376\201)\177\273\034"
  51      18264BE3 
  51      5DF4C5FE 
  51      81297FBB 
  51      1C
  52 012f 03412F74 		.ascii	"\003A/t\246z\361K\241\312\247\302\037s\231\224\253\244"
  52      A67AF14B 
  52      A1CAA7C2 
  52      1F739994 
  52      ABA4
  53 0141 44C47F8E 		.ascii	"D\304\177\216\336\347\322\200\367\271_gQ\345\246\314"
  53      DEE7D280 
  53      F7B95F67 
  53      51E5A6CC 
  54 0151 64ABBD79 		.ascii	"d\253\275y\270\347lR\232IYT\335\306N\345\353s&\316G"
  54      B8E76C52 
  54      9A495954 
  54      DDC64EE5 
  54      EB7326CE 
  55 0166 F1CCAD08 		.ascii	"\361\314\255\010i\277\316\320@\017\015\246\202\373\224"
  55      69BFCED0 
  55      400F0DA6 
  55      82FB94
  56 0175 57DB0FB7 		.ascii	"W\333\017\267\352\266\015\022\234\304\024u\006L\006"
ARM GAS  /tmp/cchTuLYH.s 			page 4


  56      EAB60D12 
  56      9CC41475 
  56      064C06
  57 0184 D26EF8B2 		.ascii	"\322n\370\262!8\277\323:0\337u\326\250\264\017\0078"
  57      2138BFD3 
  57      3A30DF75 
  57      D6A8B40F 
  57      0738
  58 0196 4DB25779 		.ascii	"M\262Wy\020\253g$\035\362\323\336\251\2746\377\313\\"
  58      10AB6724 
  58      1DF2D3DE 
  58      A9BC36FF 
  58      CB5C
  59 01a8 7E2F731D 		.ascii	"~/s\035\363\257\346\222]g\342>r\202\331/6R.\007\311"
  59      F3AFE692 
  59      5D67E23E 
  59      7282D92F 
  59      36522E07 
  60 01bd 79632188 		.ascii	"yc!\210\026\203\260Q\237[\272f\203\372ldg\302\205\305"
  60      1683B051 
  60      9F5BBA66 
  60      83FA6C64 
  60      67C285C5 
  61 01d1 68B93C8B 		.ascii	"h\271<\213\302|-l\224\353\320\265h\3064j\363\266xu."
  61      C27C2D6C 
  61      94EBD0B5 
  61      68C6346A 
  61      F3B67875 
  62 01e6 6C5CB711 		.ascii	"l\\\267\021~\000+\221\245\344"
  62      7E002B91 
  62      A5E4
  63              		.text
  64              		.section	.gnu.lto_main.40fb8eb46ae01d86,"",%progbits
  65 0000 789CAD52 		.ascii	"x\234\255R\317+DQ\024\376\316\375\361\206a\3746\261"
  65      CF2B4451 
  65      14FECEFD 
  65      F18661FC 
  65      36B1
  66 0012 32D9504A 		.ascii	"2\331PJvV\312\322\326\224\215B\322[P\374\0016s\375X"
  66      7656CAD2 
  66      D6948D42 
  66      D25B50FC 
  66      013673FD 
  67 0027 289B4961 		.ascii	"(\233IaX\031J\222\177@)b\3244\311j\222\205\205\205\254"
  67      58194A92 
  67      7F402962 
  67      D434C96A 
  67      92858585 
  68 003c FC034A8D 		.ascii	"\374\003J\215s\337\365\214\231a\347\274^\337}\347|\337"
  68      73DFF58C 
  68      9961E7BC 
  68      5EDF7DE7 
  68      7CDF
  69 004e F7EE39F7 		.ascii	"\367\3569\367\012\020?\2651\302oT\002\365\214\344\201"
  69      0A103FB5 
  69      31C26F54 
  69      02F58CE4 
ARM GAS  /tmp/cchTuLYH.s 			page 5


  69      81
  70 005f 44FA1E58 		.ascii	"D\372\036XI\010\222n!\205*\306a\372\365\3050\314\220"
  70      4908926E 
  70      21852AC6 
  70      61FAF5C5 
  70      30CC90
  71 0072 22EDD2DA 		.ascii	"\"\355\322\332\325\263\011BJH\245)5\021\270\313^d\215"
  71      D5B30942 
  71      4A48A529 
  71      3511B8CB 
  71      5E648D
  72 0085 D94ADFAC 		.ascii	"\331J\337\254\216\255>\227J=\276\315\316\020\012\233"
  72      8EAD3E97 
  72      4A3DBECD 
  72      CE100A9B 
  73 0095 47B16EF8 		.ascii	"G\261n\370DH\300\242\200\252\334\307\037:\374\277(\267"
  73      4448C0A2 
  73      80AADCC7 
  73      1F3AFCBF 
  73      28B7
  74 00a7 1DFDC878 		.ascii	"\035\375\310x\227\342\352\271\224\002\232\004\246\350"
  74      97E2EAB9 
  74      94029A04 
  74      A6E8
  75 00b5 807A2119 		.ascii	"\200z!\031\263\214\212\361\220\221Cc\335\230\226\300"
  75      B38C8AF1 
  75      90914363 
  75      DD9896C0 
  76 00c5 D1C6B845 		.ascii	"\321\306\270EB\222-A\362\016\362\356\301\233\242#\322"
  76      42922D41 
  76      F20EF2EE 
  76      C19BA223 
  76      D2
  77 00d6 9C5EC6BB 		.ascii	"\234^\306\273\251\363I\322\014\221\243\373\304\377e"
  77      A9F349D2 
  77      0C91A3FB 
  77      C4FF65
  78 00e5 527127F2 		.ascii	"Rq'\362\013IT\220\364G\215\223f\222t\244\257\214G\363"
  78      0B495490 
  78      F4478D93 
  78      669274A4 
  78      AF8C47F3 
  79 00f9 EEDB7615 		.ascii	"\356\333v\025\011\304uV\334\365\262\333P%\256g\261\252"
  79      09C47556 
  79      DCF5B2DB 
  79      5025AE67 
  79      B1AA
  80 010b 1047594C 		.ascii	"\020GYL\217\372K\335\200\274\010\026\300h\310hd\215"
  80      8FFA4BDD 
  80      80BC0816 
  80      C068C868 
  80      648D
  81 011d CE878C58 		.ascii	"\316\207\214X\340\337\344\032O\222\004\361q\313\002"
  81      E0DFE41A 
  81      4F9204F1 
  81      71CB02
  82 012c AE279F32 		.ascii	"\256'\2372\013\356os$\006pj\326\311\247f\271\217=\306"
ARM GAS  /tmp/cchTuLYH.s 			page 6


  82      0BEE6F73 
  82      2406706A 
  82      D6C9A766 
  82      B98F3DC6 
  83 0140 1661B5AD 		.ascii	"\026a\265\2550is\245\340\326.\246\313w\257\200\2653"
  83      306973A5 
  83      E0D62EA6 
  83      CB77AF80 
  83      B533
  84 0152 3B6CE721 		.ascii	";l\347!\331\306\022\333\020s\265\363rMq\331\355\322"
  84      D9C612DB 
  84      1073B5F3 
  84      724D71D9 
  84      EDD2
  85 0164 AA6F917B 		.ascii	"\252o\221{\245\015\371]t\225\237\221\344iR1\316G\243"
  85      A50DF95D 
  85      74959F91 
  85      E4695231 
  85      CE47A3
  86 0177 5E32C754 		.ascii	"^2\307T5\024\333\240W;\321\023\035\264\332\036Zh\327"
  86      3514DBA0 
  86      573BD113 
  86      1DB4DA1E 
  86      5A68D7
  87 018a 2A7BBC65 		.ascii	"*{\274e\342U\026\035l\021)\037\002\260\321\307\320\031"
  87      E255161D 
  87      6C11291F 
  87      02B0D1C7 
  87      D019
  88 019c 5E8F703B 		.ascii	"^\217p;\221\305\331\371\245\3019|\002\307\202\226\247"
  88      91C5D9F9 
  88      A5C1397C 
  88      02C78296 
  88      A7
  89              		.text
  90              		.section	.gnu.lto_.cgraph.40fb8eb46ae01d86,"",%progbits
  91 0000 789C3DC7 		.ascii	"x\234=\307;\012\302P\024\204\3419s\222\334m\272\005"
  91      3B0AC250 
  91      1484E139 
  91      7392DC6D 
  91      BA05
  92 0012 5730810B 		.ascii	"W0\201\01366>QA\004\311\006\254m\323hci-\350:Dr\324"
  92      36363E51 
  92      4104C906 
  92      AC6DD368 
  92      63692DE8 
  93 002a 3BCD3F1F 		.ascii	";\315?\037ap\000'\374\3069\005\314n\220\366\327\021"
  93      61700027 
  93      FCC63905 
  93      CC6E90F6 
  93      D711
  94 003c 17947D75 		.ascii	"\027\224}u\270\320v\024Cmk\266\245\274`CU\005k\252."
  94      B8D07614 
  94      436D6BB6 
  94      A5BC6043 
  94      55056BAA 
  95 0051 58514DC1 		.ascii	"XQM\301\222J\1778\210|\274O\323p\3728\226\220\037os"
ARM GAS  /tmp/cchTuLYH.s 			page 7


  95      924A7F38 
  95      887CBC4F 
  95      D370FA38 
  95      96901F6F 
  96 0066 6BD0456B 		.ascii	"k\320Ek\364\321\012\317\250#O^\347\261\033\321\015\007"
  96      F4D10ACF 
  96      A8234F5E 
  96      E7B11BD1 
  96      0D07
  97 0078 1FB2DD38 		.ascii	"\037\262\3358\322"
  97      D2
  98              		.text
  99              		.section	.gnu.lto_.vars.40fb8eb46ae01d86,"",%progbits
 100 0000 789C6362 		.ascii	"x\234cb`d`f``\020f\200\000\346YLL\014\365\014\323\230"
 100      60646066 
 100      60601066 
 100      8000E659 
 100      4C4C0CF5 
 101 0017 1880E404 		.ascii	"\030\200\344\004&F\226zf\000$\272\003j"
 101      2646967A 
 101      660024BA 
 101      036A
 102              		.text
 103              		.section	.gnu.lto_.refs.40fb8eb46ae01d86,"",%progbits
 104 0000 789C25C1 		.ascii	"x\234%\301\301\015\0000\010\304\260\204r\177\366\237"
 104      C10D0030 
 104      08C4B084 
 104      727FF69F 
 105 0010 964AD885 		.ascii	"\226J\330\205<`8\376mL5\021\026\003K\0005"
 105      3C6038FE 
 105      6D4C3511 
 105      16034B00 
 105      35
 106              		.text
 107              		.section	.gnu.lto_.statics.40fb8eb46ae01d86,"",%progbits
 108 0000 789C6362 		.ascii	"x\234cb`d`b\300\016@\342\214\020&\000\000\375\000\011"
 108      60646062 
 108      C00E40E2 
 108      8C102600 
 108      00FD0009 
 109              		.text
 110              		.section	.gnu.lto_.decls.40fb8eb46ae01d86,"",%progbits
 111 0000 789CB55C 		.ascii	"x\234\265\\yx\024U\266\257\245\2274\011\001q\371\230"
 111      79781455 
 111      B6AFA597 
 111      34090171 
 111      F998
 112 0012 798EC679 		.ascii	"y\216\306y\372>\237\337Hd\031\305y\243\243C\030\341"
 112      FA3E9FDF 
 112      486419C5 
 112      79A3A343 
 112      18E1
 113 0024 8D082F89 		.ascii	"\215\010/\211\316\370G\277\236\320i\222\036\223tS]a"
 113      CEF847BF 
 113      9ED06992 
 113      1E937453 
 113      5D61
ARM GAS  /tmp/cchTuLYH.s 			page 8


 114 0036 99EFFDD1 		.ascii	"\231\357\375\321\200\340\202\016`D\001\027\"\010\203"
 114      80E0820E 
 114      60440117 
 114      220883
 115 0045 E0C2228B 		.ascii	"\340\302\"\213\"\0201\004\030b\004\015\017\225\260("
 115      22103104 
 115      1862040D 
 115      0F95B028 
 116 0055 91A7312E 		.ascii	"\221\2471.@D\331\314;\367T\325\255[\225\252\256\252"
 116      4044D9CC 
 116      3BF754D5 
 116      AD5B95AA 
 116      AEAA
 117 0067 0ED6973A 		.ascii	"\016\326\227:U]]\367w\3179\367\234s\317]:\002\307s\344"
 117      555D5DF7 
 117      77CF39F7 
 117      9C73CF5D 
 117      3A02C773 
 118 007c 5801976E 		.ascii	"X\001\227n8n\210p\334\362\020\307\211\360\35468\203"
 118      386E8870 
 118      DCF210C7 
 118      89F0EC36 
 118      3883
 119 008e EA590FE7 		.ascii	"\352Y\017\347e\002\307\371\341\372\013\270\336\016\327"
 119      6502C7F9 
 119      E1FA0BB8 
 119      DE0ED7
 120 009d 02018B72 		.ascii	"\002\001\213r9p\026\302\37508o\201\363?\340\274\015"
 120      397016C2 
 120      FD30386F 
 120      81F33FE0 
 120      BC0D
 121 00af CE51708E 		.ascii	"\316Qp\216\201s\234\240\340\025\303\265\024\316\373"
 121      81739CA0 
 121      E015C3B5 
 121      14CEFB
 122 00be D472DA41 		.ascii	"\324r\332A\312^\006\327\\\340!\037\256y\234\202\177"
 122      CA5E06D7 
 122      5CE0211F 
 122      AE799C82 
 122      7F
 123 00cf 077C5E0D 		.ascii	"\007|^\015\337\255\201\363\277\341\374\023\234\353\340"
 123      DFAD81F3 
 123      BFE1FC13 
 123      9CEBE0
 124 00de CC83E701 		.ascii	"\314\203\347\001\270\276\016\347f8\267\303\331\246\326"
 124      B8BE0EE7 
 124      6638B7C3 
 124      D9A6D6
 125 00ed 714850F8 		.ascii	"qHP\370\035\256^\303p\255\201\363wP\346\003\2706\300"
 125      1DAE5EC3 
 125      70AD81F3 
 125      7750E603 
 125      B836C0
 126 0100 F9069C1B 		.ascii	"\371\006\234\033\341\024\324\272\011\317D\013f\276\210"
 126      E114D4BA 
 126      09CF440B 
ARM GAS  /tmp/cchTuLYH.s 			page 9


 126      66BE88
 127 010f 3C57A8F2 		.ascii	"<W\250\362k|\035\206g\367\300yDPtBt0\032\316\243BO\375"
 127      6B7C1D86 
 127      67F7C079 
 127      44507442 
 127      74301ACE 
 128 0127 DC0ED753 		.ascii	"\334\016\327S\274\316\237\017\236]%(<\016W\353|OP\364"
 128      BCCE9F0F 
 128      9E5D2528 
 128      3C0E57EB 
 128      7C4F50F4 
 129 013b 374CD5D3 		.ascii	"7L\325\323\030UoD\177\205\252.oQy\325\364\307\036\271"
 129      18556F44 
 129      7F85AA2E 
 129      6F5179D5 
 129      F4C71EB9 
 130 014f DCA3E9F4 		.ascii	"\334\243\351\364\364t\375\254\364\250]\371\003\270y"
 130      F474FDAC 
 130      F4A85DF9 
 130      03B879
 131 015e 69380A76 		.ascii	"i8\012v\001\267?\343\302|>4\344\321 \336\346\301\355"
 131      01B73FE3 
 131      C27C3E34 
 131      E4D120DE 
 131      E6C1ED
 132 0171 FFC0FBD7 		.ascii	"\377\300\373\327q/\246\323s\341%>\314\277\300\017\000"
 132      712FA6D3 
 132      73E1253E 
 132      CCBFC00F 
 132      00
 133 0182 5C81E76E 		.ascii	"\\\201\347n\340^J\343\241\330\202j\022\\?\356\315/6"
 133      E05E4AE3 
 133      A1D8826A 
 133      125C3FEE 
 133      CD2F36
 134 0195 768ACA07 		.ascii	"v\212\312\007\027\330a~)/\000]\006\270a\376E\376\006"
 134      17D8617E 
 134      292F005D 
 134      06B861FE 
 134      45FE06
 135 01a8 A5B6B452 		.ascii	"\245\266\264R\033y\312\251\317\033\027\217\347z\036"
 135      1B79CAA9 
 135      CF1B178F 
 135      E77A1E
 136 01b7 A16BB87A 		.ascii	"\241k\270z\020f\356\214\364\250\200\225\\\360%\317V"
 136      1066EE8C 
 136      F4A88095 
 136      5CF025CF 
 136      56
 137 01c8 9F1668F5 		.ascii	"\237\026h\365\005\034Q\321p\336\222M\323{a~%\262\271"
 137      051C51D1 
 137      70DE924D 
 137      D37B617E 
 137      25B2B9
 138 01db CA92CD55 		.ascii	"\312\222\315U\014\233\235\277\260\3402\307\216\313+"
 138      0C9B9DBF 
 138      B0E032C7 
ARM GAS  /tmp/cchTuLYH.s 			page 10


 138      8ECB2B
 139 01ea B8F9C8E5 		.ascii	"\270\371\310\345,\300\221C\334\303\3727:+\005\224\023"
 139      2CC09143 
 139      DCC3FA37 
 139      3A2B0594 
 139      13
 140 01fb 9FA93156 		.ascii	"\237\2511V\363!\220`\024\257V\375\343c\007[\012\225"
 140      F3219060 
 140      14AF56FD 
 140      E363075B 
 140      0A95
 141 020d 0AC3BC3F 		.ascii	"\012\303\274?\3042\200\237\225\267\024`\345k\355\216"
 141      C432809F 
 141      95B71460 
 141      E56BED8E 
 142 021d 78713FBB 		.ascii	"xq?\273\032I\351\327\370+\360ND\243\202\007\267\347"
 142      1A49E9D7 
 142      F82BF04E 
 142      44A38207 
 142      B7E7
 143 022f 72A2FAC1 		.ascii	"r\242\372\301 \220*\303\321e\015\003\02702\344PD\336"
 143      20902AC3 
 143      D1650D03 
 143      173032E4 
 143      5044DE
 144 0242 20037D3D 		.ascii	" \003}=\235\341\3650\277\221\277\016(o\024\201\247\""
 144      9DE1F530 
 144      BF91BF0E 
 144      286F1481 
 144      A722
 145 0254 90BB6E9E 		.ascii	"\220\273n\236\264\346\034^S\306\326\371\353yMv\336\244"
 145      B4E61C5E 
 145      53C6D6F9 
 145      EB794D76 
 145      DEA4
 146 0266 0B47207B 		.ascii	"\013G {E\254\347su$\252\215\325\010\021\346KU\303\317"
 146      45ACE773 
 146      7524AA8D 
 146      D50811E6 
 146      4B55C3CF 
 147 027a 00F0AA0E 		.ascii	"\000\360\252\016 p'\220]b>o~\261\371J\353B\332\275\021"
 147      20702790 
 147      5D623E6F 
 147      7EB1F94A 
 147      EB42DABD 
 148 028f 583D5CD9 		.ascii	"X=\\\331\225\302\237=K[\3356n\230\337\224\021\350\355"
 148      95C29F3D 
 148      4B5BDD36 
 148      6E98DF94 
 148      11E8ED
 149 02a2 DE2A670B 		.ascii	"\336*g\013\253\234\357\251rlJXk\246\300\203f\320\374"
 149      AB9CEFA9 
 149      726C4A58 
 149      6BA6C083 
 149      66D0FC
 150 02b5 D21E3C6E 		.ascii	"\322\036<n'z\334yje+_\254k\272M\251\3203\326?\021k\243"
 150      277ADC79 
ARM GAS  /tmp/cchTuLYH.s 			page 11


 150      6A652B5F 
 150      AC6BBA4D 
 150      A9D033D6 
 151 02cd A05BECB6 		.ascii	"\240[\354\266\246\0335\023\015\230L6`4Y\3625\251\355"
 151      A61B3513 
 151      0D984C36 
 151      603459F2 
 151      35A9ED
 152 02e0 07E2B97C 		.ascii	"\007\342\271|\267v\360\332w\344C\220\273\030\020\366"
 152      B776F0DA 
 152      77E44390 
 152      BB1810F6 
 153 02f0 8DD56461 		.ascii	"\215\325da6\002\375\260\311}\253\357`[}\233\340\336"
 153      3602FDB0 
 153      C97DABEF 
 153      605B7D9B 
 153      E0DE
 154 0302 25727AE1 		.ascii	"%rz\341\022;3Z\362\373\026\262\361\256\204\331\307\012"
 154      123B335A 
 154      F2FB16B2 
 154      F1AE84D9 
 154      C70A
 155 0314 F38EE0D2 		.ascii	"\363\216\340\322\204sL\250\027O\222\003\031\234[k%\365"
 155      84734CA8 
 155      174F9203 
 155      199C5B6B 
 155      25F5
 156 0326 A3E7FEE7 		.ascii	"\243\347\376\347 Z\360Nj\301\313_9\260_`\274\301\013"
 156      205AF04E 
 156      6AC1CB5F 
 156      39B05F60 
 156      BCC10B
 157 0339 D661C43A 		.ascii	"\326a\304:\315x\303\276&\332\231\005M\336\0204\232r"
 157      CD78C3BE 
 157      26DA9905 
 157      4DDE1034 
 157      9A72
 158 034b 9006F0A0 		.ascii	"\220\006\360\240\336\231eQ\300U\003\377/\333\300\335"
 158      DE996551 
 158      C05503FF 
 158      2FDBC0DD 
 159 035b 1EACB5FF 		.ascii	"\036\254\265\377Of\255\355\031=\361\240{O<\306\312\366"
 159      4F66ADED 
 159      193DF1A0 
 159      7B4F3CC6 
 159      CAF6
 160 036d A0E8D278 		.ascii	"\240\350\322x\373\233P\275\010\226\271g\352\260\020"
 160      FB9B50BD 
 160      0896B967 
 160      EAB010
 161 037c CC473F28 		.ascii	"\314G?(}\261\251\237\311F\354/X\261\037q+\366\300^\264"
 161      7DB1A99F 
 161      C946EC2F 
 161      58B11F71 
 161      2BF6C05E 
 162 0391 6766B14F 		.ascii	"gf\261Of\024\373\355\213%\366\011V\354\271\331\211]"
 162      6614FBED 
ARM GAS  /tmp/cchTuLYH.s 			page 12


 162      8B25F609 
 162      56ECB9D9 
 162      895D
 163 03a3 C0B187E6 		.ascii	"\300\261\207\346c9a\376\025\376\032\370\370\026\322"
 163      633961FE 
 163      15FE1AF8 
 163      F816D2
 164 03b2 46A47B91 		.ascii	"F\244{\221\356G\372)\322\317\221~\013\324\221\327\025"
 164      EE47FA29 
 164      D2CF917E 
 164      0BD491D7 
 164      15
 165 03c3 2CAF4F21 		.ascii	",\257O!\257dp\320\272x\271\220m\332\224\306V\322\306"
 165      AF6470D0 
 165      BA78B990 
 165      6DDA94C6 
 165      56D2C6
 166 03d6 09017761 		.ascii	"\011\001wa\352,\216\177\026\211Z\230:\276aK\223q\264"
 166      EA2C8E7F 
 166      16895A98 
 166      3ABE614B 
 166      9371B4
 167 03e9 930949E0 		.ascii	"\223\011I\340\232\261\344\005\313a\304\005f\030\321"
 167      9AB1E405 
 167      CB61C405 
 167      6618D1
 168 03f8 BA7009CF 		.ascii	"\272p\011\317\365<x\207\341\216a\014S\317\323\312/3"
 168      F53C7887 
 168      E18E610C 
 168      53CFD3CA 
 168      2F33
 169 040a 89315D20 		.ascii	"\2111] b|D\305h?\335\317 D&\034\201\353\300r3\005+!"
 169      627C44C5 
 169      683FDDCF 
 169      2044261C 
 169      81EBC072 
 170 0422 C8534D88 		.ascii	"\310SM\210\346\247\003\0262\370\031\031\302\3744\001"
 170      E6A70316 
 170      32F81919 
 170      C2FC3401 
 171 0432 62157786 		.ascii	"b\025w\206\"\266\036\310\277\210y\260\2458>\212UdR\313"
 171      22B61EC8 
 171      BF8879B0 
 171      A5383E8A 
 171      556452CB 
 172 0446 63A89669 		.ascii	"c\250\226i>\275C\353\3463\350\305\010$p\217b\3019\226"
 172      3EBD43EB 
 172      E633E8C5 
 172      0824708F 
 172      62C13996 
 173 045a 7A99C3E8 		.ascii	"z\231\303\350e\355\216}\237>\"r=\217\001\006\325\314"
 173      65ED8E7D 
 173      9F3E2272 
 173      3D8F0106 
 173      D5CC
 174 046c 46D5ACA7 		.ascii	"F\325\254\247\240m\233:\370\336\351F\303|\213bv\016"
 174      A06D9B3A 
ARM GAS  /tmp/cchTuLYH.s 			page 13


 174      F8DEE946 
 174      C37C8B62 
 174      760E
 175 047e EF5D6EED 		.ascii	"\357]n\355\271\237\177Z \375\374;>=\203\236\247e\320"
 175      B99F7F5A 
 175      20FDFC3B 
 175      3E3D839E 
 175      A765D0
 176 0491 4A12C01C 		.ascii	"J\022\300\034\356\372m\201\333C\305Y\273\343\304\261"
 176      EEFA6D81 
 176      DB43C559 
 176      BBE3C4B1 
 177 04a1 85C16CB3 		.ascii	"\205\301l\263F\327\021A\340\336\307*\237\265l\352g\231"
 177      46D71141 
 177      E0DEC72A 
 177      9FB56CEA 
 177      6799
 178 04b3 A6EE7877 		.ascii	"\246\356xw\315r\313\246\366\346\311\372l\304\265X}\332"
 178      CD72CBA6 
 178      F6E6C9FA 
 178      6CC4B558 
 178      7DDA
 179 04c5 4FAA7FC1 		.ascii	"O\252\177\301\262\372\027\230\352O\266\256\351\266\212"
 179      B2FA1798 
 179      EA4FB6AE 
 179      E9B68A
 180 04d4 23B6D326 		.ascii	"#\266\323&a\376\266\313]\264\34224\243\015~^\027\363"
 180      61FEB6CB 
 180      5DB4E232 
 180      34A30D7E 
 180      5E17F3
 181 04e7 D40FA2D6 		.ascii	"\324\017\242\326j\267\347\262u\341g\255\025\221\373"
 181      6AB7E7B2 
 181      75E167AD 
 181      1591FB
 182 04f6 6D94FB93 		.ascii	"m\224\373\223\255\363V.\362\367\326\250\025n\266S\324"
 182      ADF3562E 
 182      F2F7D6A8 
 182      156EB653 
 182      D4
 183 0507 E6FFEC9D 		.ascii	"\346\377\354\235Qk\210;(b\253\003\242\323HDC\334E\021"
 183      516B883B 
 183      2862AB03 
 183      A2D34844 
 183      43DC4511 
 184 051b DB3C21DA 		.ascii	"\333<!\332\363\270\207\"\266; :\345\237\032b\013E\354"
 184      F3B88722 
 184      B63B203A 
 184      E59F1A62 
 184      0B45EC
 185 052e F48468CF 		.ascii	"\364\204h\317\343>\212\330\345\200\350\224Si\210\373"
 185      E33E8AD8 
 185      E580E894 
 185      536988FB 
 186 053e 29E2794F 		.ascii	")\342yO\210\366<~D\021\033\377\230\031\261\300\212\307"
 186      88F63C7E 
 186      44111BFF 
ARM GAS  /tmp/cchTuLYH.s 			page 14


 186      9819B1C0 
 186      8AC7
 187 0550 1E36654E 		.ascii	"\0366eN`\352\005&\201i\363k\321\243\343\335}\313\317"
 187      60EA0526 
 187      8169F36B 
 187      D1A3E3DD 
 187      7DCBCF
 188 0563 64E30014 		.ascii	"d\343\000\024\353\250_\017~\363\216{\013~V\352Pz\210"
 188      EBA85F0F 
 188      7EF38E7B 
 188      0B7E56EA 
 188      507A88
 189 0576 E314B5F5 		.ascii	"\343\024\265\365\015\247^\307\331\260\024\314\257)f"
 189      0DA75EC7 
 189      D9B014CC 
 189      AF2966
 190 0585 DBAD1771 		.ascii	"\333\255\027qD\341~\3121m\232r\034h\367v\230\337.\220"
 190      44E17ECA 
 190      316D9A72 
 190      1C68F776 
 190      98DF2E90 
 191 0599 19C77784 		.ascii	"\031\307w\204\020\345D\275\247\267\312\204\343i?y\337"
 191      10E544BD 
 191      A7B7CA84 
 191      E3693F79 
 191      DF
 192 05aa 2AC43A97 		.ascii	"*\304:\227\2667\226\006\326X\316\351M\361\233\254\275"
 192      B6379606 
 192      D658CEE9 
 192      4DF19BAC 
 192      BD
 193 05bb E7DBE9E9 		.ascii	"\347\333\351\351\201\001W\263\255\206\351.\354\254\247"
 193      810157B3 
 193      AD86E92E 
 193      ECACA7
 194 05ca 07F4CEFA 		.ascii	"\007\364\316\372\334W4\312o\362<\255*p\263\003\272\261"
 194      DC5734CA 
 194      6FF23CAD 
 194      2A70B303 
 194      BAB1
 195 05dc AEF94637 		.ascii	"\256\371F7V#\013.|7;y\232Q\236:F\2363\275\223\347\031"
 195      56230B2E 
 195      7C373B79 
 195      9A519E3A 
 195      469E33BD 
 196 05f3 569E93DE 		.ascii	"V\236\223\336\344\271\276\367\362\354Cy\2262\362\\\350"
 196      E4B9BEF7 
 196      F2EC4379 
 196      9632F25C 
 196      E8
 197 0604 9D3CAB18 		.ascii	"\235<\253\030y\366\235\362&\317M\214<J&u)\367\204S&"
 197      79F69DF2 
 197      26CF4D8C 
 197      3C4A2675 
 197      29F78453 
 198 0619 85332AC2 		.ascii	"\2053*\302\245\\\3174\206<\245\243\241m\371\026\036"
 198      A55CCF34 
ARM GAS  /tmp/cchTuLYH.s 			page 15


 198      863CA5A3 
 198      A16DF916 
 198      1E
 199 062a 1664AAD2 		.ascii	"\026d\252\322\246f\327\242\000\244l\363\256\343Yg\313"
 199      A666D7A2 
 199      00A46CF3 
 199      AEE35967 
 199      CB
 200 063b 46CC3728 		.ascii	"F\3147(f\343\350\336\246*\267c\246B\001\317\357\356"
 200      66E3E8DE 
 200      A62AB763 
 200      A64201CF 
 200      EFEE
 201 064d 6D4A6F08 		.ascii	"mJo\010\205\246T\216\014g\234s\271\243\030\234w\007"
 201      85A6548E 
 201      0C679C73 
 201      B9A3189C 
 201      7707
 202 065f F441CFC2 		.ascii	"\364A\317\302\246_i63[0\345r\344\001\223\314\331\267"
 202      A65F6936 
 202      335B30E5 
 202      72E40193 
 202      CCD9B7
 203 0672 EA114387 		.ascii	"\352\021C\207G%\006\273Z\265\322\241\223\362$\263U\276"
 203      472506BB 
 203      5AB5D2A1 
 203      93F224B3 
 203      55BE
 204 0684 FC170A95 		.ascii	"\374\027\012\225\207\325\177\212\325\037\267L\227\217"
 204      87D57F8A 
 204      D51FB74C 
 204      978F
 205 0692 33E9F28F 		.ascii	"3\351\362\217_\317;x\275\205\245\011\252U\244\365\341"
 205      5FCF3B78 
 205      BD85A509 
 205      AA55A4F5 
 205      E1
 206 06a3 81A1BE3B 		.ascii	"\201\241\276;\014\375+\253\334\016\034Q\316\011\352"
 206      0CFD2BAB 
 206      DC0E1C51 
 206      CE09EA
 207 06b2 CADDD734 		.ascii	"\312\335\3274Z\001\325\306\031w\330#\011\334b,\371\225"
 207      5A01D5C6 
 207      1977D823 
 207      09DC622C 
 207      F995
 208 06c4 25E75F19 		.ascii	"%\347_\031\206\224'6[\2163\204\036\035q\230\257\023"
 208      86942736 
 208      5B8E3384 
 208      1E1D7198 
 208      AF13
 209 06d6 0415B4F1 		.ascii	"\004\025\264\361\265\2133\244\014\363\363)fsa\026\331"
 209      B58B33A4 
 209      0CF3F329 
 209      66736116 
 209      D9
 210 06e7 77CF8395 		.ascii	"w\317\203\225:\314\177\003\375\261\020\346\277\025\310"
ARM GAS  /tmp/cchTuLYH.s 			page 16


 210      3ACC7F03 
 210      FDB110E6 
 210      BF15C8
 211 06f6 8CD10981 		.ascii	"\214\321\011\201\316\030\011\334\352\240\326\266?~\275"
 211      CE1809DC 
 211      EAA0D6B6 
 211      3F7EBD
 212 0705 E6E0ADD6 		.ascii	"\346\340\255\326\212t\353\362\236\027q\2720\002o\012"
 212      8A74EBF2 
 212      9E1771BA 
 212      30026F0A 
 213 0715 EA11F819 		.ascii	"\352\021\370\031}8\373Os\004\316n\011F\340\26622\236"
 213      7D38FB4F 
 213      7304CE6E 
 213      0946E0B6 
 213      32329E
 214 0728 38E8903C 		.ascii	"8\350\220<Y\216Ezh\335\354\256\237\261\356\332\030d"
 214      598E457A 
 214      68DDECAE 
 214      9FB1EEDA 
 214      1864
 215 073a DCF5B59F 		.ascii	"\334\365\265\237\334]\323\372\004S\177\254\177\017\326"
 215      DC5DD3FA 
 215      04537FAC 
 215      7F0FD6
 216 0749 7FCED2EA 		.ascii	"\177\316\322\352\317\261V\177a\315\341\201\026\266#"
 216      CFB1567F 
 216      61CDE181 
 216      16B623
 217 0758 32FEAAF9 		.ascii	"2\376\252\371`\027\305l\335\230\237\255\225\030\023"
 217      6017C56C 
 217      DD989FAD 
 217      951813
 218 0767 DAF314B2 		.ascii	"\332\363\024\262\335i\326\312\323R\225\013\035\2616"
 218      DD69D6CA 
 218      D352950B 
 218      1DB136
 219 0776 F8A048E4 		.ascii	"\370\240H\344{0\207N\346m\310\327\014NQ\026c\201\347"
 219      7B30874E 
 219      E66DC8D7 
 219      0C4E5116 
 219      6381E7
 220 0789 189FBA00 		.ascii	"\030\237\272\000>%\206\371\037\321\247\322\"\241\323"
 220      3E2586F9 
 220      1FD1A7D2 
 220      22A1D3
 221 0798 451773B1 		.ascii	"E\027s\2613D\306T\036\313\321t\320\345M\007\005.\015"
 221      3344C654 
 221      1ECBD174 
 221      D0E54D07 
 221      052E0D
 222 07ab F32C6B98 		.ascii	"\363,k\230u9\272a\236X\227\365\324o\226sW\217\212\304"
 222      7539BA61 
 222      9E5897F5 
 222      D46F9673 
 222      578F8AC4 
 223 07bf D917E5E8 		.ascii	"\331\027\345\350\316\376t\257\347\256\226\263\022m\\"
ARM GAS  /tmp/cchTuLYH.s 			page 17


 223      CEFE74AF 
 223      E7AE96B3 
 223      126D5C
 224 07ce 948D     		.ascii	"\224\215"
 225 07d0 AB51EDBC 		.ascii	"\253Q\355\274\222\243eo\315\367d\306)\260UMV\263\342"
 225      92A3656F 
 225      CDF764C6 
 225      29B0554D 
 225      56B3E2
 226 07e3 73D102D7 		.ascii	"s\321\002\327\344\350\275\334\272\246Q\012\250\253\331"
 226      E4E8BDDC 
 226      BAA6510A 
 226      A8ABD9
 227 07f2 B4062C59 		.ascii	"\264\006,Y'Z\371;y\252\367r\363\336t\234M3\366r\244"
 227      275AF93B 
 227      79AAF772 
 227      F3DE749C 
 227      4D33F672 
 228 0807 78F3AB59 		.ascii	"x\363\253Y\365r=\017\226G\350\362\304\353\310\242\360"
 228      F5723D0F 
 228      9647E8F2 
 228      C4EBC8A2 
 228      F0
 229 0818 5322D31B 		.ascii	"S\"\323\033\355\245M\320\325\342\224\177\032\033\241"
 229      EDA54DD0 
 229      D5E2947F 
 229      1A1BA1
 230 0827 C0D0086C 		.ascii	"\300\320\010l\344\372\230b\266\217\315\034\270\256w"
 230      E4FA9862 
 230      B68FCD1C 
 230      B8AE77
 231 0836 68562DA3 		.ascii	"hV-\243\375\214\"6\37693\2177\331\"j\312V\234\342K]"
 231      FD8C2236 
 231      FE39338F 
 231      37D9226A 
 231      CA569CE2 
 232 084c 6E4F8805 		.ascii	"nO\210\005\026\210g1\270\236\246\210\235\03795\337p"
 232      16886731 
 232      B89EA688 
 232      9D1F3935 
 232      DF70
 233 085e 472E9569 		.ascii	"G.\225i\347t\210:\310\307N\2553\334\221O\314\345gS\310"
 233      E774883A 
 233      C8C74EAD 
 233      33DC914F 
 233      CCE56753 
 234 0873 C6834E6C 		.ascii	"\306\203Nl\336\341\326\312\3460Qz\036D\351\001a\376"
 234      DEE1D6CA 
 234      E630517A 
 234      1E44E901 
 234      61FE
 235 0885 098CD24F 		.ascii	"\011\214\322O\"}\012\3513H7#\335\202t\033\322&\244{"
 235      227D0AE9 
 235      33483723 
 235      DD82741B 
 235      D226A47B 
 236 0899 90EE45BA 		.ascii	"\220\356E\272\037\351\034\214\360\013\220.B\372,\322"
ARM GAS  /tmp/cchTuLYH.s 			page 18


 236      1FE91C8C 
 236      F00B902E 
 236      42FA2CD2 
 237 08a9 E791D623 		.ascii	"\347\221\326#]\342&\376\233\206\000\020\225C\332\352"
 237      5DE226FE 
 237      9B860010 
 237      9543DAEA 
 238 08b9 CDF10DE7 		.ascii	"\315\361\015\347<y\232\225Z\025\203ZL1\317o\354e\337"
 238      3C799A95 
 238      5A15835A 
 238      4C31CF6F 
 238      EC65DF
 239 08cc EA39CEAF 		.ascii	"\3529\316\257@\016^\012\351q~a\257\343\374\006FGuM\236"
 239      400E5E0A 
 239      E9717E61 
 239      AFE3FC06 
 239      4647754D 
 240 08e1 52382B25 		.ascii	"R8+%),n\243\240m\0033#Z\316\321Y\231\336L\306\364\036"
 240      292C6EA3 
 240      A06D0333 
 240      235ACED1 
 240      5999DE4C 
 241 08f8 02D3F387 		.ascii	"\002\323\363\207\371\207\321|\036E\272\014\315\344\037"
 241      F987D17C 
 241      1E45BA0C 
 241      CDE41F
 242 0907 485F7663 		.ascii	"H_vc,\323\330\356{wH[\375l[x\321B\262\276\230\032\346"
 242      2CD3D8EE 
 242      7B77485B 
 242      FD6C5B78 
 242      D142B2BE 
 243 091e BB790CC9 		.ascii	"\273y\014\311iv\200\260/\244\255\026\277\371\3066O\233"
 243      697680B0 
 243      2FA4AD16 
 243      BFF9C636 
 243      4F9B
 244 0930 EC0C8AC7 		.ascii	"\354\014\212\307\031\232 7\013ghfNw9C\263F\014\002\013"
 244      199A2037 
 244      0B676866 
 244      4E773943 
 244      B3460C02 
 245 0945 07A82935 		.ascii	"\007\250)5\377\213\202\351\012\210H\367:\000\364\354"
 245      FF8B82E9 
 245      0A8848F7 
 245      3A00F4EC 
 246 0955 14C953BA 		.ascii	"\024\311S\272\343t\321\337,\364\202\033\002\004\356"
 246      E374D1DF 
 246      2CF4821B 
 246      0204EE
 247 0964 93909237 		.ascii	"\223\220\2227\372P8A}\372%\363\224\327_>\305<\0264E"
 247      FA503841 
 247      7DFA25F3 
 247      94D75F3E 
 247      C53C1634 
 248 0979 F49C2632 		.ascii	"\364\234&2h_\347/\314\257\027\311\244\351\006Q\264)"
 248      685FE72F 
 248      CCAF17C9 
ARM GAS  /tmp/cchTuLYH.s 			page 19


 248      A4E90651 
 248      B429
 249 098b 0819336D 		.ascii	"\010\0313m\213\266\305\371\326B;{\265\3758\334\264N"
 249      8BB6C5F9 
 249      D6423B7B 
 249      B5FD38DC 
 249      B44E
 250 099d C636C456 		.ascii	"\3066\304VLQ\246\367\321\032b\311gO\234\332\345WP=B"
 250      4C51A6F7 
 250      D11A62C9 
 250      674F9CDA 
 250      E557503D 
 251 09b2 BD8D50EB 		.ascii	"\275\215P\353(\024\004(\32780\226\303r\215\226\271N"
 251      28140428 
 251      D7383096 
 251      C3728D96 
 251      B94E
 252 09c4 2393EB74 		.ascii	"#\223\353t.\264\332\357\234c\221\037\354\244\210]\013"
 252      2EB4DAEF 
 252      9C63911F 
 252      ECA4885D 
 252      0B
 253 09d5 F55ECDE3 		.ascii	"\365^\315\343\320\346\301\031z\254\234\341\020+\301"
 253      D0E6C119 
 253      7AAC9CE1 
 253      102BC1
 254 09e4 AC7143AE 		.ascii	"\254qC\256\233=\305\340\177\224\275\363?\353] W\366"
 254      9B3DC5E0 
 254      7F94BDF3 
 254      3FEB5D20 
 254      57F6
 255 09f6 BE08DC41 		.ascii	"\276\010\334A\212\330\270\310)\2148\207R\005\263\235"
 255      8AD8B8C8 
 255      298C3887 
 255      5205B39D 
 256 0a06 6236FF3C 		.ascii	"b6\377<\213Pj\201\330A\021\333<!\332\363x\222\"\266"
 256      8B506A81 
 256      D84111DB 
 256      3C21DAF3 
 256      789222B6 
 257 0a1a 3B20F666 		.ascii	"; \366fo\222\355\0020\316\325\212\206\255I\246\011G"
 257      6F92ED02 
 257      30CED58A 
 257      86AD49A6 
 257      0947
 258 0a2c E219F665 		.ascii	"\342\031\366e?\324\307\215\316{)Y\207\333/\022\351\317"
 258      3FD4C78D 
 258      CE7B2959 
 258      87DB2F12 
 258      E9CF
 259 0a3e 52876B5D 		.ascii	"R\207k]\240m\2161\325O\270\263\257\377\240h\310[\230"
 259      A06D8E31 
 259      D54FB8B3 
 259      AFFFA068 
 259      C85B98
 260 0a51 A3C77730 		.ascii	"\243\307w0\234\316\325t\335\271\310)Ut^c\304T\361q\012"
 260      9CCED574 
ARM GAS  /tmp/cchTuLYH.s 			page 20


 260      DDB9C829 
 260      55745E63 
 260      C454F171 
 261 0a66 D9E568B6 		.ascii	"\331\345h\266\005V\015\330\363`\003\011d~\020\177s "
 261      05560DD8 
 261      F3600309 
 261      647E107F 
 261      7320
 262 0a78 C7C7DE79 		.ascii	"\307\307\336y7\322f\244-H\367\"}\037i+\322Cz\017\376"
 262      37D266A4 
 262      2D48F722 
 262      7D1F692B 
 262      D2437A0F 
 263 0a8d 93800ADC 		.ascii	"\223\200\012\334\223\271V\235\257)(:\373jV!\377\023"
 263      93B9569D 
 263      AF29283A 
 263      FB6A5621 
 263      FF13
 264 0a9f 8CD3CFE4 		.ascii	"\214\323\317\344\352!\177\355Y-\344+\266\372\023\011"
 264      EA217FED 
 264      592DE42B 
 264      B6FA1309 
 265 0aaf BDD28BD0 		.ascii	"\275\322\213\320\366#,\"\307\300\300%\334\\\364N\"\323"
 265      F6232C22 
 265      C7C0C025 
 265      DC5CF44E 
 265      22D3
 266 0ac1 44E30E7C 		.ascii	"D\343\016|\323\234\020\021\342\270x\011\336\031&2\361"
 266      D39C1011 
 266      E2B87809 
 266      DE192632 
 266      F1
 267 0ad2 157BBFF8 		.ascii	"\025{\277\370?1Dy\310\013\261w\375\250Hk\250Hv\265k"
 267      3F314479 
 267      C80BB177 
 267      FDA8486B 
 267      A84876B5 
 268 0ae7 F7E33236 		.ascii	"\367\34326\342\300\200\302\243\300\275\356\032\361/"
 268      E2C080C2 
 268      A3C0BDEE 
 268      1AF12F
 269 0af6 B6882EE7 		.ascii	"\266\210.\347\316\216\352\232\377\225\311F\276B\033"
 269      CE8EEA9A 
 269      FF95C946 
 269      BE421B
 270 0b05 D9486D64 		.ascii	"\331Hmd\303\371\265K\373*5\270@\"\332\373\326\262'\377"
 270      C3F9B54B 
 270      FB2A35B8 
 270      4022DAFB 
 270      D6B227FF 
 271 0b19 96E9C9BB 		.ascii	"\226\351\311\273\236?\226g\341f}\275w\273G\260\333u"
 271      9E3F9667 
 271      E1667DBD 
 271      77BB47B0 
 271      DB75
 272 0b2b 37E0F81E 		.ascii	"7\340\370\036e\"|4.>vY\026\2716\303^\230?\205\343\215"
 272      65227C34 
ARM GAS  /tmp/cchTuLYH.s 			page 21


 272      2E3E7659 
 272      16B936C3 
 272      5E983F85 
 273 0b41 7314B379 		.ascii	"s\024\263y\261\230e&m\202\354\246\220\255N\220\266\351"
 273      B1986526 
 273      6D82ECA6 
 273      90AD4E90 
 273      B6E9
 274 0b53 81097246 		.ascii	"\201\011rF\236\006\331\346\015\322\236\313\207(d\273"
 274      9E06D9E6 
 274      0DD29ECB 
 274      872864BB 
 275 0b63 13A46D7A 		.ascii	"\023\244mz`\202|\214Bvz\203\264\347r\036\205\354r\202"
 275      60827C8C 
 275      42767A83 
 275      B4E7721E 
 275      85EC7282 
 276 0b77 B44D104C 		.ascii	"\264M\020L\220\363)\344yo\220\366\\.\244\220\215+\034"
 276      90F329E4 
 276      796F90F6 
 276      5C2EA490 
 276      8D2B1C
 277 0b8a 200BECB9 		.ascii	" \013\354\271\004o\271^s\233\364\254\364\365+\030\267"
 277      046FB95E 
 277      739BF4AC 
 277      F4F52B18 
 277      B7
 278 0b9b E94F0104 		.ascii	"\351O\001\004\316\342\327f\231_\207a\257\217x\231h\364"
 278      CEE2D766 
 278      995F8761 
 278      AF8F7899 
 278      68F4
 279 0bad 32917A99 		.ascii	"2\221z\231\210^&\222\267\237\313\323\342\306\326\371"
 279      885E2692 
 279      B79FCBD3 
 279      E2C6D6F9 
 280 0bbd 8776D095 		.ascii	"\207v\320\225w\321\320e\273\203ZN\265\002!h\311\343"
 280      77D1D065 
 280      BB835A4E 
 280      B5022168 
 280      C9E3
 281 0bcf 25D6CC59 		.ascii	"%\326\314Y+\206\3215\210G\024\003\203v\037\321\365J"
 281      2B86D135 
 281      88471403 
 281      83761FD1 
 281      F54A
 282 0be1 8ADABAE2 		.ascii	"\212\332\272\342X\276\027Lf5_Uv\230\237\205\230\257"
 282      58BE174C 
 282      66355F55 
 282      76989F85 
 282      98AF
 283 0bf3 EBEEB542 		.ascii	"\353\356\265B\017,\326\230\366\023\222F>7\351\376\345"
 283      0F2CD698 
 283      F6139246 
 283      3E37E9FE 
 283      E5
 284 0c04 C8A711B3 		.ascii	"\310\247\021\263?gs\260\2219\314\237\200\016\275o\230"
ARM GAS  /tmp/cchTuLYH.s 			page 22


 284      3F6773B0 
 284      9139CC9F 
 284      800EBD6F 
 284      98
 285 0c15 3F899DF5 		.ascii	"?\211\235\365wH\277Gz\006\3519\244\027\220v#\235\346"
 285      7748BF47 
 285      7A06E939 
 285      A4179076 
 285      239DE6
 286 0c28 237406D2 		.ascii	"#t\006\322\231Hg#}\034\351\034\237\213\251\217Nv\235"
 286      99486723 
 286      7D1CE91C 
 286      9F8BA98F 
 286      4E769D
 287 0c3b 647B9EFB 		.ascii	"d{\236\373Y\210\244}\353\252\236\244\374ZfW^\217.\324"
 287      5988A47D 
 287      EBAA9EA4 
 287      FC5A6657 
 287      5E8F2ED4 
 288 0c4f 1A708A55 		.ascii	"\032p\212U3X\251l\0313\227\262\034:\233P\230\377\007"
 288      3358A96C 
 288      193397B2 
 288      1C3A9B50 
 288      98FF07
 289 0c62 8F6A42BA 		.ascii	"\217jB\272\032U\263\005\351Q\244\237!\375\002\351\227"
 289      1A55B305 
 289      E951A49F 
 289      21FD02E9 
 289      97
 290 0c73 489F70A3 		.ascii	"H\237p\243\232z};\277\241\367f\223\235\005\371\252\277"
 290      9A7A7D3B 
 290      BFA1F766 
 290      939D05F9 
 290      AABF
 291 0c85 36CC4A3F 		.ascii	"6\314J?\314O[s\245\016h\034\333\262\375\371ShN-\324"
 291      CC4F5B73 
 291      A50E681C 
 291      DBB2FDF9 
 291      53684E2D 
 292 0c9a 2F3BDE5D 		.ascii	"/;\336]\363\375\0125\347\313\002n!\302}\304\270\371"
 292      F3FD0A35 
 292      E7CB026E 
 292      21C27DC4 
 292      B8F9
 293 0cac 899DBFD5 		.ascii	"\211\235\277\325\224\0252\271y\310\350\346!\352\346"
 293      941532B9 
 293      79C8E8E6 
 293      21EAE6
 294 0cbb 21B55F56 		.ascii	"!\265_VVw\271,Ki\3346\\F\331\335%\250 \363}\336\323"
 294      5677B92C 
 294      4B69DC36 
 294      5C46D9DD 
 294      25A820F3 
 295 0cd2 BE677D76 		.ascii	"\276g}vi\237\266\005\302\276\354\223>\353\366\3632\224"
 295      699FB605 
 295      C2BEEC93 
 295      3EEBF6F3 
ARM GAS  /tmp/cchTuLYH.s 			page 23


 295      3294
 296 0ce4 7CDE97ED 		.ascii	"|\336\227\355o\354\236\363\031\006k\256~\367m\267|\352"
 296      6FEC9EF3 
 296      19066BAE 
 296      7EF76DB7 
 296      7CEA
 297 0cf6 62AD35CC 		.ascii	"b\2555\314/\201\036\301\305\213\230\360\371\254\322"
 297      2F811EC1 
 297      C58B98F0 
 297      F9ACD2
 298 0d05 41F2544B 		.ascii	"A\362TK\007W\266\324m\\d\265\210\345\263p\361\005}y"
 298      0757B6D4 
 298      6D5C64B5 
 298      88E5B370 
 298      F1057D79 
 299 0d19 15B4B1E5 		.ascii	"\025\264\261\345t\257\267j(\230\317S\314N\207eBsC\330"
 299      74AFB76A 
 299      2898CF53 
 299      CC4E8765 
 299      427343D8 
 300 0d2d 212EA188 		.ascii	"!.\241\210\315c3#:O\361(\210\313u\036=!\026\230\274"
 300      CD633323 
 300      3A4FF128 
 300      88CB751E 
 300      3D211698 
 301 0d42 4B0965CB 		.ascii	"K\011e\313\240\375|\020\3210v\257@\272\022\351\313z"
 301      A0FD7C10 
 301      D13076AF 
 301      40BA12E9 
 301      CB7A
 302 0d54 B082CEB2 		.ascii	"\260\202\316\262\257\346\346]\357\321\025t\245\345X"
 302      AFE6E65D 
 302      EFD11574 
 302      A5E558
 303 0d63 44DAC09C 		.ascii	"D\332\300\234#f\206\000\250;\320\325\334\363\351\206"
 303      23668600 
 303      A83BD0D5 
 303      DCF3E986 
 304 0d73 1344FA1F 		.ascii	"\023D\372\037\272\273\203\212_\300\220\2042\363\343"
 304      BABB838A 
 304      5FC09084 
 304      32F3E3
 305 0d82 81752DEA 		.ascii	"\201u-\352&\207k\271\245\351\364\023\344UuJa'\276\365"
 305      26876BB9 
 305      A5E9F413 
 305      E455754A 
 305      6127BEF5 
 306 0d96 9AEF6ADB 		.ascii	"\232\357j\333\272\224\335\370\377\306-#\226\3300} :"
 306      BA94DDF8 
 306      FFC62D23 
 306      96D8307D 
 306      203A
 307 0da8 25A71532 		.ascii	"%\247\0252H\266\332g\370G\021\204\257\372O4\276L\236"
 307      48B6DA67 
 307      F8471184 
 307      AFFA4F34 
 307      BE4C9E
ARM GAS  /tmp/cchTuLYH.s 			page 24


 308 0dbb EDCB1459 		.ascii	"\355\313\024Y\326\253\236\255;s\230\277WP\305i\\O#\240"
 308      D6AB9EAD 
 308      3B7398BF 
 308      5750C569 
 308      5C4F23A0 
 309 0dcf C2D5DC77 		.ascii	"\302\325\334w\246\217R'\250\303\374\353\031D\241@&&"
 309      A68F5227 
 309      A8C3FCEB 
 309      1944A140 
 309      2626
 310 0de1 8FCE9D3B 		.ascii	"\217\316\235;\243\336\212\311\214\341g\2239\374\220"
 310      A3DE8AC9 
 310      8CE16793 
 310      39FC90
 311 0df0 5FCEB1F1 		.ascii	"_\316\261\361G\340\366\3206x\363\320\007\253\214\013"
 311      47E0F6D0 
 311      3678F3D0 
 311      07AB8C0B 
 312 0e00 CF61FECD 		.ascii	"\317a\376\315\236\352\3229\321\232\361,\205\330\320"
 312      9EEAD239 
 312      D19AF12C 
 312      85D8D0
 313 0e0f 5EF78011 		.ascii	"^\367\200\021\340\255L\000&Q\310\232\233\275,[-B\251"
 313      E0AD4C00 
 313      2651C89A 
 313      9BBD2C5B 
 313      2D42A9
 314 0e22 DFEE1782 		.ascii	"\337\356\027\202O\013\314G\323\004\032a\332\272\032"
 314      4F0BCC47 
 314      D3041A61 
 314      DABA1A
 315 0e31 B6577CC7 		.ascii	"\266W|\307Gl\357\371|];u\332\2669%8\033\3044Ek#\227"
 315      476CEFF9 
 315      7C5D3B75 
 315      DAB63925 
 315      381BC434 
 316 0e49 869F2A82 		.ascii	"\206\237*\202\333S\314\346\227&\031avz\320V\306\206"
 316      DB53CCE6 
 316      97261961 
 316      767AD056 
 316      C686
 317 0e5b DF6D5616 		.ascii	"\337mV\026IF\364\237\313*\236i\340j\223.\351#\363w\030"
 317      4946F49F 
 317      CB2A9E69 
 317      E06A932E 
 317      E923F377 
 318 0e70 3AF030DF 		.ascii	":\3600\337|\261\370j\351\3415\002\327@k\356\350\\\267"
 318      7CB1F86A 
 318      E9E13502 
 318      D7406BEE 
 318      E85CB7
 319 0e83 4A30D6FC 		.ascii	"J0\326\374^f\003lA\003\354\240\010+\2779\365\252\211"
 319      5E66036C 
 319      4103ECA0 
 319      082BBF39 
 319      F5AA89
 320 0e96 F77D4684 		.ascii	"\367}F\204_r/\020\204t\375\250\364\321\356\356\253\265"
ARM GAS  /tmp/cchTuLYH.s 			page 25


 320      5F722F10 
 320      8474FDA8 
 320      F4D1EEEE 
 320      ABB5
 321 0ea8 FFF632AF 		.ascii	"\377\3662\257\037\205hYw\372c\372k\005\323\277r!\200"
 321      1F856859 
 321      77FA63FA 
 321      6B05D3BF 
 321      722180
 322 0ebb 1FE88004 		.ascii	"\037\350\200\004\254a/X\314\303b:}\036F9J\226\002C\312"
 322      AC612F58 
 322      CCC3623A 
 322      7D1E4639 
 322      4A960243 
 323 0ed0 7E7A64AB 		.ascii	"~zd\253k\241\353\226Vi\315~#\034\362\246\301i\375\361"
 323      6BA1EB96 
 323      5669CD7E 
 323      231CF2A6 
 323      C169FDF1 
 324 0ee4 C3C798DC 		.ascii	"\303\307\230\334(}9\005\331k\034\373\205\371\003>\""
 324      287D3905 
 324      D96B1CFB 
 324      85F9033E 
 324      22
 325 0ef5 CC625AFB 		.ascii	"\314bZ\373\362W\366\355\374\215\002\356\012K\340Va\331"
 325      F257F6ED 
 325      FC8D02EE 
 325      0A4BE056 
 325      61D9
 326 0f07 8F2D7BF8 		.ascii	"\217-{\370\217}\306\337\367\315\266\352\341\003\016"
 326      8F7DC6DF 
 326      F7CDB6EA 
 326      E1030E
 327 0f16 939947F5 		.ascii	"\223\231G\365|\342J\023\367\207\221\373\365\014\367"
 327      7CE24A13 
 327      F78791FB 
 327      F50CF7
 328 0f25 479A6E37 		.ascii	"G\232n7r\237\001\011\306\037X\362\023K\336?1\360>o\245"
 328      729F0109 
 328      C61F58F2 
 328      134BDE3F 
 328      31F03E6F 
 329 0f3a 23EFDACA 		.ascii	"#\357\332\312\323^\012\332\334\221\365\312\223i\217"
 329      D35E0ADA 
 329      DC91F5CA 
 329      93698F
 330 0f49 C68714B3 		.ascii	"\306\207\024\263\365\257\331\346\022\332n\227g\221\313"
 330      F5AFD9E6 
 330      12DA6E97 
 330      6791CB
 331 0f58 2314B1DD 		.ascii	"#\024\261\335\023b\201\005\217\312\306\277\317(\342"
 331      13628105 
 331      8FCAC6BF 
 331      CF28E2
 332 0f67 F98E8BF5 		.ascii	"\371\216\213\365\353\230\257(f\343\003^\020\355\271"
 332      EB98AF28 
 332      66E3035E 
ARM GAS  /tmp/cchTuLYH.s 			page 26


 332      10EDB9
 333 0f76 FC8E22B6 		.ascii	"\374\216\"\2669 Z\316\006\365<X\373\011\363\307 \251"
 333      39205ACE 
 333      06F53C58 
 333      FB09F3C7 
 333      20A9
 334 0f88 82BADA31 		.ascii	"\202\272\3321\3519\216\364s\244\035H;\221~\315&X\335"
 334      E9398EF4 
 334      73A41D48 
 334      3B917ECD 
 334      2658DD
 335 0f9b D47FBA7E 		.ascii	"\324\177\272~\320"
 335      D0
 336 0fa0 CDC564AA 		.ascii	"\315\305d\252\316\366b\357?\0316I\236D\377\231\331_"
 336      CEF662EF 
 336      3F193649 
 336      9E44FF99 
 336      D95F
 337 0fb2 F79FE776 		.ascii	"\367\237\347v\376\331\336\177zlI}\006K~g\351?\337\031"
 337      FED9DE7F 
 337      7A6C497D 
 337      064B7E67 
 337      E93FDF19 
 338 0fc6 FCE7C48F 		.ascii	"\374\347\304\217\217:e\367\275\371\351\366Y\024d-#H"
 338      8F3A65F7 
 338      BDF9E9F6 
 338      5914642D 
 338      2348
 339 0fd8 DDCED1F6 		.ascii	"\335\316\321\366\202\324\233\177\274\275\035K^\260\024"
 339      82D49B7F 
 339      BCBD1D4B 
 339      5EB014
 340 0fe7 E4825190 		.ascii	"\344\202Q\220\323\226\202\030\177\277}\006s\201\017"
 340      D3968218 
 340      7FBF7D06 
 340      73810F
 341 0ff6 2868FBA1 		.ascii	"(h\373\241\336\357(W0\017"
 341      DEEF2857 
 341      300F
 342 1000 52CCCE70 		.ascii	"R\314\316po\207)\312\177*9F\021\273\0169\255\351y\332"
 342      6F8729CA 
 342      7F2A3946 
 342      11BB0E39 
 342      ADE979DA 
 343 1014 B0EB3671 		.ascii	"\260\3536qz\310O\004\353d\332\356L\223\353\304\011\034"
 343      7AC84F04 
 343      EB64DAEE 
 343      4C93EBC4 
 343      091C
 344 1026 9AF20F8D 		.ascii	"\232\362\017\215\363\275\323^Q\347`\206C\210\013\024"
 344      F3BDD35E 
 344      51E76086 
 344      43880B14 
 345 1036 B4F97056 		.ascii	"\264\371pV\261\254\347\301\232W\230\357\366\341.\242"
 345      B1ACE7C1 
 345      9A5798EF 
 345      F6E12EA2 
ARM GAS  /tmp/cchTuLYH.s 			page 27


 346 1046 B49FC483 		.ascii	"\264\237\304\203\351H\037D:\013\351l\277\213\341\322"
 346      E9481F44 
 346      3A0BE96C 
 346      BF8BE1D2 
 347 1056 195D3761 		.ascii	"\031]7a~\232_P]\261=r1L-\314\317\240\210]\236\020\355"
 347      7E9A5F50 
 347      5DB13D72 
 347      314C2DCC 
 347      CFA0885D 
 348 106d 4C2DCCCF 		.ascii	"L-\314\317\244\210\215\237\367\326\3244\363}\360\022"
 348      A4888D9F 
 348      F7D6D434 
 348      F37DF012 
 349 107d 2D0435C6 		.ascii	"-\0045\306\263\037\023\033\332\351;\246\235\276W\006"
 349      B31F131B 
 349      DAE93BA6 
 349      9DBE5706 
 350 108d C93F28D3 		.ascii	"\311?(\323\234\3306\177G:\307\317\304\360\271\227h1"
 350      9CD8367F 
 350      473AC7CF 
 350      C4F0B997 
 350      6831
 351 109f BC75AA4D 		.ascii	"\274u\252M\260\264\356UX]e\265\311\270\316O\002\337"
 351      B0B4EE55 
 351      585D65B5 
 351      C9B8CE4F 
 351      02DF
 352 10b1 D397E8CE 		.ascii	"\323\227\350\316\263q\247\227M\306\313\261\344S~\253"
 352      B371A797 
 352      4DC6CBB1 
 352      E4537EAB 
 353 10c1 C0479E32 		.ascii	"\300G\2362\331\333Z\313\014\210g\0263\320\375g\350\033"
 353      D9DB5ACB 
 353      0C886716 
 353      33D0FD67 
 353      E81B
 354 10d3 1F844CE3 		.ascii	"\037\204L\343a\303\31797P6Z\277Z\233\315\016v\253v\324"
 354      61C3CF39 
 354      3750365A 
 354      BF5A9BCD 
 354      0E76AB76 
 355 10e8 A50AF30B 		.ascii	"\245\012\363\013\374\270\007n!\333j\015\264\325\272"
 355      FCB8076E 
 355      21DB6A0D 
 355      B4D5BA
 356 10f7 CE3899A3 		.ascii	"\3168\231\243q~\335\330lJ\362\247\374\233\214F\335\022"
 356      717EDDD8 
 356      6C4AF2A7 
 356      FC9B8C46 
 356      DD12
 357 1109 FE467B1B 		.ascii	"\376F{\033\343\277\304\320\3563\255qga\011\365h\011"
 357      E3BFC4D0 
 357      EE33AD71 
 357      676109F5 
 357      6809
 358 111b EF514B58 		.ascii	"\357QKXr\370\365#\356\377\011\013\321\327RK+X\312XA"
 358      72F8F523 
ARM GAS  /tmp/cchTuLYH.s 			page 28


 358      EEFF090B 
 358      D1D7524B 
 358      2B58CA58 
 359 1130 E346ABFF 		.ascii	"\343F\253\377]\302\367f[\351r?.xR\266W\276xJ\377\265"
 359      5DC2F766 
 359      5BE9723F 
 359      2E7852B6 
 359      57BE784A 
 360 1146 6696DB4A 		.ascii	"f\226\333J\037\032\300\253\342,9\374\344\021\207m\245"
 360      1F1AC0AB 
 360      E22C39FC 
 360      E411876D 
 360      A5
 361 1157 AECD6929 		.ascii	"\256\315i)cN/*\346\264\2145\247\277\017\320\232\036"
 361      634E2F2A 
 361      E6B48C35 
 361      A7BF0FD0 
 361      9A1E
 362 1169 3AA22F1D 		.ascii	":\242/\035\026\361\354W3\3228:\014\030'\375\2259|:*"
 362      16F1EC57 
 362      33D2383A 
 362      0C1827FD 
 362      95397C3A 
 363 117e EC4B713E 		.ascii	"\354Kq>\324\266D\276\354\367>\331\375\212\372\3770u"
 363      D4B644BE 
 363      ECF73ED9 
 363      FD8AFAFF 
 363      3075
 364 1190 5568773F 		.ascii	"Uhw?\247R\315\243R\265\235\317\267c@\373\340zI\345c"
 364      A752CDA3 
 364      52B59DCF 
 364      B76340FB 
 364      E07A49E5 
 365 11a5 26C4B629 		.ascii	"&\304\266))\363!\014\261'\220>\201!\3669\244\213\221"
 365      29F3210C 
 365      B127903E 
 365      8121F639 
 365      A48B91
 366 11b8 AE62355D 		.ascii	"\256b5]?\200N\210<\262\364\012\032pMCS\234\317\363\323"
 366      3F804E88 
 366      3CB2F40A 
 366      1A704D43 
 366      539CCFF3 
 367 11cd B1B2E592 		.ascii	"\261\262\345\222J\203\262\177\344\035&R\031\007j\270"
 367      4A83B27F 
 367      E41D2652 
 367      19076AB8 
 368 11dd AF2F0BD5 		.ascii	"\257/\013\325\256\265U\255\366\037\010\355\313\256\366"
 368      AEB555AD 
 368      F61F08ED 
 368      CBAEF6
 369 11ec 5BAF2328 		.ascii	"[\257#(\243u\373r\353\364r\350\361\323\322\365w\254"
 369      A375FB72 
 369      EBF472E8 
 369      F1D3D2F5 
 369      77AC
 370 11fe C8E0F1F4 		.ascii	"\310\340\361\364\267\226\231^\012\363\353-\303\302z"
ARM GAS  /tmp/cchTuLYH.s 			page 29


 370      B796995E 
 370      0AF3EB2D 
 370      C3C27A
 371 120d 262CBC7A 		.ascii	"&,\274z\274\353\324\375\026\355,X,j\356\307\266#\245"
 371      BCEBD4FD 
 371      16ED2C58 
 371      2C6AEEC7 
 371      B623A5
 372 1220 1BB7E841 		.ascii	"\033\267\350A\327zQ\323\250(\365\260\300\374\210b6\337"
 372      D77A51D3 
 372      A828F5B0 
 372      C0FC8862 
 372      36DF
 373 1232 E605D1B8 		.ascii	"\346\005\321\270L\252\005\026!\314oD\233{C\2679\374"
 373      4CAA0516 
 373      21CC6F44 
 373      9B7B43B7 
 373      39FC
 374 1244 D1F63487 		.ascii	"\321\3664\207\010\352\362\227\335o\371\255~\331M\236"
 374      08EAF297 
 374      DD6FF9AD 
 374      7ED94D9E 
 375 1254 D25DAE6F 		.ascii	"\322]\256oI\366\3324\254\010\034A\311I\331\256\267z"
 375      49F6DA34 
 375      AC081C41 
 375      C949D9AE 
 375      B77A
 376 1266 F3CBEE34 		.ascii	"\363\313\3564js=v!\237P\314\326-We\037;\031unEu6\350"
 376      6A733D76 
 376      219F50CC 
 376      D62D5765 
 376      1F3B1975 
 377 127f EAF4B81F 		.ascii	"\352\364\270\037i;\362u\214z}\343\326\014{\213-v#\355"
 377      693BF275 
 377      8C7A7DE3 
 377      D60C7B8B 
 377      2D7623ED 
 378 1293 B0B4E01D 		.ascii	"\260\264\340\035\214\005wn\236`\241\361\\\213\215\032"
 378      8C05776E 
 378      9E60A1F1 
 378      5C8B8D1A 
 379 12a3 DF2217A4 		.ascii	"\337\"\027\244\354\371\315Yk\334\204y\232b6\3766\313"
 379      ECF9CD59 
 379      6BDC8479 
 379      9A6236FE 
 379      36CB
 380 12b5 4CDB8478 		.ascii	"L\333\204x\201\"6; \272\335?4\363R\015\261\325\023\242"
 380      8122363B 
 380      20BADD3F 
 380      34F3520D 
 380      B1D513A2 
 381 12c9 3D8FB329 		.ascii	"=\217\263)b\233\003\242\333\335Cs(b\273'D\226\307i*"
 381      629B03A2 
 381      DBDD4373 
 381      2862BB27 
 381      4496C769 
 382 12de E266B07F 		.ascii	"\342f\260\177\201\253\323y\334rEfH\267\233\207\026\350"
ARM GAS  /tmp/cchTuLYH.s 			page 30


 382      81ABD379 
 382      DC724566 
 382      48B79B87 
 382      16E8
 383 12f0 4C6EC97A 		.ascii	"Ln\311z\017\255\011\3639\212\331y[f\304\002\227\\.\241"
 383      0FAD09F3 
 383      398AD979 
 383      5B66C402 
 383      975C2EA1 
 384 1304 885D9E10 		.ascii	"\210]\236\020\355x\014\363gEAs\034\007D\313\3751=\017"
 384      ED780CF3 
 384      67454173 
 384      1C0744CB 
 384      FD313D0F 
 385 1318 D6AFC37C 		.ascii	"\326\257\303|\023dd\271a~'\206\232\335H\367 }\027\351"
 385      136464B9 
 385      617E2786 
 385      9ADD48F7 
 385      207D17E9 
 386 132c 7B48F721 		.ascii	"{H\367!\375\000\351~\244\007\220~\204\364\240\036\240"
 386      FD00E97E 
 386      A407907E 
 386      84F4A01E 
 386      A0
 387 133d 4CFD2E09 		.ascii	"L\375.\011@\366\001\275\315o\277\362\256,\251\331\227"
 387      40F601BD 
 387      CD6FBFF2 
 387      AE2CA9D9 
 387      97
 388 134e 3D64DBD7 		.ascii	"=d\333\327\267d,w\330\266\334\356\214\345\216\330\226"
 388      B7642C77 
 388      D8B6DCEE 
 388      8CE58ED8 
 388      96
 389 135f DB9AB1DC 		.ascii	"\333\232\261\334Q\275\034\227W\022\223\342eUER|RL\012"
 389      51BD1C97 
 389      571293E2 
 389      65554552 
 389      7C524C0A 
 390 1373 DC75CFBD 		.ascii	"\334u\317\275\005#\270k\006\015*T\376\022\251\302\312"
 390      0523B86B 
 390      060D2A54 
 390      FE12A9C2 
 390      CA
 391 1384 B2AAC278 		.ascii	"\262\252\302xM\264\252\266<V\230\302w\007Ur\375\330"
 391      4DB4AAB6 
 391      3C5698C2 
 391      77075572 
 391      FDD8
 392 1396 52F78D29 		.ascii	"R\367\215)\015\244\342\177\213E\344\337\025\326\246"
 392      0DA4E27F 
 392      8B45E4DF 
 392      15D6A6
 393 13a5 A4C2AA44 		.ascii	"\244\302\252D\024\312\214\217\327\020\204\252\370\370"
 393      14CA8C8F 
 393      D71084AA 
 393      F8F8
ARM GAS  /tmp/cchTuLYH.s 			page 31


 394 13b3 C28A68B4 		.ascii	"\302\212h\264\260L\252\276\261&Q\023\2731V6>^8l\320"
 394      B04CAABE 
 394      B1265113 
 394      BB315636 
 394      3E5E386C 
 395 13c8 2D8386E8 		.ascii	"-\203\206\350\260ryyl\002\300\006k\3435\362\360\210"
 395      B0727979 
 395      6C02C006 
 395      6BE335F2 
 395      F088
 396 13da 7CBF371C 		.ascii	"|\2777\034\312.\374\031\277gj\000d\250\301?Y\212\313"
 396      CA2EFC19 
 396      BF676A00 
 396      64A8C13F 
 396      598ACB
 397 13ed 319F142B 		.ascii	"1\237\024++\367W\247*\"\3620VVI.L&$9Uxg\361\230\021"
 397      2BF757A7 
 397      2A22F230 
 397      5656492E 
 397      4C262439 
 398 1407 63A61446 		.ascii	"c\246\024F\023\325\311xULJ\025\3365bDa\264R\236\232"
 398      13D5C978 
 398      554C4A15 
 398      DE356244 
 398      61B4529E 
 399 141c 8CA5089F 		.ascii	"\214\245\010\237\0006tHD\026\223\265\262X\021\223C\251"
 399      00367448 
 399      441693B5 
 399      B2581193 
 399      43A9
 400 142e A929395E 		.ascii	"\251)9^\015\032\270\326\004\2471\020\255$\257\250\305"
 400      0D1AB8D6 
 400      04A73110 
 400      AD24AFA8 
 400      C5
 401 143f 736AD5F2 		.ascii	"sj\325\362>(/\373\000@\016 _\262\2370&\213\223\252\345"
 401      3E282FFB 
 401      00400E20 
 401      5FB29F30 
 401      268B93AA 
 402 1454 FCD8A458 		.ascii	"\374\330\244X\215\034I%j\245(\340\376\322\026\027\337"
 402      8D1C4925 
 402      6AA528E0 
 402      FED21617 
 402      DF
 403 1465 23A8796C 		.ascii	"#\250yl\211\376\312\207\252xJ\216\325\304\244\210\206"
 403      89FECA87 
 403      AA784A8E 
 403      D5C4A488 
 403      86
 404 1476 A73D08C6 		.ascii	"\247=\010\306\252\"5\261)r\216\\I\252\214\310\241he"
 404      AA2235B1 
 404      29728E5C 
 404      49AA8CC8 
 404      A16865
 405 1489 44B92FB0 		.ascii	"D\271/\260\027!ZY\016\025\005\222X\024.I)6)('\245x\""
 405      17215A59 
ARM GAS  /tmp/cchTuLYH.s 			page 32


 405      0E150592 
 405      58142E49 
 405      29362928 
 406 14a1 A27C8C27 		.ascii	"\242|\214'\202\321D\215\014\337^\227Q\257\225\321\204"
 406      82D1448D 
 406      0CDF5E97 
 406      51AF95D1 
 406      84
 407 14b2 1403A85C 		.ascii	"\024\003\250\\\3628\002\332\210\312S\376\335\271Dd\322"
 407      F23802DA 
 407      88CA53FE 
 407      DDB94464 
 407      D2
 408 14c3 2DD5447F 		.ascii	"-\325D\177R\254\002\3329\"\013\3220A\372\265 \335,H"
 408      52AC02DA 
 408      39220BD2 
 408      3041FAB5 
 408      20DD2C48 
 409 14d7 B708D270 		.ascii	"\267\010\322pA\272U\224\006\337\004\347`\241J\202\313"
 409      41BA5594 
 409      06DF04E7 
 409      60A14A82 
 409      CB
 410 14e8 507F3202 		.ascii	"P\1772\002\310A\302\360d\020:\031IT\225\307$_\264\262"
 410      C841C2F0 
 410      64103A19 
 410      495495C7 
 410      245FB4B2 
 411 14fc 4C225294 		.ascii	"L\"R\224U\307r\344\224\\&\203\206\341K\274\013\312\325"
 411      55C772E4 
 411      945C2683 
 411      86E14BBC 
 411      0BCAD5
 412 150f 8972E5F3 		.ascii	"\211r\345\363\204\252\262\212TP\226b\023R(\037\271\011"
 412      84AAB28A 
 412      54509662 
 412      1352281F 
 412      B909
 413 1521 48E553C1 		.ascii	"H\345S\301prbS\342r\024^\014L\226\023\343\377\232\034"
 413      70726253 
 413      E272145E 
 413      0C4C9613 
 413      E3FF9A1C 
 414 1535 A0EA115E 		.ascii	"\240\352\021^\211I\261\032\322d\376\311\262,%\363@\257"
 414      8949B11A 
 414      D264FEC9 
 414      B22C25F3 
 414      40AF
 415 1547 A9587559 		.ascii	"\251XuY\262\022\370\277\332^\2651\"X?\005%\025\231X"
 415      B212F8BF 
 415      DA5EB531 
 415      22583F05 
 415      25159958 
 416 155b 1BAB0588 		.ascii	"\033\253\005\210\376\264Q\324GA\365\352\217B[\312\376"
 416      FEB451D4 
 416      4741F5EA 
 416      8F425BCA 
ARM GAS  /tmp/cchTuLYH.s 			page 33


 416      FE
 417 156c 5404AEC0 		.ascii	"T\004\256\300\001\224N\346\300\273\325\265\240z\373"
 417      01944EE6 
 417      C0BBD5B5 
 417      A07AFB
 418 157b 4AAAE529 		.ascii	"J\252\345)\304x\253U\254\352Hb21\005,\005\002V+\315"
 418      C478AB55 
 418      ACEA4862 
 418      3231052C 
 418      0502562B 
 419 1590 3A5986F7 		.ascii	":Y\206\367\222\271h/\325e\251\007\340\233\330dr#&#\265"
 419      92B9682F 
 419      D565A907 
 419      E09BD864 
 419      72232623 
 420 15a5 F91A3BC4 		.ascii	"\371\032;\304\220\"r?\206A\362$\224\214L.\213\313\361"
 420      9022723F 
 420      8641F224 
 420      948C4C2E 
 420      8BCBF1
 421 15b8 9A8A3EC9 		.ascii	"\232\212>\311\010\250Ia\026o\341A,\031\253\001?\254"
 421      08A84961 
 421      166FE141 
 421      2C19AB01 
 421      3FAC
 422 15ca 80B7A00A 		.ascii	"\200\267\240\012\362~\037\242\324\262*4\034x\230L$\252"
 422      F27E1FA2 
 422      D4B22A34 
 422      1C78984C 
 422      24AA
 423 15dc 72C13235 		.ascii	"r\30125+\015\301\275b\337\212qc\203D\344\034x\214\267"
 423      2B0DC1BD 
 423      62DF8A71 
 423      638344E4 
 423      1C788CB7 
 424 15f0 E4FBC94A 		.ascii	"\344\373\311J+\305R\310\275\037\337\013\245\312\325"
 424      2BC552C8 
 424      BD1FDF0B 
 424      A5CAD5
 425 15ff 560D9514 		.ascii	"V\015\225\024E\356\275g\364=\243K\203pWR:v\\\016\\\213"
 425      45EEBD67 
 425      F43DA34B 
 425      83705752 
 425      3A765C0E 
 426 1615 47DE5974 		.ascii	"G\336Yt\277\037_\351\033\257\001'\324\024n\357f\370"
 426      BF1F5FE9 
 426      1BAF0127 
 426      D4146EEF 
 426      66F8
 427 1627 0271B33E 		.ascii	"\002q\263>`\354\352\3339\332mh\242&6\334E\023\265\340"
 427      60ECEADB 
 427      39DA6D68 
 427      A22636DC 
 427      4513B5E0 
 428 163b 0152CEC4 		.ascii	"\001R\316\304\310\370\332\011`\015\376\211\0219\221"
 428      C8F8DA09 
 428      600DFE89 
ARM GAS  /tmp/cchTuLYH.s 			page 34


 428      113991
 429 164a 0CC22B52 		.ascii	"\014\302+RR\226\340*\225\30354\261&!\307'L\005\224\211"
 429      5296E02A 
 429      95C33534 
 429      B12621C7 
 429      274C0594 
 430 165f 11E53630 		.ascii	"\021\34560\021\004\257y \020G\314\374D\255\314p\026"
 430      1104AF79 
 430      201047CC 
 430      FC44ADCC 
 430      7016
 431 1671 48E08D10 		.ascii	"H\340\215\020\037/$\306\367\275\267\344\316\342\322"
 431      1F2F24C6 
 431      F7BDB7E4 
 431      CEE2D2
 432 1680 4829C493 		.ascii	"H)\304\223\242\330\204\301,\323\240\203\302\021cJF\227"
 432      A2D884C1 
 432      2CD3A083 
 432      C211634A 
 432      4697
 433 1692 149694C2 		.ascii	"\024\226\224\302\337\230\241C\3760t\312\024\010\200"
 433      DF98A143 
 433      FE3074CA 
 433      140880
 434 16a1 D543874C 		.ascii	"\325C\207L\030z\323\220)\303A\006qD\361`8\207\3009T"
 434      187AD390 
 434      29C34106 
 434      7144F160 
 434      3887C039 
 435 16b6 FC7D71B1 		.ascii	"\374}q\261\357\256\322q\305\276\342\322\261\305b\361"
 435      EFAED271 
 435      C5BEE2D2 
 435      B1C562F1 
 436 16c6 7F158BA3 		.ascii	"\177\025\213\243K\340\034Q\214aj\360\315\020\346\212"
 436      4BE01C51 
 436      8C616AF0 
 436      CD10E68A 
 437 16d6 8B8A43C5 		.ascii	"\213\212C\305#KF\026\3377\262h\260X\312|\032\342\257"
 437      234B4616 
 437      DF37B268 
 437      B058CA7C 
 437      1AE2AF
 438 16e9 4D9549B2 		.ascii	"M\225I\262?\012\301\372\201>)\371\201\262\252xE\015"
 438      3F0AC1FA 
 438      813E29F9 
 438      81B2AA78 
 438      450D
 439 16fb 0845CADE 		.ascii	"\010E\312\336<,\"\377\332\334\227(n\215\234\025\336"
 439      3C2C22FF 
 439      DADC9728 
 439      6E8D9C15 
 439      DE
 440 170c 7D775121 		.ascii	"}wQ!\2122i\210\332\267D\252\252H\210\361\247\222\261"
 440      8A326988 
 440      DAB744AA 
 440      AA4888F1 
 440      A792B1
ARM GAS  /tmp/cchTuLYH.s 			page 35


 441 171f 58B91895 		.ascii	"X\271\030\225\006\3039\004\316\241j?5\"Q3!^\021,E\233"
 441      06C33904 
 441      CEA16A3F 
 441      35225133 
 441      215E112C 
 442 1735 1B1CAC2E 		.ascii	"\033\034\254.\213\327\014\212rb\231T\321'ZYZY^R\025"
 442      8BD70C8A 
 442      72629954 
 442      D1275A59 
 442      5A595E52 
 443 174a 8B25FFD5 		.ascii	"\213%\377\325\266\025U[%\315X\032K\311\012\314@\372"
 443      B615555B 
 443      25CD581A 
 443      4BC90ACC 
 443      40FA
 444 175c BA0CCF48 		.ascii	"\272\014\317H\001r%\236\"O\250\255\211F\344K\020z\004"
 444      0172259E 
 444      224FA8AD 
 444      8946E44B 
 444      107A04
 445 176f BC2BC74A 		.ascii	"\274+\307J\300h\342\321`\252\034n$\0225K\246\246F\327"
 445      C068E2D1 
 445      60AA1C6E 
 445      2412354B 
 445      A6A646D7 
 446 1783 C4E50CAE 		.ascii	"\304\345\014\256=\025\273\014\220\235\274w\225]\337"
 446      3D15BB0C 
 446      909DBC77 
 446      955DDF
 447 1792 5A891DAB 		.ascii	"Z\211\035\253XR4$4\271L\225/\227\004\017\3507b\325J"
 447      58523424 
 447      34B94C95 
 447      2F97040F 
 447      E83762D5 
 448 17a7 8056EEF3 		.ascii	"\200V\356\363\310wSU\017\354\013\217\365\317AI\261\227"
 448      C8775355 
 448      0FEC0B8F 
 448      F5CF4149 
 448      B197
 449 17b9 8084C1D8 		.ascii	"\200\204\301\330/a\370\223\324\360')\341/\004Ok%\210"
 449      2F61F893 
 449      D4F02729 
 449      E12F044F 
 449      6B2588
 450 17cc 52D0DD90 		.ascii	"R\320\335\220"
 451 17d0 42974F8A 		.ascii	"B\227O\212Kr-\350\236ta\222\346\332W\000\260\305\027"
 451      4B722DE8 
 451      9E746192 
 451      E6DA5700 
 451      B0C517
 452 17e3 FD0CCF94 		.ascii	"\375\014\317\224\020ex\024\234$\243'\222+\351\037r\340"
 452      10657814 
 452      9C24A327 
 452      922BE91F 
 452      72E0
 453 17f5 5A1EAB92 		.ascii	"Z\036\253\222\313\340FQ'\371\206\334\005\310\033eR."
 453      CBE04651 
ARM GAS  /tmp/cchTuLYH.s 			page 36


 453      27F986DC 
 453      05C81B65 
 453      522E
 454 1807 5CAACA52 		.ascii	"\\\252\312R2)\015\217H%\371\252\320\345\261\361\265"
 454      32290D8F 
 454      4825F9AA 
 454      D0E5B1F1 
 454      B5
 455 1818 154A9461 		.ascii	"\025J\224a\237\204\222e5\361(\011*b\371\370\212>\304"
 455      9F849265 
 455      35F12809 
 455      2A62F9F8 
 455      8A3EC4
 456 182b 089486ED 		.ascii	"\010\224\206\355/WG g\210\217\227\240\221\022`\206W"
 456      2F574720 
 456      67888F97 
 456      A0911260 
 456      8657
 457 183d D95B0289 		.ascii	"\331[\002\211\267AI\306@\032HL\230\220\212\311\202\\"
 457      B74149C6 
 457      401A484C 
 457      98908AC9 
 457      825C
 458 184f 9D1F2FAF 		.ascii	"\235\037/\257\212\251!\015|Z\210V\016v2\340\273\306"
 458      8AA9210D 
 458      7C5A8856 
 458      0E7632E0 
 458      BBC6
 459 1861 8D1E0BF6 		.ascii	"\215\036\013\366\233\244\306+\002\0248D\254L\342\377"
 459      9BA4C62B 
 459      02143844 
 459      AC4CE2FF 
 460 1871 C48FCA43 		.ascii	"\304\217\312C\327\213T$I'\351\0373\266hdq`l\351\375"
 460      D78B5424 
 460      4927E91F 
 460      33B66864 
 460      71606CE9 
 461 1886 E3461607 		.ascii	"\343F\026\007\307\226\214\0339\262\250\330?\356\336"
 461      C7968C1B 
 461      39B2A8D8 
 461      3FEEDE
 462 1895 7145E071 		.ascii	"qE\340qp\216-*\366\375\276\004\034\362\356\021\177,"
 462      708E2D2A 
 462      F6FDBE04 
 462      1CF2EE11 
 462      7F2C
 463 18a7 F6DDF987 		.ascii	"\366\335\371\207\342\273\011\031\365\377!Ad\250"
 463      E2BB0919 
 463      F5FF2141 
 463      64A8
 464              		.text
 465              		.section	.gnu.lto_.symtab.40fb8eb46ae01d86,"",%progbits
 466 0000 6D61696E 		.ascii	"main\000\000\000\000\000\000\000\000\000\000\000\000"
 466      00000000 
 466      00000000 
 466      00000000 
 467 0010 34020000 		.ascii	"4\002\000\000chThdSleep\000\000\002\000\000\000\000"
ARM GAS  /tmp/cchTuLYH.s 			page 37


 467      63685468 
 467      64536C65 
 467      65700000 
 467      02000000 
 468 0025 00000000 		.ascii	"\000\000\000\000\0007\002\000\000TestThread\000\000"
 468      00370200 
 468      00546573 
 468      74546872 
 468      65616400 
 469 003a 02000000 		.ascii	"\002\000\000\000\000\000\000\000\000\000;\002\000\000"
 469      00000000 
 469      00003B02 
 469      0000
 470 0048 63685468 		.ascii	"chThdCreateStatic\000\000\002\000\000\000\000\000\000"
 470      64437265 
 470      61746553 
 470      74617469 
 470      63000002 
 471 0062 0000003D 		.ascii	"\000\000\000=\002\000\000sdStart\000\000\002\000\000"
 471      02000073 
 471      64537461 
 471      72740000 
 471      020000
 472 0075 00000000 		.ascii	"\000\000\000\000\000\000\000H\002\000\000chSysInit\000"
 472      00000048 
 472      02000063 
 472      68537973 
 472      496E6974 
 473 008a 00020000 		.ascii	"\000\002\000\000\000\000\000\000\000\000\000M\002\000"
 473      00000000 
 473      0000004D 
 473      0200
 474 0098 0068616C 		.ascii	"\000halInit\000\000\002\000\000\000\000\000\000\000"
 474      496E6974 
 474      00000200 
 474      00000000 
 474      0000
 475 00aa 00005002 		.ascii	"\000\000P\002\000\000ch\000\000\002\000\000\000\000"
 475      00006368 
 475      00000200 
 475      000000
 476 00b9 00000000 		.ascii	"\000\000\000\000\000V\002\000\000SD2\000\000\002\000"
 476      00560200 
 476      00534432 
 476      00000200 
 477 00c9 00000000 		.ascii	"\000\000\000\000\000\000\000\000R\002\000\000"
 477      00000000 
 477      52020000 
 478              		.text
 479              		.section	.gnu.lto_.opts,"",%progbits
 480 0000 272D6D63 		.ascii	"'-mcpu=cortex-m4''-mno-thumb-interwork''-mthumb''-g"
 480      70753D63 
 480      6F727465 
 480      782D6D34 
 480      27272D6D 
 481 0033 67646227 		.ascii	"gdb''-O2''-fomit-frame-pointer''-falign-functions=1"
 481      272D4F32 
ARM GAS  /tmp/cchTuLYH.s 			page 38


 481      27272D66 
 481      6F6D6974 
 481      2D667261 
 482 0066 3627272D 		.ascii	"6''-ffunction-sections''-fdata-sections''-fno-commo"
 482      6666756E 
 482      6374696F 
 482      6E2D7365 
 482      6374696F 
 483 0099 6E27272D 		.ascii	"n''-flto'\000"
 483      666C746F 
 483      2700
 484              		.text
 485              		.cfi_sections	.debug_frame
 486              		.section	.text.Thread1,"ax",%progbits
 487              		.align	2
 488              		.p2align 4,,15
 489              		.thumb
 490              		.thumb_func
 491              		.type	Thread1, %function
 492              	Thread1:
 493              	.LFB272:
 494              		.file 1 "main.c"
 495              		.loc 1 25 0
 496              		.cfi_startproc
 497              		@ args = 0, pretend = 0, frame = 0
 498              		@ frame_needed = 0, uses_anonymous_args = 0
 499              	.LVL0:
 500              	.LBB4:
 501              	.LBB5:
 502              		.file 2 "../../../os/rt/include/chregistry.h"
 503              		.loc 2 135 0
 504 0000 0B4B     		ldr	r3, .L4
 505 0002 0C4A     		ldr	r2, .L4+4
 506 0004 9B69     		ldr	r3, [r3, #24]
 507              	.LBE5:
 508              	.LBE4:
 509              		.loc 1 25 0
 510 0006 70B5     		push	{r4, r5, r6, lr}
 511              	.LCFI0:
 512              		.cfi_def_cfa_offset 16
 513              		.cfi_offset 4, -16
 514              		.cfi_offset 5, -12
 515              		.cfi_offset 6, -8
 516              		.cfi_offset 14, -4
 517              		.loc 1 30 0
 518 0008 4FF48064 		mov	r4, #1024
 519 000c 4FF40055 		mov	r5, #8192
 520              	.LBB7:
 521              	.LBB6:
 522              		.loc 2 135 0
 523 0010 9A61     		str	r2, [r3, #24]
 524              	.LBE6:
 525              	.LBE7:
 526              		.loc 1 30 0
 527 0012 C4F60004 		movt	r4, 18432
 528 0016 2E46     		mov	r6, r5	@ movhi
 529              	.LVL1:
ARM GAS  /tmp/cchTuLYH.s 			page 39


 530              	.L2:
 531              		.loc 1 30 0 is_stmt 0 discriminator 1
 532 0018 6683     		strh	r6, [r4, #26]	@ movhi
 533              		.loc 1 31 0 is_stmt 1 discriminator 1
 534 001a 41F28830 		movw	r0, #5000
 535 001e FFF7FEFF 		bl	chThdSleep
 536              	.LVL2:
 537              		.loc 1 32 0 discriminator 1
 538 0022 2583     		strh	r5, [r4, #24]	@ movhi
 539              		.loc 1 33 0 discriminator 1
 540 0024 41F28830 		movw	r0, #5000
 541 0028 FFF7FEFF 		bl	chThdSleep
 542              	.LVL3:
 543 002c F4E7     		b	.L2
 544              	.L5:
 545 002e 00BF     		.align	2
 546              	.L4:
 547 0030 00000000 		.word	ch
 548 0034 00000000 		.word	.LC0
 549              		.cfi_endproc
 550              	.LFE272:
 551              		.size	Thread1, .-Thread1
 552 0038 AFF30080 		.section	.text.startup.main,"ax",%progbits
 552      AFF30080 
 553              		.align	2
 554              		.p2align 4,,15
 555              		.global	main
 556              		.thumb
 557              		.thumb_func
 558              		.type	main, %function
 559              	main:
 560              	.LFB273:
 561              		.loc 1 40 0
 562              		.cfi_startproc
 563              		@ args = 0, pretend = 0, frame = 0
 564              		@ frame_needed = 0, uses_anonymous_args = 0
 565 0000 10B5     		push	{r4, lr}
 566              	.LCFI1:
 567              		.cfi_def_cfa_offset 8
 568              		.cfi_offset 4, -8
 569              		.cfi_offset 14, -4
 570 0002 82B0     		sub	sp, sp, #8
 571              	.LCFI2:
 572              		.cfi_def_cfa_offset 16
 573              		.loc 1 49 0
 574 0004 FFF7FEFF 		bl	halInit
 575              	.LVL4:
 576              		.loc 1 50 0
 577 0008 FFF7FEFF 		bl	chSysInit
 578              	.LVL5:
 579              		.loc 1 55 0
 580 000c 0E48     		ldr	r0, .L9
 581 000e 0021     		movs	r1, #0
 582 0010 FFF7FEFF 		bl	sdStart
 583              	.LVL6:
 584              		.loc 1 60 0
 585 0014 0023     		movs	r3, #0
ARM GAS  /tmp/cchTuLYH.s 			page 40


 586 0016 0093     		str	r3, [sp, #0]
 587 0018 0C48     		ldr	r0, .L9+4
 588 001a 0D4B     		ldr	r3, .L9+8
 589 001c 4FF4A471 		mov	r1, #328
 590 0020 4022     		movs	r2, #64
 591              		.loc 1 67 0
 592 0022 4FF40064 		mov	r4, #2048
 593              		.loc 1 60 0
 594 0026 FFF7FEFF 		bl	chThdCreateStatic
 595              	.LVL7:
 596              		.loc 1 67 0
 597 002a C4F60004 		movt	r4, 18432
 598 002e 03E0     		b	.L8
 599              	.L7:
 600              		.loc 1 69 0
 601 0030 41F28830 		movw	r0, #5000
 602 0034 FFF7FEFF 		bl	chThdSleep
 603              	.LVL8:
 604              	.L8:
 605              		.loc 1 67 0
 606 0038 2369     		ldr	r3, [r4, #16]
 607 003a 9B04     		lsls	r3, r3, #18
 608 003c F8D4     		bmi	.L7
 609              		.loc 1 68 0
 610 003e 0248     		ldr	r0, .L9
 611 0040 FFF7FEFF 		bl	TestThread
 612              	.LVL9:
 613 0044 F4E7     		b	.L7
 614              	.L10:
 615 0046 00BF     		.align	2
 616              	.L9:
 617 0048 00000000 		.word	SD2
 618 004c 00000000 		.word	.LANCHOR0
 619 0050 00000000 		.word	Thread1
 620              		.cfi_endproc
 621              	.LFE273:
 622              		.size	main, .-main
 623 0054 AFF30080 		.section	.bss.waThread1,"aw",%nobits
 623      AFF30080 
 623      AFF30080 
 624              		.align	3
 625              		.set	.LANCHOR0,. + 0
 626              		.type	waThread1, %object
 627              		.size	waThread1, 328
 628              	waThread1:
 629 0000 00000000 		.space	328
 629      00000000 
 629      00000000 
 629      00000000 
 629      00000000 
 630              		.section	.rodata.str1.4,"aMS",%progbits,1
 631              		.align	2
 632              	.LC0:
 633 0000 626C696E 		.ascii	"blinker\000"
 633      6B657200 
 634              		.text
 635              	.Letext0:
ARM GAS  /tmp/cchTuLYH.s 			page 41


 636              		.file 3 "/usr/local/bin/../lib/gcc/arm-none-eabi/4.7.2/include/stddef.h"
 637              		.file 4 "/usr/local/bin/../lib/gcc/arm-none-eabi/4.7.2/../../../../arm-none-eabi/include/stdint.h"
 638              		.file 5 "../../../os/rt/ports/ARMCMx/compilers/GCC/chtypes.h"
 639              		.file 6 "../../../os/rt/include/chsystypes.h"
 640              		.file 7 "../../../os/rt/include/chschd.h"
 641              		.file 8 "../../../os/ext/CMSIS/ST/STM32F3xx/stm32f302x8.h"
 642              		.file 9 "../../../os/rt/ports/ARMCMx/chcore.h"
 643              		.file 10 "../../../os/rt/ports/ARMCMx/chcore_v7m.h"
 644              		.file 11 "../../../os/rt/include/chtm.h"
 645              		.file 12 "../../../os/rt/include/chsem.h"
 646              		.file 13 "../../../os/rt/include/chmtx.h"
 647              		.file 14 "../../../os/rt/include/chthreads.h"
 648              		.file 15 "../../../os/rt/include/chevents.h"
 649              		.file 16 "../../../os/rt/include/chqueues.h"
 650              		.file 17 "../../../os/hal/ports/STM32/LLD/GPIOv2/pal_lld.h"
 651              		.file 18 "../../../os/hal/include/serial.h"
 652              		.file 19 "../../../os/hal/ports/STM32/LLD/USARTv2/serial_lld.h"
 653              		.file 20 "../../../os/hal/include/hal.h"
 654              		.file 21 "../../../os/rt/include/chsys.h"
 655              		.file 22 "../../../os/ext/CMSIS/include/core_cm4.h"
 656              		.file 23 "../../../test/rt/test.h"