ARM GAS  /tmp/ccSY6zRX.s 			page 1


   1              		.syntax unified
   2              		.cpu cortex-m4
   3              		.fpu softvfp
   4              		.eabi_attribute 20, 1
   5              		.eabi_attribute 21, 1
   6              		.eabi_attribute 23, 3
   7              		.eabi_attribute 24, 1
   8              		.eabi_attribute 25, 1
   9              		.eabi_attribute 26, 1
  10              		.eabi_attribute 30, 2
  11              		.eabi_attribute 34, 1
  12              		.eabi_attribute 18, 4
  13              		.thumb
  14              		.file	"pal.c"
  15              		.text
  16              	.Ltext0:
  17              		.section	.gnu.lto_.jmpfuncs.934fbdd10bdcb52c,"",%progbits
  18 0000 789C6362 		.ascii	"x\234cb`d`g\300\016\004\24043\003##3\02333\003\003\013"
  18      60646067 
  18      C00E04A0 
  18      34330323 
  18      23331333 
  19 0018 03036309 		.ascii	"\003\003c\011\003\000\005_\000\244"
  19      0300055F 
  19      00A4
  20              		.text
  21              		.section	.gnu.lto_.inline.934fbdd10bdcb52c,"",%progbits
  22 0000 789C6362 		.ascii	"x\234cb`d\340e\300\016\334\24143\003\003'\007#\003\023"
  22      6064E065 
  22      C00EDCA1 
  22      34330303 
  22      27072303 
  23 0015 E70A3706 		.ascii	"\347\0127\006\316\033fL@-|\274\214@\000\224\022|\321"
  23      CE1B664C 
  23      402D7CBC 
  23      8C400094 
  23      127CD1
  24 0028 C2081164 		.ascii	"\302\010\021d\272\300\317\302\300\304\300-\014T\311"
  24      BAC0CFC2 
  24      C0C4C02D 
  24      0C54C9
  25 0037 DAA10E11 		.ascii	"\332\241\016\021d\001\232\315<\301\017\004\031\000W"
  25      64019ACD 
  25      3CC10F04 
  25      190057
  26 0046 C80ABC   		.ascii	"\310\012\274"
  27              		.text
  28              		.section	.gnu.lto_.pureconst.934fbdd10bdcb52c,"",%progbits
  29 0000 789C6362 		.ascii	"x\234cb`d`f```g\200\000f\006)F)&I\000\002\002\000a"
  29      60646066 
  29      60606067 
  29      80006606 
  29      29462926 
  30              		.text
  31              		.section	.gnu.lto_palReadBus.934fbdd10bdcb52c,"",%progbits
  32 0000 789C9D93 		.ascii	"x\234\235\223=K\303@\030\307\237\347.oV\007G+\210\245"
  32      3D4BC340 
ARM GAS  /tmp/ccSY6zRX.s 			page 2


  32      18C79FE7 
  32      2E6F5607 
  32      472B88A5 
  33 0014 74B2D0AC 		.ascii	"t\262\320\254~\204\256\012.\205*5\004T\012\212\3019"
  33      7E84AE0A 
  33      2E852A35 
  33      04540A8A 
  33      C139
  34 0026 31EDE652 		.ascii	"1\355\346R\234b'\333\372\216\263\340\244\350\026J?C"
  34      9C6227DB 
  34      FA8EB3E0 
  34      A4E8164A 
  34      3F43
  35 0038 C1B5A37B 		.ascii	"\301\265\243{}\356l\233\024-\265^\022~\307\221\337\375"
  35      7DEE6C9B 
  35      142DB55E 
  35      127EC791 
  35      DFFD
  36 004a EF2E4F18 		.ascii	"\357.O\030 ]?[\222\036\233\003\244\210\310\001Y\255"
  36      205D3F5B 
  36      921E9B03 
  36      A488C801 
  36      59AD
  37 005c 03709A62 		.ascii	"\003p\232b\210\242C\212\313\320\335\222\246\236\206"
  37      88A2438A 
  37      CBD0DD92 
  37      A69E86
  38 006b 86E79DD7 		.ascii	"\206\347\235\327\336\375\274\337\355\367Wm1\272\203"
  38      DEFDBCDF 
  38      EDF7576D 
  38      31BA83
  39 007a 109E7D60 		.ascii	"\020\236}`\022lD\232D\220\2012\236!\275z\314\343\322"
  39      126C449A 
  39      44908132 
  39      9E21BD7A 
  39      CCE3D2
  40 008d EB2D4DB7 		.ascii	"\353-M\267\342i\212\264\356\370l\226*-\230.\325b\222"
  40      E2698AB4 
  40      EEF86C96 
  40      2A2D982E 
  40      D56292
  41 00a0 F657E95F 		.ascii	"\366W\351_I\263J\355\340\211}\006\332\013{\355\366\335"
  41      49B34AED 
  41      E0897D06 
  41      DA0B7BED 
  41      F6DD
  42 00b2 0CB4C40C 		.ascii	"\014\264\304\014\025/o\243\316`\005\205\337\016\232"
  42      152F6FA3 
  42      CE600585 
  42      DF0E9A
  43 00c1 EC9729E8 		.ascii	"\354\227)\350\015H \026\361\0263\300\240\210ML\003'"
  43      0D482016 
  43      F11633C0 
  43      A0884D4C 
  43      0327
  44 00d3 B6880AF1 		.ascii	"\266\210\012\361\222\250\022\257\210\032\361\232\250"
  44      92A812AF 
ARM GAS  /tmp/ccSY6zRX.s 			page 3


  44      881AF19A 
  44      A8
  45 00e0 136F8806 		.ascii	"\023o\210\006\261A\244\246B\325\363\026q_f\311\266!"
  45      B141A4A6 
  45      42D5F316 
  45      715F66C9 
  45      B621
  46 00f2 282A6493 		.ascii	"(*d\223\262D\207\207\340\027z\301A\021\357iO\026\262"
  46      B2448787 
  46      E0177AC1 
  46      4111EF69 
  46      4F16B2
  47 0105 2CACD968 		.ascii	",\254\331h\360:\\\240\215s\314BY#\372`K\333Q-\206\360"
  47      F03A5CA0 
  47      8D73CC42 
  47      5923FA60 
  47      4BDB512D 
  48 011b 5680A1C6 		.ascii	"V\200\241\306\263\360\340U\311H\014\314y2\345\326\214"
  48      B3F0E055 
  48      C9480CCC 
  48      7932E5D6 
  48      8C
  49 012c 918991E9 		.ascii	"\221\211\221\351G\246\"\003\027&\007\262\230\326\343"
  49      47A62203 
  49      172607B2 
  49      98D6E3
  50 013b 234FB544 		.ascii	"#O\265Da\205Py\214\3064Z\210%>\315X\202.\023\370\344"
  50      61855079 
  50      8CC6345A 
  50      88253ECD 
  50      58822E13 
  51 0151 041E2554 		.ascii	"\004\036%T\236\371\372\3203\344\204\364Z\207~\247\321"
  51      9EF9FAD0 
  51      33E484F4 
  51      5A877EA7 
  51      D1
  52 0162 E0F01C51 		.ascii	"\340\360\034Q\036\237X\334r.g~\337\207\216\271W*\233"
  52      1E9F58DC 
  52      722E677E 
  52      DF878EB9 
  52      572A9B
  53 0175 CEB1651E 		.ascii	"\316\261e\036\225\3129\013\370\356\211\363\005\214\257"
  53      95CA390B 
  53      F8EE89F3 
  53      058CAF
  54 0184 A688     		.ascii	"\246\210"
  55              		.text
  56              		.section	.gnu.lto_palWriteBus.934fbdd10bdcb52c,"",%progbits
  57 0000 789CCD93 		.ascii	"x\234\315\223\273J\003A\024\206\317\231\331\335\\\214"
  57      BB4A0341 
  57      1486CF99 
  57      D9DD5C8C 
  58 0010 49C04A45 		.ascii	"I\300JE\274\240\215B\362\032\261\214`#D\321eQAP\214"
  58      BCA08D42 
  58      F21AB18C 
  58      602344D1 
  58      65514150 
ARM GAS  /tmp/ccSY6zRX.s 			page 4


  59 0025 D659A30F 		.ascii	"\326Y\243\017\020\3544\215\327xE-U\004E;\013+\037@\020"
  59      10EC348D 
  59      D778452D 
  59      5504453B 
  59      0B2B1F40 
  60 003a AC2C2D85 		.ascii	"\254,-\205\370\317\230\315\306\250\240]&Y\276\231\263"
  60      F8CF98CD 
  60      C6A8A05D 
  60      2659BE99 
  60      B3
  61 004b F3FF73CE 		.ascii	"\363\377s\316\354\214 \306\357{k\3053i\022\365\201,"
  61      EC8C20C6 
  61      EF7B6BC5 
  61      336912F5 
  61      812C
  62 005d 8945E181 		.ascii	"\211E\341\201h\251K0\253\016$9\301\271a\255\214\364"
  62      68A94B30 
  62      AB0E2439 
  62      C1B961AD 
  62      8CF4
  63 006f D0A6EBAE 		.ascii	"\320\246\353\256\026\356\362\251\374S\271\334\351\250"
  63      16EEF2A9 
  63      FC53B9DC 
  63      E9A8
  64 007d E818D3FD 		.ascii	"\350\030\323\375\3253\267\222\303L]\244(\310\370\272"
  64      D533B792 
  64      C34C5DA4 
  64      28C8F8BA 
  65 008d C6379DD4 		.ascii	"\3067\235\324\272\267\366\377\251\014\255\242F\025\321"
  65      BAB7F6FF 
  65      A90CADA2 
  65      4615D1
  66 009c 5F45851A 		.ascii	"_E\205\032\221\331x55nz\217\305\222|/Z\327\342\346\251"
  66      91D97835 
  66      356E7A8F 
  66      C5927C2F 
  66      5AD7E2E6 
  67 00b1 9CEBA56D 		.ascii	"\234\353\245m\345\260\354\246\034\266\004u\260\322?"
  67      E5B0ECA6 
  67      1CB60475 
  67      B0D23F
  68 00c0 165F7E38 		.ascii	"\026_~8\212\\;7 \250[\317=o\372a1\274\307cQ\013s\206"
  68      8A5C3B37 
  68      20A85BCF 
  68      3D6FFA61 
  68      31BCC763 
  69 00d8 8F211494 		.ascii	"\217!\024\224\341M\356!\211\361\011\306\006\306[\030"
  69      E14DEE21 
  69      89F109C6 
  69      06C65B18 
  70 00e8 9BE03668 		.ascii	"\233\3406h\201;`\000\334\000\203\340.\030\002K`\030"
  70      813B6000 
  70      DC0083E0 
  70      2E18024B 
  70      6018
  71 00fa DC0323E0 		.ascii	"\334\003#\340>\030\005\017\300\030x\010\306\301#\020"
  71      3E18050F 
ARM GAS  /tmp/ccSY6zRX.s 			page 5


  71      C0187808 
  71      C6C12310 
  72 010a CDA415D7 		.ascii	"\315\244\025\327\215\363\264\316N\267\264\242\272\207"
  72      8DF3B4CE 
  72      4EB7B4A2 
  72      BA87
  73 0118 43C84F75 		.ascii	"C\310Ou\344=\345G\336\212\321\014\237\341\333\330,\006"
  73      E43DE547 
  73      DE8AD10C 
  73      9FE1DBD8 
  73      2C06
  74 012a A8DFE1A0 		.ascii	"\250\337\341\240\\\2475v8$l\326\345[\225\015\033\365"
  74      5CA73576 
  74      38246CD6 
  74      E55B950D 
  74      1BF5
  75 013c 6F3C8497 		.ascii	"o<\204\227\222<\235a\253;\250\314\252!S[\005~\267b\337"
  75      923C9D61 
  75      AB3BA8CC 
  75      AA21535B 
  75      057EB762 
  76 0151 6AF9C2B7 		.ascii	"j\371\302\267\262\264\233Y\347\026\320n\341\337\335"
  76      B2B49B59 
  76      E716D06E 
  76      E1DFDD
  77 0160 448D5BAE 		.ascii	"D\215[\256*\013B\251\346\021\366E;\276\372\013\205\360"
  77      2A0B42A9 
  77      E611F645 
  77      3BBEFA0B 
  77      85F0
  78 0172 5A4F3FF2 		.ascii	"ZO?\362ca\275~\250>\247\010\312\363r\252q\210\302\275"
  78      6361BD7E 
  78      A83EA708 
  78      CAF372AA 
  78      7188C2BD 
  79 0186 DE21A667 		.ascii	"\336!\246gGu\370\324\017\307\265wL\205o\007+\321\001"
  79      4775F8D4 
  79      0FC7B577 
  79      4C856F07 
  79      2BD101
  80 0199 3A745750 		.ascii	":tWPM\223\364z\221J}\315\250O\250\274\203\325\372\244"
  80      4D93F47A 
  80      914A7DCD 
  80      A84FA8BC 
  80      83D5FAA4 
  81 01ad D7A99C61 		.ascii	"\327\251\234aX\022=\020\343\374~\272y-\2556\026\237"
  81      58123D10 
  81      E3FC7EBA 
  81      792DAD36 
  81      169F
  82 01bf 566D485B 		.ascii	"VmH[\"\221\374\374\317f\223S\3433\311\354\274\235\234"
  82      2291FCFC 
  82      CF669353 
  82      E333C9EC 
  82      BC9D9C
  83 01d2 1B9F49D8 		.ascii	"\033\237I\330$'\026\263\306\304\364B\366\003\310\255"
  83      242716B3 
ARM GAS  /tmp/ccSY6zRX.s 			page 6


  83      C6C4F442 
  83      F603C8AD 
  84 01e2 058B     		.ascii	"\005\213"
  85              		.text
  86              		.section	.gnu.lto_palSetBusMode.934fbdd10bdcb52c,"",%progbits
  87 0000 789C9592 		.ascii	"x\234\225\222AK\002A\024\307\337\177fw5\255\350jP\231"
  87      414B0241 
  87      14C7DF7F 
  87      667735AD 
  87      E86A5099 
  88 0014 D4A540BF 		.ascii	"\324\245@\277\206\327\202.\201\211m\003\005\206\221"
  88      86D7822E 
  88      81896D03 
  88      058691
  89 0023 74E9E2A6 		.ascii	"t\351\342\246}\000\351T\035\226\314\"\242\017Q\320M"
  89      7D00E954 
  89      1D96CC22 
  89      A20F51D0 
  89      4D
  90 0034 C4CF2074 		.ascii	"\304\317 tL:u\011\"{3i\032*\325\354\016\377\341\355"
  90      4C3A7509 
  90      227B3369 
  90      1A2AD5EC 
  90      0EFFE1ED 
  91 0048 FFB76FE6 		.ascii	"\377\267o\346\275\021\004~\006G\204\347\273 Zd\205$"
  91      BD11047E 
  91      064784E7 
  91      BB205A64 
  91      8524
  92 005a 887283E8 		.ascii	"\210r\203\350(*\000\275`\244 PX3\244\035\243\212\347"
  92      282A00BD 
  92      60A42050 
  92      5833A41D 
  92      A38AE7
  93 006d 9D941F8B 		.ascii	"\235\224\037\213\311b\263\335\236S:\232\006\325\236"
  93      C962B3DD 
  93      9E533A9A 
  93      06D59E
  94 007c 9F102105 		.ascii	"\237\020!\005P\224\264\012\262~\346\030\340\244\341"
  94      5094B40A 
  94      B27EE618 
  94      E0A4E1
  95 008b 5AB3FFA3 		.ascii	"Z\263\377\243,C\321\357P\271\017\262\377\012\3757S\335"
  95      2C43D1EF 
  95      50B90FB2 
  95      FF0AFD37 
  95      53DD
  96 009d FF10AFBE 		.ascii	"\377\020\257\276s/\036\232\355\302\002U\365\037J^R\301"
  96      732F1E9A 
  96      EDC20255 
  96      F51F4A5E 
  96      52C1
  97 00af 113403CD 		.ascii	"\0214\003\315\327\375\227!uA\2777 h\336xO\303C\222\361"
  97      D7FD9721 
  97      7541BF37 
  97      2068DE78 
  97      4FC34392 
ARM GAS  /tmp/ccSY6zRX.s 			page 7


  98 00c4 779E0E85 		.ascii	"w\236\016\205\200\024\256\031\024\224B\0051\222\254"
  98      8014AE19 
  98      14944205 
  98      3192AC
  99 00d3 97AC16EB 		.ascii	"\227\254\026\353\005\253\315ZeuX\257X\003\354\277a\277"
  99      05ABCD5A 
  99      657558AF 
  99      5803ECBF 
  99      61BF
 100 00e5 6E1A1D7B 		.ascii	"n\032\035{\336\024vL\0263V\264\352\346\256r\036\275"
 100      DE14764C 
 100      163356B4 
 100      EAE6AE72 
 100      1EBD
 101 00f7 90352AAE 		.ascii	"\2205*\256\267\374\311\024n\271\\.\3042-)\004\3459\235"
 101      B7FCC914 
 101      6EB95C2E 
 101      C4322D29 
 101      04E5399D 
 102 010b 41614CB8 		.ascii	"AaL\2700\307p:\007\337\350]#\015R\027\223\006\013\215"
 102      30C7703A 
 102      07DFE85D 
 102      230D5217 
 102      93060B8D 
 103 011f C63014B3 		.ascii	"\3060\024\263\014\026\036\215\211>\254%\2779\333\325"
 103      0C161E8D 
 103      893EAC25 
 103      BF39DBD5 
 104 012f 6DAA51E9 		.ascii	"m\252Q\351\256\027sx\027\256ny\335\224B\007\211\016"
 104      AE177378 
 104      17AE6E79 
 104      DD944207 
 104      890E
 105 0141 E9CD0B2A 		.ascii	"\351\315\013*\214#\215\316\026\370\210\306\033P\230"
 105      8C238DCE 
 105      16F888C6 
 105      1B5098
 106 0150 206A10B8 		.ascii	" j\020\270\217]w\267F0\245\321\271\247\343\361\304\327"
 106      8F5D77B7 
 106      4630A5D1 
 106      B9A7E3F1 
 106      C4D7
 107 0162 9BCB27B6 		.ascii	"\233\313'\2663\331D~\337M\354e\262q\227\344\346A\336"
 107      33D9447E 
 107      DF4DEC65 
 107      B27197E4 
 107      E641DE
 108 0175 DACD6DA9 		.ascii	"\332\315m\251O\006\261\225\220"
 108      4F06B195 
 108      90
 109              		.text
 110              		.section	.gnu.lto_.cgraph.934fbdd10bdcb52c,"",%progbits
 111 0000 789C45C7 		.ascii	"x\234E\307\261\015\2000\024C\301g\377\311\230\314))"
 111      B10D8030 
 111      1443C167 
 111      FFC998CC 
 111      2929
ARM GAS  /tmp/ccSY6zRX.s 			page 8


 112 0012 03F434EC 		.ascii	"\003\3644\354\303\016Y\004!!\004\327\235\021\005L\274"
 112      C30E5904 
 112      212104D7 
 112      9D11054C 
 112      BC
 113 0023 DC1DE827 		.ascii	"\334\035\350'\311>\313\213\243\177\253\343o\332\234"
 113      C93ECB8B 
 113      A37FABE3 
 113      6FDA9C
 114 0032 7AD69ACA 		.ascii	"z\326\232\312\3051.q\003\247b\024\221"
 114      C5312E71 
 114      03A76214 
 114      91
 115              		.text
 116              		.section	.gnu.lto_.vars.934fbdd10bdcb52c,"",%progbits
 117 0000 789C6362 		.ascii	"x\234cb`d`f`\000\222P\000\000\000r\000\010"
 117      60646066 
 117      60009250 
 117      00000072 
 117      0008
 118              		.text
 119              		.section	.gnu.lto_.refs.934fbdd10bdcb52c,"",%progbits
 120 0000 789C6362 		.ascii	"x\234cb`d`f```b\200\001\000\000\204\000\011"
 120      60646066 
 120      60606062 
 120      80010000 
 120      840009
 121              		.text
 122              		.section	.gnu.lto_.statics.934fbdd10bdcb52c,"",%progbits
 123 0000 789C6362 		.ascii	"x\234cb`d`b\300\016@\342\214\020&\000\000\375\000\011"
 123      60646062 
 123      C00E40E2 
 123      8C102600 
 123      00FD0009 
 124              		.text
 125              		.section	.gnu.lto_.decls.934fbdd10bdcb52c,"",%progbits
 126 0000 789CAD58 		.ascii	"x\234\255X{l\024E\030\237\331\275k{\355\225\247\324"
 126      7B6C1445 
 126      189FD9BD 
 126      6B7BED95 
 126      A7D4
 127 0012 034D2946 		.ascii	"\003M)FLC\244\007E\001\023\233(\264Rb\261\315\025\202"
 127      4C43A407 
 127      4501139B 
 127      28B45262 
 127      B1CD1582 
 128 0026 FCB139AF 		.ascii	"\374\2619\257\327+\275x\355\325\273\255\177/-A\036*"
 128      D72BBD78 
 128      EDD5BBAD 
 128      7F2F2D41 
 128      1E2A
 129 0038 07DA14C5 		.ascii	"\007\332\024\305\300Q\245*5\205b@R\212\251\012\005\241"
 129      C051A52A 
 129      35856240 
 129      528AA90A 
 129      05A1
 130 004a 31188A31 		.ascii	"1\030\2121\004\222\246\026\343\203\232`H\305Z\254\337"
ARM GAS  /tmp/ccSY6zRX.s 			page 9


 130      0492A616 
 130      E3839A60 
 130      48C55AAC 
 130      DF
 131 005b CCEE4E77 		.ascii	"\314\356Nw\267\267\367h\234\3347;\263;\363\373~\337"
 131      B7B7F768 
 131      9CDC373B 
 131      B33BF3FB 
 131      7EDF
 132 006d 6366678F 		.ascii	"cfg\217C\030\221\262\035.\023P\312\036B\350_h[\340^"
 132      431891B2 
 132      1D2E1350 
 132      CA1E42E8 
 132      5F685BE0 
 133 0082 119A2CA4 		.ascii	"\021\232,\244\037\005\031\001\031\005\3410\232R\310"
 133      1F051901 
 133      1905E130 
 133      9A52C8
 134 0091 F36C102B 		.ascii	"\363l\020+\310\014\020;H\033\310 H\272\202q\014\244"
 134      C80C103B 
 134      481BC820 
 134      48BA8271 
 134      0CA4
 135 00a3 0BA403E4 		.ascii	"\013\244\003\344\014\310I\220\333\312\263\023 \275 "
 135      0CC84990 
 135      DBCAB313 
 135      20BD20
 136 00b2 C3204320 		.ascii	"\303 C X\301$\327\014\203\276\021E\207V\227QO\233F\327"
 136      58C124D7 
 136      0C83BE11 
 136      45875697 
 136      514F9B46 
 137 00c7 6D45DF05 		.ascii	"mE\337\005E\247U\3217\244\350;\017rI\3215\242\\\347"
 137      45A755D1 
 137      37A4E83B 
 137      0F7249D1 
 137      35A25CE7 
 138 00db 18748E26 		.ascii	"\030t\216&\241sL\243\263M\321\3730\340\360D\014:9\215"
 138      A1734CA3 
 138      B34DD1FB 
 138      30E0F044 
 138      0C3A398D 
 139 00ef 2F892A87 		.ascii	"/\211*\207A\337BtH\212\016F\232\245\322\373\023\023"
 139      41DF4274 
 139      488A0E46 
 139      9AA5D2FB 
 139      1313
 140 0101 E939A845 		.ascii	"\3519\250E\202\022\335!IX\264\241\235\222\324D:\245"
 140      8212DD21 
 140      4958B4A1 
 140      9D92D444 
 140      3AA5
 141 0113 9780CA7C 		.ascii	"\227\200\312|$\340\0316\204\362h\313n\223\371,F\037"
 141      24E01936 
 141      84F268CB 
 141      6E93F92C 
 141      461F
ARM GAS  /tmp/ccSY6zRX.s 			page 10


 142 0125 495204E6 		.ascii	"IR\004\346`\001\267a\033\350\003MK\320\247\022-\212"
 142      6001B761 
 142      1BE8034D 
 142      4BD0A712 
 142      2D8A
 143 0137 32E53213 		.ascii	"2\3452\023u\377}\370:'wRFo\247\350\245\030\036\037\305"
 143      75FF7DF8 
 143      3A277752 
 143      466FA7E8 
 143      A5181E1F 
 144 014c 4B50FB5B 		.ascii	"KP\373[\337\3679e(\001\247\333\2646\321\276<J\006\226"
 144      DFF73965 
 144      2801A7DB 
 144      B436D1BE 
 144      3C4A0696 
 145 0160 1FAB2D92 		.ascii	"\037\253-\222\2023Q\352\023bS$\263\217\340\034\332\342"
 145      823351EA 
 145      13625324 
 145      B38FE01C 
 145      DAE2
 146 0172 A9BB5116 		.ascii	"\251\273Q\026\332=i\332\034\264\217x\"Ok\344+\014\301"
 146      DA3D69DA 
 146      1CB48F78 
 146      224F6BE4 
 146      2B0CC1
 147 0185 6E30B203 		.ascii	"n0\262\003\317\001\214\016\314\254l\375\3742/\223L\014"
 147      CF018C0E 
 147      CCAC6CFD 
 147      FC322F93 
 147      4C0C
 148 0197 44A87402 		.ascii	"D\250t\002\200<\225\302J2,\271\213\224\373\003\207k"
 148      803C95C2 
 148      4A322CB9 
 148      8B94FB03 
 148      876B
 149 01a9 D0D4C22F 		.ascii	"\320\324\302/BQ M\022!-!\377A\216\351}\322`\300Ij\300"
 149      4251204D 
 149      12212D21 
 149      FF418EE9 
 149      7DD260C0 
 150 01c0 556640F7 		.ascii	"Uf@\367\256\007\217\232\3637\000\021\212\247b\032pJ"
 150      AE078F9A 
 150      F3370011 
 150      8AA7621A 
 150      704A
 151 01d2 63C09DB3 		.ascii	"c\300\235\263\261\014\310\"\006lo\246\006\320\334jN"
 151      B10CC822 
 151      066C6FA6 
 151      06D0DC6A 
 151      4E
 152 01e3 905B02FE 		.ascii	"\220[\002\376\030/N2\364\034\272E-\"4\306\317\376\214"
 152      182F4E32 
 152      F41CBA45 
 152      2D2234C6 
 152      CFFE8C
 153 01f6 6323AA6D 		.ascii	"c#\252m\271\250c\224\242\241'\34034\227\177b\230\347"
 153      B9A86394 
ARM GAS  /tmp/ccSY6zRX.s 			page 11


 153      A2A127E0 
 153      3334977F 
 153      6298E7
 154 0209 9F4D0531 		.ascii	"\237M\0051\317\024\3617\206\330\237\0001#I\216\1772"
 154      CF14F137 
 154      86D89F00 
 154      3123498E 
 154      7F32
 155 021b C4819410 		.ascii	"\304\201\224\020\3159\336g\2107\023 \316J\222\3438C"
 155      CD39DE67 
 155      88371320 
 155      CE4A92E3 
 155      3843
 156 022d 1C4E0951 		.ascii	"\034N\011Q\313q\033E\234\213\366K\3226)\232f\2366\010"
 156      CB711B45 
 156      9C8BF64B 
 156      D236299A 
 156      669E3608 
 157 0241 D1415282 		.ascii	"\321AR\202A\002\356\303sc$2\271\313\022\271'\024#\221"
 157      4102EEC3 
 157      73632432 
 157      B9CB12B9 
 157      27142391 
 158 0255 39CD4A54 		.ascii	"9\315JTw=\211\303\012\342\275\236ig\037]\243\371i\312"
 158      773D89C3 
 158      0AE2BD9E 
 158      69671F5D 
 158      A3F969CA 
 159 0269 3A8C3EF7 		.ascii	":\214>\367I\\\372Wb\256\303+\232u8\336\223cN\037\226"
 159      495CFA57 
 159      62AEC32B 
 159      9A7538DE 
 159      93634E1F 
 160 027e 5F7E9AB2 		.ascii	"_~\232\262\307K;\244|\255\262YL\031\331.\265\273\307"
 160      C74B3BA4 
 160      7CADB259 
 160      4C19D92E 
 160      B5BBC7
 161 0291 77D4DA26 		.ascii	"w\324\332&nr\223\277uA\331\376\004\314\0336y^\277py"
 161      6E7293BF 
 161      7541D9FE 
 161      04CC1B36 
 161      795EBF70 
 162 02a6 B67079BA 		.ascii	"\266py\272py\002\277\207B\021\326\335\273\376\351\347"
 162      707902BF 
 162      874211D6 
 162      DDBBFEE9 
 162      E7
 163 02b7 633348EC 		.ascii	"c3H\3549\331\034\225\337^\006\332_\224\012\342,\275"
 163      39D91C95 
 163      DF5E06DA 
 163      5F940AE2 
 163      2CBD
 164 02c9 A3500B8B 		.ascii	"\243P\013\213\352\300\271\334i\004\225yBv\002'\340K"
 164      EAC0B9DC 
 164      69049579 
 164      42760227 
ARM GAS  /tmp/ccSY6zRX.s 			page 12


 164      E04B
 165 02db 7811742F 		.ascii	"x\021t/C\315\224\264rl\271\235\313\211\257\304af\277"
 165      43CD94B4 
 165      726CB99D 
 165      CB89AFC4 
 165      6166BF
 166 02ee 61BD7DC0 		.ascii	"a\275}\300 \207\317%\312F=f\236)\346\021\206y\247(>"
 166      2087CF25 
 166      CA463D66 
 166      9E29E611 
 166      8679A728 
 167 0303 625E922C 		.ascii	"b^\222,\333\031\342\275\224\020\3159v0\304\361\004\210"
 167      DB19E2BD 
 167      9410CD39 
 167      7630C4F1 
 167      0488
 168 0315 F971C2A5 		.ascii	"\371q\302\245\213\334\344\333N\300\247\341u\224%\340"
 168      8BDCE4DB 
 168      4EC0A7E1 
 168      759425E0 
 169 0325 2F680CBB 		.ascii	"/h\014\273i\335C\353/i\335K\353\257i}\236\326?\320\372"
 169      69DD43EB 
 169      2F69DD4B 
 169      EBAF697D 
 169      9ED63FD0 
 170 033a 475ADFA0 		.ascii	"GZ\337\240\365\315\311\310'>Pu\341,0\3528[l\3757\206"
 170      F5CDC9C8 
 170      273E5075 
 170      E12C30EA 
 170      385B6CFD 
 171 0350 94839AEE 		.ascii	"\224\203\232\356\000 \277\323\3157\212A\200QS\320h\236"
 171      0020BFD3 
 171      CD378A41 
 171      805153D0 
 171      689E
 172 0362 E11987BA 		.ascii	"\341\031\207\272\2516r\034io}p\361\231\351\356d\352"
 172      A936721C 
 172      696F7D70 
 172      F199E9EE 
 172      64EA
 173 0374 EE289F38 		.ascii	"\356(\2378\277b\240\303\371\323|\217*\210)\037JoS\002"
 173      BF62A0C3 
 173      F9D37C8F 
 173      2A88291F 
 173      4A6F5302 
 174 0388 7D9A0D6B 		.ascii	"}\232\015k\337\225\325\252\365V\303\206e\325oXV\266"
 174      DF95D5AA 
 174      F556C386 
 174      65D56F58 
 174      56B6
 175 039a 6159B527 		.ascii	"aY\265'\215k\032\027u]N\340\242\230\257\361X\211\326"
 175      8D6B1A17 
 175      755D4EE0 
 175      A298AFF1 
 175      5889D6
 176 03ad A949B4E3 		.ascii	"\251I\264\343\220h\274\200O\320\224\031\242\365p\242"
 176      9068BC80 
ARM GAS  /tmp/ccSY6zRX.s 			page 13


 176      4FD09419 
 176      A2F570A2 
 177 03bd C42118C7 		.ascii	"\304!\030\307 \232J\001\3237*\0333P\276\301\354?\335"
 177      209A4A01 
 177      D3372A1B 
 177      3350BEC1 
 177      EC3FDD
 178 03d0 F94E5FAE 		.ascii	"\371N_\256|\373q\364\241$\355'n\225g\302[\214'\303\242"
 178      7CFB71F4 
 178      A124ED27 
 178      6E9567C2 
 178      5B8C27C3 
 179 03e5 7821DA69 		.ascii	"x!\332i3\321\242(y\002\035%!\371\246\251T\2161R\346"
 179      33D1A228 
 179      79021D25 
 179      21F9A6A9 
 179      548E3152 
 180 03fa FDC29BB1 		.ascii	"\375\302\233\261\243C~\305\234\326\3528\3376\002.\232"
 180      A3437EC5 
 180      9CD6EA38 
 180      DF36022E 
 180      9A
 181 040b 17C7D23F 		.ascii	"\027\307\322?\364\007z\305\000\326S)i\\\260\235W]0p"
 181      F4077AC5 
 181      00D65329 
 181      695CB09D 
 181      575D3070 
 182 041f 70416C07 		.ascii	"pAl\007\010\370w\340'\340\0210\344@zl\345X;I\316\356"
 182      08F877E0 
 182      27E01130 
 182      E4407A6C 
 182      E5583B49 
 183 0435 08452693 		.ascii	"\010E&\223\316d\231z\2152\322:O\222z\233\034\324J\244"
 183      CE64997A 
 183      8D32D23A 
 183      4F927A9B 
 183      1CD44AA4 
 184 0449 CCAED5E5 		.ascii	"\314\256\325\345\303\335\377\313U\177\305sU\312\353"
 184      C3DDFFCB 
 184      557FC573 
 184      55CAEB
 185 0458 698C9ADC 		.ascii	"i\214\232\334\302\234\331\375m\227\372\301(\237\205"
 185      C29CD9FD 
 185      6D97FAC1 
 185      289F85
 186 0467 744624F7 		.ascii	"tF$\367\231\247\213\323!~2U\257]L\213\037\251Q\342\364"
 186      99A78BD3 
 186      217E3255 
 186      AF5D4C8B 
 186      1FA951E2 
 187 047c 642225D3 		.ascii	"d\"%\323\376\214b\223I\007\314#5\026?R\243S\"\365`j"
 187      FE8C6293 
 187      4907CC23 
 187      35163F52 
 187      A35322F5 
 188 0492 A4062391 		.ascii	"\244\006#\221\346h\312\221j\346\014\221\"/\000\336\220"
 188      E668CA91 
ARM GAS  /tmp/ccSY6zRX.s 			page 14


 188      6AE60C91 
 188      222F00DE 
 188      90
 189 04a3 D4AC3B36 		.ascii	"\324\254;65\307\2734ay\257\317\241\217\305\033\234\216"
 189      35C7BB34 
 189      6179AFCF 
 189      A18FC51B 
 189      9C8E
 190 04b5 E663E888 		.ascii	"\346c\350\210t\365jDjr4\015NL,\234\215\"\224'\211\362"
 190      74F56A44 
 190      6A72340D 
 190      4E4C2C9C 
 190      8D229427 
 191 04cb 6B4A560C 		.ascii	"kJV\014\036\355u\034\320dE\006c\214\325\254\240\247"
 191      1EED751C 
 191      D0644506 
 191      638CD5AC 
 191      A0A7
 192 04dd 4E365C72 		.ascii	"N6\\r8\314F\013x\017G>\346\336\344\344\024\231?\331"
 192      38CC460B 
 192      780F473E 
 192      E6DEE4E4 
 192      14993FD9 
 193 04f1 66CD094C 		.ascii	"f\315\011L\214\270H\376%Q\377\221\320\225\304\263U\335"
 193      8CB848FE 
 193      2551FF91 
 193      D095C4B3 
 193      55DD
 194 0503 2F33DDF2 		.ascii	"/3\335\362\206\250\263N\036o6T\300os\263i\213\232%\261"
 194      86A8B34E 
 194      1E6F3654 
 194      C06F73B3 
 194      698B9A25 
 195 0518 97ACDD16 		.ascii	"\227\254\335\026't{5\304\3546m+Sg\200:\016\354\354g"
 195      27747B35 
 195      C4EC366D 
 195      2B536780 
 195      3A0EECEC 
 196 052d 9BEDE9CE 		.ascii	"\233\355\351\316\326>\336\214\017\207\256\363X\231\235"
 196      D63EDE8C 
 196      0F87AEF3 
 196      58999D
 197 053c 89E3C74D 		.ascii	"\211\343\307M\300\2735\226\031\377{\210\343\204\251"
 197      C0BB3596 
 197      19FF7B88 
 197      E384A9
 198 054b 7F53BC3B 		.ascii	"\177S\274;\015'\264\230:\201\275\226t\343\240\031\341"
 198      0D27B498 
 198      3A81BD96 
 198      74E3A019 
 198      E1
 199 055c D40D77F8 		.ascii	"\324\015w\370\02132\360\035\256\363\200\341\360CV\215"
 199      113332F0 
 199      1DAEF380 
 199      E1F04356 
 199      8D
 200 056d 39A7568E 		.ascii	"9\247V\216\351N\336s\015\014fF\"\317\031\207\012\370"
ARM GAS  /tmp/ccSY6zRX.s 			page 15


 200      E94EDE73 
 200      0D0C6646 
 200      22CF1987 
 200      0AF8
 201 057f FD6978EE 		.ascii	"\375ix\356\240\251\347\262u\236;h\364\034\331\215n\346"
 201      A0A9E7B2 
 201      759E3B68 
 201      F41CD98D 
 201      6EE6
 202 0591 9A91E1D0 		.ascii	"\232\221\341\320]\235\347\220\335\037l\010\206\304:"
 202      5D9DE790 
 202      DD1F6C08 
 202      86C43A
 203 05a0 4FF855B7 		.ascii	"O\370U\267\230\266\356\245Myk\321\362\202\002\247\374"
 203      98B6EEA5 
 203      4D796BD1 
 203      F28202A7 
 203      FC
 204 05b1 0B869DB5 		.ascii	"\013\206\235\265\236\200\223\214\010;+7nXQ\350,++v\256"
 204      9E80938C 
 204      083B2B37 
 204      6E5851E8 
 204      2C2B2B76 
 205 05c6 AB585FFE 		.ascii	"\253X_\376z\241\263\301\023p\007\002\325\005\265(\243"
 205      7AA1B3C1 
 205      13700702 
 205      D505B528 
 205      A3
 206 05d7 D15F2FAE 		.ascii	"\321_/\256(t\213[\234\215\341\2203\020\364\302\254*"
 206      28748B5B 
 206      9C8DE190 
 206      3310F4C2 
 206      AC2A
 207 05e9 7F3DC108 		.ascii	"\177=\301\010\370\253\234[\275^\247'T\267\264>X\357"
 207      F8AB9C5B 
 207      BD5EA727 
 207      54B7B43E 
 207      58EF
 208 05fb 5BEAF354 		.ascii	"[\352\363T\371\235O\025\254*(t2E\360\323?\367\327{\003"
 208      F99D4F15 
 208      AC2A2874 
 208      3245F0D3 
 208      3FF7D77B 
 209 0610 8DD53E67 		.ascii	"\215\325>gX\254\006hPa]_\276\2461\234k\244\246\216\003"
 209      58AC0668 
 209      50615D5F 
 209      BEA6319C 
 209      6BA4A68E 
 210 0625 2E30C81E 		.ascii	".0\310\036\026\353\200\306\326\006\177\320-Z7\224\027"
 210      16EB80C6 
 210      D6067FD0 
 210      2D5A3794 
 210      17
 211 0636 97B8D2CA 		.ascii	"\227\270\322\3127n\251(q\245\227WV\224\224\024\273\254"
 211      376EA928 
 211      71A59757 
 211      56949414 
ARM GAS  /tmp/ccSY6zRX.s 			page 16


 211      BBAC
 212 0648 159B2A8A 		.ascii	"\025\233*\212]\374z\220\362b\027\336L\231/_\351\026"
 212      5DFC7A90 
 212      F26217DE 
 212      4C992F5F 
 212      E916
 213 065a F9B04FB4 		.ascii	"\371\260O\264z\003>O\010\227Z\326T\272\\\226\262\265"
 213      7A033E4F 
 213      08975AD6 
 213      54BA5C96 
 213      B2B5
 214 066c 2FBA2CCF 		.ascii	"/\272,\317\277\340*#U)\277\306\345\312\224\235\345\257"
 214      BFE02A23 
 214      5529BFC6 
 214      E5CA949D 
 214      E5AF
 215 067e 0657C90D 		.ascii	"\006W\311\015\013q\234\235`\270k<aq5<\010\326\324\000"
 215      0B719C9D 
 215      60B86B3C 
 215      6171353C 
 215      08D6D400 
 216 0692 54261072 		.ascii	"T&\020r\371<\325\300y\201\221s8\344\245|\275\210\257"
 216      F93CD5C0 
 216      79819173 
 216      38E4A57C 
 216      BD88AF
 217 06a5 6A0C6741 		.ascii	"j\014gAss\310/\372`\250\245\312/\2063\374\301\272`\265"
 217      7373C82F 
 217      FA60A8A5 
 217      CA2F8633 
 217      FCC1BA60 
 218 06ba CF2D66C3 		.ascii	"\317-f\303\223J\237\010\3677@\337Bn\316s+Nw\203\216"
 218      934A9F08 
 218      F73740DF 
 218      426ECE73 
 218      2B4E7783 
 219 06cf ADA16063 		.ascii	"\255\241`c\003\271k\361\326zB\031nwMc\275\327\355\316"
 219      03B96BF1 
 219      D67A4219 
 219      6E774D63 
 219      BDD7EDCE 
 220 06e3 561B052B 		.ascii	"V\033\005+W\257\\\246\353=\255\355\255Z\366\037\340"
 220      57AF5CA6 
 220      EB3DADED 
 220      AD5AF61F 
 220      E0
 221 06f4 660137   		.ascii	"f\0017"
 222              		.text
 223              		.section	.gnu.lto_.symtab.934fbdd10bdcb52c,"",%progbits
 224 0000 70616C52 		.ascii	"palReadBus\000\000\000\000\000\000\000\000\000\000\000"
 224      65616442 
 224      75730000 
 224      00000000 
 224      00000000 
 225 0015 00A00000 		.ascii	"\000\240\000\000\000palWriteBus\000\000\000\000\000"
 225      0070616C 
 225      57726974 
ARM GAS  /tmp/ccSY6zRX.s 			page 17


 225      65427573 
 225      00000000 
 226 002a 00000000 		.ascii	"\000\000\000\000\000\000\000\355\000\000\000palSetB"
 226      000000ED 
 226      00000070 
 226      616C5365 
 226      7442
 227 003c 75734D6F 		.ascii	"usMode\000\000\000\000\000\000\000\000\000\000\000\000"
 227      64650000 
 227      00000000 
 227      00000000 
 227      0000
 228 004e F6000000 		.ascii	"\366\000\000\000_pal_lld_setgroupmode\000\000\002\000"
 228      5F70616C 
 228      5F6C6C64 
 228      5F736574 
 228      67726F75 
 229 006b 00000000 		.ascii	"\000\000\000\000\000\000\000\000\002\001\000\000"
 229      00000000 
 229      02010000 
 230              		.text
 231              		.section	.gnu.lto_.opts,"",%progbits
 232 0000 272D6D63 		.ascii	"'-mcpu=cortex-m4''-mno-thumb-interwork''-mthumb''-g"
 232      70753D63 
 232      6F727465 
 232      782D6D34 
 232      27272D6D 
 233 0033 67646227 		.ascii	"gdb''-O2''-fomit-frame-pointer''-falign-functions=1"
 233      272D4F32 
 233      27272D66 
 233      6F6D6974 
 233      2D667261 
 234 0066 3627272D 		.ascii	"6''-ffunction-sections''-fdata-sections''-fno-commo"
 234      6666756E 
 234      6374696F 
 234      6E2D7365 
 234      6374696F 
 235 0099 6E27272D 		.ascii	"n''-flto'\000"
 235      666C746F 
 235      2700
 236              		.text
 237              		.cfi_sections	.debug_frame
 238              		.section	.text.palReadBus,"ax",%progbits
 239              		.align	2
 240              		.p2align 4,,15
 241              		.global	palReadBus
 242              		.thumb
 243              		.thumb_func
 244              		.type	palReadBus, %function
 245              	palReadBus:
 246              	.LFB272:
 247              		.file 1 "../../../os/hal/src/pal.c"
 248              		.loc 1 65 0
 249              		.cfi_startproc
 250              		@ args = 0, pretend = 0, frame = 0
 251              		@ frame_needed = 0, uses_anonymous_args = 0
 252              		@ link register save eliminated.
ARM GAS  /tmp/ccSY6zRX.s 			page 18


 253              	.LVL0:
 254              		.loc 1 69 0
 255 0000 0368     		ldr	r3, [r0, #0]
 256 0002 8268     		ldr	r2, [r0, #8]
 257 0004 1969     		ldr	r1, [r3, #16]
 258 0006 4368     		ldr	r3, [r0, #4]
 259 0008 21FA02F0 		lsr	r0, r1, r2
 260              	.LVL1:
 261              		.loc 1 70 0
 262 000c 1840     		ands	r0, r0, r3
 263 000e 7047     		bx	lr
 264              		.cfi_endproc
 265              	.LFE272:
 266              		.size	palReadBus, .-palReadBus
 267              		.section	.text.palWriteBus,"ax",%progbits
 268              		.align	2
 269              		.p2align 4,,15
 270              		.global	palWriteBus
 271              		.thumb
 272              		.thumb_func
 273              		.type	palWriteBus, %function
 274              	palWriteBus:
 275              	.LFB273:
 276              		.loc 1 90 0
 277              		.cfi_startproc
 278              		@ args = 0, pretend = 0, frame = 0
 279              		@ frame_needed = 0, uses_anonymous_args = 0
 280              		@ link register save eliminated.
 281              	.LVL2:
 282              		.loc 1 94 0
 283 0000 0DC8     		ldmia	r0, {r0, r2, r3}
 284              	.LVL3:
 285              		.loc 1 90 0
 286 0002 30B4     		push	{r4, r5}
 287              	.LCFI0:
 288              		.cfi_def_cfa_offset 8
 289              		.cfi_offset 4, -8
 290              		.cfi_offset 5, -4
 291              		.loc 1 94 0
 292 0004 22EA0105 		bic	r5, r2, r1
 293 0008 03F11004 		add	r4, r3, #16
 294 000c 0A40     		ands	r2, r2, r1
 295 000e 05FA04F4 		lsl	r4, r5, r4
 296 0012 02FA03F3 		lsl	r3, r2, r3
 297 0016 2343     		orrs	r3, r3, r4
 298 0018 8361     		str	r3, [r0, #24]
 299              		.loc 1 95 0
 300 001a 30BC     		pop	{r4, r5}
 301 001c 7047     		bx	lr
 302              		.cfi_endproc
 303              	.LFE273:
 304              		.size	palWriteBus, .-palWriteBus
 305 001e 00BF     		.section	.text.palSetBusMode,"ax",%progbits
 306              		.align	2
 307              		.p2align 4,,15
 308              		.global	palSetBusMode
 309              		.thumb
ARM GAS  /tmp/ccSY6zRX.s 			page 19


 310              		.thumb_func
 311              		.type	palSetBusMode, %function
 312              	palSetBusMode:
 313              	.LFB274:
 314              		.loc 1 113 0
 315              		.cfi_startproc
 316              		@ args = 0, pretend = 0, frame = 0
 317              		@ frame_needed = 0, uses_anonymous_args = 0
 318              		@ link register save eliminated.
 319              	.LVL4:
 320              		.loc 1 113 0
 321 0000 0A46     		mov	r2, r1
 322              		.loc 1 117 0
 323 0002 0BC8     		ldmia	r0, {r0, r1, r3}
 324              	.LVL5:
 325 0004 01FA03F1 		lsl	r1, r1, r3
 326              		.loc 1 118 0
 327              		.loc 1 117 0
 328 0008 FFF7FEBF 		b	_pal_lld_setgroupmode
 329              	.LVL6:
 330              		.cfi_endproc
 331              	.LFE274:
 332              		.size	palSetBusMode, .-palSetBusMode
 333 000c AFF30080 		.text
 334              	.Letext0:
 335              		.file 2 "/usr/local/bin/../lib/gcc/arm-none-eabi/4.7.2/../../../../arm-none-eabi/include/stdint.h"
 336              		.file 3 "../../../os/rt/ports/ARMCMx/compilers/GCC/chtypes.h"
 337              		.file 4 "../../../os/rt/include/chsystypes.h"
 338              		.file 5 "../../../os/rt/include/chschd.h"
 339              		.file 6 "../../../os/rt/ports/ARMCMx/chcore.h"
 340              		.file 7 "../../../os/rt/ports/ARMCMx/chcore_v7m.h"
 341              		.file 8 "../../../os/rt/include/chtm.h"
 342              		.file 9 "../../../os/rt/include/chsem.h"
 343              		.file 10 "../../../os/rt/include/chmtx.h"
 344              		.file 11 "../../../os/hal/ports/STM32/LLD/GPIOv2/pal_lld.h"
 345              		.file 12 "../../../os/hal/include/pal.h"
 346              		.file 13 "../../../os/ext/CMSIS/include/core_cm4.h"