ARM GAS  /tmp/ccCtZxjj.s 			page 1


   1              		.syntax unified
   2              		.cpu cortex-m4
   3              		.fpu softvfp
   4              		.eabi_attribute 20, 1
   5              		.eabi_attribute 21, 1
   6              		.eabi_attribute 23, 3
   7              		.eabi_attribute 24, 1
   8              		.eabi_attribute 25, 1
   9              		.eabi_attribute 26, 1
  10              		.eabi_attribute 30, 2
  11              		.eabi_attribute 34, 1
  12              		.eabi_attribute 18, 4
  13              		.thumb
  14              		.file	"pal_lld.c"
  15              		.text
  16              	.Ltext0:
  17              		.section	.gnu.lto_.jmpfuncs.f4536ca7e237752c,"",%progbits
  18 0000 789C6362 		.ascii	"x\234cb`d`g\300\016\330\2404\023\003##;\003\000\002"
  18      60646067 
  18      C00ED8A0 
  18      34130323 
  18      233B0300 
  19 0015 25001C   		.ascii	"%\000\034"
  20              		.text
  21              		.section	.gnu.lto_.inline.f4536ca7e237752c,"",%progbits
  22 0000 789C6362 		.ascii	"x\234cb`d\340e\300\016L\2404\023\003\303\031\206\323"
  22      6064E065 
  22      C00E4CA0 
  22      341303C3 
  22      1986D3
  23 0013 40854CF9 		.ascii	"@\205L\3713\036\2631h\336\330\300\304\004\344\235c\330"
  23      331EB331 
  23      68DED8C0 
  23      C404E49D 
  23      63D8
  24 0025 CBC4C8C8 		.ascii	"\313\304\310\310\304\310\300\300\234\327r^\201Ab\316"
  24      C4C8C0C0 
  24      9CD7725E 
  24      814162CE 
  25 0035 45662606 		.ascii	"Ef&\006\2619\273\230X\030\030\000P1\013\371"
  25      B139BB98 
  25      58181800 
  25      50310BF9 
  26              		.text
  27              		.section	.gnu.lto_.pureconst.f4536ca7e237752c,"",%progbits
  28 0000 789C6362 		.ascii	"x\234cb`d`f```e\200\000&\006)F)\000\001:\000C"
  28      60646066 
  28      60606065 
  28      80002606 
  28      29462900 
  29              		.text
  30              		.section	.gnu.lto__pal_lld_init.f4536ca7e237752c,"",%progbits
  31 0000 789CED98 		.ascii	"x\234\355\230[lTE\000\206g\316\336\240@\255\275o\257"
  31      5B6C5445 
  31      008667CE 
  31      DEA040AD 
  31      BD6FAF
ARM GAS  /tmp/ccCtZxjj.s 			page 2


  32 0013 DB767B6F 		.ascii	"\333v{ow{{0\361\305\007\023i\202Q\024\023C\262\020\262"
  32      777B7B30 
  32      F1C50713 
  32      69825114 
  32      1343B210 
  33 0028 566CD2D0 		.ascii	"Vl\322\320F\214\017\276\364Px\350c\343\203V1\012\342"
  33      468C0FBE 
  33      F45078E8 
  33      63E38356 
  33      310AE2
  34 003b 65AD1714 		.ascii	"e\255\027\024\025\201\252\324\262b\3224\365\022\022"
  34      1581AAD4 
  34      B262D234 
  34      F51212
  35 004a 5F2A2191 		.ascii	"_*!\221'\303\233\305h\322\244\376\347\314\341\314\324"
  35      27C39BC5 
  35      68D2A4FE 
  35      E7CCE1CC 
  35      D4
  36 005b D9B3D3D9 		.ascii	"\331\263\323\331m\023\037z\240|\247\333\2369\337\316"
  36      6D131F7A 
  36      A07CA7DB 
  36      9E39DFCE 
  37 006b CCF9B2C1 		.ascii	"\314\371\262\301 \024\177\344#\214\257\256\006B\036"
  37      20147FE4 
  37      238CAFAE 
  37      06421E
  38 007a 02A98F50 		.ascii	"\002\251\217Pcj\211\220\023\021\203R\353\004\227\214"
  38      636A8990 
  38      13118352 
  38      EB04978C 
  39 008a 1B74FC29 		.ascii	"\033t\374)\373\312\346Fr\3264_\236\2726\261w\342\326"
  39      FBCAE646 
  39      72D6345F 
  39      9EBA36B1 
  39      77E2D6
  40 009d DA5AFD90 		.ascii	"\332Z\375\220\365\352aJ\026\226~\247a2D)\211\020\213"
  40      F5EA614A 
  40      16967EA7 
  40      61324429 
  40      89108B
  41 00b0 06F1AFBF 		.ascii	"\006\361\257\277\207\307u$\227\213\356L\377\221\323"
  41      87C77524 
  41      978BEE4C 
  41      FF91D3
  42 00bf CD6E57E6 		.ascii	"\315nW\346r\325rNW\335\310\351\252\305\234\256J\347"
  42      72D5724E 
  42      57DDC8E9 
  42      AAC59CAE 
  42      4AE7
  43 00d1 74D56A28 		.ascii	"t\325j(\247\271\317\351^\3333\277=\363\3333\277=\363"
  43      A7B9CFE9 
  43      5EDB33BF 
  43      3DF3DB33 
  43      BF3DF3
  44 00e4 DB33FFBF 		.ascii	"\3333\377\277\233\371\364\351\277\214\364L\360\2521"
  44      9BF9F4E9 
ARM GAS  /tmp/ccCtZxjj.s 			page 3


  44      BF8CF44C 
  44      F0AA31
  45 00f3 776B6D3C 		.ascii	"wkm<J\316YC\2344\367\016Q\237A\006\250}\333\323\027"
  45      4ACE5943 
  45      9C34F70E 
  45      519F4106 
  45      A87DDBD3 
  46 0108 8D0C43E0 		.ascii	"\215\014C\3407\310\323>\222\240gh#^I\320\263`\200&\350"
  46      37C8D33E 
  46      92A06768 
  46      235E49D0 
  46      B3608026 
  47 011d F7344A8A 		.ascii	"\3674J\212\361}\012\337\227\200\357\203\245\340{`\031"
  47      F17D0ADF 
  47      9780EF83 
  47      A5E07B60 
  47      19
  48 012e F82E580E 		.ascii	"\370.X\016\276\003V\200\347\300J\360m0\014\236\007\253"
  48      BE035680 
  48      E7C04AF0 
  48      6D300C9E 
  48      07AB
  49 0140 C04FC06A 		.ascii	"\300O\300j\360c\260\006\374\010\254\005?\004\353\300"
  49      F063B006 
  49      FC08AC05 
  49      3F04EBC0 
  50 0150 19B01EFC 		.ascii	"\031\260\036\374\000\214\200\027\301\006\360K\260\021"
  50      008C8017 
  50      C106F04B 
  50      B011
  51 015e FC026C02 		.ascii	"\374\002l\002?\007\243\340\005\260\031\374\014l\001"
  51      3F07A3E0 
  51      05B019FC 
  51      0C6C01
  52 016d 3F055BC1 		.ascii	"?\005[\301o\3006\360k\260\035\234\005;\300+`'x\031\354"
  52      6FC036F0 
  52      6BB01D9C 
  52      053BC02B 
  52      60277819 
  53 0182 022F81DD 		.ascii	"\002/\201\335\340W`\014L\203q\360\032\330\003\316\203"
  53      E057600C 
  53      4C8371F0 
  53      1AD803CE 
  53      83
  54 0193 BDE07760 		.ascii	"\275\340w`\0378\007\366\203W\301\001\360[\020G\200\234"
  54      1F3807F6 
  54      8357C101 
  54      F05B1047 
  54      809C
  55 01a5 32CD22FB 		.ascii	"2\315\"\373\303\217u\354\267h}\316z\002\023k\235\370"
  55      C38F75EC 
  55      B7687DCE 
  55      7A02136B 
  55      9DF8
  56 01b7 16C8FCC1 		.ascii	"\026\310\374\301\2257\012\023\364\007\032 I\352\353"
  56      95370A13 
  56      F4071A20 
ARM GAS  /tmp/ccCtZxjj.s 			page 4


  56      49EAEB
  57 01c6 2433E629 		.ascii	"$3\346):D\375\276\327\311k`\300^\215 1\317L\232~\302"
  57      3A44FDBE 
  57      D7C96B60 
  57      C05E8D20 
  57      31CF4C9A 
  58 01dc CED971C8 		.ascii	"\316\331q\310\032\213\215\273@N\236\267\026\207\215"
  58      1A8B8DBB 
  58      404E9EB7 
  58      16878D
  59 01eb E1C730D6 		.ascii	"\341\3070\326/\022b\232\177\033\366\217\347\007\235"
  59      2F12629A 
  59      7F1BF68F 
  59      E7079D
  60 01fa 9FE6303C 		.ascii	"\237\3460<\006$\344:1\322o\036cc\014S\362\022\371\307"
  60      0624E43A 
  60      31D26F1E 
  60      63630C53 
  60      F212F9C7 
  61 020e 2C1AA221 		.ascii	",\032\242!j\215\207\223\035\316p;\215$\015\204\355\335"
  61      6A8D8793 
  61      1DCE703B 
  61      8D240D84 
  61      EDDD
  62 0220 42482A64 		.ascii	"BH*d\017\343\274\365K>\033\030\310Qqv0\266\237\263\203"
  62      0FE3BCF5 
  62      4B3E1B18 
  62      C8517176 
  62      30B69FB3 
  63 0235 0B0CF2A0 		.ascii	"\013\014\362\240\263\007\253\262\356b\353\305\002\274"
  63      B307ABB2 
  63      EE62EBC5 
  63      02BC
  64 0243 3973CE4F 		.ascii	"9s\316O\326\253Ic\206\022\364:\006\330\300\240\303\324"
  64      D6AB4963 
  64      8612F43A 
  64      06D8C0A0 
  64      C3D4
  65 0255 9EA98983 		.ascii	"\236\251\211\203\253\277\026:\253\306`$\350\317\324"
  65      ABBF163A 
  65      ABC66024 
  65      E8CFD4
  66 0264 DA623FDA 		.ascii	"\332b?\332\377Z\267\341G\222\026;S\260\313\231\202\335"
  66      FF5AB7E1 
  66      4792163B 
  66      53B0CB99 
  66      82DD
  67 0276 F7A620E4 		.ascii	"\367\246 \344\314\337!k\251\211\263N\363\203\251@\202"
  67      CCDF216B 
  67      A989B34E 
  67      F383A940 
  67      82
  68 0287 FEF2DF95 		.ascii	"\376\362\337\2258\201\001\366\030\342\373b\347\367F"
  68      388101F6 
  68      18E2FB62 
  68      E7F746
  69 0296 C0DC4DFA 		.ascii	"\300\334M\372\330\355\230d\032\237\212\3318IZ\2426\360"
ARM GAS  /tmp/ccCtZxjj.s 			page 5


  69      D8ED9864 
  69      1A9F8AD9 
  69      38495AA2 
  69      36F0
  70 02a8 E76D1070 		.ascii	"\347m\020p\015J\230\301\242`P\2526\010\346m\020r\015"
  70      0D4A98C1 
  70      A26050AA 
  70      3608E66D 
  70      10720D
  71 02bb 4A99C10D 		.ascii	"J\231\301\015\301\240Lm\260#o\203\235\256A\0313X\026"
  71      C1A04C6D 
  71      B0236F83 
  71      9DAE4119 
  71      335816
  72 02ce 0CCAD506 		.ascii	"\014\312\325\006\005y\033\354r\015\312\231\301m\301"
  72      05791BEC 
  72      720DCA99 
  72      C16DC1
  73 02dd A0426DB0 		.ascii	"\240Bm\260;o\203=\256A\0053\270#\030T\252\015\012\363"
  73      3B6F833D 
  73      AE410533 
  73      B8231854 
  73      AA0D0AF3 
  74 02f1 36B8CF35 		.ascii	"6\270\3175\250\264\037\376e\336%\252\323\245\242\015"
  74      A8B41FFE 
  74      65DE25AA 
  74      D3A5A20D 
  75 0301 7729417F 		.ascii	"w)A\177\332XC\034\351I7L\313\233\022&\352\031\246\025"
  75      DA58431C 
  75      E949374C 
  75      CB9B1226 
  75      EA19A615 
  76 0315 3B497F66 		.ascii	";I\177f\014S\330{1j\274\302t7\353bLf\013SX\014\323]"
  76      0C53D87B 
  76      316ABCC2 
  76      7437EB62 
  76      4C660B53 
  77 032d 7B3B54A9 		.ascii	"{;T\251\015\2440i\033\3600U\211ab\006\325j\003)L\332"
  77      0DA43069 
  77      1BF03055 
  77      89616206 
  77      D56A0329 
  78 0343 063C4CD5 		.ascii	"\006<L\325b\230\230A\215\332@\012\223\266\001\017S\215"
  78      62989841 
  78      8DDA400A 
  78      93B6010F 
  78      538D
  79 0355 18266650 		.ascii	"\030&fP\2536\220\302\244m\300\303T+\206\211\031\324"
  79      AB3690C2 
  79      A46DC0C3 
  79      542B8689 
  79      19D4
  80 0367 A90DA430 		.ascii	"\251\015\2440i\033\3600\325\211ab\006\365j\003)L\332"
  80      691BF030 
  80      D5896162 
  80      06F56A03 
  80      294CDA
ARM GAS  /tmp/ccCtZxjj.s 			page 6


  81 037a 063C4CF5 		.ascii	"\006<L\365\366\303\277\302\303d\350\204\351\376-\013"
  81      F6C3BFC2 
  81      C364E884 
  81      E9FE2D0B 
  82 038a D3941BA6 		.ascii	"\323\224\033\246\225M\011\223\341\031\246W\015+I\257"
  82      954D0993 
  82      E119A657 
  82      0D2B49AF 
  83 039a 1899C214 		.ascii	"\030\231\302\024\361^\214\007\274\3024md[\214\251la"
  83      F15E8C07 
  83      BCC2346D 
  83      645B8CA9 
  83      6C61
  84 03ac 8A8861B2 		.ascii	"\212\210a\262\306I\322\006\265\201\024&m\003\036\246"
  84      C649D206 
  84      B5811426 
  84      6D031EA6 
  85 03bc 06314CCC 		.ascii	"\0061L\314\240Qm \205I\333\200\207\251Q\014\0233hR\033"
  85      A0516D20 
  85      8549DB80 
  85      87A9510C 
  85      13336852 
  86 03d1 4861D236 		.ascii	"Ha\3226\340aj\022\303\304\014\242j\003)L\332\006<LQ"
  86      E0616A12 
  86      C3C40CA2 
  86      6A03294C 
  86      DA063C4C 
  87 03e6 314CCCA0 		.ascii	"1L\314\240Ym \205I\333\200\207\251Y\014\0233hQ\033H"
  87      596D2085 
  87      49DB8087 
  87      A9590C13 
  87      3368511B 
  88 03fb 61D236E0 		.ascii	"a\3226\340aj\261\037\376\305\267\3340\371t\302T\274"
  88      616AB11F 
  88      FEC5B7DC 
  88      30F974C2 
  88      54BC
  89 040d 65619A76 		.ascii	"ea\232v\303\344\272\345\025&\237g\230\256\330I\272\234"
  89      C3E4BAE5 
  89      15269F67 
  89      98AED849 
  89      BA9C
  90 041f 314CADDE 		.ascii	"1L\255\336\213q\300+L\263Y\027c:[\230Z\3050\315\332"
  90      8B71C02B 
  90      4CB35917 
  90      633A5B98 
  90      5AC530CD 
  91 0434 DBA14D6D 		.ascii	"\333\241Mm \205I\333\200\207\251M\014\0233hW\033Ha\322"
  91      208549DB 
  91      8087A94D 
  91      0C133368 
  91      571B4861 
  92 0449 36E0616A 		.ascii	"6\340aj\027\303\304\014:\324\006R\230\264\015x\230:"
  92      17C3C40C 
  92      3AD40652 
  92      98B40D78 
  92      983A
ARM GAS  /tmp/ccCtZxjj.s 			page 7


  93 045b C4303183 		.ascii	"\30401\203N\265\201\024&m\003\036\246N1L\314\240Km "
  93      4EB58114 
  93      266D031E 
  93      A64E314C 
  93      CCA04B6D 
  94 0470 8549DB80 		.ascii	"\205I\333\200\207\251K\014\0233\350V\033Ha\3226\340"
  94      87A94B0C 
  94      1333E856 
  94      1B4861D2 
  94      36E0
  95 0482 61EAB61F 		.ascii	"a\352\266\037\376U\036&\277N\230J\266,L)7L\253\233\022"
  95      FE551E26 
  95      BF4E984A 
  95      B62C4C29 
  95      374CAB9B 
  96 0497 26BF6798 		.ascii	"&\277g\230~\263\223\264\2341L1\357\305\030\363\012\323"
  96      7EB393B4 
  96      9C314C31 
  96      EFC518F3 
  96      0AD3
  97 04a9 CDAC8B91 		.ascii	"\315\254\213\221\312\026\246\230\030\246\233\366v\210"
  97      CA16A698 
  97      18A69BF6 
  97      7688
  98 04b7 AB0DA430 		.ascii	"\253\015\2440i\033\3600\305\30501\203\036\265\201\024"
  98      691BF030 
  98      C5C53031 
  98      831EB581 
  98      14
  99 04c8 266D031E 		.ascii	"&m\003\036\246\0361L\314\240Wm \205I\333\200\207\251"
  99      A61E314C 
  99      CCA0576D 
  99      208549DB 
  99      8087A9
 100 04db 570C1333 		.ascii	"W\014\0233\350S\033Ha\3226\340a\352\023\303\304\014"
 100      E8531B48 
 100      61D236E0 
 100      61EA13C3 
 100      C40C
 101 04ed FAD50652 		.ascii	"\372\325\006R\230\264\015x\230\372\30501\203\001\265"
 101      98B40D78 
 101      98FAC530 
 101      318301B5 
 102 04fd 8114266D 		.ascii	"\201\024&m\003\036\246\001B\226\010M\317\004\327?\225"
 102      031EA601 
 102      4296084D 
 102      CF04D73F 
 102      95
 103 050e FBADFF94 		.ascii	"\373\255\377\224\231Z\"\326c\327\033\213\305\331\337"
 103      995A22D6 
 103      63D71B8B 
 103      C5D9DF
 104 051d D1E3F1E7 		.ascii	"\321\343\361\347\216\214\304\307F\237\177\341x\374\311"
 104      8E8CC4C7 
 104      469F7FE1 
 104      78FCC9
 105 052c 038FF6F7 		.ascii	"\003\217\366\367\305\367\355{8\376\310\343\203\217\275"
ARM GAS  /tmp/ccCtZxjj.s 			page 8


 105      C5F7ED7B 
 105      38FEC8E3 
 105      838FBD
 106 053b D8171F3B 		.ascii	"\330\027\037;2rxd\344\231X\222\004\223\243\307\236\035"
 106      32727864 
 106      E4995892 
 106      0493A3C7 
 106      9E1D
 107 054d 3E1A383A 		.ascii	">\0328:6<:\366/\274\362\\\266"
 107      363C3AF6 
 107      2FBCF25C 
 107      B6
 108              		.text
 109              		.section	.gnu.lto__pal_lld_setgroupmode.f4536ca7e237752c,"",%progbits
 110 0000 789CCD98 		.ascii	"x\234\315\230Yl\023G\030\307gfw}$q\202\270\317\024A"
 110      596C1347 
 110      18C76766 
 110      777D2471 
 110      82B8CF14 
 111 0015 B8933884 		.ascii	"\270\2238\2043\010\0207\004r\264\264\274 \001\005\023"
 111      33081037 
 111      0472B4B4 
 111      BC200105 
 111      13
 112 0026 B5A54913 		.ascii	"\265\245I\023\205C*\017\220\002\017\251\304\003\352"
 112      85432A0F 
 112      90020FA9 
 112      C403EA
 113 0035 5BFBC451 		.ascii	"[\373\304Q(\"q\322\223\332\224\002\005\003)M\021BV\024"
 113      282271D2 
 113      93DA9402 
 113      0503294D 
 113      11425614 
 114 0049 A108A1CA 		.ascii	"\241\010\241\312\320 EU\205\242*BH\364?3;\353ul\250"
 114      D0204555 
 114      85A22A42 
 114      48F43F33 
 114      3BEB756C 
 115 005e B35111CE 		.ascii	"\263Q\021\316\361\363\316w\314\367\315|;\373\331\214"
 115      F1F3CE77 
 115      CCF7CD7C 
 115      3BFBD98C 
 116 006e 50FC24BF 		.ascii	"P\374$\277\232\360\2277\236\220\003 \315!\224\035\273"
 116      9AF09737 
 116      9E900320 
 116      CD21941D 
 116      BB
 117 007f 4DC82713 		.ascii	"M\310'\023\031\325\344\033\215\351\215\323H\303\364"
 117      19D5E41B 
 117      8DE98DD3 
 117      48C3F4
 118 008e 2CFEBF48 		.ascii	",\376\277Hg\306\337#p\345=\276\020W\006s\011\231[\310"
 118      67C6DF23 
 118      70E53DBE 
 118      10570673 
 118      09995BC8 
 119 00a2 5CD4234D 		.ascii	"\\\324#M\334\352\215\207f\3117^\226!\0243\205b\206\032"
ARM GAS  /tmp/ccCtZxjj.s 			page 9


 119      DCEA8D87 
 119      66C9375E 
 119      96211433 
 119      8562861A 
 120 00b6 CE546FB2 		.ascii	"\316To\262X\366\0217\344\276\2437\011\024|r\362\023"
 120      58F61137 
 120      E4BEA337 
 120      09147C72 
 120      F213
 121 00c8 13B329E5 		.ascii	"\023\263)\345o\020\370A\246\351\206\313\355\361fdf\371"
 121      6F10F841 
 121      A6E986CB 
 121      EDF16664 
 121      66F9
 122 00da B2E9C14D 		.ascii	"\262\351\301M\"\227\005\223\310\211\206\206\317\216"
 122      22970593 
 122      C8898686 
 122      CF8E
 123 00e8 5D3BB4EE 		.ascii	"];\264\356\320\203\347\317\337\250\342\243\333(\271"
 123      D083E7CF 
 123      DFA8E2A3 
 123      DB28B9
 124 00f7 D57E3A77 		.ascii	"\325~:w\014\251\242\224L$\234\214\350\211Y\277\300\256"
 124      0CA9A294 
 124      4C249C8C 
 124      E88959BF 
 124      C0AE
 125 0109 27DF8955 		.ascii	"'\337\211U\257#\253g\216\254\242\301\003\216\022\013"
 125      AF23AB67 
 125      8EACA2C1 
 125      038E120B 
 126 0119 9E644EEC 		.ascii	"\236dN\354:\275\377mu\314f\245\011\253>c\200V\214\314"
 126      3ABDFF6D 
 126      75CC66A5 
 126      09AB3E63 
 126      80568CCC 
 127 012d A5622583 		.ascii	"\245b%\203\373\235\314G\034\255\177\360\002u2Y\267\366"
 127      FB9DCC47 
 127      1CAD7FF0 
 127      02753259 
 127      B7F6
 128 013f 3F85986C 		.ascii	"?\205\230l\024iq\264\331\355-O\322\310,\331\256/\215"
 128      146971B4 
 128      D9ED2D4F 
 128      D2C82CD9 
 128      AE2F8D
 129 0152 CD765622 		.ascii	"\315vV\"\311Vm\231\216\252\337af\215\216f\353v\266\036"
 129      C9566D99 
 129      8EAADF61 
 129      668D8E66 
 129      EB76B61E 
 130 0166 8EE6EA72 		.ascii	"\216\346\352r\230Y\233\243\030C\216b\214\265\234q\024"
 130      98599BA3 
 130      18438E62 
 130      8CB59C71 
 130      14
 131 0177 63A4F51F 		.ascii	"c\244\365\037Gv\316\326\377U\256H\324af\2572\306\256"
ARM GAS  /tmp/ccCtZxjj.s 			page 10


 131      4776CED6 
 131      FF55AE48 
 131      D46166AF 
 131      32C6AE
 132 018a D6A7AF70 		.ascii	"\326\247\257p\365\235U\177$\364\372\307\030\015\275"
 132      F59D557F 
 132      24F4FAC7 
 132      180DBD
 133 0199 FE7B1D7B 		.ascii	"\376{\035{\015c<\334\240\254tF\026\211\307|Ws\375\200"
 133      0D633CDC 
 133      A0AC7446 
 133      1689C77C 
 133      5773FD80 
 134 01ad 2D9709CB 		.ascii	"-\227\011\313XZMS\202\341Z\232~g\227`XI\323o\356\022"
 134      585A4D53 
 134      82E15A9A 
 134      7E679760 
 134      5849D36F 
 135 01c3 0C37D1F4 		.ascii	"\0147\321\364\373\273\004\303\315\3020R0`\303\255rY"
 135      FBBB04C3 
 135      CDC23052 
 135      3060C3AD 
 135      7259
 136 01d5 8327D3DA 		.ascii	"\203'\323\332\375\004\323\367\204\351Y\367\200\015w"
 136      FD04D3F7 
 136      84E959F7 
 136      800D77
 137 01e4 09C3EE81 		.ascii	"\011\303\356\201\033\326\310\031_^r\355\315\177\261"
 137      1BD6C819 
 137      5F5E72ED 
 137      CD7FB1
 138 01f3 C805D765 		.ascii	"\310\005\327ev\345\301\363\203y\344\224\351\245\212"
 138      76E5C1F3 
 138      8379E494 
 138      E9A58A
 139 0202 1A8CD4C9 		.ascii	"\032\214\324\311\365m\272\224\242\245ev]\027#{\345\222"
 139      F56DBA94 
 139      A2A56576 
 139      5D17237B 
 139      E592
 140 0214 363F4AD5 		.ascii	"6?J\325\376B\203\330\365\335\214\354\027\372\355\315"
 140      FE4283D8 
 140      F5DD8CEC 
 140      17FAEDCD 
 141 0224 E753EBBB 		.ascii	"\347S\353\273\361g\220-\024\2771\232G\030x\233N\"\032"
 141      F167902D 
 141      14BF319A 
 141      4718789B 
 141      4E221A
 142 0237 7807D4C1 		.ascii	"x\007\324\301\273 W\211\202.\260\023t\323-\364\021\364"
 142      BB205789 
 142      822EB013 
 142      74D32DF4 
 142      11F4
 143 0249 3DA6BE17 		.ascii	"=\246\276\027<\016f\230v\231\340\0110\313\264\367\201"
 143      3C0E6698 
 143      7699E009 
ARM GAS  /tmp/ccCtZxjj.s 			page 11


 143      30CBB4F7 
 143      81
 144 025a 27C16CD3 		.ascii	"'\301l\323O\016x\012\034\002v\200C\251\234\177\030\256"
 144      4F0E780A 
 144      1C027680 
 144      43A99C7F 
 144      18AE
 145 026c BFC4F570 		.ascii	"\277\304\365p\36048\002<\003\216\004\277\002G\201\367"
 145      F0343802 
 145      3C038E04 
 145      BF024781 
 145      F7
 146 027d C0D1E059 		.ascii	"\300\321\340Yp\014x\016\034\013v\201\343\300&p<\330"
 146      700C780E 
 146      1C0B7681 
 146      E3C02670 
 146      3CD8
 147 028f 0C4E0083 		.ascii	"\014N\000\203`.x\037\234\004\266\200\223\301\007`\036"
 147      602E781F 
 147      9C04B680 
 147      93C10760 
 147      1E
 148 02a0 E6FD03F3 		.ascii	"\346\375\003\363N\301u+\256\247\202_\203\323\300o\300"
 148      4EC1752B 
 148      AEA7825F 
 148      83D3C06F 
 148      C0
 149 02b1 E9E0B7E0 		.ascii	"\351\340\267\340\014\360;p&\370=8\013\374\001\314\007"
 149      0CF03B70 
 149      26F83D38 
 149      0BFC01CC 
 149      07
 150 02c2 CF8305E0 		.ascii	"\317\203\005\340\217\240\037\014\201E`\030,\006\177"
 150      8FA01F0C 
 150      81456018 
 150      2C067F
 151 02d1 02E78017 		.ascii	"\002\347\200\027\301\271\340\317\340<\360\0228\037\274"
 151      C1B9E0CF 
 151      E03CF012 
 151      381FBC
 152 02e0 0C2E30E5 		.ascii	"\014.0\345\013\301+`\011\370\013\270\010\274\012.\006"
 152      0BC12B60 
 152      09F80BB8 
 152      08BC0A2E 
 152      06
 153 02f1 AF814BC0 		.ascii	"\257\201K\300\010\270\024\274\016.\003o\200\313\301"
 153      08B814BC 
 153      0E2E036F 
 153      80CBC1
 154 0300 9BE00AB0 		.ascii	"\233\340\012\260\015\\i\372[\005\376\012\256\006o\201"
 154      0D5C69FA 
 154      5B05FE0A 
 154      AE066F81 
 155 0310 6BC0DFC0 		.ascii	"k\300\337\300\265\246|\035\330\016\226\202\277\203\353"
 155      B5A67C1D 
 155      D80E9682 
 155      BF83EB
ARM GAS  /tmp/ccCtZxjj.s 			page 12


 156 031f CD3AD860 		.ascii	"\315:\330`\356c\231\271\177\345\346\276U\230\373]i\326"
 156      EE6399B9 
 156      7FE5E6BE 
 156      5598FB5D 
 156      69D6
 157 0331 015E0639 		.ascii	"\001^\0069\322\3200\304%\307\245\225\264\221\026r\177"
 157      D2D030C4 
 157      25C7A595 
 157      B4911672 
 157      7F
 158 0342 A5F636F3 		.ascii	"\245\3666\363\363\372[\234\370|\274\021u\010j\267\310"
 158      F3FA5B9C 
 158      F87CBC11 
 158      75086AB7 
 158      C8
 159 0353 E1B08633 		.ascii	"\341\260\2063t\013\355F1\006\250'@\305]HP\207\204\334"
 159      740BED46 
 159      3106A827 
 159      40C55D48 
 159      508784DC 
 160 0367 1055D92D 		.ascii	"\020U\331-\312\224\317\0019!\302$\326\374\204*\033\257"
 160      CA94CF01 
 160      3921C224 
 160      D6FC842A 
 160      1BAF
 161 0379 65C32B1B 		.ascii	"e\303+\033\342f\255MS\302\014\310\271P\203\253D\207"
 161      E266AD4D 
 161      53C20CC8 
 161      B95083AB 
 161      4487
 162 038b 7784C30C 		.ascii	"w\204\303\014\323a\217\315a\246\345pt\262\303,\310\245"
 162      D3618FCD 
 162      61A6E570 
 162      74B2C32C 
 162      C8A5
 163 039d C3FE11DE 		.ascii	"\303\376\021\336\025\016\263L\207\2756\207>\313\341"
 163      150EB34C 
 163      87BD3687 
 163      3ECBE1
 164 03ac BBC90EB3 		.ascii	"\273\311\016\263!\227\016\215~\016\243\302a\266\351"
 164      21970E8D 
 164      7E0EA3C2 
 164      61B6E9
 165 03bb F099CD61 		.ascii	"\360\231\315a\216\345\260!'\331\343\020(H\217\356~\036"
 165      8EE5B021 
 165      27D9E310 
 165      28488FEE 
 165      7E1E
 166 03cd 3B84C721 		.ascii	";\204\307!b0R\240F;\305\355\204\003\315:\2626\302\226"
 166      623052A0 
 166      463BC5ED 
 166      8403CD3A 
 166      B236C296 
 167 03e1 7F5DA141 		.ascii	"\177]\241A\017\223H\225\000\216\030\242\006dlF|@f\257"
 167      0F934895 
 167      008E18A2 
 167      06646C46 
ARM GAS  /tmp/ccCtZxjj.s 			page 13


 167      7C4066AF 
 168 03f5 C707E4FA 		.ascii	"\307\007\344\372j\361\001\271\203,>\300\313-\200\203"
 168      6AF101B9 
 168      832C3EC0 
 168      CB2D8083 
 169 0405 49E6170D 		.ascii	"I\346\027\015\036P\011\014\303\250L\217\227\313ur\344"
 169      1E50090C 
 169      C3A84C8F 
 169      97CB7572 
 169      E4
 170 0416 4FDA6865 		.ascii	"O\332he7LJ\342\257\016B\003t(\303\277\365\276g\241]"
 170      374C4AE2 
 170      AF0E4203 
 170      7428C3BF 
 170      F5BE67A1 
 171 042b 1D84A14E 		.ascii	"\035\204\241N\030\212*@+|=\341\217:\210\206}f1>\260"
 171      188A2A40 
 171      2B7C3DE1 
 171      8F3A8886 
 171      7D66313E 
 172 0440 C1172DE9 		.ascii	"\301\027-\351 :\266\211\365\344\007h\231\257+\274\257"
 172      203AB689 
 172      F5E40768 
 172      99AF2BBC 
 172      AF
 173 0451 83185865 		.ascii	"\203\030Xe\326\313\345\345\276\0307p\251\345`\221 F"
 173      D6CBE5E5 
 173      BE183770 
 173      A9E56091 
 173      2046
 174 0463 2B7DBDE1 		.ascii	"+}\275\341\035|UtB\033\247\311\242\345_C\310\033@\227"
 174      1D7C5574 
 174      421BA7C9 
 174      A2E55F43 
 174      C81B4097 
 175 0477 07933C86 		.ascii	"\007\223<\206\344a#\217\030\031\261x\005\350p,\237\214"
 175      E461238F 
 175      1819B178 
 175      05E8702C 
 175      9F8C
 176 0489 DC2D77EC 		.ascii	"\334-w\354S\255\323\273\205>\0269\215\200\334^\302\207"
 176      53ADD3BB 
 176      853E1639 
 176      8D80DC5E 
 176      C287
 177 049b 7AB43E43 		.ascii	"z\264>C\011GB.,\232\264Fkp\224\330\346\221j{\037\213"
 177      0947422E 
 177      2C9AB446 
 177      6B7094D8 
 177      E6916A7B 
 178 04b1 8DBC2756 		.ascii	"\215\274'Vx\224\351\2417\270_i\217\026{'\\\02056F\226"
 178      7894E9A1 
 178      37B85F69 
 178      8F167B27 
 178      5C103536 
 179 04c7 08E562D3 		.ascii	"\010\345b\323\342\254\246\204c!O\364\335%|\2175C\347"
 179      E2ACA684 
ARM GAS  /tmp/ccCtZxjj.s 			page 14


 179      63214FF4 
 179      DD257C8F 
 179      3543E7
 180 04da DF3828DD 		.ascii	"\3378(\335qVfL\005\337m9\032\017y\377\231'\250\373\007"
 180      7156664C 
 180      05DF6D39 
 180      1A0F79FF 
 180      9927A8FB 
 181 04ef E2A49973 		.ascii	"\342\244\231s!O\234\371\276\2309\327\364\022i9\240T"
 181      214F9CF9 
 181      BE9839D7 
 181      F4126939 
 181      A054
 182 0501 27493F39 		.ascii	"'I?9D,D??\223\003\374\220\262\373y \374L\346\232W7\363"
 182      442C443F 
 182      3F9303FC 
 182      90B2FB79 
 182      20FC4CE6 
 183 0519 2F1694EA 		.ascii	"/\026\224\352\224Y\344\\\303\021ZE=\332\027\344s\320"
 183      9459E45C 
 183      C3115A45 
 183      3DDA17E4 
 183      73D0
 184 052b 8B0ACA1B 		.ascii	"\213\012\312\033#\236\217\362\2655^p\230\346\202\326"
 184      239E8FF2 
 184      B5355E70 
 184      98E682D6 
 185 053b 67EDDC54 		.ascii	"g\355\334T\265&a\333vN\203O\210\304x\253\326\226\251"
 185      B52661DB 
 185      764E834F 
 185      88C478AB 
 185      D696A9
 186 054e C6A70B91 		.ascii	"\306\247\013\221&\"(\3554\367\362\245\223\2074\373\354"
 186      262228ED 
 186      34F7F2A5 
 186      938734FB 
 186      EC
 187 055f F020A38F 		.ascii	"\360 \243\217\332\242\237\221F\3644!\372F+\240\231j"
 187      DAA29F91 
 187      46F43421 
 187      FA462BA0 
 187      996A
 188 0571 5DC35AB7 		.ascii	"]\303Z\267\025\375,\370\204\310\214\276\323R\316\027"
 188      15FD2CF8 
 188      84C88CBE 
 188      D352CE17 
 189 0581 227DE0D1 		.ascii	"\"}\340\321S\025}\276\214\276\313\026}A\032\321\263"
 189      53157DBE 
 189      8CBECB16 
 189      7D411AD1 
 189      B3
 190 0592 78F408B4 		.ascii	"x\364\010\264\315\012\324/\022(0\003\015Y\201\026\011"
 190      CD0AD42F 
 190      12283003 
 190      0D598116 
 190      09
 191 05a3 9131F040 		.ascii	"\2211\360@\231\012\264\210\237:\221G4\326\262K9\365"
ARM GAS  /tmp/ccCtZxjj.s 			page 15


 191      990AB488 
 191      9F3A9147 
 191      34D6B24B 
 191      39F5
 192 05b5 C44B3C7E 		.ascii	"\304K<~J\032\204\366eh8\240\036\322g-\365J\325<=\334"
 192      4A1A84F6 
 192      656838A0 
 192      1ED2672D 
 192      F54AD53C 
 193 05cb 09AA2E42 		.ascii	"\011\252.B/\032\032O\237\177\207\240T\213\323H_K\330"
 193      2F1A1A4F 
 193      9F7F87A0 
 193      548BD348 
 193      5F4BD8
 194 05de BCF83ECD 		.ascii	"\274\370>\3151\2139aM\346\302'DIk2O\210F\3115\351Ng"
 194      318B3961 
 194      4DE6C227 
 194      44496B32 
 194      4F8846C9 
 195 05f6 4DFA34FB 		.ascii	"M\3724\373\354\360\2402q[\231Dm\231\314O#\023\375\005"
 195      ECF0A032 
 195      715B9944 
 195      6D99CC4F 
 195      2313FD05 
 196 060a 992C4895 		.ascii	"\231,H\225\311B\370\204()\223\022!r\220\211\2562)Q\231"
 196      C942F884 
 196      28299312 
 196      21729089 
 196      AE322951 
 197 061f 78C4F689 		.ascii	"x\304\366\211\222l}je\262(\215L\214x&\011\367\316bQ"
 197      926C7D6A 
 197      65B2288D 
 197      4C8C7826 
 197      09F7CE62 
 198 0634 928B92EE 		.ascii	"\222\213\222\356\235%B\304d\320}\351\004\335\251\331"
 198      9D2542C4 
 198      64D07DE9 
 198      04DDA9D9 
 199 0644 27820715 		.ascii	"'\202\007\025\264\027O\346\361\262\220B\361\240\227"
 199      B4174FE6 
 199      F1B29042 
 199      F1A097
 200 0653 0E22E865 		.ascii	"\016\"\350e\"\350\245IA/\027\242\301\004\275\\<\275"
 200      22E8A549 
 200      412F17A2 
 200      C104BD5C 
 200      3CBD
 201 0665 1FD2F6D0 		.ascii	"\037\322\366\320\313o\216\014<W\263eI\205\342%\265b"
 201      CB6F8E0C 
 201      3C57B365 
 201      4985E225 
 201      B562
 202 0677 1037C7CA 		.ascii	"\0207\307\312T%\265\012>!J*\251\325B4\230\233c\265\312"
 202      5425B50A 
 202      3E214A2A 
 202      A9D54234 
 202      989B63B5 
ARM GAS  /tmp/ccCtZxjj.s 			page 16


 203 068c 24D3CA24 		.ascii	"$\323\312$f\313d\315 n\216\265\2512Y\007\237\020%eR"
 203      66CB64CD 
 203      206E8EB5 
 203      A9325907 
 203      9F102565 
 204 06a1 2A4483B9 		.ascii	"*D\203\2719JU&Y\262\003\024\275%\332*\325~\2557{3M\364"
 204      394A5526 
 204      59B20314 
 204      BD25DA2A 
 204      D57EAD37 
 205 06b9 66F6E652 		.ascii	"f\366\346R\266s\353\315\2433\022\336a\231\364\357\330"
 205      B673EBCD 
 205      A33312DE 
 205      6199F4EF 
 205      D8
 206 06ca B87B1FA1 		.ascii	"\270{\037\241Go\012\367MZ4l}\000\330\200\347cj\367\262"
 206      476F0AF7 
 206      4D5A346C 
 206      7D00D880 
 206      E7636AF7 
 207 06df 9FDC60B6 		.ascii	"\237\334`\266\001\350\333\224I\031\036J\251[|\331\223"
 207      01E8DB94 
 207      49191E4A 
 207      A95B7CD9 
 207      93
 208 06f0 969926E8 		.ascii	"\226\231&\350\354\224I9\036\017\251Md_[n\232\364\224"
 208      EC944939 
 208      1E0FA94D 
 208      645F5B6E 
 208      9AF494
 209 0703 288B0ADC 		.ascii	"(\213\012\334\010\251-d[[!,\016\366\306\263\256\264"
 209      08A92D64 
 209      5B5B212C 
 209      0EF6C6B3 
 209      AEB4
 210 0715 6ABD7F26 		.ascii	"j\275\177&\262\231\256T+\221->\011\335&\264=\234kk\031"
 210      B299AE54 
 210      2B912D3E 
 210      09DD26B4 
 210      3D9C6B6B 
 211 072a 09FFB444 		.ascii	"\011\377\264D\271\214\3178\273\260\320/\177kw\373\337"
 211      B98CCF38 
 211      BBB0D02F 
 211      7F6B77FB 
 211      DF
 212 073b DF5EEDAF 		.ascii	"\337^\355\257\253\255\337\263\333\377\366;\345s\212"
 212      ABADDFB3 
 212      DBFFF63B 
 212      E5738A
 213 074a FD6565AB 		.ascii	"\375ee\253\374k\337,\255\334W\354\257\333^\275\255\272"
 213      FC6BDF2C 
 213      ADDC57EC 
 213      AFDB5EBD 
 213      ADBA
 214 075c 7A676180 		.ascii	"zga\200\030;>\330SXd\324\324\356\254\252w\325\356\371"
 214      183B3ED8 
 214      535864D4 
ARM GAS  /tmp/ccCtZxjj.s 			page 17


 214      D4EEACAA 
 214      77D5EEF9 
 215 0770 B8AEAADE 		.ascii	"\270\256\252\336]\273\273\256\252jg\275Q\267\267ng\275"
 215      5DBBBBAE 
 215      AA6A67BD 
 215      51B7B76E 
 215      67BD
 216 0782 BEBD7A4F 		.ascii	"\276\275zO\275\006-\017\177S\263}\367\207\254f6\253"
 216      BD062D0F 
 216      7F53B37D 
 216      F787AC66 
 216      36AB
 217 0794 29663573 		.ascii	")f5su\356]\347C:\267\377\027\314T\3750"
 217      75EE5DE7 
 217      433AB7FF 
 217      17CC54FD 
 217      30
 218              		.text
 219              		.section	.gnu.lto_.cgraph.f4536ca7e237752c,"",%progbits
 220 0000 789C6362 		.ascii	"x\234cb`d`f``\220c\200\002\246\211L\365\014\014\023"
 220      60646066 
 220      60609063 
 220      8002A689 
 220      4CF50C0C 
 221 0015 CE31D4D7 		.ascii	"\3161\324\327\317\353`d\232\304T\317\010\3471\000\000"
 221      CFEB6064 
 221      9AC454CF 
 221      08E73100 
 221      00
 222 0026 8C450955 		.ascii	"\214E\011U"
 223              		.text
 224              		.section	.gnu.lto_.vars.f4536ca7e237752c,"",%progbits
 225 0000 789C6362 		.ascii	"x\234cb`d`f`\000\222P\000\000\000r\000\010"
 225      60646066 
 225      60009250 
 225      00000072 
 225      0008
 226              		.text
 227              		.section	.gnu.lto_.refs.f4536ca7e237752c,"",%progbits
 228 0000 789C6362 		.ascii	"x\234cb`d`f```b\200\001\000\000\204\000\011"
 228      60646066 
 228      60606062 
 228      80010000 
 228      840009
 229              		.text
 230              		.section	.gnu.lto_.statics.f4536ca7e237752c,"",%progbits
 231 0000 789C6362 		.ascii	"x\234cb`d`b\300\016@\342\214\020&\000\000\375\000\011"
 231      60646062 
 231      C00E40E2 
 231      8C102600 
 231      00FD0009 
 232              		.text
 233              		.section	.gnu.lto_.decls.f4536ca7e237752c,"",%progbits
 234 0000 789CBD59 		.ascii	"x\234\275Ykl\024U\024\276wf\037\224\002\022\020\242"
 234      6B6C1455 
 234      14BE7766 
 234      1F940212 
ARM GAS  /tmp/ccCtZxjj.s 			page 18


 234      10A2
 235 0012 C4484944 		.ascii	"\304HID\211\221\216m\021\360A\264\335-\024-t3-Q~l6K"
 235      89918E6D 
 235      11F041B4 
 235      DD2D142D 
 235      74332D51 
 236 002a BB858D4B 		.ascii	"\273\205\215Kw\263\335\032\374\241\016\255Q$\232(\006"
 236      77B3DD1A 
 236      FCA10EAD 
 236      51249A28 
 236      06
 237 003b 8D1AA506 		.ascii	"\215\032\245\006*\362\266D@\002\005Bj%Z)/\261\274\004"
 237      2AF2B644 
 237      40020542 
 237      6A255A29 
 237      2FB1BC04 
 238 004f B456088D 		.ascii	"\264V\010\215hD\036\322\202\347\336\231\2713\263\314"
 238      68441ED2 
 238      82E7DE99 
 238      B933B3CC 
 239 005f 74662BF1 		.ascii	"tf+\361\246\347\314\314\235{\277\373\235s\037\347\354"
 239      A6E7CCCC 
 239      9D7BBFFB 
 239      9D731FE7 
 239      EC
 240 0070 94431891 		.ascii	"\224C\030\221\022\200\313M(\2561\010\325s\010\361P7"
 240      1280CB4D 
 240      28AE3108 
 240      D57308F1 
 240      5037
 241 0082 0D6905AA 		.ascii	"\015i\005\252P#H\007\272\265\220\372a ^\345:\004d%\310"
 241      50234807 
 241      BAB590FA 
 241      61205EE5 
 241      3A046425 
 242 0097 31901180 		.ascii	"1\220\021\200\233\007\222\0172\011d\025\324a\270>\002"
 242      9B07920F 
 242      32096415 
 242      D461B83E 
 242      02
 243 00a8 52007218 		.ascii	"R\000r\030\236\357\004\031\007\367k\341\272\005\344"
 243      9EEF0419 
 243      07F76BE1 
 243      BA05E4
 244 00b7 04C83690 		.ascii	"\004\3106\220S \333AN\203\354\000\371\005\244\005\344"
 244      5320DB41 
 244      4E83EC00 
 244      F905A405 
 244      E4
 245 00c8 1AC86E90 		.ascii	"\032\310n\220\353 _\200t\202\354\005i\005i\003\331G"
 245      EB205F80 
 245      7482EC05 
 245      69056903 
 245      D947
 246 00da C65078B9 		.ascii	"\306Px\271A&\303\303\024\220\251 \217\202<\206\215\374"
 246      4126C3C3 
 246      1490A920 
ARM GAS  /tmp/ccCtZxjj.s 			page 19


 246      8F823C86 
 246      8DFC
 247 00ec 894D83D3 		.ascii	"\211M\203\323\370\273@\232A\016\201\360\320\336\213"
 247      F8BB409A 
 247      410E81F0 
 247      D0DE8B
 248 00fb 657B085F 		.ascii	"e{\010_\217\302\361\224\302\355\232\302\245S\031\327"
 248      8FC2F194 
 248      C2ED9AC2 
 248      A55319D7 
 249 010b CC4763D1 		.ascii	"\314Gc\321'R\343\231\267\033\244\222\2537ozG\243\345"
 249      2752E399 
 249      B71BA492 
 249      AB376F7A 
 249      47A3E5
 250 011e 1294C6D7 		.ascii	"\022\224\306\327$\011\247\202x\332(t7\012\342aY\010"
 250      2409A782 
 250      78DA2874 
 250      370AE261 
 250      5908
 251 0130 E5D0BB21 		.ascii	"\345\320\273!Y2\003\004\367\237\342\321\364\216\247"
 251      59320304 
 251      F79FE2D1 
 251      F48EA7
 252 013f 7380B2D1 		.ascii	"s\200\262\321RI\252']K\366\015\033\201\336\2418\000"
 252      5249AA27 
 252      5D4BF60D 
 252      1B81DEA1 
 252      3800
 253 0151 B30F98AB 		.ascii	"\263\017\230\253 g\0061\2247\011\241\361h\225$\275\015"
 253      20670631 
 253      943709A1 
 253      F1689524 
 253      BD0D
 254 0163 0DB1D221 		.ascii	"\015\261\322!\247\277\326A\334\204\307#'-I\333\325\200"
 254      A7BFD641 
 254      DC84C723 
 254      272D49DB 
 254      D580
 255 0175 F9205A23 		.ascii	"\371 Z#\321\2428\026\253k\206\016L_\310\015I\207\317"
 255      D1A23816 
 255      AB6B860E 
 255      4C5FC80D 
 255      4987CF
 256 0188 F183A8BB 		.ascii	"\361\203\250\273\363\335\357\323&\201\026\3678\004\266"
 256      F3DDEFD3 
 256      268116F7 
 256      3804B6
 257 0197 10AA251E 		.ascii	"\020\252%\036S\002\230\021\270\307`W\020\257\003x\016"
 257      53029811 
 257      B8C76057 
 257      10AF0378 
 257      0E
 258 01a8 3D8E9511 		.ascii	"=\216\225\021\272H7R\034\300\020V\033\241\273\334S\317"
 258      BA483752 
 258      1CC01056 
 258      1BA1BBDC 
ARM GAS  /tmp/ccCtZxjj.s 			page 20


 258      53CF
 259 01ba 79A38E73 		.ascii	"y\243\216s\317\256j\023\306^\312\270\236L\254'\013-"
 259      CFAE6A13 
 259      C65ECAB8 
 259      9E4CAC27 
 259      0B2D
 260 01cc D1A60659 		.ascii	"\321\246\006YL\251\236s3\316\002\316\263U\316\273\336"
 260      4CA99E73 
 260      33CE02CE 
 260      B355CEBB 
 260      DE
 261 01dd 3AD82620 		.ascii	":\330& \205\2207K?\014}\226[\311\300\362k\365\216\354"
 261      8590374B 
 261      3F0C7D96 
 261      5BC9C0F2 
 261      6BF58EEC 
 262 01f1 DC3B88C3 		.ascii	"\334;\210\303\2331V\214\351\276\332\327\316\233SP\357"
 262      9B31568C 
 262      E9BEDAD7 
 262      CE9B5350 
 262      EF
 263 0202 E5A2B651 		.ascii	"\345\242\266Q\212\316\036\225\3406\006\332\376d&\210"
 263      8ACE1E95 
 263      E03606DA 
 263      FE642688 
 264 0212 399688BB 		.ascii	"9\226\210\273\030\342I\033\304A\0169\2661\304\236\214"
 264      18E2491B 
 264      C4410E39 
 264      B631C49E 
 264      8C
 265 0223 10AD39B6 		.ascii	"\020\2559\2663\304^\033\304\341\0169\036\320\374X\222"
 265      33C45E1B 
 265      C4E10E39 
 265      1ED0FC58 
 265      92
 266 0234 09A235C7 		.ascii	"\011\2425\307\0374?\332 \336e\306\361\326\242\337\010"
 266      1F343FDA 
 266      20DE65C6 
 266      F1D6A2DF 
 266      08
 267 0245 41BC09CE 		.ascii	"A\274\011\316\001o\020\177\201\307\301\303\026\252\267"
 267      016F107F 
 267      81C7C1C3 
 267      16AAB7
 268 0254 51BD9DEA 		.ascii	"Q\275\235\352\035T\267P\275\033\264R8t\234\322\"\033"
 268      1D54B750 
 268      BD1BB452 
 268      38749CD2 
 268      221B
 269 0266 BEF5698B 		.ascii	"\276\365i\213=g\277\006\345S@\335\330g\031d\227\035"
 269      3D67BF06 
 269      E55340DD 
 269      D8671964 
 269      971D
 270 0278 A4D1D41C 		.ascii	"\244\321\324\034K\310s\032\313gl \247:dyQci\007\031"
 270      4BC8731A 
 270      CB676C20 
ARM GAS  /tmp/ccCtZxjj.s 			page 21


 270      A73A6479 
 270      51636907 
 271 028d 70C8F2B2 		.ascii	"p\310\362\262\006Yj\003\231\350g\216\325)]\003S\352"
 271      06596A03 
 271      99E8678E 
 271      D5295D03 
 271      53EA
 272 029f 0EE2B574 		.ascii	"\016\342\265t\322\366R\335Ju\033\325\373\364\323\330"
 272      D2F652DD 
 272      4A751BD5 
 272      FBF4D3D8 
 273 02af 87D593E9 		.ascii	"\207\325\223\351H\3070\025F>\306u\270\253\331\202A\016"
 273      48C73015 
 273      463EC675 
 273      B8ABD982 
 273      410E
 274 02c1 91AD63DD 		.ascii	"\221\255c\335J\234\2556\202\343\261\202gT^\347T*[\233"
 274      4A9CAD36 
 274      82E3B182 
 274      67545EE7 
 274      542A5B9B 
 275 02d5 FE6CF3C8 		.ascii	"\376l\363\310\325\367\241\225\222\264\214l\010\271'"
 275      D5F7A195 
 275      92B48C6C 
 275      08B927
 276 02e4 87BEA1CD 		.ascii	"\207\276\241\315\032\361X\324\231e1\2122\310\375\250"
 276      1AF158D4 
 276      9965318A 
 276      32C8FDA8 
 277 02f4 899CF17B 		.ascii	"\211\234\361{\352\357\242\341\027)\335\026\030L\373"
 277      EAEFA2E1 
 277      1729DD16 
 277      184CFB
 278 0303 0E737A5B 		.ascii	"\016sz[\007\036\303\017\330\307pc\200\342\030\304C\310"
 278      071EC30F 
 278      D8C77063 
 278      80E218C4 
 278      43C8
 279 0315 18330ED3 		.ascii	"\0303\016\323U\261\237\371\243{I\237\034\303\314#\235"
 279      55B19FF9 
 279      A37B499F 
 279      1CC3CC23 
 279      9D
 280 0326 11887039 		.ascii	"\021\210p9j\032\351\216\352#\335\016\263H\227M\026\347"
 280      6A1AE98E 
 280      EA23DD0E 
 280      B348974D 
 280      16E7
 281 0338 AB0D5AA4 		.ascii	"\253\015Z\244k\260\211tA\274\031\026\233\323\310u\202"
 281      6BB08974 
 281      41BC1916 
 281      9BD3C875 
 281      82
 282 0349 5A4468F4 		.ascii	"ZDh\364\356\350\306\003\014\\\012\275 >F\217\307\263"
 282      EEE8C603 
 282      0C5C0ABD 
 282      203E468F 
ARM GAS  /tmp/ccCtZxjj.s 			page 22


 282      C7B3
 283 035b 0CB3F589 		.ascii	"\014\263\365\211\001\006\2564\304s\014\261\335\006\321"
 283      0106AE34 
 283      C4730CB1 
 283      DD06D1
 284 036a 3270A521 		.ascii	"2p\245!\376\301\020\217d\204h\315\3612C<i\203h\031\270"
 284      FEC1108F 
 284      648468CD 
 284      F132433C 
 284      69836819 
 285 037f D210FF61 		.ascii	"\322\020\377a\210]\031!\3529.\246\210#\3212IZ,5z\254"
 285      885D1921 
 285      EA392EA6 
 285      8823D132 
 285      495A2C35 
 286 0395 970D42B4 		.ascii	"\227\015B\264\221d\323(\210\177\303#M\0262\251e\013"
 286      9164D328 
 286      887FC323 
 286      4D1632A9 
 286      650B
 287 03a7 7967D264 		.ascii	"yg\322d!s&\201\364\006\265\220\364\275\264s\300\253"
 287      21732681 
 287      F406B590 
 287      F4BDB473 
 287      C0AB
 288 03b9 8FEED109 		.ascii	"\217\356\321\011j\342\332\370\324\347\375\322\3571\335"
 288      6AE2DAF8 
 288      D4E7FDD2 
 288      EF31DD
 289 03c8 873DBA7D 		.ascii	"\207=\272}\330\273s\2645}\330~\023\324\214SzM\232\240"
 289      D8BB73B4 
 289      357DD87E 
 289      13D48C53 
 289      7A4D9AA0 
 290 03dc 1F6C381B 		.ascii	"\037l8\033\214\0347\372\323\343\"\265V\342\265\224\363"
 290      8C1C37FA 
 290      D3E322B5 
 290      56E2B594 
 290      F3
 291 03ed D4D7CA29 		.ascii	"\324\327\312)\033\304|Z\312\311\0337.\3176.O7.O\340"
 291      1BC47C5A 
 291      CAC91B37 
 291      2ECF362E 
 291      4F372E4F 
 292 0402 DFA05084 		.ascii	"\337\240P\204u\367\222\353Z\302id\340 \341\244\346\250"
 292      75F792EB 
 292      5AC26964 
 292      E020E1A4 
 292      E6A8
 293 0414 FCDE62A0 		.ascii	"\374\336b\240\355\3232A\034nt\024z\227Wg\365H\313\275"
 293      EDD33241 
 293      1C6E7414 
 293      7A975767 
 293      F548CBBD 
 294 0428 039854E6 		.ascii	"\003\230T\346\011\331\011\\\020\237\247\261\354\202"
 294      09D9095C 
 294      109FA7B1 
ARM GAS  /tmp/ccCtZxjj.s 			page 23


 294      EC82
 295 0436 3E4A2EE7 		.ascii	">J.\347\331vk\031=\200$\314d\277}\310 \273Z\354V\243"
 295      D9766B19 
 295      3D8024CC 
 295      64BF7DC8 
 295      20BB5AEC 
 296 044c 65B69386 		.ascii	"e\266\223\206\271\202a\366L\353\0371\307!\313U\014\361"
 296      B98261F6 
 296      4CEB1F31 
 296      C721CB55 
 296      0CF1
 297 045e 524688D6 		.ascii	"RF\210\326\034\3270\304^\033\304\011\375L\227a\346\216"
 297      1CD730C4 
 297      5E1BC409 
 297      FD4C9761 
 297      E68E
 298 0470 EAD2D91F 		.ascii	"\352\322\331\037!\034e\007q'\235\303\023T\237\242\372"
 298      211C6507 
 298      71279DC3 
 298      13549FA2 
 298      FA
 299 0481 34D567A9 		.ascii	"4\325g\251\376\205\352_\251\276B\3655\252\257S\335g"
 299      FE85EA5F 
 299      A9BE42F5 
 299      35AAAF53 
 299      DD67
 300 0493 97C5E837 		.ascii	"\227\305\3507\333!\232\223l`\233\255\375\370\317\312"
 300      DB219A93 
 300      6C609BAD 
 300      FDF8CFCA 
 301 04a3 8F5E4302 		.ascii	"\217^C\002 \307t\353\203b1\227\315\226`\272yi\357x%"
 301      20C774EB 
 301      83623197 
 301      CD9660BA 
 301      7969EF78 
 302 04b8 C1C8F897 		.ascii	"\301\310\370\227h\003G\374\377\025\243\332\333\261\026"
 302      680347FC 
 302      FF15A3DA 
 302      DBB116
 303 04c7 AB639013 		.ascii	"\253c\220\023\3220\250\223\200\316r\235\214\251\274"
 303      D230A893 
 303      80CE729D 
 303      8CA9BC
 304 04d6 4EA97CCD 		.ascii	"N\251|\315\250t=\367\037\211\030\022\311\375\014wk\323"
 304      A8743DF7 
 304      1F891812 
 304      C9FD0C77 
 304      6BD3
 305 04e8 CD6F4D12 		.ascii	"\315oM\022Iy\322\272h\263\016\310\010\257Z$\222\234"
 305      4979D2BA 
 305      68B30EC8 
 305      08AF5A24 
 305      929C
 306 04fa BE93ECBE 		.ascii	"\276\223\354\276\363\254S\353\372n\3162\377$\215\015"
 306      F3AC53EB 
 306      FA6ECE32 
 306      FF248D0D 
ARM GAS  /tmp/ccCtZxjj.s 			page 24


 307 050a 43CA16FF 		.ascii	"C\312\026\377\316z\267\257\337j\335\2334F2M\263$\226"
 307      CE7AB7AF 
 307      DF6ADD9B 
 307      3446324D 
 307      B32496
 308 051d F4EF5D37 		.ascii	"\364\357]7\306\340\246\245\234!\2155\313\023\033y6\316"
 308      C6E0A6A5 
 308      9C218D35 
 308      CB131B79 
 308      36CE
 309 052f A4B4F958 		.ascii	"\244\264\371X\306\221\204\363/\346\267\033\273\377>"
 309      C69184F3 
 309      2FE6B71B 
 309      BBFF3E
 310 053e CD3B4622 		.ascii	"\315;F\"\343/\347\314\"\035\251U\317\326\223}f\031\347"
 310      E32FE7CC 
 310      221DA955 
 310      CFD6937D 
 310      6619E7
 311 0551 509323A2 		.ascii	"P\223#\242\331\205\025\304\236\276\317nS\232\370%\303"
 311      D98515C4 
 311      9EBECF6E 
 311      539AF825 
 311      C3
 312 0562 BCF4D2ED 		.ascii	"\274\364\322\355I\023\2673\304^\033D\247ib\013Cl}\371"
 312      4913B733 
 312      C45E1B44 
 312      A769620B 
 312      436C7DF9 
 313 0576 F6A4896D 		.ascii	"\366\244\211m\014\261\335\006\321i\232\330\301\020\217"
 313      0CB1DD06 
 313      D1699AD8 
 313      C1108F
 314 0585 648468CD 		.ascii	"d\204h\315\361(C<i\203\3504\264\376\304\020\2732B\264"
 314      F128433C 
 314      6983E834 
 314      B4FEC410 
 314      BB3242B4 
 315 0599 E6D8ADAD 		.ascii	"\346\330\255\255H\033\304\034\207\034/h\3531#Dk\216"
 315      481BC41C 
 315      871C2F68 
 315      EB312344 
 315      6B8E
 316 05ab 17B5F568 		.ascii	"\027\265\365h\203h\032XM\020\257h\353\361\225L\020\255"
 316      83681A58 
 316      4D10AF68 
 316      EBF1954C 
 316      10AD
 317 05bd 39F669EB 		.ascii	"9\366i\353\321\006\361a3\216\267\026\375\301\023\304"
 317      D106F161 
 317      338EB716 
 317      FDC113C4 
 318 05cd EF71E3D1 		.ascii	"\357q\343\321\320 ~\237#a\374\003\252?\242\372c\252"
 318      D0207E9F 
 318      2361FC03 
 318      AA3FA2FA 
 318      63AA
ARM GAS  /tmp/ccCtZxjj.s 			page 25


 319 05df 5750FD29 		.ascii	"WP\375)\325+\251n\242z5\325k\250^G\365\006\2527q,\021"
 319      D52BA96E 
 319      A27A35D5 
 319      6BA85E47 
 319      F506AA37 
 320 05f6 480BE6E4 		.ascii	"H\013\346\344\274\264\016\346\315\\\266i?\253/\371\306"
 320      BCB40EE6 
 320      CD5CB669 
 320      3FAB2FF9 
 320      C6
 321 0607 2F3D41BC 		.ascii	"/=A\274\236\376\244\336\250\373\346\222\371\007:kv\233"
 321      9EFEA4DE 
 321      A8FBE692 
 321      F9073A6B 
 321      769B
 322 0619 3576CE08 		.ascii	"5v\316\010\241\377L\206\345\007{n\323\247\204\007\320"
 322      A1FF4C86 
 322      E5077B6E 
 322      D3A78407 
 322      D0
 323 062a 67E49758 		.ascii	"g\344\227XC=\326\354\331\332tp\277\366\377\006\263\026"
 323      433DD6EC 
 323      D9DA7470 
 323      BFF6FF06 
 323      B316
 324 063c E87F788B 		.ascii	"\350\177x\213<3f\317\311\361\241\274\334\\A\376\213"
 324      3C3366CF 
 324      C9F1A1BC 
 324      DC5C41FE 
 324      8B
 325 064d D70A0BC2 		.ascii	"\327\012\013\3021!\021O\246j\205\362\212Y\005\371Bi"
 325      3121114F 
 325      A66A85F2 
 325      8A5905F9 
 325      4269
 326 065f A95F9811 		.ascii	"\251_\230\021\230Y\366B\276\220\010\307B\261XU\356\002"
 326      9859F642 
 326      BE9008C7 
 326      42B15855 
 326      EE02
 327 0671 34A236B5 		.ascii	"4\2426\265\260 ?4?\021\215\207j#\251\272D(5\250.Z\223"
 327      B0203F34 
 327      3F118D87 
 327      6A23A9BA 
 327      442835A8 
 328 0688 82BAD45C 		.ascii	"\202\272\324\\\241\2566)\304\342\225\0004/ZC`c\321y"
 328      A1AE3629 
 328      C4E29500 
 328      342F5A43 
 328      6063D179 
 329 069c C2FCCA4A 		.ascii	"\302\374\312J!\234\\8\261&^\023\231\030\011\317\213"
 329      219C5C38 
 329      B1265E13 
 329      991809CF 
 329      8B
 330 06ad 0A9372A7 		.ascii	"\012\223r\247\344\346\013ll\3703\276\217\326T\306\352"
 330      E4E60B6C 
ARM GAS  /tmp/ccCtZxjj.s 			page 26


 330      6CF833BE 
 330      8FD654C6 
 330      EA
 331 06be AA22426D 		.ascii	"\252\"Bm\252\012\240aT\367\302xU$\351\211\247^LD\222"
 331      AA0AA061 
 331      54F7C278 
 331      5524E989 
 331      A75E4C44 
 332 06d3 DE786D22 		.ascii	"\336xm\"\022\251J\272\023u\211\252$\037\257J\272\302"
 332      12A94ABA 
 332      137589AA 
 332      241FAF4A 
 332      BAC2
 333 06e5 D5C91851 		.ascii	"\325\311\030Q\013<\201B\1778\025\366\004\212\344\213"
 333      0B3C8142 
 333      7F3815F6 
 333      048AE48B 
 334 06f5 4FBEF8E5 		.ascii	"O\276\370\345\313tr\311\012\024\226\372\3425\325\321"
 334      CB7472C9 
 334      0A1496FA 
 334      E235D5D1 
 335 0705 F943438A 		.ascii	"\371CC\212]\241hM4\225\251/*\221\247\222\302\014\321"
 335      5DA1684D 
 335      3495A92F 
 335      2A91A792 
 335      C20CD1
 336 0718 B924E59E 		.ascii	"\271$\345\236U\346/\026=e\025s\003\305\242\267\254<"
 336      55E62F16 
 336      3D651573 
 336      03C5A2B7 
 336      AC3C
 337 072a 505CEC17 		.ascii	"P\\\354\027\335\2019\001\277\310\317\004)\363\213\370"
 337      DD813901 
 337      BFC8CF04 
 337      29F38BF8 
 338 073a 59EAB1BC 		.ascii	"Y\352\261\274\311\241\024\017.tW\306\"\341$.q\025\225"
 338      C9A1140F 
 338      2E7457C6 
 338      22E1242E 
 338      711595
 339 074d 8BA2ABD4 		.ascii	"\213\242\253\324\367\214\350*\234.\226\022U\302\027"
 339      F78CE82A 
 339      9C2E9612 
 339      55C217
 340 075c 89E2E068 		.ascii	"\211\342\340h\2340\211V\205RC\344\333\205\341\332\347"
 340      9C308956 
 340      855243E4 
 340      DB85E1DA 
 340      E7
 341 076d C1EDD138 		.ascii	"\301\355\3218\361J(5\212\231\001h\363\223\361\272\004"
 341      F14A2835 
 341      8A990168 
 341      F393F1BA 
 341      04
 342 077e A9779196 		.ascii	"\251w\221\226.\322\324E\036\263E\237/T\001\356\363G"
 342      2ED2D445 
 342      1EB3459F 
ARM GAS  /tmp/ccCtZxjj.s 			page 27


 342      2F5401EE 
 342      F347
 343 0790 AA0D9646 		.ascii	"\252\015\226F\026\245\004\337\254\362\231\345`\251l"
 343      16A504DF 
 343      ACF299E5 
 343      60A96C
 344 079f ECF48245 		.ascii	"\354\364\202E\213\004jSu\301\303\371\213\246\202\377"
 344      8B046A53 
 344      75C1C3F9 
 344      8BA682FF 
 345 07af 399FE8F2 		.ascii	"9\237\350\362M\237!\362\276\231\342\240\302@Q\276X^"
 345      4D9F21F2 
 345      BE99E2A0 
 345      C24051BE 
 345      585E
 346 07c1 416FF2C8 		.ascii	"Ao\362\310\215\247\260\244\250x\266\350%/\224"
 346      8DA7B0A4 
 346      A878B6E8 
 346      252F94
 347 07d0 6B1E5C5D 		.ascii	"k\036\\]E~\037\364(\207\212\222\"\322\316M \362\251"
 347      457E1FF4 
 347      28878A92 
 347      22D2CE4D 
 347      20F2A9
 348 07e3 2EF81748 		.ascii	".\370\027H\367\3705"
 348      F7F835
 349              		.text
 350              		.section	.gnu.lto_.symtab.f4536ca7e237752c,"",%progbits
 351 0000 5F70616C 		.ascii	"_pal_lld_init\000\000\000\000\000\000\000\000\000\000"
 351      5F6C6C64 
 351      5F696E69 
 351      74000000 
 351      00000000 
 352 0017 0000A000 		.ascii	"\000\000\240\000\000\000_pal_lld_setgroupmode\000\000"
 352      00005F70 
 352      616C5F6C 
 352      6C645F73 
 352      65746772 
 353 0034 00000000 		.ascii	"\000\000\000\000\000\000\000\000\000\000\317\000\000"
 353      00000000 
 353      0000CF00 
 353      00
 354 0041 00       		.ascii	"\000"
 355              		.text
 356              		.section	.gnu.lto_.opts,"",%progbits
 357 0000 272D6D63 		.ascii	"'-mcpu=cortex-m4''-mno-thumb-interwork''-mthumb''-g"
 357      70753D63 
 357      6F727465 
 357      782D6D34 
 357      27272D6D 
 358 0033 67646227 		.ascii	"gdb''-O2''-fomit-frame-pointer''-falign-functions=1"
 358      272D4F32 
 358      27272D66 
 358      6F6D6974 
 358      2D667261 
 359 0066 3627272D 		.ascii	"6''-ffunction-sections''-fdata-sections''-fno-commo"
 359      6666756E 
ARM GAS  /tmp/ccCtZxjj.s 			page 28


 359      6374696F 
 359      6E2D7365 
 359      6374696F 
 360 0099 6E27272D 		.ascii	"n''-flto'\000"
 360      666C746F 
 360      2700
 361              		.text
 362              		.cfi_sections	.debug_frame
 363              		.section	.text._pal_lld_init,"ax",%progbits
 364              		.align	2
 365              		.p2align 4,,15
 366              		.global	_pal_lld_init
 367              		.thumb
 368              		.thumb_func
 369              		.type	_pal_lld_init, %function
 370              	_pal_lld_init:
 371              	.LFB273:
 372              		.file 1 "../../../os/hal/ports/STM32/LLD/GPIOv2/pal_lld.c"
 373              		.loc 1 88 0
 374              		.cfi_startproc
 375              		@ args = 0, pretend = 0, frame = 0
 376              		@ frame_needed = 0, uses_anonymous_args = 0
 377              		@ link register save eliminated.
 378              	.LVL0:
 379              		.loc 1 102 0
 380 0000 4FF48053 		mov	r3, #4096
 381 0004 C4F20203 		movt	r3, 16386
 382 0008 5A69     		ldr	r2, [r3, #20]
 383 000a 42F4BC02 		orr	r2, r2, #6160384
 384 000e 5A61     		str	r2, [r3, #20]
 385              	.LVL1:
 386              	.LBB12:
 387              	.LBB13:
 388              		.loc 1 63 0
 389 0010 4168     		ldr	r1, [r0, #4]
 390 0012 4FF09043 		mov	r3, #1207959552
 391              	.LBE13:
 392              	.LBE12:
 393              	.LBB15:
 394              	.LBB16:
 395 0016 4FF48062 		mov	r2, #1024
 396              	.LBE16:
 397              	.LBE15:
 398              	.LBB19:
 399              	.LBB14:
 400 001a 5960     		str	r1, [r3, #4]
 401              		.loc 1 64 0
 402 001c 8168     		ldr	r1, [r0, #8]
 403 001e 9960     		str	r1, [r3, #8]
 404              		.loc 1 65 0
 405 0020 C168     		ldr	r1, [r0, #12]
 406 0022 D960     		str	r1, [r3, #12]
 407              		.loc 1 66 0
 408 0024 0169     		ldr	r1, [r0, #16]
 409 0026 5961     		str	r1, [r3, #20]
 410              		.loc 1 67 0
 411 0028 4169     		ldr	r1, [r0, #20]
ARM GAS  /tmp/ccCtZxjj.s 			page 29


 412 002a 1962     		str	r1, [r3, #32]
 413              		.loc 1 68 0
 414 002c 8169     		ldr	r1, [r0, #24]
 415 002e 5962     		str	r1, [r3, #36]
 416              		.loc 1 69 0
 417 0030 0168     		ldr	r1, [r0, #0]
 418 0032 1960     		str	r1, [r3, #0]
 419              	.LVL2:
 420              	.LBE14:
 421              	.LBE19:
 422              	.LBB20:
 423              	.LBB17:
 424              		.loc 1 63 0
 425 0034 016A     		ldr	r1, [r0, #32]
 426 0036 C4F60002 		movt	r2, 18432
 427              	.LBE17:
 428              	.LBE20:
 429              	.LBB21:
 430              	.LBB22:
 431 003a 4FF40063 		mov	r3, #2048
 432              	.LBE22:
 433              	.LBE21:
 434              	.LBB25:
 435              	.LBB18:
 436 003e 5160     		str	r1, [r2, #4]
 437              		.loc 1 64 0
 438 0040 416A     		ldr	r1, [r0, #36]
 439 0042 9160     		str	r1, [r2, #8]
 440              		.loc 1 65 0
 441 0044 816A     		ldr	r1, [r0, #40]
 442 0046 D160     		str	r1, [r2, #12]
 443              		.loc 1 66 0
 444 0048 C16A     		ldr	r1, [r0, #44]
 445 004a 5161     		str	r1, [r2, #20]
 446              		.loc 1 67 0
 447 004c 016B     		ldr	r1, [r0, #48]
 448 004e 1162     		str	r1, [r2, #32]
 449              		.loc 1 68 0
 450 0050 416B     		ldr	r1, [r0, #52]
 451 0052 5162     		str	r1, [r2, #36]
 452              		.loc 1 69 0
 453 0054 C169     		ldr	r1, [r0, #28]
 454 0056 1160     		str	r1, [r2, #0]
 455              	.LVL3:
 456              	.LBE18:
 457              	.LBE25:
 458              	.LBB26:
 459              	.LBB23:
 460              		.loc 1 63 0
 461 0058 C4F60003 		movt	r3, 18432
 462 005c C26B     		ldr	r2, [r0, #60]
 463 005e 5A60     		str	r2, [r3, #4]
 464              		.loc 1 64 0
 465 0060 026C     		ldr	r2, [r0, #64]
 466 0062 9A60     		str	r2, [r3, #8]
 467              		.loc 1 65 0
 468 0064 426C     		ldr	r2, [r0, #68]
ARM GAS  /tmp/ccCtZxjj.s 			page 30


 469 0066 DA60     		str	r2, [r3, #12]
 470              		.loc 1 66 0
 471 0068 826C     		ldr	r2, [r0, #72]
 472 006a 5A61     		str	r2, [r3, #20]
 473              		.loc 1 67 0
 474 006c C26C     		ldr	r2, [r0, #76]
 475 006e 1A62     		str	r2, [r3, #32]
 476              		.loc 1 68 0
 477 0070 026D     		ldr	r2, [r0, #80]
 478 0072 5A62     		str	r2, [r3, #36]
 479              		.loc 1 69 0
 480 0074 816B     		ldr	r1, [r0, #56]
 481              	.LBE23:
 482              	.LBE26:
 483              	.LBB27:
 484              	.LBB28:
 485              		.loc 1 63 0
 486 0076 4FF44062 		mov	r2, #3072
 487              	.LBE28:
 488              	.LBE27:
 489              	.LBB31:
 490              	.LBB24:
 491              		.loc 1 69 0
 492 007a 1960     		str	r1, [r3, #0]
 493              	.LVL4:
 494              	.LBE24:
 495              	.LBE31:
 496              	.LBB32:
 497              	.LBB29:
 498              		.loc 1 63 0
 499 007c 816D     		ldr	r1, [r0, #88]
 500 007e C4F60002 		movt	r2, 18432
 501              	.LBE29:
 502              	.LBE32:
 503              	.LBB33:
 504              	.LBB34:
 505 0082 4FF4A053 		mov	r3, #5120
 506              	.LBE34:
 507              	.LBE33:
 508              	.LBB36:
 509              	.LBB30:
 510 0086 5160     		str	r1, [r2, #4]
 511              		.loc 1 64 0
 512 0088 C16D     		ldr	r1, [r0, #92]
 513 008a 9160     		str	r1, [r2, #8]
 514              		.loc 1 65 0
 515 008c 016E     		ldr	r1, [r0, #96]
 516 008e D160     		str	r1, [r2, #12]
 517              		.loc 1 66 0
 518 0090 416E     		ldr	r1, [r0, #100]
 519 0092 5161     		str	r1, [r2, #20]
 520              		.loc 1 67 0
 521 0094 816E     		ldr	r1, [r0, #104]
 522 0096 1162     		str	r1, [r2, #32]
 523              		.loc 1 68 0
 524 0098 C16E     		ldr	r1, [r0, #108]
 525 009a 5162     		str	r1, [r2, #36]
ARM GAS  /tmp/ccCtZxjj.s 			page 31


 526              		.loc 1 69 0
 527 009c 416D     		ldr	r1, [r0, #84]
 528 009e 1160     		str	r1, [r2, #0]
 529              	.LVL5:
 530              	.LBE30:
 531              	.LBE36:
 532              	.LBB37:
 533              	.LBB35:
 534              		.loc 1 63 0
 535 00a0 C4F60003 		movt	r3, 18432
 536 00a4 426F     		ldr	r2, [r0, #116]
 537 00a6 5A60     		str	r2, [r3, #4]
 538              		.loc 1 64 0
 539 00a8 826F     		ldr	r2, [r0, #120]
 540 00aa 9A60     		str	r2, [r3, #8]
 541              		.loc 1 65 0
 542 00ac C26F     		ldr	r2, [r0, #124]
 543 00ae DA60     		str	r2, [r3, #12]
 544              		.loc 1 66 0
 545 00b0 D0F88020 		ldr	r2, [r0, #128]
 546 00b4 5A61     		str	r2, [r3, #20]
 547              		.loc 1 67 0
 548 00b6 D0F88420 		ldr	r2, [r0, #132]
 549 00ba 1A62     		str	r2, [r3, #32]
 550              		.loc 1 68 0
 551 00bc D0F88820 		ldr	r2, [r0, #136]
 552 00c0 5A62     		str	r2, [r3, #36]
 553              		.loc 1 69 0
 554 00c2 026F     		ldr	r2, [r0, #112]
 555 00c4 1A60     		str	r2, [r3, #0]
 556 00c6 7047     		bx	lr
 557              	.LBE35:
 558              	.LBE37:
 559              		.cfi_endproc
 560              	.LFE273:
 561              		.size	_pal_lld_init, .-_pal_lld_init
 562 00c8 AFF30080 		.section	.text._pal_lld_setgroupmode,"ax",%progbits
 562      AFF30080 
 563              		.align	2
 564              		.p2align 4,,15
 565              		.global	_pal_lld_setgroupmode
 566              		.thumb
 567              		.thumb_func
 568              		.type	_pal_lld_setgroupmode, %function
 569              	_pal_lld_setgroupmode:
 570              	.LFB274:
 571              		.loc 1 161 0
 572              		.cfi_startproc
 573              		@ args = 0, pretend = 0, frame = 0
 574              		@ frame_needed = 0, uses_anonymous_args = 0
 575              		@ link register save eliminated.
 576              	.LVL6:
 577 0000 2DE9F00F 		push	{r4, r5, r6, r7, r8, r9, sl, fp}
 578              	.LCFI0:
 579              		.cfi_def_cfa_offset 32
 580              		.cfi_offset 4, -32
 581              		.cfi_offset 5, -28
ARM GAS  /tmp/ccCtZxjj.s 			page 32


 582              		.cfi_offset 6, -24
 583              		.cfi_offset 7, -20
 584              		.cfi_offset 8, -16
 585              		.cfi_offset 9, -12
 586              		.cfi_offset 10, -8
 587              		.cfi_offset 11, -4
 588              		.loc 1 163 0
 589 0004 02F0030A 		and	sl, r2, #3
 590              	.LVL7:
 591              		.loc 1 164 0
 592 0008 C2F38007 		ubfx	r7, r2, #2, #1
 593              	.LVL8:
 594              		.loc 1 165 0
 595 000c C2F3C106 		ubfx	r6, r2, #3, #2
 596              	.LVL9:
 597              		.loc 1 166 0
 598 0010 C2F34115 		ubfx	r5, r2, #5, #2
 599              	.LVL10:
 600              		.loc 1 167 0
 601 0014 C2F3C31B 		ubfx	fp, r2, #7, #4
 602              	.LVL11:
 603              		.loc 1 163 0
 604 0018 5446     		mov	r4, sl
 605              		.loc 1 168 0
 606 001a 0023     		movs	r3, #0
 607 001c 1BE0     		b	.L9
 608              	.LVL12:
 609              	.L4:
 610              	.LBB38:
 611              		.loc 1 192 0
 612 001e D0F80090 		ldr	r9, [r0, #0]
 613 0022 02EA0902 		and	r2, r2, r9
 614              	.LVL13:
 615 0026 2243     		orrs	r2, r2, r4
 616              		.loc 1 193 0
 617 0028 072B     		cmp	r3, #7
 618              		.loc 1 192 0
 619 002a 0260     		str	r2, [r0, #0]
 620              		.loc 1 194 0
 621 002c 95BF     		itete	ls
 622 002e 026A     		ldrls	r2, [r0, #32]
 623              		.loc 1 196 0
 624 0030 426A     		ldrhi	r2, [r0, #36]
 625              		.loc 1 194 0
 626 0032 22EA0C0C 		bicls	ip, r2, ip
 627              	.LVL14:
 628              		.loc 1 196 0
 629 0036 22EA0C0C 		bichi	ip, r2, ip
 630              		.loc 1 194 0
 631 003a 95BF     		itete	ls
 632 003c 4CEA0802 		orrls	r2, ip, r8
 633              		.loc 1 196 0
 634 0040 4CEA0802 		orrhi	r2, ip, r8
 635              		.loc 1 194 0
 636 0044 0262     		strls	r2, [r0, #32]
 637              		.loc 1 196 0
 638 0046 4262     		strhi	r2, [r0, #36]
ARM GAS  /tmp/ccCtZxjj.s 			page 33


 639              	.LVL15:
 640              	.L3:
 641              	.LBE38:
 642              		.loc 1 200 0
 643 0048 4908     		lsrs	r1, r1, #1
 644              	.LVL16:
 645 004a 4ED0     		beq	.L2
 646              	.LVL17:
 647              	.L14:
 648              		.loc 1 202 0
 649 004c 7F00     		lsls	r7, r7, #1
 650              	.LVL18:
 651              		.loc 1 203 0
 652 004e B600     		lsls	r6, r6, #2
 653              	.LVL19:
 654              		.loc 1 204 0
 655 0050 AD00     		lsls	r5, r5, #2
 656              	.LVL20:
 657              		.loc 1 205 0
 658 0052 A400     		lsls	r4, r4, #2
 659              	.LVL21:
 660              		.loc 1 206 0
 661 0054 0133     		adds	r3, r3, #1
 662              	.LVL22:
 663              	.L9:
 664              		.loc 1 170 0
 665 0056 CA07     		lsls	r2, r1, #31
 666 0058 F6D5     		bpl	.L3
 667              	.LBB39:
 668              		.loc 1 177 0
 669 005a 4268     		ldr	r2, [r0, #4]
 670              		.loc 1 174 0
 671 005c 4FF00108 		mov	r8, #1
 672 0060 08FA03FC 		lsl	ip, r8, r3
 673              		.loc 1 177 0
 674 0064 22EA0C02 		bic	r2, r2, ip
 675 0068 3A43     		orrs	r2, r2, r7
 676 006a 4260     		str	r2, [r0, #4]
 677              		.loc 1 175 0
 678 006c 4FF00309 		mov	r9, #3
 679              		.loc 1 159 0
 680 0070 03FA08F2 		lsl	r2, r3, r8
 681              		.loc 1 178 0
 682 0074 D0F808C0 		ldr	ip, [r0, #8]
 683              		.loc 1 175 0
 684 0078 09FA02F2 		lsl	r2, r9, r2
 685              		.loc 1 178 0
 686 007c D243     		mvns	r2, r2
 687 007e 02EA0C0C 		and	ip, r2, ip
 688 0082 4CEA060C 		orr	ip, ip, r6
 689 0086 C0F808C0 		str	ip, [r0, #8]
 690              		.loc 1 179 0
 691 008a D0F80C80 		ldr	r8, [r0, #12]
 692              		.loc 1 173 0
 693 008e 03F0070C 		and	ip, r3, #7
 694              		.loc 1 179 0
 695 0092 02EA0808 		and	r8, r2, r8
ARM GAS  /tmp/ccCtZxjj.s 			page 34


 696              		.loc 1 173 0
 697 0096 4FEA8C0C 		lsl	ip, ip, #2
 698              		.loc 1 179 0
 699 009a 48EA0508 		orr	r8, r8, r5
 700              		.loc 1 176 0
 701 009e 4FF00F09 		mov	r9, #15
 702              		.loc 1 180 0
 703 00a2 BAF1020F 		cmp	sl, #2
 704              		.loc 1 179 0
 705 00a6 C0F80C80 		str	r8, [r0, #12]
 706              		.loc 1 173 0
 707 00aa 0BFA0CF8 		lsl	r8, fp, ip
 708              	.LVL23:
 709              		.loc 1 176 0
 710 00ae 09FA0CFC 		lsl	ip, r9, ip
 711              	.LVL24:
 712              		.loc 1 180 0
 713 00b2 B4D1     		bne	.L4
 714              		.loc 1 183 0
 715 00b4 072B     		cmp	r3, #7
 716              		.loc 1 184 0
 717 00b6 95BF     		itete	ls
 718 00b8 D0F82090 		ldrls	r9, [r0, #32]
 719              		.loc 1 186 0
 720 00bc D0F82490 		ldrhi	r9, [r0, #36]
 721              		.loc 1 184 0
 722 00c0 29EA0C0C 		bicls	ip, r9, ip
 723              	.LVL25:
 724              		.loc 1 186 0
 725 00c4 29EA0C0C 		bichi	ip, r9, ip
 726              		.loc 1 184 0
 727 00c8 95BF     		itete	ls
 728 00ca 4CEA0808 		orrls	r8, ip, r8
 729              	.LVL26:
 730              		.loc 1 186 0
 731 00ce 4CEA0808 		orrhi	r8, ip, r8
 732              		.loc 1 184 0
 733 00d2 C0F82080 		strls	r8, [r0, #32]
 734              		.loc 1 186 0
 735 00d6 C0F82480 		strhi	r8, [r0, #36]
 736              		.loc 1 187 0
 737 00da D0F800C0 		ldr	ip, [r0, #0]
 738 00de 02EA0C02 		and	r2, r2, ip
 739              	.LVL27:
 740 00e2 2243     		orrs	r2, r2, r4
 741              	.LBE39:
 742              		.loc 1 200 0
 743 00e4 4908     		lsrs	r1, r1, #1
 744              	.LVL28:
 745              	.LBB40:
 746              		.loc 1 187 0
 747 00e6 0260     		str	r2, [r0, #0]
 748              	.LBE40:
 749              		.loc 1 200 0
 750 00e8 B0D1     		bne	.L14
 751              	.LVL29:
 752              	.L2:
ARM GAS  /tmp/ccCtZxjj.s 			page 35


 753              		.loc 1 208 0
 754 00ea BDE8F00F 		pop	{r4, r5, r6, r7, r8, r9, sl, fp}
 755 00ee 7047     		bx	lr
 756              		.cfi_endproc
 757              	.LFE274:
 758              		.size	_pal_lld_setgroupmode, .-_pal_lld_setgroupmode
 759              		.text
 760              	.Letext0:
 761              		.file 2 "/usr/local/bin/../lib/gcc/arm-none-eabi/4.7.2/../../../../arm-none-eabi/include/stdint.h"
 762              		.file 3 "../../../os/rt/ports/ARMCMx/compilers/GCC/chtypes.h"
 763              		.file 4 "../../../os/rt/include/chsystypes.h"
 764              		.file 5 "../../../os/rt/include/chschd.h"
 765              		.file 6 "../../../os/ext/CMSIS/ST/STM32F3xx/stm32f302x8.h"
 766              		.file 7 "../../../os/rt/ports/ARMCMx/chcore.h"
 767              		.file 8 "../../../os/rt/ports/ARMCMx/chcore_v7m.h"
 768              		.file 9 "../../../os/rt/include/chtm.h"
 769              		.file 10 "../../../os/rt/include/chsem.h"
 770              		.file 11 "../../../os/rt/include/chmtx.h"
 771              		.file 12 "../../../os/hal/ports/STM32/LLD/GPIOv2/pal_lld.h"
 772              		.file 13 "../../../os/ext/CMSIS/include/core_cm4.h"
 773              		.section	.debug_info,"",%progbits
 774              	.Ldebug_info0:
 775 0000 5A0B0000 		.4byte	0xb5a
 776 0004 0200     		.2byte	0x2
 777 0006 00000000 		.4byte	.Ldebug_abbrev0
 778 000a 04       		.byte	0x4
 779 000b 01       		.uleb128 0x1
 780 000c 51030000 		.4byte	.LASF146
 781 0010 01       		.byte	0x1
 782 0011 A4050000 		.4byte	.LASF147
 783 0015 3D010000 		.4byte	.LASF148
 784 0019 B0000000 		.4byte	.Ldebug_ranges0+0xb0
 785 001d 00000000 		.4byte	0
 786 0021 00000000 		.4byte	0
 787 0025 00000000 		.4byte	.Ldebug_line0
 788 0029 02       		.uleb128 0x2
 789 002a 04       		.byte	0x4
 790 002b 05       		.byte	0x5
 791 002c 696E7400 		.ascii	"int\000"
 792 0030 03       		.uleb128 0x3
 793 0031 04       		.byte	0x4
 794 0032 07       		.byte	0x7
 795 0033 1B020000 		.4byte	.LASF0
 796 0037 03       		.uleb128 0x3
 797 0038 01       		.byte	0x1
 798 0039 06       		.byte	0x6
 799 003a E5000000 		.4byte	.LASF1
 800 003e 04       		.uleb128 0x4
 801 003f 76050000 		.4byte	.LASF4
 802 0043 02       		.byte	0x2
 803 0044 2A       		.byte	0x2a
 804 0045 49000000 		.4byte	0x49
 805 0049 03       		.uleb128 0x3
 806 004a 01       		.byte	0x1
 807 004b 08       		.byte	0x8
 808 004c BF030000 		.4byte	.LASF2
 809 0050 03       		.uleb128 0x3
ARM GAS  /tmp/ccCtZxjj.s 			page 36


 810 0051 02       		.byte	0x2
 811 0052 05       		.byte	0x5
 812 0053 E2030000 		.4byte	.LASF3
 813 0057 04       		.uleb128 0x4
 814 0058 96010000 		.4byte	.LASF5
 815 005c 02       		.byte	0x2
 816 005d 36       		.byte	0x36
 817 005e 62000000 		.4byte	0x62
 818 0062 03       		.uleb128 0x3
 819 0063 02       		.byte	0x2
 820 0064 07       		.byte	0x7
 821 0065 56020000 		.4byte	.LASF6
 822 0069 04       		.uleb128 0x4
 823 006a B7030000 		.4byte	.LASF7
 824 006e 02       		.byte	0x2
 825 006f 4F       		.byte	0x4f
 826 0070 74000000 		.4byte	0x74
 827 0074 03       		.uleb128 0x3
 828 0075 04       		.byte	0x4
 829 0076 05       		.byte	0x5
 830 0077 22010000 		.4byte	.LASF8
 831 007b 04       		.uleb128 0x4
 832 007c 48040000 		.4byte	.LASF9
 833 0080 02       		.byte	0x2
 834 0081 50       		.byte	0x50
 835 0082 86000000 		.4byte	0x86
 836 0086 03       		.uleb128 0x3
 837 0087 04       		.byte	0x4
 838 0088 07       		.byte	0x7
 839 0089 79040000 		.4byte	.LASF10
 840 008d 03       		.uleb128 0x3
 841 008e 08       		.byte	0x8
 842 008f 05       		.byte	0x5
 843 0090 D7000000 		.4byte	.LASF11
 844 0094 04       		.uleb128 0x4
 845 0095 2D000000 		.4byte	.LASF12
 846 0099 02       		.byte	0x2
 847 009a 78       		.byte	0x78
 848 009b 9F000000 		.4byte	0x9f
 849 009f 03       		.uleb128 0x3
 850 00a0 08       		.byte	0x8
 851 00a1 07       		.byte	0x7
 852 00a2 6B000000 		.4byte	.LASF13
 853 00a6 04       		.uleb128 0x4
 854 00a7 22050000 		.4byte	.LASF14
 855 00ab 03       		.byte	0x3
 856 00ac 39       		.byte	0x39
 857 00ad 7B000000 		.4byte	0x7b
 858 00b1 04       		.uleb128 0x4
 859 00b2 8C020000 		.4byte	.LASF15
 860 00b6 03       		.byte	0x3
 861 00b7 3C       		.byte	0x3c
 862 00b8 3E000000 		.4byte	0x3e
 863 00bc 04       		.uleb128 0x4
 864 00bd 34010000 		.4byte	.LASF16
 865 00c1 03       		.byte	0x3
 866 00c2 3D       		.byte	0x3d
ARM GAS  /tmp/ccCtZxjj.s 			page 37


 867 00c3 3E000000 		.4byte	0x3e
 868 00c7 04       		.uleb128 0x4
 869 00c8 7A030000 		.4byte	.LASF17
 870 00cc 03       		.byte	0x3
 871 00cd 3E       		.byte	0x3e
 872 00ce 3E000000 		.4byte	0x3e
 873 00d2 04       		.uleb128 0x4
 874 00d3 99030000 		.4byte	.LASF18
 875 00d7 03       		.byte	0x3
 876 00d8 40       		.byte	0x40
 877 00d9 7B000000 		.4byte	0x7b
 878 00dd 04       		.uleb128 0x4
 879 00de 7A020000 		.4byte	.LASF19
 880 00e2 03       		.byte	0x3
 881 00e3 41       		.byte	0x41
 882 00e4 69000000 		.4byte	0x69
 883 00e8 04       		.uleb128 0x4
 884 00e9 A2020000 		.4byte	.LASF20
 885 00ed 03       		.byte	0x3
 886 00ee 43       		.byte	0x43
 887 00ef 7B000000 		.4byte	0x7b
 888 00f3 04       		.uleb128 0x4
 889 00f4 15020000 		.4byte	.LASF21
 890 00f8 03       		.byte	0x3
 891 00f9 45       		.byte	0x45
 892 00fa 69000000 		.4byte	0x69
 893 00fe 04       		.uleb128 0x4
 894 00ff B1040000 		.4byte	.LASF22
 895 0103 04       		.byte	0x4
 896 0104 33       		.byte	0x33
 897 0105 7B000000 		.4byte	0x7b
 898 0109 04       		.uleb128 0x4
 899 010a A1040000 		.4byte	.LASF23
 900 010e 04       		.byte	0x4
 901 010f 3F       		.byte	0x3f
 902 0110 14010000 		.4byte	0x114
 903 0114 05       		.uleb128 0x5
 904 0115 70020000 		.4byte	.LASF43
 905 0119 44       		.byte	0x44
 906 011a 05       		.byte	0x5
 907 011b C2       		.byte	0xc2
 908 011c 25020000 		.4byte	0x225
 909 0120 06       		.uleb128 0x6
 910 0121 0B030000 		.4byte	.LASF24
 911 0125 05       		.byte	0x5
 912 0126 C3       		.byte	0xc3
 913 0127 30020000 		.4byte	0x230
 914 012b 02       		.byte	0x2
 915 012c 23       		.byte	0x23
 916 012d 00       		.uleb128 0
 917 012e 06       		.uleb128 0x6
 918 012f 92030000 		.4byte	.LASF25
 919 0133 05       		.byte	0x5
 920 0134 C5       		.byte	0xc5
 921 0135 30020000 		.4byte	0x230
 922 0139 02       		.byte	0x2
 923 013a 23       		.byte	0x23
ARM GAS  /tmp/ccCtZxjj.s 			page 38


 924 013b 04       		.uleb128 0x4
 925 013c 06       		.uleb128 0x6
 926 013d D0000000 		.4byte	.LASF26
 927 0141 05       		.byte	0x5
 928 0142 C7       		.byte	0xc7
 929 0143 D2000000 		.4byte	0xd2
 930 0147 02       		.byte	0x2
 931 0148 23       		.byte	0x23
 932 0149 08       		.uleb128 0x8
 933 014a 06       		.uleb128 0x6
 934 014b F0050000 		.4byte	.LASF27
 935 014f 05       		.byte	0x5
 936 0150 C8       		.byte	0xc8
 937 0151 70050000 		.4byte	0x570
 938 0155 02       		.byte	0x2
 939 0156 23       		.byte	0x23
 940 0157 0C       		.uleb128 0xc
 941 0158 06       		.uleb128 0x6
 942 0159 A8010000 		.4byte	.LASF28
 943 015d 05       		.byte	0x5
 944 015e CA       		.byte	0xca
 945 015f 30020000 		.4byte	0x230
 946 0163 02       		.byte	0x2
 947 0164 23       		.byte	0x23
 948 0165 10       		.uleb128 0x10
 949 0166 06       		.uleb128 0x6
 950 0167 25030000 		.4byte	.LASF29
 951 016b 05       		.byte	0x5
 952 016c CB       		.byte	0xcb
 953 016d 30020000 		.4byte	0x230
 954 0171 02       		.byte	0x2
 955 0172 23       		.byte	0x23
 956 0173 14       		.uleb128 0x14
 957 0174 06       		.uleb128 0x6
 958 0175 8B050000 		.4byte	.LASF30
 959 0179 05       		.byte	0x5
 960 017a D2       		.byte	0xd2
 961 017b 0F070000 		.4byte	0x70f
 962 017f 02       		.byte	0x2
 963 0180 23       		.byte	0x23
 964 0181 18       		.uleb128 0x18
 965 0182 06       		.uleb128 0x6
 966 0183 EC030000 		.4byte	.LASF31
 967 0187 05       		.byte	0x5
 968 0188 DD       		.byte	0xdd
 969 0189 BC000000 		.4byte	0xbc
 970 018d 02       		.byte	0x2
 971 018e 23       		.byte	0x23
 972 018f 1C       		.uleb128 0x1c
 973 0190 06       		.uleb128 0x6
 974 0191 09040000 		.4byte	.LASF32
 975 0195 05       		.byte	0x5
 976 0196 E1       		.byte	0xe1
 977 0197 B1000000 		.4byte	0xb1
 978 019b 02       		.byte	0x2
 979 019c 23       		.byte	0x23
 980 019d 1D       		.uleb128 0x1d
ARM GAS  /tmp/ccCtZxjj.s 			page 39


 981 019e 06       		.uleb128 0x6
 982 019f 4A050000 		.4byte	.LASF33
 983 01a3 05       		.byte	0x5
 984 01a4 E6       		.byte	0xe6
 985 01a5 C7000000 		.4byte	0xc7
 986 01a9 02       		.byte	0x2
 987 01aa 23       		.byte	0x23
 988 01ab 1E       		.uleb128 0x1e
 989 01ac 07       		.uleb128 0x7
 990 01ad 705F7500 		.ascii	"p_u\000"
 991 01b1 05       		.byte	0x5
 992 01b2 3101     		.2byte	0x131
 993 01b4 40060000 		.4byte	0x640
 994 01b8 02       		.byte	0x2
 995 01b9 23       		.byte	0x23
 996 01ba 20       		.uleb128 0x20
 997 01bb 08       		.uleb128 0x8
 998 01bc C8020000 		.4byte	.LASF34
 999 01c0 05       		.byte	0x5
 1000 01c1 3601     		.2byte	0x136
 1001 01c3 36020000 		.4byte	0x236
 1002 01c7 02       		.byte	0x2
 1003 01c8 23       		.byte	0x23
 1004 01c9 24       		.uleb128 0x24
 1005 01ca 08       		.uleb128 0x8
 1006 01cb 37020000 		.4byte	.LASF35
 1007 01cf 05       		.byte	0x5
 1008 01d0 3C01     		.2byte	0x13c
 1009 01d2 5C020000 		.4byte	0x25c
 1010 01d6 02       		.byte	0x2
 1011 01d7 23       		.byte	0x23
 1012 01d8 28       		.uleb128 0x28
 1013 01d9 08       		.uleb128 0x8
 1014 01da 9E050000 		.4byte	.LASF36
 1015 01de 05       		.byte	0x5
 1016 01df 4001     		.2byte	0x140
 1017 01e1 DD000000 		.4byte	0xdd
 1018 01e5 02       		.byte	0x2
 1019 01e6 23       		.byte	0x23
 1020 01e7 30       		.uleb128 0x30
 1021 01e8 08       		.uleb128 0x8
 1022 01e9 3D040000 		.4byte	.LASF37
 1023 01ed 05       		.byte	0x5
 1024 01ee 4601     		.2byte	0x146
 1025 01f0 E8000000 		.4byte	0xe8
 1026 01f4 02       		.byte	0x2
 1027 01f5 23       		.byte	0x23
 1028 01f6 34       		.uleb128 0x34
 1029 01f7 08       		.uleb128 0x8
 1030 01f8 D8030000 		.4byte	.LASF38
 1031 01fc 05       		.byte	0x5
 1032 01fd 4D01     		.2byte	0x14d
 1033 01ff 09070000 		.4byte	0x709
 1034 0203 02       		.byte	0x2
 1035 0204 23       		.byte	0x23
 1036 0205 38       		.uleb128 0x38
 1037 0206 08       		.uleb128 0x8
ARM GAS  /tmp/ccCtZxjj.s 			page 40


 1038 0207 BB040000 		.4byte	.LASF39
 1039 020b 05       		.byte	0x5
 1040 020c 5101     		.2byte	0x151
 1041 020e D2000000 		.4byte	0xd2
 1042 0212 02       		.byte	0x2
 1043 0213 23       		.byte	0x23
 1044 0214 3C       		.uleb128 0x3c
 1045 0215 08       		.uleb128 0x8
 1046 0216 F6000000 		.4byte	.LASF40
 1047 021a 05       		.byte	0x5
 1048 021b 5801     		.2byte	0x158
 1049 021d 20030000 		.4byte	0x320
 1050 0221 02       		.byte	0x2
 1051 0222 23       		.byte	0x23
 1052 0223 40       		.uleb128 0x40
 1053 0224 00       		.byte	0
 1054 0225 04       		.uleb128 0x4
 1055 0226 DB020000 		.4byte	.LASF41
 1056 022a 04       		.byte	0x4
 1057 022b 44       		.byte	0x44
 1058 022c 30020000 		.4byte	0x230
 1059 0230 09       		.uleb128 0x9
 1060 0231 04       		.byte	0x4
 1061 0232 09010000 		.4byte	0x109
 1062 0236 04       		.uleb128 0x4
 1063 0237 B9020000 		.4byte	.LASF42
 1064 023b 04       		.byte	0x4
 1065 023c 49       		.byte	0x49
 1066 023d 41020000 		.4byte	0x241
 1067 0241 05       		.uleb128 0x5
 1068 0242 69040000 		.4byte	.LASF44
 1069 0246 04       		.byte	0x4
 1070 0247 05       		.byte	0x5
 1071 0248 B0       		.byte	0xb0
 1072 0249 5C020000 		.4byte	0x25c
 1073 024d 06       		.uleb128 0x6
 1074 024e 0B030000 		.4byte	.LASF24
 1075 0252 05       		.byte	0x5
 1076 0253 B1       		.byte	0xb1
 1077 0254 30020000 		.4byte	0x230
 1078 0258 02       		.byte	0x2
 1079 0259 23       		.byte	0x23
 1080 025a 00       		.uleb128 0
 1081 025b 00       		.byte	0
 1082 025c 04       		.uleb128 0x4
 1083 025d 31050000 		.4byte	.LASF45
 1084 0261 04       		.byte	0x4
 1085 0262 50       		.byte	0x50
 1086 0263 67020000 		.4byte	0x267
 1087 0267 05       		.uleb128 0x5
 1088 0268 BF000000 		.4byte	.LASF46
 1089 026c 08       		.byte	0x8
 1090 026d 05       		.byte	0x5
 1091 026e B7       		.byte	0xb7
 1092 026f 90020000 		.4byte	0x290
 1093 0273 06       		.uleb128 0x6
 1094 0274 0B030000 		.4byte	.LASF24
ARM GAS  /tmp/ccCtZxjj.s 			page 41


 1095 0278 05       		.byte	0x5
 1096 0279 B8       		.byte	0xb8
 1097 027a 30020000 		.4byte	0x230
 1098 027e 02       		.byte	0x2
 1099 027f 23       		.byte	0x23
 1100 0280 00       		.uleb128 0
 1101 0281 06       		.uleb128 0x6
 1102 0282 92030000 		.4byte	.LASF25
 1103 0286 05       		.byte	0x5
 1104 0287 B9       		.byte	0xb9
 1105 0288 30020000 		.4byte	0x230
 1106 028c 02       		.byte	0x2
 1107 028d 23       		.byte	0x23
 1108 028e 04       		.uleb128 0x4
 1109 028f 00       		.byte	0
 1110 0290 04       		.uleb128 0x4
 1111 0291 13000000 		.4byte	.LASF47
 1112 0295 04       		.byte	0x4
 1113 0296 57       		.byte	0x57
 1114 0297 9B020000 		.4byte	0x29b
 1115 029b 0A       		.uleb128 0xa
 1116 029c 94020000 		.4byte	.LASF48
 1117 02a0 1C       		.byte	0x1c
 1118 02a1 05       		.byte	0x5
 1119 02a2 9001     		.2byte	0x190
 1120 02a4 03030000 		.4byte	0x303
 1121 02a8 08       		.uleb128 0x8
 1122 02a9 58040000 		.4byte	.LASF49
 1123 02ad 05       		.byte	0x5
 1124 02ae 9101     		.2byte	0x191
 1125 02b0 5C020000 		.4byte	0x25c
 1126 02b4 02       		.byte	0x2
 1127 02b5 23       		.byte	0x23
 1128 02b6 00       		.uleb128 0
 1129 02b7 08       		.uleb128 0x8
 1130 02b8 F4030000 		.4byte	.LASF50
 1131 02bc 05       		.byte	0x5
 1132 02bd 9201     		.2byte	0x192
 1133 02bf D2000000 		.4byte	0xd2
 1134 02c3 02       		.byte	0x2
 1135 02c4 23       		.byte	0x23
 1136 02c5 08       		.uleb128 0x8
 1137 02c6 08       		.uleb128 0x8
 1138 02c7 2D030000 		.4byte	.LASF51
 1139 02cb 05       		.byte	0x5
 1140 02cc 9401     		.2byte	0x194
 1141 02ce 70050000 		.4byte	0x570
 1142 02d2 02       		.byte	0x2
 1143 02d3 23       		.byte	0x23
 1144 02d4 0C       		.uleb128 0xc
 1145 02d5 08       		.uleb128 0x8
 1146 02d6 C0010000 		.4byte	.LASF52
 1147 02da 05       		.byte	0x5
 1148 02db 9701     		.2byte	0x197
 1149 02dd 30020000 		.4byte	0x230
 1150 02e1 02       		.byte	0x2
 1151 02e2 23       		.byte	0x23
ARM GAS  /tmp/ccCtZxjj.s 			page 42


 1152 02e3 10       		.uleb128 0x10
 1153 02e4 08       		.uleb128 0x8
 1154 02e5 04050000 		.4byte	.LASF53
 1155 02e9 05       		.byte	0x5
 1156 02ea 9801     		.2byte	0x198
 1157 02ec 30020000 		.4byte	0x230
 1158 02f0 02       		.byte	0x2
 1159 02f1 23       		.byte	0x23
 1160 02f2 14       		.uleb128 0x14
 1161 02f3 08       		.uleb128 0x8
 1162 02f4 5D030000 		.4byte	.LASF54
 1163 02f8 05       		.byte	0x5
 1164 02f9 9B01     		.2byte	0x19b
 1165 02fb 30020000 		.4byte	0x230
 1166 02ff 02       		.byte	0x2
 1167 0300 23       		.byte	0x23
 1168 0301 18       		.uleb128 0x18
 1169 0302 00       		.byte	0
 1170 0303 04       		.uleb128 0x4
 1171 0304 C6040000 		.4byte	.LASF55
 1172 0308 04       		.byte	0x4
 1173 0309 5C       		.byte	0x5c
 1174 030a 0E030000 		.4byte	0x30e
 1175 030e 09       		.uleb128 0x9
 1176 030f 04       		.byte	0x4
 1177 0310 14030000 		.4byte	0x314
 1178 0314 0B       		.uleb128 0xb
 1179 0315 01       		.byte	0x1
 1180 0316 20030000 		.4byte	0x320
 1181 031a 0C       		.uleb128 0xc
 1182 031b 20030000 		.4byte	0x320
 1183 031f 00       		.byte	0
 1184 0320 0D       		.uleb128 0xd
 1185 0321 04       		.byte	0x4
 1186 0322 04       		.uleb128 0x4
 1187 0323 82030000 		.4byte	.LASF56
 1188 0327 04       		.byte	0x4
 1189 0328 61       		.byte	0x61
 1190 0329 2D030000 		.4byte	0x32d
 1191 032d 0A       		.uleb128 0xa
 1192 032e 1F040000 		.4byte	.LASF57
 1193 0332 14       		.byte	0x14
 1194 0333 05       		.byte	0x5
 1195 0334 6B01     		.2byte	0x16b
 1196 0336 86030000 		.4byte	0x386
 1197 033a 08       		.uleb128 0x8
 1198 033b 28020000 		.4byte	.LASF58
 1199 033f 05       		.byte	0x5
 1200 0340 6C01     		.2byte	0x16c
 1201 0342 21070000 		.4byte	0x721
 1202 0346 02       		.byte	0x2
 1203 0347 23       		.byte	0x23
 1204 0348 00       		.uleb128 0
 1205 0349 08       		.uleb128 0x8
 1206 034a D6010000 		.4byte	.LASF59
 1207 034e 05       		.byte	0x5
 1208 034f 6D01     		.2byte	0x16d
ARM GAS  /tmp/ccCtZxjj.s 			page 43


 1209 0351 21070000 		.4byte	0x721
 1210 0355 02       		.byte	0x2
 1211 0356 23       		.byte	0x23
 1212 0357 04       		.uleb128 0x4
 1213 0358 08       		.uleb128 0x8
 1214 0359 60040000 		.4byte	.LASF60
 1215 035d 05       		.byte	0x5
 1216 035e 6E01     		.2byte	0x16e
 1217 0360 FE000000 		.4byte	0xfe
 1218 0364 02       		.byte	0x2
 1219 0365 23       		.byte	0x23
 1220 0366 08       		.uleb128 0x8
 1221 0367 08       		.uleb128 0x8
 1222 0368 F6050000 		.4byte	.LASF61
 1223 036c 05       		.byte	0x5
 1224 036d 6F01     		.2byte	0x16f
 1225 036f 03030000 		.4byte	0x303
 1226 0373 02       		.byte	0x2
 1227 0374 23       		.byte	0x23
 1228 0375 0C       		.uleb128 0xc
 1229 0376 08       		.uleb128 0x8
 1230 0377 2A050000 		.4byte	.LASF62
 1231 037b 05       		.byte	0x5
 1232 037c 7101     		.2byte	0x171
 1233 037e 20030000 		.4byte	0x320
 1234 0382 02       		.byte	0x2
 1235 0383 23       		.byte	0x23
 1236 0384 10       		.uleb128 0x10
 1237 0385 00       		.byte	0
 1238 0386 04       		.uleb128 0x4
 1239 0387 9C000000 		.4byte	.LASF63
 1240 038b 04       		.byte	0x4
 1241 038c 66       		.byte	0x66
 1242 038d 91030000 		.4byte	0x391
 1243 0391 0A       		.uleb128 0xa
 1244 0392 EE020000 		.4byte	.LASF64
 1245 0396 10       		.byte	0x10
 1246 0397 05       		.byte	0x5
 1247 0398 7B01     		.2byte	0x17b
 1248 039a DB030000 		.4byte	0x3db
 1249 039e 08       		.uleb128 0x8
 1250 039f 28020000 		.4byte	.LASF58
 1251 03a3 05       		.byte	0x5
 1252 03a4 7C01     		.2byte	0x17c
 1253 03a6 21070000 		.4byte	0x721
 1254 03aa 02       		.byte	0x2
 1255 03ab 23       		.byte	0x23
 1256 03ac 00       		.uleb128 0
 1257 03ad 08       		.uleb128 0x8
 1258 03ae D6010000 		.4byte	.LASF59
 1259 03b2 05       		.byte	0x5
 1260 03b3 7E01     		.2byte	0x17e
 1261 03b5 21070000 		.4byte	0x721
 1262 03b9 02       		.byte	0x2
 1263 03ba 23       		.byte	0x23
 1264 03bb 04       		.uleb128 0x4
 1265 03bc 08       		.uleb128 0x8
ARM GAS  /tmp/ccCtZxjj.s 			page 44


 1266 03bd 60040000 		.4byte	.LASF60
 1267 03c1 05       		.byte	0x5
 1268 03c2 8001     		.2byte	0x180
 1269 03c4 FE000000 		.4byte	0xfe
 1270 03c8 02       		.byte	0x2
 1271 03c9 23       		.byte	0x23
 1272 03ca 08       		.uleb128 0x8
 1273 03cb 08       		.uleb128 0x8
 1274 03cc 19030000 		.4byte	.LASF65
 1275 03d0 05       		.byte	0x5
 1276 03d1 8801     		.2byte	0x188
 1277 03d3 FE000000 		.4byte	0xfe
 1278 03d7 02       		.byte	0x2
 1279 03d8 23       		.byte	0x23
 1280 03d9 0C       		.uleb128 0xc
 1281 03da 00       		.byte	0
 1282 03db 04       		.uleb128 0x4
 1283 03dc 49000000 		.4byte	.LASF66
 1284 03e0 04       		.byte	0x4
 1285 03e1 6B       		.byte	0x6b
 1286 03e2 E6030000 		.4byte	0x3e6
 1287 03e6 0A       		.uleb128 0xa
 1288 03e7 A1030000 		.4byte	.LASF67
 1289 03eb 04       		.byte	0x4
 1290 03ec 05       		.byte	0x5
 1291 03ed A201     		.2byte	0x1a2
 1292 03ef 03040000 		.4byte	0x403
 1293 03f3 08       		.uleb128 0x8
 1294 03f4 D8040000 		.4byte	.LASF68
 1295 03f8 05       		.byte	0x5
 1296 03f9 AA01     		.2byte	0x1aa
 1297 03fb 27070000 		.4byte	0x727
 1298 03ff 02       		.byte	0x2
 1299 0400 23       		.byte	0x23
 1300 0401 00       		.uleb128 0
 1301 0402 00       		.byte	0
 1302 0403 04       		.uleb128 0x4
 1303 0404 80020000 		.4byte	.LASF69
 1304 0408 04       		.byte	0x4
 1305 0409 70       		.byte	0x70
 1306 040a 0E040000 		.4byte	0x40e
 1307 040e 0E       		.uleb128 0xe
 1308 040f 18010000 		.4byte	.LASF70
 1309 0413 5001     		.2byte	0x150
 1310 0415 05       		.byte	0x5
 1311 0416 C201     		.2byte	0x1c2
 1312 0418 76040000 		.4byte	0x476
 1313 041c 08       		.uleb128 0x8
 1314 041d 64050000 		.4byte	.LASF71
 1315 0421 05       		.byte	0x5
 1316 0422 C601     		.2byte	0x1c6
 1317 0424 90020000 		.4byte	0x290
 1318 0428 02       		.byte	0x2
 1319 0429 23       		.byte	0x23
 1320 042a 00       		.uleb128 0
 1321 042b 08       		.uleb128 0x8
 1322 042c DE010000 		.4byte	.LASF72
ARM GAS  /tmp/ccCtZxjj.s 			page 45


 1323 0430 05       		.byte	0x5
 1324 0431 CA01     		.2byte	0x1ca
 1325 0433 86030000 		.4byte	0x386
 1326 0437 02       		.byte	0x2
 1327 0438 23       		.byte	0x23
 1328 0439 1C       		.uleb128 0x1c
 1329 043a 07       		.uleb128 0x7
 1330 043b 64626700 		.ascii	"dbg\000"
 1331 043f 05       		.byte	0x5
 1332 0440 CE01     		.2byte	0x1ce
 1333 0442 DB030000 		.4byte	0x3db
 1334 0446 02       		.byte	0x2
 1335 0447 23       		.byte	0x23
 1336 0448 2C       		.uleb128 0x2c
 1337 0449 08       		.uleb128 0x8
 1338 044a 91000000 		.4byte	.LASF73
 1339 044e 05       		.byte	0x5
 1340 044f D201     		.2byte	0x1d2
 1341 0451 09010000 		.4byte	0x109
 1342 0455 02       		.byte	0x2
 1343 0456 23       		.byte	0x23
 1344 0457 30       		.uleb128 0x30
 1345 0458 07       		.uleb128 0x7
 1346 0459 746D00   		.ascii	"tm\000"
 1347 045c 05       		.byte	0x5
 1348 045d D701     		.2byte	0x1d7
 1349 045f 35060000 		.4byte	0x635
 1350 0463 02       		.byte	0x2
 1351 0464 23       		.byte	0x23
 1352 0465 74       		.uleb128 0x74
 1353 0466 08       		.uleb128 0x8
 1354 0467 06020000 		.4byte	.LASF74
 1355 046b 05       		.byte	0x5
 1356 046c E301     		.2byte	0x1e3
 1357 046e 2C070000 		.4byte	0x72c
 1358 0472 02       		.byte	0x2
 1359 0473 23       		.byte	0x23
 1360 0474 78       		.uleb128 0x78
 1361 0475 00       		.byte	0
 1362 0476 03       		.uleb128 0x3
 1363 0477 04       		.byte	0x4
 1364 0478 07       		.byte	0x7
 1365 0479 D2020000 		.4byte	.LASF75
 1366 047d 0F       		.uleb128 0xf
 1367 047e 7B000000 		.4byte	0x7b
 1368 0482 10       		.uleb128 0x10
 1369 0483 34       		.byte	0x34
 1370 0484 06       		.byte	0x6
 1371 0485 EB01     		.2byte	0x1eb
 1372 0487 4E050000 		.4byte	0x54e
 1373 048b 07       		.uleb128 0x7
 1374 048c 435200   		.ascii	"CR\000"
 1375 048f 06       		.byte	0x6
 1376 0490 ED01     		.2byte	0x1ed
 1377 0492 7D040000 		.4byte	0x47d
 1378 0496 02       		.byte	0x2
 1379 0497 23       		.byte	0x23
ARM GAS  /tmp/ccCtZxjj.s 			page 46


 1380 0498 00       		.uleb128 0
 1381 0499 08       		.uleb128 0x8
 1382 049a 99050000 		.4byte	.LASF76
 1383 049e 06       		.byte	0x6
 1384 049f EE01     		.2byte	0x1ee
 1385 04a1 7D040000 		.4byte	0x47d
 1386 04a5 02       		.byte	0x2
 1387 04a6 23       		.byte	0x23
 1388 04a7 04       		.uleb128 0x4
 1389 04a8 07       		.uleb128 0x7
 1390 04a9 43495200 		.ascii	"CIR\000"
 1391 04ad 06       		.byte	0x6
 1392 04ae EF01     		.2byte	0x1ef
 1393 04b0 7D040000 		.4byte	0x47d
 1394 04b4 02       		.byte	0x2
 1395 04b5 23       		.byte	0x23
 1396 04b6 08       		.uleb128 0x8
 1397 04b7 08       		.uleb128 0x8
 1398 04b8 2B010000 		.4byte	.LASF77
 1399 04bc 06       		.byte	0x6
 1400 04bd F001     		.2byte	0x1f0
 1401 04bf 7D040000 		.4byte	0x47d
 1402 04c3 02       		.byte	0x2
 1403 04c4 23       		.byte	0x23
 1404 04c5 0C       		.uleb128 0xc
 1405 04c6 08       		.uleb128 0x8
 1406 04c7 67030000 		.4byte	.LASF78
 1407 04cb 06       		.byte	0x6
 1408 04cc F101     		.2byte	0x1f1
 1409 04ce 7D040000 		.4byte	0x47d
 1410 04d2 02       		.byte	0x2
 1411 04d3 23       		.byte	0x23
 1412 04d4 10       		.uleb128 0x10
 1413 04d5 08       		.uleb128 0x8
 1414 04d6 FE050000 		.4byte	.LASF79
 1415 04da 06       		.byte	0x6
 1416 04db F201     		.2byte	0x1f2
 1417 04dd 7D040000 		.4byte	0x47d
 1418 04e1 02       		.byte	0x2
 1419 04e2 23       		.byte	0x23
 1420 04e3 14       		.uleb128 0x14
 1421 04e4 08       		.uleb128 0x8
 1422 04e5 17040000 		.4byte	.LASF80
 1423 04e9 06       		.byte	0x6
 1424 04ea F301     		.2byte	0x1f3
 1425 04ec 7D040000 		.4byte	0x47d
 1426 04f0 02       		.byte	0x2
 1427 04f1 23       		.byte	0x23
 1428 04f2 18       		.uleb128 0x18
 1429 04f3 08       		.uleb128 0x8
 1430 04f4 E9040000 		.4byte	.LASF81
 1431 04f8 06       		.byte	0x6
 1432 04f9 F401     		.2byte	0x1f4
 1433 04fb 7D040000 		.4byte	0x47d
 1434 04ff 02       		.byte	0x2
 1435 0500 23       		.byte	0x23
 1436 0501 1C       		.uleb128 0x1c
ARM GAS  /tmp/ccCtZxjj.s 			page 47


 1437 0502 08       		.uleb128 0x8
 1438 0503 5F050000 		.4byte	.LASF82
 1439 0507 06       		.byte	0x6
 1440 0508 F501     		.2byte	0x1f5
 1441 050a 7D040000 		.4byte	0x47d
 1442 050e 02       		.byte	0x2
 1443 050f 23       		.byte	0x23
 1444 0510 20       		.uleb128 0x20
 1445 0511 07       		.uleb128 0x7
 1446 0512 43535200 		.ascii	"CSR\000"
 1447 0516 06       		.byte	0x6
 1448 0517 F601     		.2byte	0x1f6
 1449 0519 7D040000 		.4byte	0x47d
 1450 051d 02       		.byte	0x2
 1451 051e 23       		.byte	0x23
 1452 051f 24       		.uleb128 0x24
 1453 0520 08       		.uleb128 0x8
 1454 0521 49030000 		.4byte	.LASF83
 1455 0525 06       		.byte	0x6
 1456 0526 F701     		.2byte	0x1f7
 1457 0528 7D040000 		.4byte	0x47d
 1458 052c 02       		.byte	0x2
 1459 052d 23       		.byte	0x23
 1460 052e 28       		.uleb128 0x28
 1461 052f 08       		.uleb128 0x8
 1462 0530 6A050000 		.4byte	.LASF84
 1463 0534 06       		.byte	0x6
 1464 0535 F801     		.2byte	0x1f8
 1465 0537 7D040000 		.4byte	0x47d
 1466 053b 02       		.byte	0x2
 1467 053c 23       		.byte	0x23
 1468 053d 2C       		.uleb128 0x2c
 1469 053e 08       		.uleb128 0x8
 1470 053f 70050000 		.4byte	.LASF85
 1471 0543 06       		.byte	0x6
 1472 0544 F901     		.2byte	0x1f9
 1473 0546 7D040000 		.4byte	0x47d
 1474 054a 02       		.byte	0x2
 1475 054b 23       		.byte	0x23
 1476 054c 30       		.uleb128 0x30
 1477 054d 00       		.byte	0
 1478 054e 11       		.uleb128 0x11
 1479 054f 0C010000 		.4byte	.LASF86
 1480 0553 06       		.byte	0x6
 1481 0554 FA01     		.2byte	0x1fa
 1482 0556 82040000 		.4byte	0x482
 1483 055a 04       		.uleb128 0x4
 1484 055b CD010000 		.4byte	.LASF87
 1485 055f 07       		.byte	0x7
 1486 0560 65       		.byte	0x65
 1487 0561 20030000 		.4byte	0x320
 1488 0565 04       		.uleb128 0x4
 1489 0566 AE020000 		.4byte	.LASF88
 1490 056a 07       		.byte	0x7
 1491 056b 6D       		.byte	0x6d
 1492 056c 94000000 		.4byte	0x94
 1493 0570 05       		.uleb128 0x5
ARM GAS  /tmp/ccCtZxjj.s 			page 48


 1494 0571 FC040000 		.4byte	.LASF89
 1495 0575 04       		.byte	0x4
 1496 0576 07       		.byte	0x7
 1497 0577 89       		.byte	0x89
 1498 0578 8B050000 		.4byte	0x58b
 1499 057c 12       		.uleb128 0x12
 1500 057d 72313300 		.ascii	"r13\000"
 1501 0581 07       		.byte	0x7
 1502 0582 8A       		.byte	0x8a
 1503 0583 18060000 		.4byte	0x618
 1504 0587 02       		.byte	0x2
 1505 0588 23       		.byte	0x23
 1506 0589 00       		.uleb128 0
 1507 058a 00       		.byte	0
 1508 058b 05       		.uleb128 0x5
 1509 058c 3D000000 		.4byte	.LASF90
 1510 0590 24       		.byte	0x24
 1511 0591 08       		.byte	0x8
 1512 0592 FD       		.byte	0xfd
 1513 0593 18060000 		.4byte	0x618
 1514 0597 07       		.uleb128 0x7
 1515 0598 723400   		.ascii	"r4\000"
 1516 059b 08       		.byte	0x8
 1517 059c 1001     		.2byte	0x110
 1518 059e 5A050000 		.4byte	0x55a
 1519 05a2 02       		.byte	0x2
 1520 05a3 23       		.byte	0x23
 1521 05a4 00       		.uleb128 0
 1522 05a5 07       		.uleb128 0x7
 1523 05a6 723500   		.ascii	"r5\000"
 1524 05a9 08       		.byte	0x8
 1525 05aa 1101     		.2byte	0x111
 1526 05ac 5A050000 		.4byte	0x55a
 1527 05b0 02       		.byte	0x2
 1528 05b1 23       		.byte	0x23
 1529 05b2 04       		.uleb128 0x4
 1530 05b3 07       		.uleb128 0x7
 1531 05b4 723600   		.ascii	"r6\000"
 1532 05b7 08       		.byte	0x8
 1533 05b8 1201     		.2byte	0x112
 1534 05ba 5A050000 		.4byte	0x55a
 1535 05be 02       		.byte	0x2
 1536 05bf 23       		.byte	0x23
 1537 05c0 08       		.uleb128 0x8
 1538 05c1 07       		.uleb128 0x7
 1539 05c2 723700   		.ascii	"r7\000"
 1540 05c5 08       		.byte	0x8
 1541 05c6 1301     		.2byte	0x113
 1542 05c8 5A050000 		.4byte	0x55a
 1543 05cc 02       		.byte	0x2
 1544 05cd 23       		.byte	0x23
 1545 05ce 0C       		.uleb128 0xc
 1546 05cf 07       		.uleb128 0x7
 1547 05d0 723800   		.ascii	"r8\000"
 1548 05d3 08       		.byte	0x8
 1549 05d4 1401     		.2byte	0x114
 1550 05d6 5A050000 		.4byte	0x55a
ARM GAS  /tmp/ccCtZxjj.s 			page 49


 1551 05da 02       		.byte	0x2
 1552 05db 23       		.byte	0x23
 1553 05dc 10       		.uleb128 0x10
 1554 05dd 07       		.uleb128 0x7
 1555 05de 723900   		.ascii	"r9\000"
 1556 05e1 08       		.byte	0x8
 1557 05e2 1501     		.2byte	0x115
 1558 05e4 5A050000 		.4byte	0x55a
 1559 05e8 02       		.byte	0x2
 1560 05e9 23       		.byte	0x23
 1561 05ea 14       		.uleb128 0x14
 1562 05eb 07       		.uleb128 0x7
 1563 05ec 72313000 		.ascii	"r10\000"
 1564 05f0 08       		.byte	0x8
 1565 05f1 1601     		.2byte	0x116
 1566 05f3 5A050000 		.4byte	0x55a
 1567 05f7 02       		.byte	0x2
 1568 05f8 23       		.byte	0x23
 1569 05f9 18       		.uleb128 0x18
 1570 05fa 07       		.uleb128 0x7
 1571 05fb 72313100 		.ascii	"r11\000"
 1572 05ff 08       		.byte	0x8
 1573 0600 1701     		.2byte	0x117
 1574 0602 5A050000 		.4byte	0x55a
 1575 0606 02       		.byte	0x2
 1576 0607 23       		.byte	0x23
 1577 0608 1C       		.uleb128 0x1c
 1578 0609 07       		.uleb128 0x7
 1579 060a 6C7200   		.ascii	"lr\000"
 1580 060d 08       		.byte	0x8
 1581 060e 1801     		.2byte	0x118
 1582 0610 5A050000 		.4byte	0x55a
 1583 0614 02       		.byte	0x2
 1584 0615 23       		.byte	0x23
 1585 0616 20       		.uleb128 0x20
 1586 0617 00       		.byte	0
 1587 0618 09       		.uleb128 0x9
 1588 0619 04       		.byte	0x4
 1589 061a 8B050000 		.4byte	0x58b
 1590 061e 13       		.uleb128 0x13
 1591 061f 04       		.byte	0x4
 1592 0620 09       		.byte	0x9
 1593 0621 38       		.byte	0x38
 1594 0622 35060000 		.4byte	0x635
 1595 0626 06       		.uleb128 0x6
 1596 0627 E2040000 		.4byte	.LASF91
 1597 062b 09       		.byte	0x9
 1598 062c 3C       		.byte	0x3c
 1599 062d A6000000 		.4byte	0xa6
 1600 0631 02       		.byte	0x2
 1601 0632 23       		.byte	0x23
 1602 0633 00       		.uleb128 0
 1603 0634 00       		.byte	0
 1604 0635 04       		.uleb128 0x4
 1605 0636 33030000 		.4byte	.LASF92
 1606 063a 09       		.byte	0x9
 1607 063b 3D       		.byte	0x3d
ARM GAS  /tmp/ccCtZxjj.s 			page 50


 1608 063c 1E060000 		.4byte	0x61e
 1609 0640 14       		.uleb128 0x14
 1610 0641 04       		.byte	0x4
 1611 0642 05       		.byte	0x5
 1612 0643 FA       		.byte	0xfa
 1613 0644 9D060000 		.4byte	0x69d
 1614 0648 15       		.uleb128 0x15
 1615 0649 26000000 		.4byte	.LASF93
 1616 064d 05       		.byte	0x5
 1617 064e 0101     		.2byte	0x101
 1618 0650 DD000000 		.4byte	0xdd
 1619 0654 15       		.uleb128 0x15
 1620 0655 88000000 		.4byte	.LASF94
 1621 0659 05       		.byte	0x5
 1622 065a 0801     		.2byte	0x108
 1623 065c DD000000 		.4byte	0xdd
 1624 0660 15       		.uleb128 0x15
 1625 0661 84050000 		.4byte	.LASF95
 1626 0665 05       		.byte	0x5
 1627 0666 0F01     		.2byte	0x10f
 1628 0668 20030000 		.4byte	0x320
 1629 066c 15       		.uleb128 0x15
 1630 066d 20000000 		.4byte	.LASF96
 1631 0671 05       		.byte	0x5
 1632 0672 1601     		.2byte	0x116
 1633 0674 9D060000 		.4byte	0x69d
 1634 0678 15       		.uleb128 0x15
 1635 0679 30020000 		.4byte	.LASF97
 1636 067d 05       		.byte	0x5
 1637 067e 1E01     		.2byte	0x11e
 1638 0680 CC060000 		.4byte	0x6cc
 1639 0684 15       		.uleb128 0x15
 1640 0685 51040000 		.4byte	.LASF98
 1641 0689 05       		.byte	0x5
 1642 068a 2701     		.2byte	0x127
 1643 068c 09070000 		.4byte	0x709
 1644 0690 15       		.uleb128 0x15
 1645 0691 02040000 		.4byte	.LASF99
 1646 0695 05       		.byte	0x5
 1647 0696 2F01     		.2byte	0x12f
 1648 0698 E8000000 		.4byte	0xe8
 1649 069c 00       		.byte	0
 1650 069d 09       		.uleb128 0x9
 1651 069e 04       		.byte	0x4
 1652 069f 25020000 		.4byte	0x225
 1653 06a3 05       		.uleb128 0x5
 1654 06a4 30040000 		.4byte	.LASF100
 1655 06a8 0C       		.byte	0xc
 1656 06a9 0A       		.byte	0xa
 1657 06aa 34       		.byte	0x34
 1658 06ab CC060000 		.4byte	0x6cc
 1659 06af 06       		.uleb128 0x6
 1660 06b0 B0010000 		.4byte	.LASF101
 1661 06b4 0A       		.byte	0xa
 1662 06b5 35       		.byte	0x35
 1663 06b6 5C020000 		.4byte	0x25c
 1664 06ba 02       		.byte	0x2
ARM GAS  /tmp/ccCtZxjj.s 			page 51


 1665 06bb 23       		.byte	0x23
 1666 06bc 00       		.uleb128 0
 1667 06bd 06       		.uleb128 0x6
 1668 06be D2030000 		.4byte	.LASF102
 1669 06c2 0A       		.byte	0xa
 1670 06c3 37       		.byte	0x37
 1671 06c4 F3000000 		.4byte	0xf3
 1672 06c8 02       		.byte	0x2
 1673 06c9 23       		.byte	0x23
 1674 06ca 08       		.uleb128 0x8
 1675 06cb 00       		.byte	0
 1676 06cc 09       		.uleb128 0x9
 1677 06cd 04       		.byte	0x4
 1678 06ce A3060000 		.4byte	0x6a3
 1679 06d2 05       		.uleb128 0x5
 1680 06d3 41050000 		.4byte	.LASF103
 1681 06d7 10       		.byte	0x10
 1682 06d8 0B       		.byte	0xb
 1683 06d9 39       		.byte	0x39
 1684 06da 09070000 		.4byte	0x709
 1685 06de 06       		.uleb128 0x6
 1686 06df FE000000 		.4byte	.LASF104
 1687 06e3 0B       		.byte	0xb
 1688 06e4 3A       		.byte	0x3a
 1689 06e5 5C020000 		.4byte	0x25c
 1690 06e9 02       		.byte	0x2
 1691 06ea 23       		.byte	0x23
 1692 06eb 00       		.uleb128 0
 1693 06ec 06       		.uleb128 0x6
 1694 06ed E8050000 		.4byte	.LASF105
 1695 06f1 0B       		.byte	0xb
 1696 06f2 3C       		.byte	0x3c
 1697 06f3 30020000 		.4byte	0x230
 1698 06f7 02       		.byte	0x2
 1699 06f8 23       		.byte	0x23
 1700 06f9 08       		.uleb128 0x8
 1701 06fa 06       		.uleb128 0x6
 1702 06fb AA040000 		.4byte	.LASF106
 1703 06ff 0B       		.byte	0xb
 1704 0700 3E       		.byte	0x3e
 1705 0701 47070000 		.4byte	0x747
 1706 0705 02       		.byte	0x2
 1707 0706 23       		.byte	0x23
 1708 0707 0C       		.uleb128 0xc
 1709 0708 00       		.byte	0
 1710 0709 09       		.uleb128 0x9
 1711 070a 04       		.byte	0x4
 1712 070b D2060000 		.4byte	0x6d2
 1713 070f 09       		.uleb128 0x9
 1714 0710 04       		.byte	0x4
 1715 0711 15070000 		.4byte	0x715
 1716 0715 16       		.uleb128 0x16
 1717 0716 1A070000 		.4byte	0x71a
 1718 071a 03       		.uleb128 0x3
 1719 071b 01       		.byte	0x1
 1720 071c 08       		.byte	0x8
 1721 071d 90040000 		.4byte	.LASF107
ARM GAS  /tmp/ccCtZxjj.s 			page 52


 1722 0721 09       		.uleb128 0x9
 1723 0722 04       		.byte	0x4
 1724 0723 22030000 		.4byte	0x322
 1725 0727 0F       		.uleb128 0xf
 1726 0728 0F070000 		.4byte	0x70f
 1727 072c 17       		.uleb128 0x17
 1728 072d 65050000 		.4byte	0x565
 1729 0731 3C070000 		.4byte	0x73c
 1730 0735 18       		.uleb128 0x18
 1731 0736 76040000 		.4byte	0x476
 1732 073a 1A       		.byte	0x1a
 1733 073b 00       		.byte	0
 1734 073c 04       		.uleb128 0x4
 1735 073d F7010000 		.4byte	.LASF108
 1736 0741 0B       		.byte	0xb
 1737 0742 34       		.byte	0x34
 1738 0743 D2060000 		.4byte	0x6d2
 1739 0747 09       		.uleb128 0x9
 1740 0748 04       		.byte	0x4
 1741 0749 3C070000 		.4byte	0x73c
 1742 074d 03       		.uleb128 0x3
 1743 074e 01       		.byte	0x1
 1744 074f 02       		.byte	0x2
 1745 0750 B1030000 		.4byte	.LASF109
 1746 0754 13       		.uleb128 0x13
 1747 0755 04       		.byte	0x4
 1748 0756 0C       		.byte	0xc
 1749 0757 E7       		.byte	0xe7
 1750 0758 79070000 		.4byte	0x779
 1751 075c 12       		.uleb128 0x12
 1752 075d 73657400 		.ascii	"set\000"
 1753 0761 0C       		.byte	0xc
 1754 0762 E8       		.byte	0xe8
 1755 0763 57000000 		.4byte	0x57
 1756 0767 02       		.byte	0x2
 1757 0768 23       		.byte	0x23
 1758 0769 00       		.uleb128 0
 1759 076a 06       		.uleb128 0x6
 1760 076b 05030000 		.4byte	.LASF110
 1761 076f 0C       		.byte	0xc
 1762 0770 E9       		.byte	0xe9
 1763 0771 57000000 		.4byte	0x57
 1764 0775 02       		.byte	0x2
 1765 0776 23       		.byte	0x23
 1766 0777 02       		.uleb128 0x2
 1767 0778 00       		.byte	0
 1768 0779 14       		.uleb128 0x14
 1769 077a 04       		.byte	0x4
 1770 077b 0C       		.byte	0xc
 1771 077c E5       		.byte	0xe5
 1772 077d 94070000 		.4byte	0x794
 1773 0781 19       		.uleb128 0x19
 1774 0782 5700     		.ascii	"W\000"
 1775 0784 0C       		.byte	0xc
 1776 0785 E6       		.byte	0xe6
 1777 0786 7B000000 		.4byte	0x7b
 1778 078a 19       		.uleb128 0x19
ARM GAS  /tmp/ccCtZxjj.s 			page 53


 1779 078b 4800     		.ascii	"H\000"
 1780 078d 0C       		.byte	0xc
 1781 078e EA       		.byte	0xea
 1782 078f 54070000 		.4byte	0x754
 1783 0793 00       		.byte	0
 1784 0794 13       		.uleb128 0x13
 1785 0795 2C       		.byte	0x2c
 1786 0796 0C       		.byte	0xc
 1787 0797 DD       		.byte	0xdd
 1788 0798 37080000 		.4byte	0x837
 1789 079c 06       		.uleb128 0x6
 1790 079d 65000000 		.4byte	.LASF111
 1791 07a1 0C       		.byte	0xc
 1792 07a2 DF       		.byte	0xdf
 1793 07a3 7D040000 		.4byte	0x47d
 1794 07a7 02       		.byte	0x2
 1795 07a8 23       		.byte	0x23
 1796 07a9 00       		.uleb128 0
 1797 07aa 06       		.uleb128 0x6
 1798 07ab 36000000 		.4byte	.LASF112
 1799 07af 0C       		.byte	0xc
 1800 07b0 E0       		.byte	0xe0
 1801 07b1 7D040000 		.4byte	0x47d
 1802 07b5 02       		.byte	0x2
 1803 07b6 23       		.byte	0x23
 1804 07b7 04       		.uleb128 0x4
 1805 07b8 06       		.uleb128 0x6
 1806 07b9 B8010000 		.4byte	.LASF113
 1807 07bd 0C       		.byte	0xc
 1808 07be E1       		.byte	0xe1
 1809 07bf 7D040000 		.4byte	0x47d
 1810 07c3 02       		.byte	0x2
 1811 07c4 23       		.byte	0x23
 1812 07c5 08       		.uleb128 0x8
 1813 07c6 06       		.uleb128 0x6
 1814 07c7 82000000 		.4byte	.LASF114
 1815 07cb 0C       		.byte	0xc
 1816 07cc E2       		.byte	0xe2
 1817 07cd 7D040000 		.4byte	0x47d
 1818 07d1 02       		.byte	0x2
 1819 07d2 23       		.byte	0x23
 1820 07d3 0C       		.uleb128 0xc
 1821 07d4 12       		.uleb128 0x12
 1822 07d5 49445200 		.ascii	"IDR\000"
 1823 07d9 0C       		.byte	0xc
 1824 07da E3       		.byte	0xe3
 1825 07db 7D040000 		.4byte	0x47d
 1826 07df 02       		.byte	0x2
 1827 07e0 23       		.byte	0x23
 1828 07e1 10       		.uleb128 0x10
 1829 07e2 12       		.uleb128 0x12
 1830 07e3 4F445200 		.ascii	"ODR\000"
 1831 07e7 0C       		.byte	0xc
 1832 07e8 E4       		.byte	0xe4
 1833 07e9 7D040000 		.4byte	0x47d
 1834 07ed 02       		.byte	0x2
 1835 07ee 23       		.byte	0x23
ARM GAS  /tmp/ccCtZxjj.s 			page 54


 1836 07ef 14       		.uleb128 0x14
 1837 07f0 06       		.uleb128 0x6
 1838 07f1 F1000000 		.4byte	.LASF115
 1839 07f5 0C       		.byte	0xc
 1840 07f6 EB       		.byte	0xeb
 1841 07f7 37080000 		.4byte	0x837
 1842 07fb 02       		.byte	0x2
 1843 07fc 23       		.byte	0x23
 1844 07fd 18       		.uleb128 0x18
 1845 07fe 06       		.uleb128 0x6
 1846 07ff 4A020000 		.4byte	.LASF116
 1847 0803 0C       		.byte	0xc
 1848 0804 EC       		.byte	0xec
 1849 0805 7D040000 		.4byte	0x47d
 1850 0809 02       		.byte	0x2
 1851 080a 23       		.byte	0x23
 1852 080b 1C       		.uleb128 0x1c
 1853 080c 06       		.uleb128 0x6
 1854 080d 75030000 		.4byte	.LASF117
 1855 0811 0C       		.byte	0xc
 1856 0812 ED       		.byte	0xed
 1857 0813 7D040000 		.4byte	0x47d
 1858 0817 02       		.byte	0x2
 1859 0818 23       		.byte	0x23
 1860 0819 20       		.uleb128 0x20
 1861 081a 06       		.uleb128 0x6
 1862 081b 70030000 		.4byte	.LASF118
 1863 081f 0C       		.byte	0xc
 1864 0820 EE       		.byte	0xee
 1865 0821 7D040000 		.4byte	0x47d
 1866 0825 02       		.byte	0x2
 1867 0826 23       		.byte	0x23
 1868 0827 24       		.uleb128 0x24
 1869 0828 12       		.uleb128 0x12
 1870 0829 42525200 		.ascii	"BRR\000"
 1871 082d 0C       		.byte	0xc
 1872 082e EF       		.byte	0xef
 1873 082f 7D040000 		.4byte	0x47d
 1874 0833 02       		.byte	0x2
 1875 0834 23       		.byte	0x23
 1876 0835 28       		.uleb128 0x28
 1877 0836 00       		.byte	0
 1878 0837 0F       		.uleb128 0xf
 1879 0838 79070000 		.4byte	0x779
 1880 083c 04       		.uleb128 0x4
 1881 083d E5010000 		.4byte	.LASF119
 1882 0841 0C       		.byte	0xc
 1883 0842 F0       		.byte	0xf0
 1884 0843 94070000 		.4byte	0x794
 1885 0847 13       		.uleb128 0x13
 1886 0848 1C       		.byte	0x1c
 1887 0849 0C       		.byte	0xc
 1888 084a F5       		.byte	0xf5
 1889 084b B4080000 		.4byte	0x8b4
 1890 084f 06       		.uleb128 0x6
 1891 0850 06010000 		.4byte	.LASF120
 1892 0854 0C       		.byte	0xc
ARM GAS  /tmp/ccCtZxjj.s 			page 55


 1893 0855 F7       		.byte	0xf7
 1894 0856 7B000000 		.4byte	0x7b
 1895 085a 02       		.byte	0x2
 1896 085b 23       		.byte	0x23
 1897 085c 00       		.uleb128 0
 1898 085d 06       		.uleb128 0x6
 1899 085e 4F020000 		.4byte	.LASF121
 1900 0862 0C       		.byte	0xc
 1901 0863 F9       		.byte	0xf9
 1902 0864 7B000000 		.4byte	0x7b
 1903 0868 02       		.byte	0x2
 1904 0869 23       		.byte	0x23
 1905 086a 04       		.uleb128 0x4
 1906 086b 06       		.uleb128 0x6
 1907 086c 42020000 		.4byte	.LASF122
 1908 0870 0C       		.byte	0xc
 1909 0871 FB       		.byte	0xfb
 1910 0872 7B000000 		.4byte	0x7b
 1911 0876 02       		.byte	0x2
 1912 0877 23       		.byte	0x23
 1913 0878 08       		.uleb128 0x8
 1914 0879 06       		.uleb128 0x6
 1915 087a 7E050000 		.4byte	.LASF123
 1916 087e 0C       		.byte	0xc
 1917 087f FD       		.byte	0xfd
 1918 0880 7B000000 		.4byte	0x7b
 1919 0884 02       		.byte	0x2
 1920 0885 23       		.byte	0x23
 1921 0886 0C       		.uleb128 0xc
 1922 0887 12       		.uleb128 0x12
 1923 0888 6F647200 		.ascii	"odr\000"
 1924 088c 0C       		.byte	0xc
 1925 088d FF       		.byte	0xff
 1926 088e 7B000000 		.4byte	0x7b
 1927 0892 02       		.byte	0x2
 1928 0893 23       		.byte	0x23
 1929 0894 10       		.uleb128 0x10
 1930 0895 08       		.uleb128 0x8
 1931 0896 CD030000 		.4byte	.LASF124
 1932 089a 0C       		.byte	0xc
 1933 089b 0101     		.2byte	0x101
 1934 089d 7B000000 		.4byte	0x7b
 1935 08a1 02       		.byte	0x2
 1936 08a2 23       		.byte	0x23
 1937 08a3 14       		.uleb128 0x14
 1938 08a4 08       		.uleb128 0x8
 1939 08a5 44030000 		.4byte	.LASF125
 1940 08a9 0C       		.byte	0xc
 1941 08aa 0301     		.2byte	0x103
 1942 08ac 7B000000 		.4byte	0x7b
 1943 08b0 02       		.byte	0x2
 1944 08b1 23       		.byte	0x23
 1945 08b2 18       		.uleb128 0x18
 1946 08b3 00       		.byte	0
 1947 08b4 11       		.uleb128 0x11
 1948 08b5 00000000 		.4byte	.LASF126
 1949 08b9 0C       		.byte	0xc
ARM GAS  /tmp/ccCtZxjj.s 			page 56


 1950 08ba 0401     		.2byte	0x104
 1951 08bc 47080000 		.4byte	0x847
 1952 08c0 10       		.uleb128 0x10
 1953 08c1 8C       		.byte	0x8c
 1954 08c2 0C       		.byte	0xc
 1955 08c3 0D01     		.2byte	0x10d
 1956 08c5 15090000 		.4byte	0x915
 1957 08c9 08       		.uleb128 0x8
 1958 08ca FB030000 		.4byte	.LASF127
 1959 08ce 0C       		.byte	0xc
 1960 08cf 1001     		.2byte	0x110
 1961 08d1 B4080000 		.4byte	0x8b4
 1962 08d5 02       		.byte	0x2
 1963 08d6 23       		.byte	0x23
 1964 08d7 00       		.uleb128 0
 1965 08d8 08       		.uleb128 0x8
 1966 08d9 FF010000 		.4byte	.LASF128
 1967 08dd 0C       		.byte	0xc
 1968 08de 1401     		.2byte	0x114
 1969 08e0 B4080000 		.4byte	0x8b4
 1970 08e4 02       		.byte	0x2
 1971 08e5 23       		.byte	0x23
 1972 08e6 1C       		.uleb128 0x1c
 1973 08e7 08       		.uleb128 0x8
 1974 08e8 92050000 		.4byte	.LASF129
 1975 08ec 0C       		.byte	0xc
 1976 08ed 1801     		.2byte	0x118
 1977 08ef B4080000 		.4byte	0x8b4
 1978 08f3 02       		.byte	0x2
 1979 08f4 23       		.byte	0x23
 1980 08f5 38       		.uleb128 0x38
 1981 08f6 08       		.uleb128 0x8
 1982 08f7 12030000 		.4byte	.LASF130
 1983 08fb 0C       		.byte	0xc
 1984 08fc 1C01     		.2byte	0x11c
 1985 08fe B4080000 		.4byte	0x8b4
 1986 0902 02       		.byte	0x2
 1987 0903 23       		.byte	0x23
 1988 0904 54       		.uleb128 0x54
 1989 0905 08       		.uleb128 0x8
 1990 0906 69020000 		.4byte	.LASF131
 1991 090a 0C       		.byte	0xc
 1992 090b 2401     		.2byte	0x124
 1993 090d B4080000 		.4byte	0x8b4
 1994 0911 02       		.byte	0x2
 1995 0912 23       		.byte	0x23
 1996 0913 70       		.uleb128 0x70
 1997 0914 00       		.byte	0
 1998 0915 11       		.uleb128 0x11
 1999 0916 DE050000 		.4byte	.LASF132
 2000 091a 0C       		.byte	0xc
 2001 091b 3A01     		.2byte	0x13a
 2002 091d C0080000 		.4byte	0x8c0
 2003 0921 11       		.uleb128 0x11
 2004 0922 58000000 		.4byte	.LASF133
 2005 0926 0C       		.byte	0xc
 2006 0927 3F01     		.2byte	0x13f
ARM GAS  /tmp/ccCtZxjj.s 			page 57


 2007 0929 7B000000 		.4byte	0x7b
 2008 092d 11       		.uleb128 0x11
 2009 092e D5050000 		.4byte	.LASF134
 2010 0932 0C       		.byte	0xc
 2011 0933 4401     		.2byte	0x144
 2012 0935 7B000000 		.4byte	0x7b
 2013 0939 11       		.uleb128 0x11
 2014 093a F1040000 		.4byte	.LASF135
 2015 093e 0C       		.byte	0xc
 2016 093f 5101     		.2byte	0x151
 2017 0941 45090000 		.4byte	0x945
 2018 0945 09       		.uleb128 0x9
 2019 0946 04       		.byte	0x4
 2020 0947 3C080000 		.4byte	0x83c
 2021 094b 1A       		.uleb128 0x1a
 2022 094c CF040000 		.4byte	.LASF149
 2023 0950 01       		.byte	0x1
 2024 0951 3D       		.byte	0x3d
 2025 0952 01       		.byte	0x1
 2026 0953 01       		.byte	0x1
 2027 0954 6F090000 		.4byte	0x96f
 2028 0958 1B       		.uleb128 0x1b
 2029 0959 11040000 		.4byte	.LASF136
 2030 095d 01       		.byte	0x1
 2031 095e 3D       		.byte	0x3d
 2032 095f 45090000 		.4byte	0x945
 2033 0963 1B       		.uleb128 0x1b
 2034 0964 9A040000 		.4byte	.LASF137
 2035 0968 01       		.byte	0x1
 2036 0969 3D       		.byte	0x3d
 2037 096a 6F090000 		.4byte	0x96f
 2038 096e 00       		.byte	0
 2039 096f 09       		.uleb128 0x9
 2040 0970 04       		.byte	0x4
 2041 0971 75090000 		.4byte	0x975
 2042 0975 16       		.uleb128 0x16
 2043 0976 B4080000 		.4byte	0x8b4
 2044 097a 1C       		.uleb128 0x1c
 2045 097b 01       		.byte	0x1
 2046 097c 51050000 		.4byte	.LASF138
 2047 0980 01       		.byte	0x1
 2048 0981 58       		.byte	0x58
 2049 0982 01       		.byte	0x1
 2050 0983 00000000 		.4byte	.LFB273
 2051 0987 C8000000 		.4byte	.LFE273
 2052 098b 02       		.byte	0x2
 2053 098c 7D       		.byte	0x7d
 2054 098d 00       		.sleb128 0
 2055 098e 01       		.byte	0x1
 2056 098f 5B0A0000 		.4byte	0xa5b
 2057 0993 1D       		.uleb128 0x1d
 2058 0994 9A040000 		.4byte	.LASF137
 2059 0998 01       		.byte	0x1
 2060 0999 58       		.byte	0x58
 2061 099a 5B0A0000 		.4byte	0xa5b
 2062 099e 01       		.byte	0x1
 2063 099f 50       		.byte	0x50
ARM GAS  /tmp/ccCtZxjj.s 			page 58


 2064 09a0 1E       		.uleb128 0x1e
 2065 09a1 4B090000 		.4byte	0x94b
 2066 09a5 10000000 		.4byte	.LBB12
 2067 09a9 00000000 		.4byte	.Ldebug_ranges0+0
 2068 09ad 01       		.byte	0x1
 2069 09ae 70       		.byte	0x70
 2070 09af C4090000 		.4byte	0x9c4
 2071 09b3 1F       		.uleb128 0x1f
 2072 09b4 63090000 		.4byte	0x963
 2073 09b8 01       		.byte	0x1
 2074 09b9 50       		.byte	0x50
 2075 09ba 20       		.uleb128 0x20
 2076 09bb 58090000 		.4byte	0x958
 2077 09bf 00000048 		.4byte	0x48000000
 2078 09c3 00       		.byte	0
 2079 09c4 1E       		.uleb128 0x1e
 2080 09c5 4B090000 		.4byte	0x94b
 2081 09c9 16000000 		.4byte	.LBB15
 2082 09cd 18000000 		.4byte	.Ldebug_ranges0+0x18
 2083 09d1 01       		.byte	0x1
 2084 09d2 73       		.byte	0x73
 2085 09d3 EA090000 		.4byte	0x9ea
 2086 09d7 1F       		.uleb128 0x1f
 2087 09d8 63090000 		.4byte	0x963
 2088 09dc 03       		.byte	0x3
 2089 09dd 70       		.byte	0x70
 2090 09de 1C       		.sleb128 28
 2091 09df 9F       		.byte	0x9f
 2092 09e0 20       		.uleb128 0x20
 2093 09e1 58090000 		.4byte	0x958
 2094 09e5 00040048 		.4byte	0x48000400
 2095 09e9 00       		.byte	0
 2096 09ea 1E       		.uleb128 0x1e
 2097 09eb 4B090000 		.4byte	0x94b
 2098 09ef 3A000000 		.4byte	.LBB21
 2099 09f3 38000000 		.4byte	.Ldebug_ranges0+0x38
 2100 09f7 01       		.byte	0x1
 2101 09f8 76       		.byte	0x76
 2102 09f9 100A0000 		.4byte	0xa10
 2103 09fd 1F       		.uleb128 0x1f
 2104 09fe 63090000 		.4byte	0x963
 2105 0a02 03       		.byte	0x3
 2106 0a03 70       		.byte	0x70
 2107 0a04 38       		.sleb128 56
 2108 0a05 9F       		.byte	0x9f
 2109 0a06 20       		.uleb128 0x20
 2110 0a07 58090000 		.4byte	0x958
 2111 0a0b 00080048 		.4byte	0x48000800
 2112 0a0f 00       		.byte	0
 2113 0a10 1E       		.uleb128 0x1e
 2114 0a11 4B090000 		.4byte	0x94b
 2115 0a15 76000000 		.4byte	.LBB27
 2116 0a19 58000000 		.4byte	.Ldebug_ranges0+0x58
 2117 0a1d 01       		.byte	0x1
 2118 0a1e 79       		.byte	0x79
 2119 0a1f 370A0000 		.4byte	0xa37
 2120 0a23 1F       		.uleb128 0x1f
ARM GAS  /tmp/ccCtZxjj.s 			page 59


 2121 0a24 63090000 		.4byte	0x963
 2122 0a28 04       		.byte	0x4
 2123 0a29 70       		.byte	0x70
 2124 0a2a D400     		.sleb128 84
 2125 0a2c 9F       		.byte	0x9f
 2126 0a2d 20       		.uleb128 0x20
 2127 0a2e 58090000 		.4byte	0x958
 2128 0a32 000C0048 		.4byte	0x48000c00
 2129 0a36 00       		.byte	0
 2130 0a37 21       		.uleb128 0x21
 2131 0a38 4B090000 		.4byte	0x94b
 2132 0a3c 82000000 		.4byte	.LBB33
 2133 0a40 78000000 		.4byte	.Ldebug_ranges0+0x78
 2134 0a44 01       		.byte	0x1
 2135 0a45 7F       		.byte	0x7f
 2136 0a46 1F       		.uleb128 0x1f
 2137 0a47 63090000 		.4byte	0x963
 2138 0a4b 04       		.byte	0x4
 2139 0a4c 70       		.byte	0x70
 2140 0a4d F000     		.sleb128 112
 2141 0a4f 9F       		.byte	0x9f
 2142 0a50 20       		.uleb128 0x20
 2143 0a51 58090000 		.4byte	0x958
 2144 0a55 00140048 		.4byte	0x48001400
 2145 0a59 00       		.byte	0
 2146 0a5a 00       		.byte	0
 2147 0a5b 09       		.uleb128 0x9
 2148 0a5c 04       		.byte	0x4
 2149 0a5d 610A0000 		.4byte	0xa61
 2150 0a61 16       		.uleb128 0x16
 2151 0a62 15090000 		.4byte	0x915
 2152 0a66 22       		.uleb128 0x22
 2153 0a67 01       		.byte	0x1
 2154 0a68 0C050000 		.4byte	.LASF139
 2155 0a6c 01       		.byte	0x1
 2156 0a6d 9F       		.byte	0x9f
 2157 0a6e 01       		.byte	0x1
 2158 0a6f 00000000 		.4byte	.LFB274
 2159 0a73 F0000000 		.4byte	.LFE274
 2160 0a77 00000000 		.4byte	.LLST0
 2161 0a7b 01       		.byte	0x1
 2162 0a7c 3D0B0000 		.4byte	0xb3d
 2163 0a80 1D       		.uleb128 0x1d
 2164 0a81 F2010000 		.4byte	.LASF140
 2165 0a85 01       		.byte	0x1
 2166 0a86 9F       		.byte	0x9f
 2167 0a87 39090000 		.4byte	0x939
 2168 0a8b 01       		.byte	0x1
 2169 0a8c 50       		.byte	0x50
 2170 0a8d 23       		.uleb128 0x23
 2171 0a8e C8010000 		.4byte	.LASF141
 2172 0a92 01       		.byte	0x1
 2173 0a93 A0       		.byte	0xa0
 2174 0a94 21090000 		.4byte	0x921
 2175 0a98 20000000 		.4byte	.LLST1
 2176 0a9c 23       		.uleb128 0x23
 2177 0a9d 95040000 		.4byte	.LASF142
ARM GAS  /tmp/ccCtZxjj.s 			page 60


 2178 0aa1 01       		.byte	0x1
 2179 0aa2 A1       		.byte	0xa1
 2180 0aa3 2D090000 		.4byte	0x92d
 2181 0aa7 58000000 		.4byte	.LLST2
 2182 0aab 24       		.uleb128 0x24
 2183 0aac 06010000 		.4byte	.LASF120
 2184 0ab0 01       		.byte	0x1
 2185 0ab1 A3       		.byte	0xa3
 2186 0ab2 7B000000 		.4byte	0x7b
 2187 0ab6 79000000 		.4byte	.LLST3
 2188 0aba 25       		.uleb128 0x25
 2189 0abb 4F020000 		.4byte	.LASF121
 2190 0abf 01       		.byte	0x1
 2191 0ac0 A4       		.byte	0xa4
 2192 0ac1 7B000000 		.4byte	0x7b
 2193 0ac5 01       		.byte	0x1
 2194 0ac6 57       		.byte	0x57
 2195 0ac7 25       		.uleb128 0x25
 2196 0ac8 42020000 		.4byte	.LASF122
 2197 0acc 01       		.byte	0x1
 2198 0acd A5       		.byte	0xa5
 2199 0ace 7B000000 		.4byte	0x7b
 2200 0ad2 01       		.byte	0x1
 2201 0ad3 56       		.byte	0x56
 2202 0ad4 25       		.uleb128 0x25
 2203 0ad5 7E050000 		.4byte	.LASF123
 2204 0ad9 01       		.byte	0x1
 2205 0ada A6       		.byte	0xa6
 2206 0adb 7B000000 		.4byte	0x7b
 2207 0adf 01       		.byte	0x1
 2208 0ae0 55       		.byte	0x55
 2209 0ae1 25       		.uleb128 0x25
 2210 0ae2 8B040000 		.4byte	.LASF143
 2211 0ae6 01       		.byte	0x1
 2212 0ae7 A7       		.byte	0xa7
 2213 0ae8 7B000000 		.4byte	0x7b
 2214 0aec 01       		.byte	0x1
 2215 0aed 5B       		.byte	0x5b
 2216 0aee 26       		.uleb128 0x26
 2217 0aef 62697400 		.ascii	"bit\000"
 2218 0af3 01       		.byte	0x1
 2219 0af4 A8       		.byte	0xa8
 2220 0af5 7B000000 		.4byte	0x7b
 2221 0af9 97000000 		.4byte	.LLST4
 2222 0afd 27       		.uleb128 0x27
 2223 0afe 90000000 		.4byte	.Ldebug_ranges0+0x90
 2224 0b02 24       		.uleb128 0x24
 2225 0b03 9F010000 		.4byte	.LASF144
 2226 0b07 01       		.byte	0x1
 2227 0b08 AB       		.byte	0xab
 2228 0b09 7B000000 		.4byte	0x7b
 2229 0b0d B6000000 		.4byte	.LLST5
 2230 0b11 26       		.uleb128 0x26
 2231 0b12 6D3100   		.ascii	"m1\000"
 2232 0b15 01       		.byte	0x1
 2233 0b16 AB       		.byte	0xab
 2234 0b17 7B000000 		.4byte	0x7b
ARM GAS  /tmp/ccCtZxjj.s 			page 61


 2235 0b1b E8000000 		.4byte	.LLST6
 2236 0b1f 26       		.uleb128 0x26
 2237 0b20 6D3200   		.ascii	"m2\000"
 2238 0b23 01       		.byte	0x1
 2239 0b24 AB       		.byte	0xab
 2240 0b25 7B000000 		.4byte	0x7b
 2241 0b29 0E010000 		.4byte	.LLST7
 2242 0b2d 26       		.uleb128 0x26
 2243 0b2e 6D3400   		.ascii	"m4\000"
 2244 0b31 01       		.byte	0x1
 2245 0b32 AB       		.byte	0xab
 2246 0b33 7B000000 		.4byte	0x7b
 2247 0b37 54010000 		.4byte	.LLST8
 2248 0b3b 00       		.byte	0
 2249 0b3c 00       		.byte	0
 2250 0b3d 28       		.uleb128 0x28
 2251 0b3e B2000000 		.4byte	.LASF145
 2252 0b42 0D       		.byte	0xd
 2253 0b43 FA06     		.2byte	0x6fa
 2254 0b45 4B0B0000 		.4byte	0xb4b
 2255 0b49 01       		.byte	0x1
 2256 0b4a 01       		.byte	0x1
 2257 0b4b 0F       		.uleb128 0xf
 2258 0b4c 69000000 		.4byte	0x69
 2259 0b50 29       		.uleb128 0x29
 2260 0b51 636800   		.ascii	"ch\000"
 2261 0b54 05       		.byte	0x5
 2262 0b55 0902     		.2byte	0x209
 2263 0b57 03040000 		.4byte	0x403
 2264 0b5b 01       		.byte	0x1
 2265 0b5c 01       		.byte	0x1
 2266 0b5d 00       		.byte	0
 2267              		.section	.debug_abbrev,"",%progbits
 2268              	.Ldebug_abbrev0:
 2269 0000 01       		.uleb128 0x1
 2270 0001 11       		.uleb128 0x11
 2271 0002 01       		.byte	0x1
 2272 0003 25       		.uleb128 0x25
 2273 0004 0E       		.uleb128 0xe
 2274 0005 13       		.uleb128 0x13
 2275 0006 0B       		.uleb128 0xb
 2276 0007 03       		.uleb128 0x3
 2277 0008 0E       		.uleb128 0xe
 2278 0009 1B       		.uleb128 0x1b
 2279 000a 0E       		.uleb128 0xe
 2280 000b 55       		.uleb128 0x55
 2281 000c 06       		.uleb128 0x6
 2282 000d 11       		.uleb128 0x11
 2283 000e 01       		.uleb128 0x1
 2284 000f 52       		.uleb128 0x52
 2285 0010 01       		.uleb128 0x1
 2286 0011 10       		.uleb128 0x10
 2287 0012 06       		.uleb128 0x6
 2288 0013 00       		.byte	0
 2289 0014 00       		.byte	0
 2290 0015 02       		.uleb128 0x2
 2291 0016 24       		.uleb128 0x24
ARM GAS  /tmp/ccCtZxjj.s 			page 62


 2292 0017 00       		.byte	0
 2293 0018 0B       		.uleb128 0xb
 2294 0019 0B       		.uleb128 0xb
 2295 001a 3E       		.uleb128 0x3e
 2296 001b 0B       		.uleb128 0xb
 2297 001c 03       		.uleb128 0x3
 2298 001d 08       		.uleb128 0x8
 2299 001e 00       		.byte	0
 2300 001f 00       		.byte	0
 2301 0020 03       		.uleb128 0x3
 2302 0021 24       		.uleb128 0x24
 2303 0022 00       		.byte	0
 2304 0023 0B       		.uleb128 0xb
 2305 0024 0B       		.uleb128 0xb
 2306 0025 3E       		.uleb128 0x3e
 2307 0026 0B       		.uleb128 0xb
 2308 0027 03       		.uleb128 0x3
 2309 0028 0E       		.uleb128 0xe
 2310 0029 00       		.byte	0
 2311 002a 00       		.byte	0
 2312 002b 04       		.uleb128 0x4
 2313 002c 16       		.uleb128 0x16
 2314 002d 00       		.byte	0
 2315 002e 03       		.uleb128 0x3
 2316 002f 0E       		.uleb128 0xe
 2317 0030 3A       		.uleb128 0x3a
 2318 0031 0B       		.uleb128 0xb
 2319 0032 3B       		.uleb128 0x3b
 2320 0033 0B       		.uleb128 0xb
 2321 0034 49       		.uleb128 0x49
 2322 0035 13       		.uleb128 0x13
 2323 0036 00       		.byte	0
 2324 0037 00       		.byte	0
 2325 0038 05       		.uleb128 0x5
 2326 0039 13       		.uleb128 0x13
 2327 003a 01       		.byte	0x1
 2328 003b 03       		.uleb128 0x3
 2329 003c 0E       		.uleb128 0xe
 2330 003d 0B       		.uleb128 0xb
 2331 003e 0B       		.uleb128 0xb
 2332 003f 3A       		.uleb128 0x3a
 2333 0040 0B       		.uleb128 0xb
 2334 0041 3B       		.uleb128 0x3b
 2335 0042 0B       		.uleb128 0xb
 2336 0043 01       		.uleb128 0x1
 2337 0044 13       		.uleb128 0x13
 2338 0045 00       		.byte	0
 2339 0046 00       		.byte	0
 2340 0047 06       		.uleb128 0x6
 2341 0048 0D       		.uleb128 0xd
 2342 0049 00       		.byte	0
 2343 004a 03       		.uleb128 0x3
 2344 004b 0E       		.uleb128 0xe
 2345 004c 3A       		.uleb128 0x3a
 2346 004d 0B       		.uleb128 0xb
 2347 004e 3B       		.uleb128 0x3b
 2348 004f 0B       		.uleb128 0xb
ARM GAS  /tmp/ccCtZxjj.s 			page 63


 2349 0050 49       		.uleb128 0x49
 2350 0051 13       		.uleb128 0x13
 2351 0052 38       		.uleb128 0x38
 2352 0053 0A       		.uleb128 0xa
 2353 0054 00       		.byte	0
 2354 0055 00       		.byte	0
 2355 0056 07       		.uleb128 0x7
 2356 0057 0D       		.uleb128 0xd
 2357 0058 00       		.byte	0
 2358 0059 03       		.uleb128 0x3
 2359 005a 08       		.uleb128 0x8
 2360 005b 3A       		.uleb128 0x3a
 2361 005c 0B       		.uleb128 0xb
 2362 005d 3B       		.uleb128 0x3b
 2363 005e 05       		.uleb128 0x5
 2364 005f 49       		.uleb128 0x49
 2365 0060 13       		.uleb128 0x13
 2366 0061 38       		.uleb128 0x38
 2367 0062 0A       		.uleb128 0xa
 2368 0063 00       		.byte	0
 2369 0064 00       		.byte	0
 2370 0065 08       		.uleb128 0x8
 2371 0066 0D       		.uleb128 0xd
 2372 0067 00       		.byte	0
 2373 0068 03       		.uleb128 0x3
 2374 0069 0E       		.uleb128 0xe
 2375 006a 3A       		.uleb128 0x3a
 2376 006b 0B       		.uleb128 0xb
 2377 006c 3B       		.uleb128 0x3b
 2378 006d 05       		.uleb128 0x5
 2379 006e 49       		.uleb128 0x49
 2380 006f 13       		.uleb128 0x13
 2381 0070 38       		.uleb128 0x38
 2382 0071 0A       		.uleb128 0xa
 2383 0072 00       		.byte	0
 2384 0073 00       		.byte	0
 2385 0074 09       		.uleb128 0x9
 2386 0075 0F       		.uleb128 0xf
 2387 0076 00       		.byte	0
 2388 0077 0B       		.uleb128 0xb
 2389 0078 0B       		.uleb128 0xb
 2390 0079 49       		.uleb128 0x49
 2391 007a 13       		.uleb128 0x13
 2392 007b 00       		.byte	0
 2393 007c 00       		.byte	0
 2394 007d 0A       		.uleb128 0xa
 2395 007e 13       		.uleb128 0x13
 2396 007f 01       		.byte	0x1
 2397 0080 03       		.uleb128 0x3
 2398 0081 0E       		.uleb128 0xe
 2399 0082 0B       		.uleb128 0xb
 2400 0083 0B       		.uleb128 0xb
 2401 0084 3A       		.uleb128 0x3a
 2402 0085 0B       		.uleb128 0xb
 2403 0086 3B       		.uleb128 0x3b
 2404 0087 05       		.uleb128 0x5
 2405 0088 01       		.uleb128 0x1
ARM GAS  /tmp/ccCtZxjj.s 			page 64


 2406 0089 13       		.uleb128 0x13
 2407 008a 00       		.byte	0
 2408 008b 00       		.byte	0
 2409 008c 0B       		.uleb128 0xb
 2410 008d 15       		.uleb128 0x15
 2411 008e 01       		.byte	0x1
 2412 008f 27       		.uleb128 0x27
 2413 0090 0C       		.uleb128 0xc
 2414 0091 01       		.uleb128 0x1
 2415 0092 13       		.uleb128 0x13
 2416 0093 00       		.byte	0
 2417 0094 00       		.byte	0
 2418 0095 0C       		.uleb128 0xc
 2419 0096 05       		.uleb128 0x5
 2420 0097 00       		.byte	0
 2421 0098 49       		.uleb128 0x49
 2422 0099 13       		.uleb128 0x13
 2423 009a 00       		.byte	0
 2424 009b 00       		.byte	0
 2425 009c 0D       		.uleb128 0xd
 2426 009d 0F       		.uleb128 0xf
 2427 009e 00       		.byte	0
 2428 009f 0B       		.uleb128 0xb
 2429 00a0 0B       		.uleb128 0xb
 2430 00a1 00       		.byte	0
 2431 00a2 00       		.byte	0
 2432 00a3 0E       		.uleb128 0xe
 2433 00a4 13       		.uleb128 0x13
 2434 00a5 01       		.byte	0x1
 2435 00a6 03       		.uleb128 0x3
 2436 00a7 0E       		.uleb128 0xe
 2437 00a8 0B       		.uleb128 0xb
 2438 00a9 05       		.uleb128 0x5
 2439 00aa 3A       		.uleb128 0x3a
 2440 00ab 0B       		.uleb128 0xb
 2441 00ac 3B       		.uleb128 0x3b
 2442 00ad 05       		.uleb128 0x5
 2443 00ae 01       		.uleb128 0x1
 2444 00af 13       		.uleb128 0x13
 2445 00b0 00       		.byte	0
 2446 00b1 00       		.byte	0
 2447 00b2 0F       		.uleb128 0xf
 2448 00b3 35       		.uleb128 0x35
 2449 00b4 00       		.byte	0
 2450 00b5 49       		.uleb128 0x49
 2451 00b6 13       		.uleb128 0x13
 2452 00b7 00       		.byte	0
 2453 00b8 00       		.byte	0
 2454 00b9 10       		.uleb128 0x10
 2455 00ba 13       		.uleb128 0x13
 2456 00bb 01       		.byte	0x1
 2457 00bc 0B       		.uleb128 0xb
 2458 00bd 0B       		.uleb128 0xb
 2459 00be 3A       		.uleb128 0x3a
 2460 00bf 0B       		.uleb128 0xb
 2461 00c0 3B       		.uleb128 0x3b
 2462 00c1 05       		.uleb128 0x5
ARM GAS  /tmp/ccCtZxjj.s 			page 65


 2463 00c2 01       		.uleb128 0x1
 2464 00c3 13       		.uleb128 0x13
 2465 00c4 00       		.byte	0
 2466 00c5 00       		.byte	0
 2467 00c6 11       		.uleb128 0x11
 2468 00c7 16       		.uleb128 0x16
 2469 00c8 00       		.byte	0
 2470 00c9 03       		.uleb128 0x3
 2471 00ca 0E       		.uleb128 0xe
 2472 00cb 3A       		.uleb128 0x3a
 2473 00cc 0B       		.uleb128 0xb
 2474 00cd 3B       		.uleb128 0x3b
 2475 00ce 05       		.uleb128 0x5
 2476 00cf 49       		.uleb128 0x49
 2477 00d0 13       		.uleb128 0x13
 2478 00d1 00       		.byte	0
 2479 00d2 00       		.byte	0
 2480 00d3 12       		.uleb128 0x12
 2481 00d4 0D       		.uleb128 0xd
 2482 00d5 00       		.byte	0
 2483 00d6 03       		.uleb128 0x3
 2484 00d7 08       		.uleb128 0x8
 2485 00d8 3A       		.uleb128 0x3a
 2486 00d9 0B       		.uleb128 0xb
 2487 00da 3B       		.uleb128 0x3b
 2488 00db 0B       		.uleb128 0xb
 2489 00dc 49       		.uleb128 0x49
 2490 00dd 13       		.uleb128 0x13
 2491 00de 38       		.uleb128 0x38
 2492 00df 0A       		.uleb128 0xa
 2493 00e0 00       		.byte	0
 2494 00e1 00       		.byte	0
 2495 00e2 13       		.uleb128 0x13
 2496 00e3 13       		.uleb128 0x13
 2497 00e4 01       		.byte	0x1
 2498 00e5 0B       		.uleb128 0xb
 2499 00e6 0B       		.uleb128 0xb
 2500 00e7 3A       		.uleb128 0x3a
 2501 00e8 0B       		.uleb128 0xb
 2502 00e9 3B       		.uleb128 0x3b
 2503 00ea 0B       		.uleb128 0xb
 2504 00eb 01       		.uleb128 0x1
 2505 00ec 13       		.uleb128 0x13
 2506 00ed 00       		.byte	0
 2507 00ee 00       		.byte	0
 2508 00ef 14       		.uleb128 0x14
 2509 00f0 17       		.uleb128 0x17
 2510 00f1 01       		.byte	0x1
 2511 00f2 0B       		.uleb128 0xb
 2512 00f3 0B       		.uleb128 0xb
 2513 00f4 3A       		.uleb128 0x3a
 2514 00f5 0B       		.uleb128 0xb
 2515 00f6 3B       		.uleb128 0x3b
 2516 00f7 0B       		.uleb128 0xb
 2517 00f8 01       		.uleb128 0x1
 2518 00f9 13       		.uleb128 0x13
 2519 00fa 00       		.byte	0
ARM GAS  /tmp/ccCtZxjj.s 			page 66


 2520 00fb 00       		.byte	0
 2521 00fc 15       		.uleb128 0x15
 2522 00fd 0D       		.uleb128 0xd
 2523 00fe 00       		.byte	0
 2524 00ff 03       		.uleb128 0x3
 2525 0100 0E       		.uleb128 0xe
 2526 0101 3A       		.uleb128 0x3a
 2527 0102 0B       		.uleb128 0xb
 2528 0103 3B       		.uleb128 0x3b
 2529 0104 05       		.uleb128 0x5
 2530 0105 49       		.uleb128 0x49
 2531 0106 13       		.uleb128 0x13
 2532 0107 00       		.byte	0
 2533 0108 00       		.byte	0
 2534 0109 16       		.uleb128 0x16
 2535 010a 26       		.uleb128 0x26
 2536 010b 00       		.byte	0
 2537 010c 49       		.uleb128 0x49
 2538 010d 13       		.uleb128 0x13
 2539 010e 00       		.byte	0
 2540 010f 00       		.byte	0
 2541 0110 17       		.uleb128 0x17
 2542 0111 01       		.uleb128 0x1
 2543 0112 01       		.byte	0x1
 2544 0113 49       		.uleb128 0x49
 2545 0114 13       		.uleb128 0x13
 2546 0115 01       		.uleb128 0x1
 2547 0116 13       		.uleb128 0x13
 2548 0117 00       		.byte	0
 2549 0118 00       		.byte	0
 2550 0119 18       		.uleb128 0x18
 2551 011a 21       		.uleb128 0x21
 2552 011b 00       		.byte	0
 2553 011c 49       		.uleb128 0x49
 2554 011d 13       		.uleb128 0x13
 2555 011e 2F       		.uleb128 0x2f
 2556 011f 0B       		.uleb128 0xb
 2557 0120 00       		.byte	0
 2558 0121 00       		.byte	0
 2559 0122 19       		.uleb128 0x19
 2560 0123 0D       		.uleb128 0xd
 2561 0124 00       		.byte	0
 2562 0125 03       		.uleb128 0x3
 2563 0126 08       		.uleb128 0x8
 2564 0127 3A       		.uleb128 0x3a
 2565 0128 0B       		.uleb128 0xb
 2566 0129 3B       		.uleb128 0x3b
 2567 012a 0B       		.uleb128 0xb
 2568 012b 49       		.uleb128 0x49
 2569 012c 13       		.uleb128 0x13
 2570 012d 00       		.byte	0
 2571 012e 00       		.byte	0
 2572 012f 1A       		.uleb128 0x1a
 2573 0130 2E       		.uleb128 0x2e
 2574 0131 01       		.byte	0x1
 2575 0132 03       		.uleb128 0x3
 2576 0133 0E       		.uleb128 0xe
ARM GAS  /tmp/ccCtZxjj.s 			page 67


 2577 0134 3A       		.uleb128 0x3a
 2578 0135 0B       		.uleb128 0xb
 2579 0136 3B       		.uleb128 0x3b
 2580 0137 0B       		.uleb128 0xb
 2581 0138 27       		.uleb128 0x27
 2582 0139 0C       		.uleb128 0xc
 2583 013a 20       		.uleb128 0x20
 2584 013b 0B       		.uleb128 0xb
 2585 013c 01       		.uleb128 0x1
 2586 013d 13       		.uleb128 0x13
 2587 013e 00       		.byte	0
 2588 013f 00       		.byte	0
 2589 0140 1B       		.uleb128 0x1b
 2590 0141 05       		.uleb128 0x5
 2591 0142 00       		.byte	0
 2592 0143 03       		.uleb128 0x3
 2593 0144 0E       		.uleb128 0xe
 2594 0145 3A       		.uleb128 0x3a
 2595 0146 0B       		.uleb128 0xb
 2596 0147 3B       		.uleb128 0x3b
 2597 0148 0B       		.uleb128 0xb
 2598 0149 49       		.uleb128 0x49
 2599 014a 13       		.uleb128 0x13
 2600 014b 00       		.byte	0
 2601 014c 00       		.byte	0
 2602 014d 1C       		.uleb128 0x1c
 2603 014e 2E       		.uleb128 0x2e
 2604 014f 01       		.byte	0x1
 2605 0150 3F       		.uleb128 0x3f
 2606 0151 0C       		.uleb128 0xc
 2607 0152 03       		.uleb128 0x3
 2608 0153 0E       		.uleb128 0xe
 2609 0154 3A       		.uleb128 0x3a
 2610 0155 0B       		.uleb128 0xb
 2611 0156 3B       		.uleb128 0x3b
 2612 0157 0B       		.uleb128 0xb
 2613 0158 27       		.uleb128 0x27
 2614 0159 0C       		.uleb128 0xc
 2615 015a 11       		.uleb128 0x11
 2616 015b 01       		.uleb128 0x1
 2617 015c 12       		.uleb128 0x12
 2618 015d 01       		.uleb128 0x1
 2619 015e 40       		.uleb128 0x40
 2620 015f 0A       		.uleb128 0xa
 2621 0160 9742     		.uleb128 0x2117
 2622 0162 0C       		.uleb128 0xc
 2623 0163 01       		.uleb128 0x1
 2624 0164 13       		.uleb128 0x13
 2625 0165 00       		.byte	0
 2626 0166 00       		.byte	0
 2627 0167 1D       		.uleb128 0x1d
 2628 0168 05       		.uleb128 0x5
 2629 0169 00       		.byte	0
 2630 016a 03       		.uleb128 0x3
 2631 016b 0E       		.uleb128 0xe
 2632 016c 3A       		.uleb128 0x3a
 2633 016d 0B       		.uleb128 0xb
ARM GAS  /tmp/ccCtZxjj.s 			page 68


 2634 016e 3B       		.uleb128 0x3b
 2635 016f 0B       		.uleb128 0xb
 2636 0170 49       		.uleb128 0x49
 2637 0171 13       		.uleb128 0x13
 2638 0172 02       		.uleb128 0x2
 2639 0173 0A       		.uleb128 0xa
 2640 0174 00       		.byte	0
 2641 0175 00       		.byte	0
 2642 0176 1E       		.uleb128 0x1e
 2643 0177 1D       		.uleb128 0x1d
 2644 0178 01       		.byte	0x1
 2645 0179 31       		.uleb128 0x31
 2646 017a 13       		.uleb128 0x13
 2647 017b 52       		.uleb128 0x52
 2648 017c 01       		.uleb128 0x1
 2649 017d 55       		.uleb128 0x55
 2650 017e 06       		.uleb128 0x6
 2651 017f 58       		.uleb128 0x58
 2652 0180 0B       		.uleb128 0xb
 2653 0181 59       		.uleb128 0x59
 2654 0182 0B       		.uleb128 0xb
 2655 0183 01       		.uleb128 0x1
 2656 0184 13       		.uleb128 0x13
 2657 0185 00       		.byte	0
 2658 0186 00       		.byte	0
 2659 0187 1F       		.uleb128 0x1f
 2660 0188 05       		.uleb128 0x5
 2661 0189 00       		.byte	0
 2662 018a 31       		.uleb128 0x31
 2663 018b 13       		.uleb128 0x13
 2664 018c 02       		.uleb128 0x2
 2665 018d 0A       		.uleb128 0xa
 2666 018e 00       		.byte	0
 2667 018f 00       		.byte	0
 2668 0190 20       		.uleb128 0x20
 2669 0191 05       		.uleb128 0x5
 2670 0192 00       		.byte	0
 2671 0193 31       		.uleb128 0x31
 2672 0194 13       		.uleb128 0x13
 2673 0195 1C       		.uleb128 0x1c
 2674 0196 06       		.uleb128 0x6
 2675 0197 00       		.byte	0
 2676 0198 00       		.byte	0
 2677 0199 21       		.uleb128 0x21
 2678 019a 1D       		.uleb128 0x1d
 2679 019b 01       		.byte	0x1
 2680 019c 31       		.uleb128 0x31
 2681 019d 13       		.uleb128 0x13
 2682 019e 52       		.uleb128 0x52
 2683 019f 01       		.uleb128 0x1
 2684 01a0 55       		.uleb128 0x55
 2685 01a1 06       		.uleb128 0x6
 2686 01a2 58       		.uleb128 0x58
 2687 01a3 0B       		.uleb128 0xb
 2688 01a4 59       		.uleb128 0x59
 2689 01a5 0B       		.uleb128 0xb
 2690 01a6 00       		.byte	0
ARM GAS  /tmp/ccCtZxjj.s 			page 69


 2691 01a7 00       		.byte	0
 2692 01a8 22       		.uleb128 0x22
 2693 01a9 2E       		.uleb128 0x2e
 2694 01aa 01       		.byte	0x1
 2695 01ab 3F       		.uleb128 0x3f
 2696 01ac 0C       		.uleb128 0xc
 2697 01ad 03       		.uleb128 0x3
 2698 01ae 0E       		.uleb128 0xe
 2699 01af 3A       		.uleb128 0x3a
 2700 01b0 0B       		.uleb128 0xb
 2701 01b1 3B       		.uleb128 0x3b
 2702 01b2 0B       		.uleb128 0xb
 2703 01b3 27       		.uleb128 0x27
 2704 01b4 0C       		.uleb128 0xc
 2705 01b5 11       		.uleb128 0x11
 2706 01b6 01       		.uleb128 0x1
 2707 01b7 12       		.uleb128 0x12
 2708 01b8 01       		.uleb128 0x1
 2709 01b9 40       		.uleb128 0x40
 2710 01ba 06       		.uleb128 0x6
 2711 01bb 9742     		.uleb128 0x2117
 2712 01bd 0C       		.uleb128 0xc
 2713 01be 01       		.uleb128 0x1
 2714 01bf 13       		.uleb128 0x13
 2715 01c0 00       		.byte	0
 2716 01c1 00       		.byte	0
 2717 01c2 23       		.uleb128 0x23
 2718 01c3 05       		.uleb128 0x5
 2719 01c4 00       		.byte	0
 2720 01c5 03       		.uleb128 0x3
 2721 01c6 0E       		.uleb128 0xe
 2722 01c7 3A       		.uleb128 0x3a
 2723 01c8 0B       		.uleb128 0xb
 2724 01c9 3B       		.uleb128 0x3b
 2725 01ca 0B       		.uleb128 0xb
 2726 01cb 49       		.uleb128 0x49
 2727 01cc 13       		.uleb128 0x13
 2728 01cd 02       		.uleb128 0x2
 2729 01ce 06       		.uleb128 0x6
 2730 01cf 00       		.byte	0
 2731 01d0 00       		.byte	0
 2732 01d1 24       		.uleb128 0x24
 2733 01d2 34       		.uleb128 0x34
 2734 01d3 00       		.byte	0
 2735 01d4 03       		.uleb128 0x3
 2736 01d5 0E       		.uleb128 0xe
 2737 01d6 3A       		.uleb128 0x3a
 2738 01d7 0B       		.uleb128 0xb
 2739 01d8 3B       		.uleb128 0x3b
 2740 01d9 0B       		.uleb128 0xb
 2741 01da 49       		.uleb128 0x49
 2742 01db 13       		.uleb128 0x13
 2743 01dc 02       		.uleb128 0x2
 2744 01dd 06       		.uleb128 0x6
 2745 01de 00       		.byte	0
 2746 01df 00       		.byte	0
 2747 01e0 25       		.uleb128 0x25
ARM GAS  /tmp/ccCtZxjj.s 			page 70


 2748 01e1 34       		.uleb128 0x34
 2749 01e2 00       		.byte	0
 2750 01e3 03       		.uleb128 0x3
 2751 01e4 0E       		.uleb128 0xe
 2752 01e5 3A       		.uleb128 0x3a
 2753 01e6 0B       		.uleb128 0xb
 2754 01e7 3B       		.uleb128 0x3b
 2755 01e8 0B       		.uleb128 0xb
 2756 01e9 49       		.uleb128 0x49
 2757 01ea 13       		.uleb128 0x13
 2758 01eb 02       		.uleb128 0x2
 2759 01ec 0A       		.uleb128 0xa
 2760 01ed 00       		.byte	0
 2761 01ee 00       		.byte	0
 2762 01ef 26       		.uleb128 0x26
 2763 01f0 34       		.uleb128 0x34
 2764 01f1 00       		.byte	0
 2765 01f2 03       		.uleb128 0x3
 2766 01f3 08       		.uleb128 0x8
 2767 01f4 3A       		.uleb128 0x3a
 2768 01f5 0B       		.uleb128 0xb
 2769 01f6 3B       		.uleb128 0x3b
 2770 01f7 0B       		.uleb128 0xb
 2771 01f8 49       		.uleb128 0x49
 2772 01f9 13       		.uleb128 0x13
 2773 01fa 02       		.uleb128 0x2
 2774 01fb 06       		.uleb128 0x6
 2775 01fc 00       		.byte	0
 2776 01fd 00       		.byte	0
 2777 01fe 27       		.uleb128 0x27
 2778 01ff 0B       		.uleb128 0xb
 2779 0200 01       		.byte	0x1
 2780 0201 55       		.uleb128 0x55
 2781 0202 06       		.uleb128 0x6
 2782 0203 00       		.byte	0
 2783 0204 00       		.byte	0
 2784 0205 28       		.uleb128 0x28
 2785 0206 34       		.uleb128 0x34
 2786 0207 00       		.byte	0
 2787 0208 03       		.uleb128 0x3
 2788 0209 0E       		.uleb128 0xe
 2789 020a 3A       		.uleb128 0x3a
 2790 020b 0B       		.uleb128 0xb
 2791 020c 3B       		.uleb128 0x3b
 2792 020d 05       		.uleb128 0x5
 2793 020e 49       		.uleb128 0x49
 2794 020f 13       		.uleb128 0x13
 2795 0210 3F       		.uleb128 0x3f
 2796 0211 0C       		.uleb128 0xc
 2797 0212 3C       		.uleb128 0x3c
 2798 0213 0C       		.uleb128 0xc
 2799 0214 00       		.byte	0
 2800 0215 00       		.byte	0
 2801 0216 29       		.uleb128 0x29
 2802 0217 34       		.uleb128 0x34
 2803 0218 00       		.byte	0
 2804 0219 03       		.uleb128 0x3
ARM GAS  /tmp/ccCtZxjj.s 			page 71


 2805 021a 08       		.uleb128 0x8
 2806 021b 3A       		.uleb128 0x3a
 2807 021c 0B       		.uleb128 0xb
 2808 021d 3B       		.uleb128 0x3b
 2809 021e 05       		.uleb128 0x5
 2810 021f 49       		.uleb128 0x49
 2811 0220 13       		.uleb128 0x13
 2812 0221 3F       		.uleb128 0x3f
 2813 0222 0C       		.uleb128 0xc
 2814 0223 3C       		.uleb128 0x3c
 2815 0224 0C       		.uleb128 0xc
 2816 0225 00       		.byte	0
 2817 0226 00       		.byte	0
 2818 0227 00       		.byte	0
 2819              		.section	.debug_loc,"",%progbits
 2820              	.Ldebug_loc0:
 2821              	.LLST0:
 2822 0000 00000000 		.4byte	.LFB274
 2823 0004 04000000 		.4byte	.LCFI0
 2824 0008 0200     		.2byte	0x2
 2825 000a 7D       		.byte	0x7d
 2826 000b 00       		.sleb128 0
 2827 000c 04000000 		.4byte	.LCFI0
 2828 0010 F0000000 		.4byte	.LFE274
 2829 0014 0200     		.2byte	0x2
 2830 0016 7D       		.byte	0x7d
 2831 0017 20       		.sleb128 32
 2832 0018 00000000 		.4byte	0
 2833 001c 00000000 		.4byte	0
 2834              	.LLST1:
 2835 0020 00000000 		.4byte	.LVL6
 2836 0024 48000000 		.4byte	.LVL15
 2837 0028 0100     		.2byte	0x1
 2838 002a 51       		.byte	0x51
 2839 002b 48000000 		.4byte	.LVL15
 2840 002f 4A000000 		.4byte	.LVL16
 2841 0033 0500     		.2byte	0x5
 2842 0035 71       		.byte	0x71
 2843 0036 00       		.sleb128 0
 2844 0037 31       		.byte	0x31
 2845 0038 25       		.byte	0x25
 2846 0039 9F       		.byte	0x9f
 2847 003a 4A000000 		.4byte	.LVL16
 2848 003e 4C000000 		.4byte	.LVL17
 2849 0042 0100     		.2byte	0x1
 2850 0044 51       		.byte	0x51
 2851 0045 56000000 		.4byte	.LVL22
 2852 0049 E6000000 		.4byte	.LVL28
 2853 004d 0100     		.2byte	0x1
 2854 004f 51       		.byte	0x51
 2855 0050 00000000 		.4byte	0
 2856 0054 00000000 		.4byte	0
 2857              	.LLST2:
 2858 0058 00000000 		.4byte	.LVL6
 2859 005c 1E000000 		.4byte	.LVL12
 2860 0060 0100     		.2byte	0x1
 2861 0062 52       		.byte	0x52
ARM GAS  /tmp/ccCtZxjj.s 			page 72


 2862 0063 1E000000 		.4byte	.LVL12
 2863 0067 F0000000 		.4byte	.LFE274
 2864 006b 0400     		.2byte	0x4
 2865 006d F3       		.byte	0xf3
 2866 006e 01       		.uleb128 0x1
 2867 006f 52       		.byte	0x52
 2868 0070 9F       		.byte	0x9f
 2869 0071 00000000 		.4byte	0
 2870 0075 00000000 		.4byte	0
 2871              	.LLST3:
 2872 0079 08000000 		.4byte	.LVL7
 2873 007d 1E000000 		.4byte	.LVL12
 2874 0081 0100     		.2byte	0x1
 2875 0083 5A       		.byte	0x5a
 2876 0084 1E000000 		.4byte	.LVL12
 2877 0088 F0000000 		.4byte	.LFE274
 2878 008c 0100     		.2byte	0x1
 2879 008e 54       		.byte	0x54
 2880 008f 00000000 		.4byte	0
 2881 0093 00000000 		.4byte	0
 2882              	.LLST4:
 2883 0097 18000000 		.4byte	.LVL11
 2884 009b 1E000000 		.4byte	.LVL12
 2885 009f 0200     		.2byte	0x2
 2886 00a1 30       		.byte	0x30
 2887 00a2 9F       		.byte	0x9f
 2888 00a3 1E000000 		.4byte	.LVL12
 2889 00a7 F0000000 		.4byte	.LFE274
 2890 00ab 0100     		.2byte	0x1
 2891 00ad 53       		.byte	0x53
 2892 00ae 00000000 		.4byte	0
 2893 00b2 00000000 		.4byte	0
 2894              	.LLST5:
 2895 00b6 1E000000 		.4byte	.LVL12
 2896 00ba 48000000 		.4byte	.LVL15
 2897 00be 0100     		.2byte	0x1
 2898 00c0 58       		.byte	0x58
 2899 00c1 AE000000 		.4byte	.LVL23
 2900 00c5 CE000000 		.4byte	.LVL26
 2901 00c9 0100     		.2byte	0x1
 2902 00cb 58       		.byte	0x58
 2903 00cc CE000000 		.4byte	.LVL26
 2904 00d0 EA000000 		.4byte	.LVL29
 2905 00d4 0A00     		.2byte	0xa
 2906 00d6 7B       		.byte	0x7b
 2907 00d7 00       		.sleb128 0
 2908 00d8 73       		.byte	0x73
 2909 00d9 00       		.sleb128 0
 2910 00da 37       		.byte	0x37
 2911 00db 1A       		.byte	0x1a
 2912 00dc 32       		.byte	0x32
 2913 00dd 24       		.byte	0x24
 2914 00de 24       		.byte	0x24
 2915 00df 9F       		.byte	0x9f
 2916 00e0 00000000 		.4byte	0
 2917 00e4 00000000 		.4byte	0
 2918              	.LLST6:
ARM GAS  /tmp/ccCtZxjj.s 			page 73


 2919 00e8 1E000000 		.4byte	.LVL12
 2920 00ec 48000000 		.4byte	.LVL15
 2921 00f0 0500     		.2byte	0x5
 2922 00f2 31       		.byte	0x31
 2923 00f3 73       		.byte	0x73
 2924 00f4 00       		.sleb128 0
 2925 00f5 24       		.byte	0x24
 2926 00f6 9F       		.byte	0x9f
 2927 00f7 AE000000 		.4byte	.LVL23
 2928 00fb EA000000 		.4byte	.LVL29
 2929 00ff 0500     		.2byte	0x5
 2930 0101 31       		.byte	0x31
 2931 0102 73       		.byte	0x73
 2932 0103 00       		.sleb128 0
 2933 0104 24       		.byte	0x24
 2934 0105 9F       		.byte	0x9f
 2935 0106 00000000 		.4byte	0
 2936 010a 00000000 		.4byte	0
 2937              	.LLST7:
 2938 010e 1E000000 		.4byte	.LVL12
 2939 0112 26000000 		.4byte	.LVL13
 2940 0116 0400     		.2byte	0x4
 2941 0118 72       		.byte	0x72
 2942 0119 00       		.sleb128 0
 2943 011a 20       		.byte	0x20
 2944 011b 9F       		.byte	0x9f
 2945 011c 26000000 		.4byte	.LVL13
 2946 0120 48000000 		.4byte	.LVL15
 2947 0124 0700     		.2byte	0x7
 2948 0126 33       		.byte	0x33
 2949 0127 73       		.byte	0x73
 2950 0128 00       		.sleb128 0
 2951 0129 31       		.byte	0x31
 2952 012a 24       		.byte	0x24
 2953 012b 24       		.byte	0x24
 2954 012c 9F       		.byte	0x9f
 2955 012d AE000000 		.4byte	.LVL23
 2956 0131 E2000000 		.4byte	.LVL27
 2957 0135 0400     		.2byte	0x4
 2958 0137 72       		.byte	0x72
 2959 0138 00       		.sleb128 0
 2960 0139 20       		.byte	0x20
 2961 013a 9F       		.byte	0x9f
 2962 013b E2000000 		.4byte	.LVL27
 2963 013f EA000000 		.4byte	.LVL29
 2964 0143 0700     		.2byte	0x7
 2965 0145 33       		.byte	0x33
 2966 0146 73       		.byte	0x73
 2967 0147 00       		.sleb128 0
 2968 0148 31       		.byte	0x31
 2969 0149 24       		.byte	0x24
 2970 014a 24       		.byte	0x24
 2971 014b 9F       		.byte	0x9f
 2972 014c 00000000 		.4byte	0
 2973 0150 00000000 		.4byte	0
 2974              	.LLST8:
 2975 0154 1E000000 		.4byte	.LVL12
ARM GAS  /tmp/ccCtZxjj.s 			page 74


 2976 0158 36000000 		.4byte	.LVL14
 2977 015c 0100     		.2byte	0x1
 2978 015e 5C       		.byte	0x5c
 2979 015f 36000000 		.4byte	.LVL14
 2980 0163 48000000 		.4byte	.LVL15
 2981 0167 0900     		.2byte	0x9
 2982 0169 3F       		.byte	0x3f
 2983 016a 73       		.byte	0x73
 2984 016b 00       		.sleb128 0
 2985 016c 37       		.byte	0x37
 2986 016d 1A       		.byte	0x1a
 2987 016e 32       		.byte	0x32
 2988 016f 24       		.byte	0x24
 2989 0170 24       		.byte	0x24
 2990 0171 9F       		.byte	0x9f
 2991 0172 B2000000 		.4byte	.LVL24
 2992 0176 C4000000 		.4byte	.LVL25
 2993 017a 0100     		.2byte	0x1
 2994 017c 5C       		.byte	0x5c
 2995 017d C4000000 		.4byte	.LVL25
 2996 0181 EA000000 		.4byte	.LVL29
 2997 0185 0900     		.2byte	0x9
 2998 0187 3F       		.byte	0x3f
 2999 0188 73       		.byte	0x73
 3000 0189 00       		.sleb128 0
 3001 018a 37       		.byte	0x37
 3002 018b 1A       		.byte	0x1a
 3003 018c 32       		.byte	0x32
 3004 018d 24       		.byte	0x24
 3005 018e 24       		.byte	0x24
 3006 018f 9F       		.byte	0x9f
 3007 0190 00000000 		.4byte	0
 3008 0194 00000000 		.4byte	0
 3009              		.section	.debug_aranges,"",%progbits
 3010 0000 24000000 		.4byte	0x24
 3011 0004 0200     		.2byte	0x2
 3012 0006 00000000 		.4byte	.Ldebug_info0
 3013 000a 04       		.byte	0x4
 3014 000b 00       		.byte	0
 3015 000c 0000     		.2byte	0
 3016 000e 0000     		.2byte	0
 3017 0010 00000000 		.4byte	.LFB273
 3018 0014 C8000000 		.4byte	.LFE273-.LFB273
 3019 0018 00000000 		.4byte	.LFB274
 3020 001c F0000000 		.4byte	.LFE274-.LFB274
 3021 0020 00000000 		.4byte	0
 3022 0024 00000000 		.4byte	0
 3023              		.section	.debug_ranges,"",%progbits
 3024              	.Ldebug_ranges0:
 3025 0000 10000000 		.4byte	.LBB12
 3026 0004 16000000 		.4byte	.LBE12
 3027 0008 1A000000 		.4byte	.LBB19
 3028 000c 34000000 		.4byte	.LBE19
 3029 0010 00000000 		.4byte	0
 3030 0014 00000000 		.4byte	0
 3031 0018 16000000 		.4byte	.LBB15
 3032 001c 1A000000 		.4byte	.LBE15
ARM GAS  /tmp/ccCtZxjj.s 			page 75


 3033 0020 34000000 		.4byte	.LBB20
 3034 0024 3A000000 		.4byte	.LBE20
 3035 0028 3E000000 		.4byte	.LBB25
 3036 002c 58000000 		.4byte	.LBE25
 3037 0030 00000000 		.4byte	0
 3038 0034 00000000 		.4byte	0
 3039 0038 3A000000 		.4byte	.LBB21
 3040 003c 3E000000 		.4byte	.LBE21
 3041 0040 58000000 		.4byte	.LBB26
 3042 0044 76000000 		.4byte	.LBE26
 3043 0048 7A000000 		.4byte	.LBB31
 3044 004c 7C000000 		.4byte	.LBE31
 3045 0050 00000000 		.4byte	0
 3046 0054 00000000 		.4byte	0
 3047 0058 76000000 		.4byte	.LBB27
 3048 005c 7A000000 		.4byte	.LBE27
 3049 0060 7C000000 		.4byte	.LBB32
 3050 0064 82000000 		.4byte	.LBE32
 3051 0068 86000000 		.4byte	.LBB36
 3052 006c A0000000 		.4byte	.LBE36
 3053 0070 00000000 		.4byte	0
 3054 0074 00000000 		.4byte	0
 3055 0078 82000000 		.4byte	.LBB33
 3056 007c 86000000 		.4byte	.LBE33
 3057 0080 A0000000 		.4byte	.LBB37
 3058 0084 C8000000 		.4byte	.LBE37
 3059 0088 00000000 		.4byte	0
 3060 008c 00000000 		.4byte	0
 3061 0090 1E000000 		.4byte	.LBB38
 3062 0094 48000000 		.4byte	.LBE38
 3063 0098 5A000000 		.4byte	.LBB39
 3064 009c E4000000 		.4byte	.LBE39
 3065 00a0 E6000000 		.4byte	.LBB40
 3066 00a4 E8000000 		.4byte	.LBE40
 3067 00a8 00000000 		.4byte	0
 3068 00ac 00000000 		.4byte	0
 3069 00b0 00000000 		.4byte	.LFB273
 3070 00b4 C8000000 		.4byte	.LFE273
 3071 00b8 00000000 		.4byte	.LFB274
 3072 00bc F0000000 		.4byte	.LFE274
 3073 00c0 00000000 		.4byte	0
 3074 00c4 00000000 		.4byte	0
 3075              		.section	.debug_line,"",%progbits
 3076              	.Ldebug_line0:
 3077 0000 7A020000 		.section	.debug_str,"MS",%progbits,1
 3077      0200D201 
 3077      00000201 
 3077      FB0E0D00 
 3077      01010101 
 3078              	.LASF126:
 3079 0000 73746D33 		.ascii	"stm32_gpio_setup_t\000"
 3079      325F6770 
 3079      696F5F73 
 3079      65747570 
 3079      5F7400
 3080              	.LASF47:
 3081 0013 72656164 		.ascii	"ready_list_t\000"
ARM GAS  /tmp/ccCtZxjj.s 			page 76


 3081      795F6C69 
 3081      73745F74 
 3081      00
 3082              	.LASF96:
 3083 0020 77747472 		.ascii	"wttrp\000"
 3083      7000
 3084              	.LASF93:
 3085 0026 7264796D 		.ascii	"rdymsg\000"
 3085      736700
 3086              	.LASF12:
 3087 002d 75696E74 		.ascii	"uint64_t\000"
 3087      36345F74 
 3087      00
 3088              	.LASF112:
 3089 0036 4F545950 		.ascii	"OTYPER\000"
 3089      455200
 3090              	.LASF90:
 3091 003d 706F7274 		.ascii	"port_intctx\000"
 3091      5F696E74 
 3091      63747800 
 3092              	.LASF66:
 3093 0049 73797374 		.ascii	"system_debug_t\000"
 3093      656D5F64 
 3093      65627567 
 3093      5F7400
 3094              	.LASF133:
 3095 0058 696F706F 		.ascii	"ioportmask_t\000"
 3095      72746D61 
 3095      736B5F74 
 3095      00
 3096              	.LASF111:
 3097 0065 4D4F4445 		.ascii	"MODER\000"
 3097      5200
 3098              	.LASF13:
 3099 006b 6C6F6E67 		.ascii	"long long unsigned int\000"
 3099      206C6F6E 
 3099      6720756E 
 3099      7369676E 
 3099      65642069 
 3100              	.LASF114:
 3101 0082 50555044 		.ascii	"PUPDR\000"
 3101      5200
 3102              	.LASF94:
 3103 0088 65786974 		.ascii	"exitcode\000"
 3103      636F6465 
 3103      00
 3104              	.LASF73:
 3105 0091 6D61696E 		.ascii	"mainthread\000"
 3105      74687265 
 3105      616400
 3106              	.LASF63:
 3107 009c 76697274 		.ascii	"virtual_timers_list_t\000"
 3107      75616C5F 
 3107      74696D65 
 3107      72735F6C 
 3107      6973745F 
 3108              	.LASF145:
ARM GAS  /tmp/ccCtZxjj.s 			page 77


 3109 00b2 49544D5F 		.ascii	"ITM_RxBuffer\000"
 3109      52784275 
 3109      66666572 
 3109      00
 3110              	.LASF46:
 3111 00bf 63685F74 		.ascii	"ch_threads_queue\000"
 3111      68726561 
 3111      64735F71 
 3111      75657565 
 3111      00
 3112              	.LASF26:
 3113 00d0 705F7072 		.ascii	"p_prio\000"
 3113      696F00
 3114              	.LASF11:
 3115 00d7 6C6F6E67 		.ascii	"long long int\000"
 3115      206C6F6E 
 3115      6720696E 
 3115      7400
 3116              	.LASF1:
 3117 00e5 7369676E 		.ascii	"signed char\000"
 3117      65642063 
 3117      68617200 
 3118              	.LASF115:
 3119 00f1 42535252 		.ascii	"BSRR\000"
 3119      00
 3120              	.LASF40:
 3121 00f6 705F6D70 		.ascii	"p_mpool\000"
 3121      6F6F6C00 
 3122              	.LASF104:
 3123 00fe 6D5F7175 		.ascii	"m_queue\000"
 3123      65756500 
 3124              	.LASF120:
 3125 0106 6D6F6465 		.ascii	"moder\000"
 3125      7200
 3126              	.LASF86:
 3127 010c 5243435F 		.ascii	"RCC_TypeDef\000"
 3127      54797065 
 3127      44656600 
 3128              	.LASF70:
 3129 0118 63685F73 		.ascii	"ch_system\000"
 3129      79737465 
 3129      6D00
 3130              	.LASF8:
 3131 0122 6C6F6E67 		.ascii	"long int\000"
 3131      20696E74 
 3131      00
 3132              	.LASF77:
 3133 012b 41504232 		.ascii	"APB2RSTR\000"
 3133      52535452 
 3133      00
 3134              	.LASF16:
 3135 0134 74737461 		.ascii	"tstate_t\000"
 3135      74655F74 
 3135      00
 3136              	.LASF148:
 3137 013d 2F686F6D 		.ascii	"/home/sylvain/Documents/TelecomRobotics/ChibiOS_16."
 3137      652F7379 
ARM GAS  /tmp/ccCtZxjj.s 			page 78


 3137      6C766169 
 3137      6E2F446F 
 3137      63756D65 
 3138 0170 312E372F 		.ascii	"1.7/demos/STM32/RT-STM32F302R8-NUCLEO\000"
 3138      64656D6F 
 3138      732F5354 
 3138      4D33322F 
 3138      52542D53 
 3139              	.LASF5:
 3140 0196 75696E74 		.ascii	"uint16_t\000"
 3140      31365F74 
 3140      00
 3141              	.LASF144:
 3142 019f 616C7472 		.ascii	"altrmask\000"
 3142      6D61736B 
 3142      00
 3143              	.LASF28:
 3144 01a8 705F6E65 		.ascii	"p_newer\000"
 3144      77657200 
 3145              	.LASF101:
 3146 01b0 735F7175 		.ascii	"s_queue\000"
 3146      65756500 
 3147              	.LASF113:
 3148 01b8 4F535045 		.ascii	"OSPEEDR\000"
 3148      45445200 
 3149              	.LASF52:
 3150 01c0 725F6E65 		.ascii	"r_newer\000"
 3150      77657200 
 3151              	.LASF141:
 3152 01c8 6D61736B 		.ascii	"mask\000"
 3152      00
 3153              	.LASF87:
 3154 01cd 72656761 		.ascii	"regarm_t\000"
 3154      726D5F74 
 3154      00
 3155              	.LASF59:
 3156 01d6 76745F70 		.ascii	"vt_prev\000"
 3156      72657600 
 3157              	.LASF72:
 3158 01de 76746C69 		.ascii	"vtlist\000"
 3158      737400
 3159              	.LASF119:
 3160 01e5 73746D33 		.ascii	"stm32_gpio_t\000"
 3160      325F6770 
 3160      696F5F74 
 3160      00
 3161              	.LASF140:
 3162 01f2 706F7274 		.ascii	"port\000"
 3162      00
 3163              	.LASF108:
 3164 01f7 6D757465 		.ascii	"mutex_t\000"
 3164      785F7400 
 3165              	.LASF128:
 3166 01ff 50424461 		.ascii	"PBData\000"
 3166      746100
 3167              	.LASF74:
 3168 0206 69646C65 		.ascii	"idle_thread_wa\000"
ARM GAS  /tmp/ccCtZxjj.s 			page 79


 3168      5F746872 
 3168      6561645F 
 3168      776100
 3169              	.LASF21:
 3170 0215 636E745F 		.ascii	"cnt_t\000"
 3170      7400
 3171              	.LASF0:
 3172 021b 756E7369 		.ascii	"unsigned int\000"
 3172      676E6564 
 3172      20696E74 
 3172      00
 3173              	.LASF58:
 3174 0228 76745F6E 		.ascii	"vt_next\000"
 3174      65787400 
 3175              	.LASF97:
 3176 0230 77747365 		.ascii	"wtsemp\000"
 3176      6D7000
 3177              	.LASF35:
 3178 0237 705F6D73 		.ascii	"p_msgqueue\000"
 3178      67717565 
 3178      756500
 3179              	.LASF122:
 3180 0242 6F737065 		.ascii	"ospeedr\000"
 3180      65647200 
 3181              	.LASF116:
 3182 024a 4C434B52 		.ascii	"LCKR\000"
 3182      00
 3183              	.LASF121:
 3184 024f 6F747970 		.ascii	"otyper\000"
 3184      657200
 3185              	.LASF6:
 3186 0256 73686F72 		.ascii	"short unsigned int\000"
 3186      7420756E 
 3186      7369676E 
 3186      65642069 
 3186      6E7400
 3187              	.LASF131:
 3188 0269 50464461 		.ascii	"PFData\000"
 3188      746100
 3189              	.LASF43:
 3190 0270 63685F74 		.ascii	"ch_thread\000"
 3190      68726561 
 3190      6400
 3191              	.LASF19:
 3192 027a 6D73675F 		.ascii	"msg_t\000"
 3192      7400
 3193              	.LASF69:
 3194 0280 63685F73 		.ascii	"ch_system_t\000"
 3194      79737465 
 3194      6D5F7400 
 3195              	.LASF15:
 3196 028c 746D6F64 		.ascii	"tmode_t\000"
 3196      655F7400 
 3197              	.LASF48:
 3198 0294 63685F72 		.ascii	"ch_ready_list\000"
 3198      65616479 
 3198      5F6C6973 
ARM GAS  /tmp/ccCtZxjj.s 			page 80


 3198      7400
 3199              	.LASF20:
 3200 02a2 6576656E 		.ascii	"eventmask_t\000"
 3200      746D6173 
 3200      6B5F7400 
 3201              	.LASF88:
 3202 02ae 73746B61 		.ascii	"stkalign_t\000"
 3202      6C69676E 
 3202      5F7400
 3203              	.LASF42:
 3204 02b9 74687265 		.ascii	"threads_list_t\000"
 3204      6164735F 
 3204      6C697374 
 3204      5F7400
 3205              	.LASF34:
 3206 02c8 705F7761 		.ascii	"p_waiting\000"
 3206      6974696E 
 3206      6700
 3207              	.LASF75:
 3208 02d2 73697A65 		.ascii	"sizetype\000"
 3208      74797065 
 3208      00
 3209              	.LASF41:
 3210 02db 74687265 		.ascii	"thread_reference_t\000"
 3210      61645F72 
 3210      65666572 
 3210      656E6365 
 3210      5F7400
 3211              	.LASF64:
 3212 02ee 63685F76 		.ascii	"ch_virtual_timers_list\000"
 3212      69727475 
 3212      616C5F74 
 3212      696D6572 
 3212      735F6C69 
 3213              	.LASF110:
 3214 0305 636C6561 		.ascii	"clear\000"
 3214      7200
 3215              	.LASF24:
 3216 030b 705F6E65 		.ascii	"p_next\000"
 3216      787400
 3217              	.LASF130:
 3218 0312 50444461 		.ascii	"PDData\000"
 3218      746100
 3219              	.LASF65:
 3220 0319 76745F6C 		.ascii	"vt_lasttime\000"
 3220      61737474 
 3220      696D6500 
 3221              	.LASF29:
 3222 0325 705F6F6C 		.ascii	"p_older\000"
 3222      64657200 
 3223              	.LASF51:
 3224 032d 725F6374 		.ascii	"r_ctx\000"
 3224      7800
 3225              	.LASF92:
 3226 0333 746D5F63 		.ascii	"tm_calibration_t\000"
 3226      616C6962 
 3226      72617469 
ARM GAS  /tmp/ccCtZxjj.s 			page 81


 3226      6F6E5F74 
 3226      00
 3227              	.LASF125:
 3228 0344 61667268 		.ascii	"afrh\000"
 3228      00
 3229              	.LASF83:
 3230 0349 41484252 		.ascii	"AHBRSTR\000"
 3230      53545200 
 3231              	.LASF146:
 3232 0351 474E5520 		.ascii	"GNU C 4.7.2\000"
 3232      4320342E 
 3232      372E3200 
 3233              	.LASF54:
 3234 035d 725F6375 		.ascii	"r_current\000"
 3234      7272656E 
 3234      7400
 3235              	.LASF78:
 3236 0367 41504231 		.ascii	"APB1RSTR\000"
 3236      52535452 
 3236      00
 3237              	.LASF118:
 3238 0370 41465248 		.ascii	"AFRH\000"
 3238      00
 3239              	.LASF117:
 3240 0375 4146524C 		.ascii	"AFRL\000"
 3240      00
 3241              	.LASF17:
 3242 037a 74726566 		.ascii	"trefs_t\000"
 3242      735F7400 
 3243              	.LASF56:
 3244 0382 76697274 		.ascii	"virtual_timer_t\000"
 3244      75616C5F 
 3244      74696D65 
 3244      725F7400 
 3245              	.LASF25:
 3246 0392 705F7072 		.ascii	"p_prev\000"
 3246      657600
 3247              	.LASF18:
 3248 0399 74707269 		.ascii	"tprio_t\000"
 3248      6F5F7400 
 3249              	.LASF67:
 3250 03a1 63685F73 		.ascii	"ch_system_debug\000"
 3250      79737465 
 3250      6D5F6465 
 3250      62756700 
 3251              	.LASF109:
 3252 03b1 5F426F6F 		.ascii	"_Bool\000"
 3252      6C00
 3253              	.LASF7:
 3254 03b7 696E7433 		.ascii	"int32_t\000"
 3254      325F7400 
 3255              	.LASF2:
 3256 03bf 756E7369 		.ascii	"unsigned char\000"
 3256      676E6564 
 3256      20636861 
 3256      7200
 3257              	.LASF124:
ARM GAS  /tmp/ccCtZxjj.s 			page 82


 3258 03cd 6166726C 		.ascii	"afrl\000"
 3258      00
 3259              	.LASF102:
 3260 03d2 735F636E 		.ascii	"s_cnt\000"
 3260      7400
 3261              	.LASF38:
 3262 03d8 705F6D74 		.ascii	"p_mtxlist\000"
 3262      786C6973 
 3262      7400
 3263              	.LASF3:
 3264 03e2 73686F72 		.ascii	"short int\000"
 3264      7420696E 
 3264      7400
 3265              	.LASF31:
 3266 03ec 705F7374 		.ascii	"p_state\000"
 3266      61746500 
 3267              	.LASF50:
 3268 03f4 725F7072 		.ascii	"r_prio\000"
 3268      696F00
 3269              	.LASF127:
 3270 03fb 50414461 		.ascii	"PAData\000"
 3270      746100
 3271              	.LASF99:
 3272 0402 65776D61 		.ascii	"ewmask\000"
 3272      736B00
 3273              	.LASF32:
 3274 0409 705F666C 		.ascii	"p_flags\000"
 3274      61677300 
 3275              	.LASF136:
 3276 0411 6770696F 		.ascii	"gpiop\000"
 3276      7000
 3277              	.LASF80:
 3278 0417 41504232 		.ascii	"APB2ENR\000"
 3278      454E5200 
 3279              	.LASF57:
 3280 041f 63685F76 		.ascii	"ch_virtual_timer\000"
 3280      69727475 
 3280      616C5F74 
 3280      696D6572 
 3280      00
 3281              	.LASF100:
 3282 0430 63685F73 		.ascii	"ch_semaphore\000"
 3282      656D6170 
 3282      686F7265 
 3282      00
 3283              	.LASF37:
 3284 043d 705F6570 		.ascii	"p_epending\000"
 3284      656E6469 
 3284      6E6700
 3285              	.LASF9:
 3286 0448 75696E74 		.ascii	"uint32_t\000"
 3286      33325F74 
 3286      00
 3287              	.LASF98:
 3288 0451 77746D74 		.ascii	"wtmtxp\000"
 3288      787000
 3289              	.LASF49:
ARM GAS  /tmp/ccCtZxjj.s 			page 83


 3290 0458 725F7175 		.ascii	"r_queue\000"
 3290      65756500 
 3291              	.LASF60:
 3292 0460 76745F64 		.ascii	"vt_delta\000"
 3292      656C7461 
 3292      00
 3293              	.LASF44:
 3294 0469 63685F74 		.ascii	"ch_threads_list\000"
 3294      68726561 
 3294      64735F6C 
 3294      69737400 
 3295              	.LASF10:
 3296 0479 6C6F6E67 		.ascii	"long unsigned int\000"
 3296      20756E73 
 3296      69676E65 
 3296      6420696E 
 3296      7400
 3297              	.LASF143:
 3298 048b 616C7472 		.ascii	"altr\000"
 3298      00
 3299              	.LASF107:
 3300 0490 63686172 		.ascii	"char\000"
 3300      00
 3301              	.LASF142:
 3302 0495 6D6F6465 		.ascii	"mode\000"
 3302      00
 3303              	.LASF137:
 3304 049a 636F6E66 		.ascii	"config\000"
 3304      696700
 3305              	.LASF23:
 3306 04a1 74687265 		.ascii	"thread_t\000"
 3306      61645F74 
 3306      00
 3307              	.LASF106:
 3308 04aa 6D5F6E65 		.ascii	"m_next\000"
 3308      787400
 3309              	.LASF22:
 3310 04b1 73797374 		.ascii	"systime_t\000"
 3310      696D655F 
 3310      7400
 3311              	.LASF39:
 3312 04bb 705F7265 		.ascii	"p_realprio\000"
 3312      616C7072 
 3312      696F00
 3313              	.LASF55:
 3314 04c6 76746675 		.ascii	"vtfunc_t\000"
 3314      6E635F74 
 3314      00
 3315              	.LASF149:
 3316 04cf 696E6974 		.ascii	"initgpio\000"
 3316      6770696F 
 3316      00
 3317              	.LASF68:
 3318 04d8 70616E69 		.ascii	"panic_msg\000"
 3318      635F6D73 
 3318      6700
 3319              	.LASF91:
ARM GAS  /tmp/ccCtZxjj.s 			page 84


 3320 04e2 6F666673 		.ascii	"offset\000"
 3320      657400
 3321              	.LASF81:
 3322 04e9 41504231 		.ascii	"APB1ENR\000"
 3322      454E5200 
 3323              	.LASF135:
 3324 04f1 696F706F 		.ascii	"ioportid_t\000"
 3324      72746964 
 3324      5F7400
 3325              	.LASF89:
 3326 04fc 636F6E74 		.ascii	"context\000"
 3326      65787400 
 3327              	.LASF53:
 3328 0504 725F6F6C 		.ascii	"r_older\000"
 3328      64657200 
 3329              	.LASF139:
 3330 050c 5F70616C 		.ascii	"_pal_lld_setgroupmode\000"
 3330      5F6C6C64 
 3330      5F736574 
 3330      67726F75 
 3330      706D6F64 
 3331              	.LASF14:
 3332 0522 7274636E 		.ascii	"rtcnt_t\000"
 3332      745F7400 
 3333              	.LASF62:
 3334 052a 76745F70 		.ascii	"vt_par\000"
 3334      617200
 3335              	.LASF45:
 3336 0531 74687265 		.ascii	"threads_queue_t\000"
 3336      6164735F 
 3336      71756575 
 3336      655F7400 
 3337              	.LASF103:
 3338 0541 63685F6D 		.ascii	"ch_mutex\000"
 3338      75746578 
 3338      00
 3339              	.LASF33:
 3340 054a 705F7265 		.ascii	"p_refs\000"
 3340      667300
 3341              	.LASF138:
 3342 0551 5F70616C 		.ascii	"_pal_lld_init\000"
 3342      5F6C6C64 
 3342      5F696E69 
 3342      7400
 3343              	.LASF82:
 3344 055f 42444352 		.ascii	"BDCR\000"
 3344      00
 3345              	.LASF71:
 3346 0564 726C6973 		.ascii	"rlist\000"
 3346      7400
 3347              	.LASF84:
 3348 056a 43464752 		.ascii	"CFGR2\000"
 3348      3200
 3349              	.LASF85:
 3350 0570 43464752 		.ascii	"CFGR3\000"
 3350      3300
 3351              	.LASF4:
ARM GAS  /tmp/ccCtZxjj.s 			page 85


 3352 0576 75696E74 		.ascii	"uint8_t\000"
 3352      385F7400 
 3353              	.LASF123:
 3354 057e 70757064 		.ascii	"pupdr\000"
 3354      7200
 3355              	.LASF95:
 3356 0584 77746F62 		.ascii	"wtobjp\000"
 3356      6A7000
 3357              	.LASF30:
 3358 058b 705F6E61 		.ascii	"p_name\000"
 3358      6D6500
 3359              	.LASF129:
 3360 0592 50434461 		.ascii	"PCData\000"
 3360      746100
 3361              	.LASF76:
 3362 0599 43464752 		.ascii	"CFGR\000"
 3362      00
 3363              	.LASF36:
 3364 059e 705F6D73 		.ascii	"p_msg\000"
 3364      6700
 3365              	.LASF147:
 3366 05a4 2E2E2F2E 		.ascii	"../../../os/hal/ports/STM32/LLD/GPIOv2/pal_lld.c\000"
 3366      2E2F2E2E 
 3366      2F6F732F 
 3366      68616C2F 
 3366      706F7274 
 3367              	.LASF134:
 3368 05d5 696F6D6F 		.ascii	"iomode_t\000"
 3368      64655F74 
 3368      00
 3369              	.LASF132:
 3370 05de 50414C43 		.ascii	"PALConfig\000"
 3370      6F6E6669 
 3370      6700
 3371              	.LASF105:
 3372 05e8 6D5F6F77 		.ascii	"m_owner\000"
 3372      6E657200 
 3373              	.LASF27:
 3374 05f0 705F6374 		.ascii	"p_ctx\000"
 3374      7800
 3375              	.LASF61:
 3376 05f6 76745F66 		.ascii	"vt_func\000"
 3376      756E6300 
 3377              	.LASF79:
 3378 05fe 41484245 		.ascii	"AHBENR\000"
 3378      4E5200
 3379              		.comm	__gnu_lto_v1,1,1
 3380              		.ident	"GCC: (GNU) 4.7.2"
ARM GAS  /tmp/ccCtZxjj.s 			page 86


DEFINED SYMBOLS
                            *ABS*:00000000 pal_lld.c
     /tmp/ccCtZxjj.s:364    .text._pal_lld_init:00000000 $t
     /tmp/ccCtZxjj.s:370    .text._pal_lld_init:00000000 _pal_lld_init
     /tmp/ccCtZxjj.s:563    .text._pal_lld_setgroupmode:00000000 $t
     /tmp/ccCtZxjj.s:569    .text._pal_lld_setgroupmode:00000000 _pal_lld_setgroupmode
                            *COM*:00000001 __gnu_lto_v1
                     .debug_frame:00000010 $d

NO UNDEFINED SYMBOLS
