ARM GAS  /tmp/ccCtZxjj.s 			page 1


   1              		.syntax unified
   2              		.cpu cortex-m4
   3              		.fpu softvfp
   4              		.eabi_attribute 20, 1
   5              		.eabi_attribute 21, 1
   6              		.eabi_attribute 23, 3
   7              		.eabi_attribute 24, 1
   8              		.eabi_attribute 25, 1
   9              		.eabi_attribute 26, 1
  10              		.eabi_attribute 30, 2
  11              		.eabi_attribute 34, 1
  12              		.eabi_attribute 18, 4
  13              		.thumb
  14              		.file	"pal_lld.c"
  15              		.text
  16              	.Ltext0:
  17              		.section	.gnu.lto_.jmpfuncs.f4536ca7e237752c,"",%progbits
  18 0000 789C6362 		.ascii	"x\234cb`d`g\300\016\330\2404\023\003##;\003\000\002"
  18      60646067 
  18      C00ED8A0 
  18      34130323 
  18      233B0300 
  19 0015 25001C   		.ascii	"%\000\034"
  20              		.text
  21              		.section	.gnu.lto_.inline.f4536ca7e237752c,"",%progbits
  22 0000 789C6362 		.ascii	"x\234cb`d\340e\300\016L\2404\023\003\303\031\206\323"
  22      6064E065 
  22      C00E4CA0 
  22      341303C3 
  22      1986D3
  23 0013 40854CF9 		.ascii	"@\205L\3713\036\2631h\336\330\300\304\004\344\235c\330"
  23      331EB331 
  23      68DED8C0 
  23      C404E49D 
  23      63D8
  24 0025 CBC4C8C8 		.ascii	"\313\304\310\310\304\310\300\300\234\327r^\201Ab\316"
  24      C4C8C0C0 
  24      9CD7725E 
  24      814162CE 
  25 0035 45662606 		.ascii	"Ef&\006\2619\273\230X\030\030\000P1\013\371"
  25      B139BB98 
  25      58181800 
  25      50310BF9 
  26              		.text
  27              		.section	.gnu.lto_.pureconst.f4536ca7e237752c,"",%progbits
  28 0000 789C6362 		.ascii	"x\234cb`d`f```e\200\000&\006)F)\000\001:\000C"
  28      60646066 
  28      60606065 
  28      80002606 
  28      29462900 
  29              		.text
  30              		.section	.gnu.lto__pal_lld_init.f4536ca7e237752c,"",%progbits
  31 0000 789CED98 		.ascii	"x\234\355\230[lTE\000\206g\316\336\240@\255\275o\257"
  31      5B6C5445 
  31      008667CE 
  31      DEA040AD 
  31      BD6FAF
ARM GAS  /tmp/ccCtZxjj.s 			page 2


  32 0013 DB767B6F 		.ascii	"\333v{ow{{0\361\305\007\023i\202Q\024\023C\262\020\262"
  32      777B7B30 
  32      F1C50713 
  32      69825114 
  32      1343B210 
  33 0028 566CD2D0 		.ascii	"Vl\322\320F\214\017\276\364Px\350c\343\203V1\012\342"
  33      468C0FBE 
  33      F45078E8 
  33      63E38356 
  33      310AE2
  34 003b 65AD1714 		.ascii	"e\255\027\024\025\201\252\324\262b\3224\365\022\022"
  34      1581AAD4 
  34      B262D234 
  34      F51212
  35 004a 5F2A2191 		.ascii	"_*!\221'\303\233\305h\322\244\376\347\314\341\314\324"
  35      27C39BC5 
  35      68D2A4FE 
  35      E7CCE1CC 
  35      D4
  36 005b D9B3D3D9 		.ascii	"\331\263\323\331m\023\037z\240|\247\333\2369\337\316"
  36      6D131F7A 
  36      A07CA7DB 
  36      9E39DFCE 
  37 006b CCF9B2C1 		.ascii	"\314\371\262\301 \024\177\344#\214\257\256\006B\036"
  37      20147FE4 
  37      238CAFAE 
  37      06421E
  38 007a 02A98F50 		.ascii	"\002\251\217Pcj\211\220\023\021\203R\353\004\227\214"
  38      636A8990 
  38      13118352 
  38      EB04978C 
  39 008a 1B74FC29 		.ascii	"\033t\374)\373\312\346Fr\3264_\236\2726\261w\342\326"
  39      FBCAE646 
  39      72D6345F 
  39      9EBA36B1 
  39      77E2D6
  40 009d DA5AFD90 		.ascii	"\332Z\375\220\365\352aJ\026\226~\247a2D)\211\020\213"
  40      F5EA614A 
  40      16967EA7 
  40      61324429 
  40      89108B
  41 00b0 06F1AFBF 		.ascii	"\006\361\257\277\207\307u$\227\213\356L\377\221\323"
  41      87C77524 
  41      978BEE4C 
  41      FF91D3
  42 00bf CD6E57E6 		.ascii	"\315nW\346r\325rNW\335\310\351\252\305\234\256J\347"
  42      72D5724E 
  42      57DDC8E9 
  42      AAC59CAE 
  42      4AE7
  43 00d1 74D56A28 		.ascii	"t\325j(\247\271\317\351^\3333\277=\363\3333\277=\363"
  43      A7B9CFE9 
  43      5EDB33BF 
  43      3DF3DB33 
  43      BF3DF3
  44 00e4 DB33FFBF 		.ascii	"\3333\377\277\233\371\364\351\277\214\364L\360\2521"
  44      9BF9F4E9 
ARM GAS  /tmp/ccCtZxjj.s 			page 3


  44      BF8CF44C 
  44      F0AA31
  45 00f3 776B6D3C 		.ascii	"wkm<J\316YC\2344\367\016Q\237A\006\250}\333\323\027"
  45      4ACE5943 
  45      9C34F70E 
  45      519F4106 
  45      A87DDBD3 
  46 0108 8D0C43E0 		.ascii	"\215\014C\3407\310\323>\222\240gh#^I\320\263`\200&\350"
  46      37C8D33E 
  46      92A06768 
  46      235E49D0 
  46      B3608026 
  47 011d F7344A8A 		.ascii	"\3674J\212\361}\012\337\227\200\357\203\245\340{`\031"
  47      F17D0ADF 
  47      9780EF83 
  47      A5E07B60 
  47      19
  48 012e F82E580E 		.ascii	"\370.X\016\276\003V\200\347\300J\360m0\014\236\007\253"
  48      BE035680 
  48      E7C04AF0 
  48      6D300C9E 
  48      07AB
  49 0140 C04FC06A 		.ascii	"\300O\300j\360c\260\006\374\010\254\005?\004\353\300"
  49      F063B006 
  49      FC08AC05 
  49      3F04EBC0 
  50 0150 19B01EFC 		.ascii	"\031\260\036\374\000\214\200\027\301\006\360K\260\021"
  50      008C8017 
  50      C106F04B 
  50      B011
  51 015e FC026C02 		.ascii	"\374\002l\002?\007\243\340\005\260\031\374\014l\001"
  51      3F07A3E0 
  51      05B019FC 
  51      0C6C01
  52 016d 3F055BC1 		.ascii	"?\005[\301o\3006\360k\260\035\234\005;\300+`'x\031\354"
  52      6FC036F0 
  52      6BB01D9C 
  52      053BC02B 
  52      60277819 
  53 0182 022F81DD 		.ascii	"\002/\201\335\340W`\014L\203q\360\032\330\003\316\203"
  53      E057600C 
  53      4C8371F0 
  53      1AD803CE 
  53      83
  54 0193 BDE07760 		.ascii	"\275\340w`\0378\007\366\203W\301\001\360[\020G\200\234"
  54      1F3807F6 
  54      8357C101 
  54      F05B1047 
  54      809C
  55 01a5 32CD22FB 		.ascii	"2\315\"\373\303\217u\354\267h}\316z\002\023k\235\370"
  55      C38F75EC 
  55      B7687DCE 
  55      7A02136B 
  55      9DF8
  56 01b7 16C8FCC1 		.ascii	"\026\310\374\301\2257\012\023\364\007\032 I\352\353"
  56      95370A13 
  56      F4071A20 
ARM GAS  /tmp/ccCtZxjj.s 			page 4


  56      49EAEB
  57 01c6 2433E629 		.ascii	"$3\346):D\375\276\327\311k`\300^\215 1\317L\232~\302"
  57      3A44FDBE 
  57      D7C96B60 
  57      C05E8D20 
  57      31CF4C9A 
  58 01dc CED971C8 		.ascii	"\316\331q\310\032\213\215\273@N\236\267\026\207\215"
  58      1A8B8DBB 
  58      404E9EB7 
  58      16878D
  59 01eb E1C730D6 		.ascii	"\341\3070\326/\022b\232\177\033\366\217\347\007\235"
  59      2F12629A 
  59      7F1BF68F 
  59      E7079D
  60 01fa 9FE6303C 		.ascii	"\237\3460<\006$\344:1\322o\036cc\014S\362\022\371\307"
  60      0624E43A 
  60      31D26F1E 
  60      63630C53 
  60      F212F9C7 
  61 020e 2C1AA221 		.ascii	",\032\242!j\215\207\223\035\316p;\215$\015\204\355\335"
  61      6A8D8793 
  61      1DCE703B 
  61      8D240D84 
  61      EDDD
  62 0220 42482A64 		.ascii	"BH*d\017\343\274\365K>\033\030\310Qqv0\266\237\263\203"
  62      0FE3BCF5 
  62      4B3E1B18 
  62      C8517176 
  62      30B69FB3 
  63 0235 0B0CF2A0 		.ascii	"\013\014\362\240\263\007\253\262\356b\353\305\002\274"
  63      B307ABB2 
  63      EE62EBC5 
  63      02BC
  64 0243 3973CE4F 		.ascii	"9s\316O\326\253Ic\206\022\364:\006\330\300\240\303\324"
  64      D6AB4963 
  64      8612F43A 
  64      06D8C0A0 
  64      C3D4
  65 0255 9EA98983 		.ascii	"\236\251\211\203\253\277\026:\253\306`$\350\317\324"
  65      ABBF163A 
  65      ABC66024 
  65      E8CFD4
  66 0264 DA623FDA 		.ascii	"\332b?\332\377Z\267\341G\222\026;S\260\313\231\202\335"
  66      FF5AB7E1 
  66      4792163B 
  66      53B0CB99 
  66      82DD
  67 0276 F7A620E4 		.ascii	"\367\246 \344\314\337!k\251\211\263N\363\203\251@\202"
  67      CCDF216B 
  67      A989B34E 
  67      F383A940 
  67      82
  68 0287 FEF2DF95 		.ascii	"\376\362\337\2258\201\001\366\030\342\373b\347\367F"
  68      388101F6 
  68      18E2FB62 
  68      E7F746
  69 0296 C0DC4DFA 		.ascii	"\300\334M\372\330\355\230d\032\237\212\3318IZ\2426\360"
ARM GAS  /tmp/ccCtZxjj.s 			page 5


  69      D8ED9864 
  69      1A9F8AD9 
  69      38495AA2 
  69      36F0
  70 02a8 E76D1070 		.ascii	"\347m\020p\015J\230\301\242`P\2526\010\346m\020r\015"
  70      0D4A98C1 
  70      A26050AA 
  70      3608E66D 
  70      10720D
  71 02bb 4A99C10D 		.ascii	"J\231\301\015\301\240Lm\260#o\203\235\256A\0313X\026"
  71      C1A04C6D 
  71      B0236F83 
  71      9DAE4119 
  71      335816
  72 02ce 0CCAD506 		.ascii	"\014\312\325\006\005y\033\354r\015\312\231\301m\301"
  72      05791BEC 
  72      720DCA99 
  72      C16DC1
  73 02dd A0426DB0 		.ascii	"\240Bm\260;o\203=\256A\0053\270#\030T\252\015\012\363"
  73      3B6F833D 
  73      AE410533 
  73      B8231854 
  73      AA0D0AF3 
  74 02f1 36B8CF35 		.ascii	"6\270\3175\250\264\037\376e\336%\252\323\245\242\015"
  74      A8B41FFE 
  74      65DE25AA 
  74      D3A5A20D 
  75 0301 7729417F 		.ascii	"w)A\177\332XC\034\351I7L\313\233\022&\352\031\246\025"
  75      DA58431C 
  75      E949374C 
  75      CB9B1226 
  75      EA19A615 
  76 0315 3B497F66 		.ascii	";I\177f\014S\330{1j\274\302t7\353bLf\013SX\014\323]"
  76      0C53D87B 
  76      316ABCC2 
  76      7437EB62 
  76      4C660B53 
  77 032d 7B3B54A9 		.ascii	"{;T\251\015\2440i\033\3600U\211ab\006\325j\003)L\332"
  77      0DA43069 
  77      1BF03055 
  77      89616206 
  77      D56A0329 
  78 0343 063C4CD5 		.ascii	"\006<L\325b\230\230A\215\332@\012\223\266\001\017S\215"
  78      62989841 
  78      8DDA400A 
  78      93B6010F 
  78      538D
  79 0355 18266650 		.ascii	"\030&fP\2536\220\302\244m\300\303T+\206\211\031\324"
  79      AB3690C2 
  79      A46DC0C3 
  79      542B8689 
  79      19D4
  80 0367 A90DA430 		.ascii	"\251\015\2440i\033\3600\325\211ab\006\365j\003)L\332"
  80      691BF030 
  80      D5896162 
  80      06F56A03 
  80      294CDA
ARM GAS  /tmp/ccCtZxjj.s 			page 6


  81 037a 063C4CF5 		.ascii	"\006<L\365\366\303\277\302\303d\350\204\351\376-\013"
  81      F6C3BFC2 
  81      C364E884 
  81      E9FE2D0B 
  82 038a D3941BA6 		.ascii	"\323\224\033\246\225M\011\223\341\031\246W\015+I\257"
  82      954D0993 
  82      E119A657 
  82      0D2B49AF 
  83 039a 1899C214 		.ascii	"\030\231\302\024\361^\214\007\274\3024md[\214\251la"
  83      F15E8C07 
  83      BCC2346D 
  83      645B8CA9 
  83      6C61
  84 03ac 8A8861B2 		.ascii	"\212\210a\262\306I\322\006\265\201\024&m\003\036\246"
  84      C649D206 
  84      B5811426 
  84      6D031EA6 
  85 03bc 06314CCC 		.ascii	"\0061L\314\240Qm \205I\333\200\207\251Q\014\0233hR\033"
  85      A0516D20 
  85      8549DB80 
  85      87A9510C 
  85      13336852 
  86 03d1 4861D236 		.ascii	"Ha\3226\340aj\022\303\304\014\242j\003)L\332\006<LQ"
  86      E0616A12 
  86      C3C40CA2 
  86      6A03294C 
  86      DA063C4C 
  87 03e6 314CCCA0 		.ascii	"1L\314\240Ym \205I\333\200\207\251Y\014\0233hQ\033H"
  87      596D2085 
  87      49DB8087 
  87      A9590C13 
  87      3368511B 
  88 03fb 61D236E0 		.ascii	"a\3226\340aj\261\037\376\305\267\3340\371t\302T\274"
  88      616AB11F 
  88      FEC5B7DC 
  88      30F974C2 
  88      54BC
  89 040d 65619A76 		.ascii	"ea\232v\303\344\272\345\025&\237g\230\256\330I\272\234"
  89      C3E4BAE5 
  89      15269F67 
  89      98AED849 
  89      BA9C
  90 041f 314CADDE 		.ascii	"1L\255\336\213q\300+L\263Y\027c:[\230Z\3050\315\332"
  90      8B71C02B 
  90      4CB35917 
  90      633A5B98 
  90      5AC530CD 
  91 0434 DBA14D6D 		.ascii	"\333\241Mm \205I\333\200\207\251M\014\0233hW\033Ha\322"
  91      208549DB 
  91      8087A94D 
  91      0C133368 
  91      571B4861 
  92 0449 36E0616A 		.ascii	"6\340aj\027\303\304\014:\324\006R\230\264\015x\230:"
  92      17C3C40C 
  92      3AD40652 
  92      98B40D78 
  92      983A
ARM GAS  /tmp/ccCtZxjj.s 			page 7


  93 045b C4303183 		.ascii	"\30401\203N\265\201\024&m\003\036\246N1L\314\240Km "
  93      4EB58114 
  93      266D031E 
  93      A64E314C 
  93      CCA04B6D 
  94 0470 8549DB80 		.ascii	"\205I\333\200\207\251K\014\0233\350V\033Ha\3226\340"
  94      87A94B0C 
  94      1333E856 
  94      1B4861D2 
  94      36E0
  95 0482 61EAB61F 		.ascii	"a\352\266\037\376U\036&\277N\230J\266,L)7L\253\233\022"
  95      FE551E26 
  95      BF4E984A 
  95      B62C4C29 
  95      374CAB9B 
  96 0497 26BF6798 		.ascii	"&\277g\230~\263\223\264\2341L1\357\305\030\363\012\323"
  96      7EB393B4 
  96      9C314C31 
  96      EFC518F3 
  96      0AD3
  97 04a9 CDAC8B91 		.ascii	"\315\254\213\221\312\026\246\230\030\246\233\366v\210"
  97      CA16A698 
  97      18A69BF6 
  97      7688
  98 04b7 AB0DA430 		.ascii	"\253\015\2440i\033\3600\305\30501\203\036\265\201\024"
  98      691BF030 
  98      C5C53031 
  98      831EB581 
  98      14
  99 04c8 266D031E 		.ascii	"&m\003\036\246\0361L\314\240Wm \205I\333\200\207\251"
  99      A61E314C 
  99      CCA0576D 
  99      208549DB 
  99      8087A9
 100 04db 570C1333 		.ascii	"W\014\0233\350S\033Ha\3226\340a\352\023\303\304\014"
 100      E8531B48 
 100      61D236E0 
 100      61EA13C3 
 100      C40C
 101 04ed FAD50652 		.ascii	"\372\325\006R\230\264\015x\230\372\30501\203\001\265"
 101      98B40D78 
 101      98FAC530 
 101      318301B5 
 102 04fd 8114266D 		.ascii	"\201\024&m\003\036\246\001B\226\010M\317\004\327?\225"
 102      031EA601 
 102      4296084D 
 102      CF04D73F 
 102      95
 103 050e FBADFF94 		.ascii	"\373\255\377\224\231Z\"\326c\327\033\213\305\331\337"
 103      995A22D6 
 103      63D71B8B 
 103      C5D9DF
 104 051d D1E3F1E7 		.ascii	"\321\343\361\347\216\214\304\307F\237\177\341x\374\311"
 104      8E8CC4C7 
 104      469F7FE1 
 104      78FCC9
 105 052c 038FF6F7 		.ascii	"\003\217\366\367\305\367\355{8\376\310\343\203\217\275"
ARM GAS  /tmp/ccCtZxjj.s 			page 8


 105      C5F7ED7B 
 105      38FEC8E3 
 105      838FBD
 106 053b D8171F3B 		.ascii	"\330\027\037;2rxd\344\231X\222\004\223\243\307\236\035"
 106      32727864 
 106      E4995892 
 106      0493A3C7 
 106      9E1D
 107 054d 3E1A383A 		.ascii	">\0328:6<:\366/\274\362\\\266"
 107      363C3AF6 
 107      2FBCF25C 
 107      B6
 108              		.text
 109              		.section	.gnu.lto__pal_lld_setgroupmode.f4536ca7e237752c,"",%progbits
 110 0000 789CCD98 		.ascii	"x\234\315\230Yl\023G\030\307gfw}$q\202\270\317\024A"
 110      596C1347 
 110      18C76766 
 110      777D2471 
 110      82B8CF14 
 111 0015 B8933884 		.ascii	"\270\2238\2043\010\0207\004r\264\264\274 \001\005\023"
 111      33081037 
 111      0472B4B4 
 111      BC200105 
 111      13
 112 0026 B5A54913 		.ascii	"\265\245I\023\205C*\017\220\002\017\251\304\003\352"
 112      85432A0F 
 112      90020FA9 
 112      C403EA
 113 0035 5BFBC451 		.ascii	"[\373\304Q(\"q\322\223\332\224\002\005\003)M\021BV\024"
 113      282271D2 
 113      93DA9402 
 113      0503294D 
 113      11425614 
 114 0049 A108A1CA 		.ascii	"\241\010\241\312\320 EU\205\242*BH\364?3;\353ul\250"
 114      D0204555 
 114      85A22A42 
 114      48F43F33 
 114      3BEB756C 
 115 005e B35111CE 		.ascii	"\263Q\021\316\361\363\316w\314\367\315|;\373\331\214"
 115      F1F3CE77 
 115      CCF7CD7C 
 115      3BFBD98C 
 116 006e 50FC24BF 		.ascii	"P\374$\277\232\360\2277\236\220\003 \315!\224\035\273"
 116      9AF09737 
 116      9E900320 
 116      CD21941D 
 116      BB
 117 007f 4DC82713 		.ascii	"M\310'\023\031\325\344\033\215\351\215\323H\303\364"
 117      19D5E41B 
 117      8DE98DD3 
 117      48C3F4
 118 008e 2CFEBF48 		.ascii	",\376\277Hg\306\337#p\345=\276\020W\006s\011\231[\310"
 118      67C6DF23 
 118      70E53DBE 
 118      10570673 
 118      09995BC8 
 119 00a2 5CD4234D 		.ascii	"\\\324#M\334\352\215\207f\3117^\226!\0243\205b\206\032"
ARM GAS  /tmp/ccCtZxjj.s 			page 9


 119      DCEA8D87 
 119      66C9375E 
 119      96211433 
 119      8562861A 
 120 00b6 CE546FB2 		.ascii	"\316To\262X\366\0217\344\276\2437\011\024|r\362\023"
 120      58F61137 
 120      E4BEA337 
 120      09147C72 
 120      F213
 121 00c8 13B329E5 		.ascii	"\023\263)\345o\020\370A\246\351\206\313\355\361fdf\371"
 121      6F10F841 
 121      A6E986CB 
 121      EDF16664 
 121      66F9
 122 00da B2E9C14D 		.ascii	"\262\351\301M\"\227\005\223\310\211\206\206\317\216"
 122      22970593 
 122      C8898686 
 122      CF8E
 123 00e8 5D3BB4EE 		.ascii	"];\264\356\320\203\347\317\337\250\342\243\333(\271"
 123      D083E7CF 
 123      DFA8E2A3 
 123      DB28B9
 124 00f7 D57E3A77 		.ascii	"\325~:w\014\251\242\224L$\234\214\350\211Y\277\300\256"
 124      0CA9A294 
 124      4C249C8C 
 124      E88959BF 
 124      C0AE
 125 0109 27DF8955 		.ascii	"'\337\211U\257#\253g\216\254\242\301\003\216\022\013"
 125      AF23AB67 
 125      8EACA2C1 
 125      038E120B 
 126 0119 9E644EEC 		.ascii	"\236dN\354:\275\377mu\314f\245\011\253>c\200V\214\314"
 126      3ABDFF6D 
 126      75CC66A5 
 126      09AB3E63 
 126      80568CCC 
 127 012d A5622583 		.ascii	"\245b%\203\373\235\314G\034\255\177\360\002u2Y\267\366"
 127      FB9DCC47 
 127      1CAD7FF0 
 127      02753259 
 127      B7F6
 128 013f 3F85986C 		.ascii	"?\205\230l\024iq\264\331\355-O\322\310,\331\256/\215"
 128      146971B4 
 128      D9ED2D4F 
 128      D2C82CD9 
 128      AE2F8D
 129 0152 CD765622 		.ascii	"\315vV\"\311Vm\231\216\252\337af\215\216f\353v\266\036"
 129      C9566D99 
 129      8EAADF61 
 129      668D8E66 
 129      EB76B61E 
 130 0166 8EE6EA72 		.ascii	"\216\346\352r\230Y\233\243\030C\216b\214\265\234q\024"
 130      98599BA3 
 130      18438E62 
 130      8CB59C71 
 130      14
 131 0177 63A4F51F 		.ascii	"c\244\365\037Gv\316\326\377U\256H\324af\2572\306\256"
ARM GAS  /tmp/ccCtZxjj.s 			page 10


 131      4776CED6 
 131      FF55AE48 
 131      D46166AF 
 131      32C6AE
 132 018a D6A7AF70 		.ascii	"\326\247\257p\365\235U\177$\364\372\307\030\015\275"
 132      F59D557F 
 132      24F4FAC7 
 132      180DBD
 133 0199 FE7B1D7B 		.ascii	"\376{\035{\015c<\334\240\254tF\026\211\307|Ws\375\200"
 133      0D633CDC 
 133      A0AC7446 
 133      1689C77C 
 133      5773FD80 
 134 01ad 2D9709CB 		.ascii	"-\227\011\313XZMS\202\341Z\232~g\227`XI\323o\356\022"
 134      585A4D53 
 134      82E15A9A 
 134      7E679760 
 134      5849D36F 
 135 01c3 0C37D1F4 		.ascii	"\0147\321\364\373\273\004\303\315\3020R0`\303\255rY"
 135      FBBB04C3 
 135      CDC23052 
 135      3060C3AD 
 135      7259
 136 01d5 8327D3DA 		.ascii	"\203'\323\332\375\004\323\367\204\351Y\367\200\015w"
 136      FD04D3F7 
 136      84E959F7 
 136      800D77
 137 01e4 09C3EE81 		.ascii	"\011\303\356\201\033\326\310\031_^r\355\315\177\261"
 137      1BD6C819 
 137      5F5E72ED 
 137      CD7FB1
 138 01f3 C805D765 		.ascii	"\310\005\327ev\345\301\363\203y\344\224\351\245\212"
 138      76E5C1F3 
 138      8379E494 
 138      E9A58A
 139 0202 1A8CD4C9 		.ascii	"\032\214\324\311\365m\272\224\242\245ev]\027#{\345\222"
 139      F56DBA94 
 139      A2A56576 
 139      5D17237B 
 139      E592
 140 0214 363F4AD5 		.ascii	"6?J\325\376B\203\330\365\335\214\354\027\372\355\315"
 140      FE4283D8 
 140      F5DD8CEC 
 140      17FAEDCD 
 141 0224 E753EBBB 		.ascii	"\347S\353\273\361g\220-\024\2771\232G\030x\233N\"\032"
 141      F167902D 
 141      14BF319A 
 141      4718789B 
 141      4E221A
 142 0237 7807D4C1 		.ascii	"x\007\324\301\273 W\211\202.\260\023t\323-\364\021\364"
 142      BB205789 
 142      822EB013 
 142      74D32DF4 
 142      11F4
 143 0249 3DA6BE17 		.ascii	"=\246\276\027<\016f\230v\231\340\0110\313\264\367\201"
 143      3C0E6698 
 143      7699E009 
ARM GAS  /tmp/ccCtZxjj.s 			page 11


 143      30CBB4F7 
 143      81
 144 025a 27C16CD3 		.ascii	"'\301l\323O\016x\012\034\002v\200C\251\234\177\030\256"
 144      4F0E780A 
 144      1C027680 
 144      43A99C7F 
 144      18AE
 145 026c BFC4F570 		.ascii	"\277\304\365p\36048\002<\003\216\004\277\002G\201\367"
 145      F0343802 
 145      3C038E04 
 145      BF024781 
 145      F7
 146 027d C0D1E059 		.ascii	"\300\321\340Yp\014x\016\034\013v\201\343\300&p<\330"
 146      700C780E 
 146      1C0B7681 
 146      E3C02670 
 146      3CD8
 147 028f 0C4E0083 		.ascii	"\014N\000\203`.x\037\234\004\266\200\223\301\007`\036"
 147      602E781F 
 147      9C04B680 
 147      93C10760 
 147      1E
 148 02a0 E6FD03F3 		.ascii	"\346\375\003\363N\301u+\256\247\202_\203\323\300o\300"
 148      4EC1752B 
 148      AEA7825F 
 148      83D3C06F 
 148      C0
 149 02b1 E9E0B7E0 		.ascii	"\351\340\267\340\014\360;p&\370=8\013\374\001\314\007"
 149      0CF03B70 
 149      26F83D38 
 149      0BFC01CC 
 149      07
 150 02c2 CF8305E0 		.ascii	"\317\203\005\340\217\240\037\014\201E`\030,\006\177"
 150      8FA01F0C 
 150      81456018 
 150      2C067F
 151 02d1 02E78017 		.ascii	"\002\347\200\027\301\271\340\317\340<\360\0228\037\274"
 151      C1B9E0CF 
 151      E03CF012 
 151      381FBC
 152 02e0 0C2E30E5 		.ascii	"\014.0\345\013\301+`\011\370\013\270\010\274\012.\006"
 152      0BC12B60 
 152      09F80BB8 
 152      08BC0A2E 
 152      06
 153 02f1 AF814BC0 		.ascii	"\257\201K\300\010\270\024\274\016.\003o\200\313\301"
 153      08B814BC 
 153      0E2E036F 
 153      80CBC1
 154 0300 9BE00AB0 		.ascii	"\233\340\012\260\015\\i\372[\005\376\012\256\006o\201"
 154      0D5C69FA 
 154      5B05FE0A 
 154      AE066F81 
 155 0310 6BC0DFC0 		.ascii	"k\300\337\300\265\246|\035\330\016\226\202\277\203\353"
 155      B5A67C1D 
 155      D80E9682 
 155      BF83EB
ARM GAS  /tmp/ccCtZxjj.s 			page 12


 156 031f CD3AD860 		.ascii	"\315:\330`\356c\231\271\177\345\346\276U\230\373]i\326"
 156      EE6399B9 
 156      7FE5E6BE 
 156      5598FB5D 
 156      69D6
 157 0331 015E0639 		.ascii	"\001^\0069\322\3200\304%\307\245\225\264\221\026r\177"
 157      D2D030C4 
 157      25C7A595 
 157      B4911672 
 157      7F
 158 0342 A5F636F3 		.ascii	"\245\3666\363\363\372[\234\370|\274\021u\010j\267\310"
 158      F3FA5B9C 
 158      F87CBC11 
 158      75086AB7 
 158      C8
 159 0353 E1B08633 		.ascii	"\341\260\2063t\013\355F1\006\250'@\305]HP\207\204\334"
 159      740BED46 
 159      3106A827 
 159      40C55D48 
 159      508784DC 
 160 0367 1055D92D 		.ascii	"\020U\331-\312\224\317\0019!\302$\326\374\204*\033\257"
 160      CA94CF01 
 160      3921C224 
 160      D6FC842A 
 160      1BAF
 161 0379 65C32B1B 		.ascii	"e\303+\033\342f\255MS\302\014\310\271P\203\253D\207"
 161      E266AD4D 
 161      53C20CC8 
 161      B95083AB 
 161      4487
 162 038b 7784C30C 		.ascii	"w\204\303\014\323a\217\315a\246\345pt\262\303,\310\245"
 162      D3618FCD 
 162      61A6E570 
 162      74B2C32C 
 162      C8A5
 163 039d C3FE11DE 		.ascii	"\303\376\021\336\025\016\263L\207\2756\207>\313\341"
 163      150EB34C 
 163      87BD3687 
 163      3ECBE1
 164 03ac BBC90EB3 		.ascii	"\273\311\016\263!\227\016\215~\016\243\302a\266\351"
 164      21970E8D 
 164      7E0EA3C2 
 164      61B6E9
 165 03bb F099CD61 		.ascii	"\360\231\315a\216\345\260!'\331\343\020(H\217\356~\036"
 165      8EE5B021 
 165      27D9E310 
 165      28488FEE 
 165      7E1E
 166 03cd 3B84C721 		.ascii	";\204\307!b0R\240F;\305\355\204\003\315:\2626\302\226"
 166      623052A0 
 166      463BC5ED 
 166      8403CD3A 
 166      B236C296 
 167 03e1 7F5DA141 		.ascii	"\177]\241A\017\223H\225\000\216\030\242\006dlF|@f\257"
 167      0F934895 
 167      008E18A2 
 167      06646C46 
ARM GAS  /tmp/ccCtZxjj.s 			page 13


 167      7C4066AF 
 168 03f5 C707E4FA 		.ascii	"\307\007\344\372j\361\001\271\203,>\300\313-\200\203"
 168      6AF101B9 
 168      832C3EC0 
 168      CB2D8083 
 169 0405 49E6170D 		.ascii	"I\346\027\015\036P\011\014\303\250L\217\227\313ur\344"
 169      1E50090C 
 169      C3A84C8F 
 169      97CB7572 
 169      E4
 170 0416 4FDA6865 		.ascii	"O\332he7LJ\342\257\016B\003t(\303\277\365\276g\241]"
 170      374C4AE2 
 170      AF0E4203 
 170      7428C3BF 
 170      F5BE67A1 
 171 042b 1D84A14E 		.ascii	"\035\204\241N\030\212*@+|=\341\217:\210\206}f1>\260"
 171      188A2A40 
 171      2B7C3DE1 
 171      8F3A8886 
 171      7D66313E 
 172 0440 C1172DE9 		.ascii	"\301\027-\351 :\266\211\365\344\007h\231\257+\274\257"
 172      203AB689 
 172      F5E40768 
 172      99AF2BBC 
 172      AF
 173 0451 83185865 		.ascii	"\203\030Xe\326\313\345\345\276\0307p\251\345`\221 F"
 173      D6CBE5E5 
 173      BE183770 
 173      A9E56091 
 173      2046
 174 0463 2B7DBDE1 		.ascii	"+}\275\341\035|UtB\033\247\311\242\345_C\310\033@\227"
 174      1D7C5574 
 174      421BA7C9 
 174      A2E55F43 
 174      C81B4097 
 175 0477 07933C86 		.ascii	"\007\223<\206\344a#\217\030\031\261x\005\350p,\237\214"
 175      E461238F 
 175      1819B178 
 175      05E8702C 
 175      9F8C
 176 0489 DC2D77EC 		.ascii	"\334-w\354S\255\323\273\205>\0269\215\200\334^\302\207"
 176      53ADD3BB 
 176      853E1639 
 176      8D80DC5E 
 176      C287
 177 049b 7AB43E43 		.ascii	"z\264>C\011GB.,\232\264Fkp\224\330\346\221j{\037\213"
 177      0947422E 
 177      2C9AB446 
 177      6B7094D8 
 177      E6916A7B 
 178 04b1 8DBC2756 		.ascii	"\215\274'Vx\224\351\2417\270_i\217\026{'\\\02056F\226"
 178      7894E9A1 
 178      37B85F69 
 178      8F167B27 
 178      5C103536 
 179 04c7 08E562D3 		.ascii	"\010\345b\323\342\254\246\204c!O\364\335%|\2175C\347"
 179      E2ACA684 
ARM GAS  /tmp/ccCtZxjj.s 			page 14


 179      63214FF4 
 179      DD257C8F 
 179      3543E7
 180 04da DF3828DD 		.ascii	"\3378(\335qVfL\005\337m9\032\017y\377\231'\250\373\007"
 180      7156664C 
 180      05DF6D39 
 180      1A0F79FF 
 180      9927A8FB 
 181 04ef E2A49973 		.ascii	"\342\244\231s!O\234\371\276\2309\327\364\022i9\240T"
 181      214F9CF9 
 181      BE9839D7 
 181      F4126939 
 181      A054
 182 0501 27493F39 		.ascii	"'I?9D,D??\223\003\374\220\262\373y \374L\346\232W7\363"
 182      442C443F 
 182      3F9303FC 
 182      90B2FB79 
 182      20FC4CE6 
 183 0519 2F1694EA 		.ascii	"/\026\224\352\224Y\344\\\303\021ZE=\332\027\344s\320"
 183      9459E45C 
 183      C3115A45 
 183      3DDA17E4 
 183      73D0
 184 052b 8B0ACA1B 		.ascii	"\213\012\312\033#\236\217\362\2655^p\230\346\202\326"
 184      239E8FF2 
 184      B5355E70 
 184      98E682D6 
 185 053b 67EDDC54 		.ascii	"g\355\334T\265&a\333vN\203O\210\304x\253\326\226\251"
 185      B52661DB 
 185      764E834F 
 185      88C478AB 
 185      D696A9
 186 054e C6A70B91 		.ascii	"\306\247\013\221&\"(\3554\367\362\245\223\2074\373\354"
 186      262228ED 
 186      34F7F2A5 
 186      938734FB 
 186      EC
 187 055f F020A38F 		.ascii	"\360 \243\217\332\242\237\221F\3644!\372F+\240\231j"
 187      DAA29F91 
 187      46F43421 
 187      FA462BA0 
 187      996A
 188 0571 5DC35AB7 		.ascii	"]\303Z\267\025\375,\370\204\310\214\276\323R\316\027"
 188      15FD2CF8 
 188      84C88CBE 
 188      D352CE17 
 189 0581 227DE0D1 		.ascii	"\"}\340\321S\025}\276\214\276\313\026}A\032\321\263"
 189      53157DBE 
 189      8CBECB16 
 189      7D411AD1 
 189      B3
 190 0592 78F408B4 		.ascii	"x\364\010\264\315\012\324/\022(0\003\015Y\201\026\011"
 190      CD0AD42F 
 190      12283003 
 190      0D598116 
 190      09
 191 05a3 9131F040 		.ascii	"\2211\360@\231\012\264\210\237:\221G4\326\262K9\365"
ARM GAS  /tmp/ccCtZxjj.s 			page 15


 191      990AB488 
 191      9F3A9147 
 191      34D6B24B 
 191      39F5
 192 05b5 C44B3C7E 		.ascii	"\304K<~J\032\204\366eh8\240\036\322g-\365J\325<=\334"
 192      4A1A84F6 
 192      656838A0 
 192      1ED2672D 
 192      F54AD53C 
 193 05cb 09AA2E42 		.ascii	"\011\252.B/\032\032O\237\177\207\240T\213\323H_K\330"
 193      2F1A1A4F 
 193      9F7F87A0 
 193      548BD348 
 193      5F4BD8
 194 05de BCF83ECD 		.ascii	"\274\370>\3151\2139aM\346\302'DIk2O\210F\3115\351Ng"
 194      318B3961 
 194      4DE6C227 
 194      44496B32 
 194      4F8846C9 
 195 05f6 4DFA34FB 		.ascii	"M\3724\373\354\360\2402q[\231Dm\231\314O#\023\375\005"
 195      ECF0A032 
 195      715B9944 
 195      6D99CC4F 
 195      2313FD05 
 196 060a 992C4895 		.ascii	"\231,H\225\311B\370\204()\223\022!r\220\211\2562)Q\231"
 196      C942F884 
 196      28299312 
 196      21729089 
 196      AE322951 
 197 061f 78C4F689 		.ascii	"x\304\366\211\222l}je\262(\215L\214x&\011\367\316bQ"
 197      926C7D6A 
 197      65B2288D 
 197      4C8C7826 
 197      09F7CE62 
 198 0634 928B92EE 		.ascii	"\222\213\222\356\235%B\304d\320}\351\004\335\251\331"
 198      9D2542C4 
 198      64D07DE9 
 198      04DDA9D9 
 199 0644 27820715 		.ascii	"'\202\007\025\264\027O\346\361\262\220B\361\240\227"
 199      B4174FE6 
 199      F1B29042 
 199      F1A097
 200 0653 0E22E865 		.ascii	"\016\"\350e\"\350\245IA/\027\242\301\004\275\\<\275"
 200      22E8A549 
 200      412F17A2 
 200      C104BD5C 
 200      3CBD
 201 0665 1FD2F6D0 		.ascii	"\037\322\366\320\313o\216\014<W\263eI\205\342%\265b"
 201      CB6F8E0C 
 201      3C57B365 
 201      4985E225 
 201      B562
 202 0677 1037C7CA 		.ascii	"\0207\307\312T%\265\012>!J*\251\325B4\230\233c\265\312"
 202      5425B50A 
 202      3E214A2A 
 202      A9D54234 
 202      989B63B5 
ARM GAS  /tmp/ccCtZxjj.s 			page 16


 203 068c 24D3CA24 		.ascii	"$\323\312$f\313d\315 n\216\265\2512Y\007\237\020%eR"
 203      66CB64CD 
 203      206E8EB5 
 203      A9325907 
 203      9F102565 
 204 06a1 2A4483B9 		.ascii	"*D\203\2719JU&Y\262\003\024\275%\332*\325~\2557{3M\364"
 204      394A5526 
 204      59B20314 
 204      BD25DA2A 
 204      D57EAD37 
 205 06b9 66F6E652 		.ascii	"f\366\346R\266s\353\315\2433\022\336a\231\364\357\330"
 205      B673EBCD 
 205      A33312DE 
 205      6199F4EF 
 205      D8
 206 06ca B87B1FA1 		.ascii	"\270{\037\241Go\012\367MZ4l}\000\330\200\347cj\367\262"
 206      476F0AF7 
 206      4D5A346C 
 206      7D00D880 
 206      E7636AF7 
 207 06df 9FDC60B6 		.ascii	"\237\334`\266\001\350\333\224I\031\036J\251[|\331\223"
 207      01E8DB94 
 207      49191E4A 
 207      A95B7CD9 
 207      93
 208 06f0 969926E8 		.ascii	"\226\231&\350\354\224I9\036\017\251Md_[n\232\364\224"
 208      EC944939 
 208      1E0FA94D 
 208      645F5B6E 
 208      9AF494
 209 0703 288B0ADC 		.ascii	"(\213\012\334\010\251-d[[!,\016\366\306\263\256\264"
 209      08A92D64 
 209      5B5B212C 
 209      0EF6C6B3 
 209      AEB4
 210 0715 6ABD7F26 		.ascii	"j\275\177&\262\231\256T+\221->\011\335&\264=\234kk\031"
 210      B299AE54 
 210      2B912D3E 
 210      09DD26B4 
 210      3D9C6B6B 
 211 072a 09FFB444 		.ascii	"\011\377\264D\271\214\3178\273\260\320/\177kw\373\337"
 211      B98CCF38 
 211      BBB0D02F 
 211      7F6B77FB 
 211      DF
 212 073b DF5EEDAF 		.ascii	"\337^\355\257\253\255\337\263\333\377\366;\345s\212"
 212      ABADDFB3 
 212      DBFFF63B 
 212      E5738A
 213 074a FD6565AB 		.ascii	"\375ee\253\374k\337,\255\334W\354\257\333^\275\255\272"
 213      FC6BDF2C 
 213      ADDC57EC 
 213      AFDB5EBD 
 213      ADBA
 214 075c 7A676180 		.ascii	"zga\200\030;>\330SXd\324\324\356\254\252w\325\356\371"
 214      183B3ED8 
 214      535864D4 
ARM GAS  /tmp/ccCtZxjj.s 			page 17


 214      D4EEACAA 
 214      77D5EEF9 
 215 0770 B8AEAADE 		.ascii	"\270\256\252\336]\273\273\256\252jg\275Q\267\267ng\275"
 215      5DBBBBAE 
 215      AA6A67BD 
 215      51B7B76E 
 215      67BD
 216 0782 BEBD7A4F 		.ascii	"\276\275zO\275\006-\017\177S\263}\367\207\254f6\253"
 216      BD062D0F 
 216      7F53B37D 
 216      F787AC66 
 216      36AB
 217 0794 29663573 		.ascii	")f5su\356]\347C:\267\377\027\314T\3750"
 217      75EE5DE7 
 217      433AB7FF 
 217      17CC54FD 
 217      30
 218              		.text
 219              		.section	.gnu.lto_.cgraph.f4536ca7e237752c,"",%progbits
 220 0000 789C6362 		.ascii	"x\234cb`d`f``\220c\200\002\246\211L\365\014\014\023"
 220      60646066 
 220      60609063 
 220      8002A689 
 220      4CF50C0C 
 221 0015 CE31D4D7 		.ascii	"\3161\324\327\317\353`d\232\304T\317\010\3471\000\000"
 221      CFEB6064 
 221      9AC454CF 
 221      08E73100 
 221      00
 222 0026 8C450955 		.ascii	"\214E\011U"
 223              		.text
 224              		.section	.gnu.lto_.vars.f4536ca7e237752c,"",%progbits
 225 0000 789C6362 		.ascii	"x\234cb`d`f`\000\222P\000\000\000r\000\010"
 225      60646066 
 225      60009250 
 225      00000072 
 225      0008
 226              		.text
 227              		.section	.gnu.lto_.refs.f4536ca7e237752c,"",%progbits
 228 0000 789C6362 		.ascii	"x\234cb`d`f```b\200\001\000\000\204\000\011"
 228      60646066 
 228      60606062 
 228      80010000 
 228      840009
 229              		.text
 230              		.section	.gnu.lto_.statics.f4536ca7e237752c,"",%progbits
 231 0000 789C6362 		.ascii	"x\234cb`d`b\300\016@\342\214\020&\000\000\375\000\011"
 231      60646062 
 231      C00E40E2 
 231      8C102600 
 231      00FD0009 
 232              		.text
 233              		.section	.gnu.lto_.decls.f4536ca7e237752c,"",%progbits
 234 0000 789CBD59 		.ascii	"x\234\275Ykl\024U\024\276wf\037\224\002\022\020\242"
 234      6B6C1455 
 234      14BE7766 
 234      1F940212 
ARM GAS  /tmp/ccCtZxjj.s 			page 18


 234      10A2
 235 0012 C4484944 		.ascii	"\304HID\211\221\216m\021\360A\264\335-\024-t3-Q~l6K"
 235      89918E6D 
 235      11F041B4 
 235      DD2D142D 
 235      74332D51 
 236 002a BB858D4B 		.ascii	"\273\205\215Kw\263\335\032\374\241\016\255Q$\232(\006"
 236      77B3DD1A 
 236      FCA10EAD 
 236      51249A28 
 236      06
 237 003b 8D1AA506 		.ascii	"\215\032\245\006*\362\266D@\002\005Bj%Z)/\261\274\004"
 237      2AF2B644 
 237      40020542 
 237      6A255A29 
 237      2FB1BC04 
 238 004f B456088D 		.ascii	"\264V\010\215hD\036\322\202\347\336\231\2713\263\314"
 238      68441ED2 
 238      82E7DE99 
 238      B933B3CC 
 239 005f 74662BF1 		.ascii	"tf+\361\246\347\314\314\235{\277\373\235s\037\347\354"
 239      A6E7CCCC 
 239      9D7BBFFB 
 239      9D731FE7 
 239      EC
 240 0070 94431891 		.ascii	"\224C\030\221\022\200\313M(\2561\010\325s\010\361P7"
 240      1280CB4D 
 240      28AE3108 
 240      D57308F1 
 240      5037
 241 0082 0D6905AA 		.ascii	"\015i\005\252P#H\007\272\265\220\372a ^\345:\004d%\310"
 241      50234807 
 241      BAB590FA 
 241      61205EE5 
 241      3A046425 
 242 0097 31901180 		.ascii	"1\220\021\200\233\007\222\0172\011d\025\324a\270>\002"
 242      9B07920F 
 242      32096415 
 242      D461B83E 
 242      02
 243 00a8 52007218 		.ascii	"R\000r\030\236\357\004\031\007\367k\341\272\005\344"
 243      9EEF0419 
 243      07F76BE1 
 243      BA05E4
 244 00b7 04C83690 		.ascii	"\004\3106\220S \333AN\203\354\000\371\005\244\005\344"
 244      5320DB41 
 244      4E83EC00 
 244      F905A405 
 244      E4
 245 00c8 1AC86E90 		.ascii	"\032\310n\220\353 _\200t\202\354\005i\005i\003\331G"
 245      EB205F80 
 245      7482EC05 
 245      69056903 
 245      D947
 246 00da C65078B9 		.ascii	"\306Px\271A&\303\303\024\220\251 \217\202<\206\215\374"
 246      4126C3C3 
 246      1490A920 
ARM GAS  /tmp/ccCtZxjj.s 			page 19


 246      8F823C86 
 246      8DFC
 247 00ec 894D83D3 		.ascii	"\211M\203\323\370\273@\232A\016\201\360\320\336\213"
 247      F8BB409A 
 247      410E81F0 
 247      D0DE8B
 248 00fb 657B085F 		.ascii	"e{\010_\217\302\361\224\302\355\232\302\245S\031\327"
 248      8FC2F194 
 248      C2ED9AC2 
 248      A55319D7 
 249 010b CC4763D1 		.ascii	"\314Gc\321'R\343\231\267\033\244\222\2537ozG\243\345"
 249      2752E399 
 249      B71BA492 
 249      AB376F7A 
 249      47A3E5
 250 011e 1294C6D7 		.ascii	"\022\224\306\327$\011\247\202x\332(t7\012\342aY\010"
 250      2409A782 
 250      78DA2874 
 250      370AE261 
 250      5908
 251 0130 E5D0BB21 		.ascii	"\345\320\273!Y2\003\004\367\237\342\321\364\216\247"
 251      59320304 
 251      F79FE2D1 
 251      F48EA7
 252 013f 7380B2D1 		.ascii	"s\200\262\321RI\252']K\366\015\033\201\336\2418\000"
 252      5249AA27 
 252      5D4BF60D 
 252      1B81DEA1 
 252      3800
 253 0151 B30F98AB 		.ascii	"\263\017\230\253 g\0061\2247\011\241\361h\225$\275\015"
 253      20670631 
 253      943709A1 
 253      F1689524 
 253      BD0D
 254 0163 0DB1D221 		.ascii	"\015\261\322!\247\277\326A\334\204\307#'-I\333\325\200"
 254      A7BFD641 
 254      DC84C723 
 254      272D49DB 
 254      D580
 255 0175 F9205A23 		.ascii	"\371 Z#\321\2428\026\253k\206\016L_\310\015I\207\317"
 255      D1A23816 
 255      AB6B860E 
 255      4C5FC80D 
 255      4987CF
 256 0188 F183A8BB 		.ascii	"\361\203\250\273\363\335\357\323&\201\026\3678\004\266"
 256      F3DDEFD3 
 256      268116F7 
 256      3804B6
 257 0197 10AA251E 		.ascii	"\020\252%\036S\002\230\021\270\307`W\020\257\003x\016"
 257      53029811 
 257      B8C76057 
 257      10AF0378 
 257      0E
 258 01a8 3D8E9511 		.ascii	"=\216\225\021\272H7R\034\300\020V\033\241\273\334S\317"
 258      BA483752 
 258      1CC01056 
 258      1BA1BBDC 
ARM GAS  /tmp/ccCtZxjj.s 			page 20


 258      53CF
 259 01ba 79A38E73 		.ascii	"y\243\216s\317\256j\023\306^\312\270\236L\254'\013-"
 259      CFAE6A13 
 259      C65ECAB8 
 259      9E4CAC27 
 259      0B2D
 260 01cc D1A60659 		.ascii	"\321\246\006YL\251\236s3\316\002\316\263U\316\273\336"
 260      4CA99E73 
 260      33CE02CE 
 260      B355CEBB 
 260      DE
 261 01dd 3AD82620 		.ascii	":\330& \205\2207K?\014}\226[\311\300\362k\365\216\354"
 261      8590374B 
 261      3F0C7D96 
 261      5BC9C0F2 
 261      6BF58EEC 
 262 01f1 DC3B88C3 		.ascii	"\334;\210\303\2331V\214\351\276\332\327\316\233SP\357"
 262      9B31568C 
 262      E9BEDAD7 
 262      CE9B5350 
 262      EF
 263 0202 E5A2B651 		.ascii	"\345\242\266Q\212\316\036\225\3406\006\332\376d&\210"
 263      8ACE1E95 
 263      E03606DA 
 263      FE642688 
 264 0212 399688BB 		.ascii	"9\226\210\273\030\342I\033\304A\0169\2661\304\236\214"
 264      18E2491B 
 264      C4410E39 
 264      B631C49E 
 264      8C
 265 0223 10AD39B6 		.ascii	"\020\2559\2663\304^\033\304\341\0169\036\320\374X\222"
 265      33C45E1B 
 265      C4E10E39 
 265      1ED0FC58 
 265      92
 266 0234 09A235C7 		.ascii	"\011\2425\307\0374?\332 \336e\306\361\326\242\337\010"
 266      1F343FDA 
 266      20DE65C6 
 266      F1D6A2DF 
 266      08
 267 0245 41BC09CE 		.ascii	"A\274\011\316\001o\020\177\201\307\301\303\026\252\267"
 267      016F107F 
 267      81C7C1C3 
 267      16AAB7
 268 0254 51BD9DEA 		.ascii	"Q\275\235\352\035T\267P\275\033\264R8t\234\322\"\033"
 268      1D54B750 
 268      BD1BB452 
 268      38749CD2 
 268      221B
 269 0266 BEF5698B 		.ascii	"\276\365i\213=g\277\006\345S@\335\330g\031d\227\035"
 269      3D67BF06 
 269      E55340DD 
 269      D8671964 
 269      971D
 270 0278 A4D1D41C 		.ascii	"\244\321\324\034K\310s\032\313gl \247:dyQci\007\031"
 270      4BC8731A 
 270      CB676C20 
ARM GAS  /tmp/ccCtZxjj.s 			page 21


 270      A73A6479 
 270      51636907 
 271 028d 70C8F2B2 		.ascii	"p\310\362\262\006Yj\003\231\350g\216\325)]\003S\352"
 271      06596A03 
 271      99E8678E 
 271      D5295D03 
 271      53EA
 272 029f 0EE2B574 		.ascii	"\016\342\265t\322\366R\335Ju\033\325\373\364\323\330"
 272      D2F652DD 
 272      4A751BD5 
 272      FBF4D3D8 
 273 02af 87D593E9 		.ascii	"\207\325\223\351H\3070\025F>\306u\270\253\331\202A\016"
 273      48C73015 
 273      463EC675 
 273      B8ABD982 
 273      410E
 274 02c1 91AD63DD 		.ascii	"\221\255c\335J\234\2556\202\343\261\202gT^\347T*[\233"
 274      4A9CAD36 
 274      82E3B182 
 274      67545EE7 
 274      542A5B9B 
 275 02d5 FE6CF3C8 		.ascii	"\376l\363\310\325\367\241\225\222\264\214l\010\271'"
 275      D5F7A195 
 275      92B48C6C 
 275      08B927
 276 02e4 87BEA1CD 		.ascii	"\207\276\241\315\032\361X\324\231e1\2122\310\375\250"
 276      1AF158D4 
 276      9965318A 
 276      32C8FDA8 
 277 02f4 899CF17B 		.ascii	"\211\234\361{\352\357\242\341\027)\335\026\030L\373"
 277      EAEFA2E1 
 277      1729DD16 
 277      184CFB
 278 0303 0E737A5B 		.ascii	"\016sz[\007\036\303\017\330\307pc\200\342\030\304C\310"
 278      071EC30F 
 278      D8C77063 
 278      80E218C4 
 278      43C8
 279 0315 18330ED3 		.ascii	"\0303\016\323U\261\237\371\243{I\237\034\303\314#\235"
 279      55B19FF9 
 279      A37B499F 
 279      1CC3CC23 
 279      9D
 280 0326 11887039 		.ascii	"\021\210p9j\032\351\216\352#\335\016\263H\227M\026\347"
 280      6A1AE98E 
 280      EA23DD0E 
 280      B348974D 
 280      16E7
 281 0338 AB0D5AA4 		.ascii	"\253\015Z\244k\260\211tA\274\031\026\233\323\310u\202"
 281      6BB08974 
 281      41BC1916 
 281      9BD3C875 
 281      82
 282 0349 5A4468F4 		.ascii	"ZDh\364\356\350\306\003\014\\\012\275 >F\217\307\263"
 282      EEE8C603 
 282      0C5C0ABD 
 282      203E468F 
ARM GAS  /tmp/ccCtZxjj.s 			page 22


 282      C7B3
 283 035b 0CB3F589 		.ascii	"\014\263\365\211\001\006\2564\304s\014\261\335\006\321"
 283      0106AE34 
 283      C4730CB1 
 283      DD06D1
 284 036a 3270A521 		.ascii	"2p\245!\376\301\020\217d\204h\315\3612C<i\203h\031\270"
 284      FEC1108F 
 284      648468CD 
 284      F132433C 
 284      69836819 
 285 037f D210FF61 		.ascii	"\322\020\377a\210]\031!\3529.\246\210#\3212IZ,5z\254"
 285      885D1921 
 285      EA392EA6 
 285      8823D132 
 285      495A2C35 
 286 0395 970D42B4 		.ascii	"\227\015B\264\221d\323(\210\177\303#M\0262\251e\013"
 286      9164D328 
 286      887FC323 
 286      4D1632A9 
 286      650B
 287 03a7 7967D264 		.ascii	"yg\322d!s&\201\364\006\265\220\364\275\264s\300\253"
 287      21732681 
 287      F406B590 
 287      F4BDB473 
 287      C0AB
 288 03b9 8FEED109 		.ascii	"\217\356\321\011j\342\332\370\324\347\375\322\3571\335"
 288      6AE2DAF8 
 288      D4E7FDD2 
 288      EF31DD
 289 03c8 873DBA7D 		.ascii	"\207=\272}\330\273s\2645}\330~\023\324\214SzM\232\240"
 289      D8BB73B4 
 289      357DD87E 
 289      13D48C53 
 289      7A4D9AA0 
 290 03dc 1F6C381B 		.ascii	"\037l8\033\214\0347\372\323\343\"\265V\342\265\224\363"
 290      8C1C37FA 
 290      D3E322B5 
 290      56E2B594 
 290      F3
 291 03ed D4D7CA29 		.ascii	"\324\327\312)\033\304|Z\312\311\0337.\3176.O7.O\340"
 291      1BC47C5A 
 291      CAC91B37 
 291      2ECF362E 
 291      4F372E4F 
 292 0402 DFA05084 		.ascii	"\337\240P\204u\367\222\353Z\302id\340 \341\244\346\250"
 292      75F792EB 
 292      5AC26964 
 292      E020E1A4 
 292      E6A8
 293 0414 FCDE62A0 		.ascii	"\374\336b\240\355\3232A\034nt\024z\227Wg\365H\313\275"
 293      EDD33241 
 293      1C6E7414 
 293      7A975767 
 293      F548CBBD 
 294 0428 039854E6 		.ascii	"\003\230T\346\011\331\011\\\020\237\247\261\354\202"
 294      09D9095C 
 294      109FA7B1 
ARM GAS  /tmp/ccCtZxjj.s 			page 23


 294      EC82
 295 0436 3E4A2EE7 		.ascii	">J.\347\331vk\031=\200$\314d\277}\310 \273Z\354V\243"
 295      D9766B19 
 295      3D8024CC 
 295      64BF7DC8 
 295      20BB5AEC 
 296 044c 65B69386 		.ascii	"e\266\223\206\271\202a\366L\353\0371\307!\313U\014\361"
 296      B98261F6 
 296      4CEB1F31 
 296      C721CB55 
 296      0CF1
 297 045e 524688D6 		.ascii	"RF\210\326\034\3270\304^\033\304\011\375L\227a\346\216"
 297      1CD730C4 
 297      5E1BC409 
 297      FD4C9761 
 297      E68E
 298 0470 EAD2D91F 		.ascii	"\352\322\331\037!\034e\007q'\235\303\023T\237\242\372"
 298      211C6507 
 298      71279DC3 
 298      13549FA2 
 298      FA
 299 0481 34D567A9 		.ascii	"4\325g\251\376\205\352_\251\276B\3655\252\257S\335g"
 299      FE85EA5F 
 299      A9BE42F5 
 299      35AAAF53 
 299      DD67
 300 0493 97C5E837 		.ascii	"\227\305\3507\333!\232\223l`\233\255\375\370\317\312"
 300      DB219A93 
 300      6C609BAD 
 300      FDF8CFCA 
 301 04a3 8F5E4302 		.ascii	"\217^C\002 \307t\353\203b1\227\315\226`\272yi\357x%"
 301      20C774EB 
 301      83623197 
 301      CD9660BA 
 301      7969EF78 
 302 04b8 C1C8F897 		.ascii	"\301\310\370\227h\003G\374\377\025\243\332\333\261\026"
 302      680347FC 
 302      FF15A3DA 
 302      DBB116
 303 04c7 AB639013 		.ascii	"\253c\220\023\3220\250\223\200\316r\235\214\251\274"
 303      D230A893 
 303      80CE729D 
 303      8CA9BC
 304 04d6 4EA97CCD 		.ascii	"N\251|\315\250t=\367\037\211\030\022\311\375\014wk\323"
 304      A8743DF7 
 304      1F891812 
 304      C9FD0C77 
 304      6BD3
 305 04e8 CD6F4D12 		.ascii	"\315oM\022Iy\322\272h\263\016\310\010\257Z$\222\234"
 305      4979D2BA 
 305      68B30EC8 
 305      08AF5A24 
 305      929C
 306 04fa BE93ECBE 		.ascii	"\276\223\354\276\363\254S\353\372n\3162\377$\215\015"
 306      F3AC53EB 
 306      FA6ECE32 
 306      FF248D0D 
ARM GAS  /tmp/ccCtZxjj.s 			page 24


 307 050a 43CA16FF 		.ascii	"C\312\026\377\316z\267\257\337j\335\2334F2M\263$\226"
 307      CE7AB7AF 
 307      DF6ADD9B 
 307      3446324D 
 307      B32496
 308 051d F4EF5D37 		.ascii	"\364\357]7\306\340\246\245\234!\2155\313\023\033y6\316"
 308      C6E0A6A5 
 308      9C218D35 
 308      CB131B79 
 308      36CE
 309 052f A4B4F958 		.ascii	"\244\264\371X\306\221\204\363/\346\267\033\273\377>"
 309      C69184F3 
 309      2FE6B71B 
 309      BBFF3E
 310 053e CD3B4622 		.ascii	"\315;F\"\343/\347\314\"\035\251U\317\326\223}f\031\347"
 310      E32FE7CC 
 310      221DA955 
 310      CFD6937D 
 310      6619E7
 311 0551 509323A2 		.ascii	"P\223#\242\331\205\025\304\236\276\317nS\232\370%\303"
 311      D98515C4 
 311      9EBECF6E 
 311      539AF825 
 311      C3
 312 0562 BCF4D2ED 		.ascii	"\274\364\322\355I\023\2673\304^\033D\247ib\013Cl}\371"
 312      4913B733 
 312      C45E1B44 
 312      A769620B 
 312      436C7DF9 
 313 0576 F6A4896D 		.ascii	"\366\244\211m\014\261\335\006\321i\232\330\301\020\217"
 313      0CB1DD06 
 313      D1699AD8 
 313      C1108F
 314 0585 648468CD 		.ascii	"d\204h\315\361(C<i\203\3504\264\376\304\020\2732B\264"
 314      F128433C 
 314      6983E834 
 314      B4FEC410 
 314      BB3242B4 
 315 0599 E6D8ADAD 		.ascii	"\346\330\255\255H\033\304\034\207\034/h\3531#Dk\216"
 315      481BC41C 
 315      871C2F68 
 315      EB312344 
 315      6B8E
 316 05ab 17B5F568 		.ascii	"\027\265\365h\203h\032XM\020\257h\353\361\225L\020\255"
 316      83681A58 
 316      4D10AF68 
 316      EBF1954C 
 316      10AD
 317 05bd 39F669EB 		.ascii	"9\366i\353\321\006\361a3\216\267\026\375\301\023\304"
 317      D106F161 
 317      338EB716 
 317      FDC113C4 
 318 05cd EF71E3D1 		.ascii	"\357q\343\321\320 ~\237#a\374\003\252?\242\372c\252"
 318      D0207E9F 
 318      2361FC03 
 318      AA3FA2FA 
 318      63AA
ARM GAS  /tmp/ccCtZxjj.s 			page 25


 319 05df 5750FD29 		.ascii	"WP\375)\325+\251n\242z5\325k\250^G\365\006\2527q,\021"
 319      D52BA96E 
 319      A27A35D5 
 319      6BA85E47 
 319      F506AA37 
 320 05f6 480BE6E4 		.ascii	"H\013\346\344\274\264\016\346\315\\\266i?\253/\371\306"
 320      BCB40EE6 
 320      CD5CB669 
 320      3FAB2FF9 
 320      C6
 321 0607 2F3D41BC 		.ascii	"/=A\274\236\376\244\336\250\373\346\222\371\007:kv\233"
 321      9EFEA4DE 
 321      A8FBE692 
 321      F9073A6B 
 321      769B
 322 0619 3576CE08 		.ascii	"5v\316\010\241\377L\206\345\007{n\323\247\204\007\320"
 322      A1FF4C86 
 322      E5077B6E 
 322      D3A78407 
 322      D0
 323 062a 67E49758 		.ascii	"g\344\227XC=\326\354\331\332tp\277\366\377\006\263\026"
 323      433DD6EC 
 323      D9DA7470 
 323      BFF6FF06 
 323      B316
 324 063c E87F788B 		.ascii	"\350\177x\213<3f\317\311\361\241\274\334\\A\376\213"
 324      3C3366CF 
 324      C9F1A1BC 
 324      DC5C41FE 
 324      8B
 325 064d D70A0BC2 		.ascii	"\327\012\013\3021!\021O\246j\205\362\212Y\005\371Bi"
 325      3121114F 
 325      A66A85F2 
 325      8A5905F9 
 325      4269
 326 065f A95F9811 		.ascii	"\251_\230\021\230Y\366B\276\220\010\307B\261XU\356\002"
 326      9859F642 
 326      BE9008C7 
 326      42B15855 
 326      EE02
 327 0671 34A236B5 		.ascii	"4\2426\265\260 ?4?\021\215\207j#\251\272D(5\250.Z\223"
 327      B0203F34 
 327      3F118D87 
 327      6A23A9BA 
 327      442835A8 
 328 0688 82BAD45C 		.ascii	"\202\272\324\\\241\2566)\304\342\225\0004/ZC`c\321y"
 328      A1AE3629 
 328      C4E29500 
 328      342F5A43 
 328      6063D179 
 329 069c C2FCCA4A 		.ascii	"\302\374\312J!\234\\8\261&^\023\231\030\011\317\213"
 329      219C5C38 
 329      B1265E13 
 329      991809CF 
 329      8B
 330 06ad 0A9372A7 		.ascii	"\012\223r\247\344\346\013ll\3703\276\217\326T\306\352"
 330      E4E60B6C 
ARM GAS  /tmp/ccCtZxjj.s 			page 26


 330      6CF833BE 
 330      8FD654C6 
 330      EA
 331 06be AA22426D 		.ascii	"\252\"Bm\252\012\240aT\367\302xU$\351\211\247^LD\222"
 331      AA0AA061 
 331      54F7C278 
 331      5524E989 
 331      A75E4C44 
 332 06d3 DE786D22 		.ascii	"\336xm\"\022\251J\272\023u\211\252$\037\257J\272\302"
 332      12A94ABA 
 332      137589AA 
 332      241FAF4A 
 332      BAC2
 333 06e5 D5C91851 		.ascii	"\325\311\030Q\013<\201B\1778\025\366\004\212\344\213"
 333      0B3C8142 
 333      7F3815F6 
 333      048AE48B 
 334 06f5 4FBEF8E5 		.ascii	"O\276\370\345\313tr\311\012\024\226\372\3425\325\321"
 334      CB7472C9 
 334      0A1496FA 
 334      E235D5D1 
 335 0705 F943438A 		.ascii	"\371CC\212]\241hM4\225\251/*\221\247\222\302\014\321"
 335      5DA1684D 
 335      3495A92F 
 335      2A91A792 
 335      C20CD1
 336 0718 B924E59E 		.ascii	"\271$\345\236U\346/\026=e\025s\003\305\242\267\254<"
 336      55E62F16 
 336      3D651573 
 336      03C5A2B7 
 336      AC3C
 337 072a 505CEC17 		.ascii	"P\\\354\027\335\2019\001\277\310\317\004)\363\213\370"
 337      DD813901 
 337      BFC8CF04 
 337      29F38BF8 
 338 073a 59EAB1BC 		.ascii	"Y\352\261\274\311\241\024\017.tW\306\"\341$.q\025\225"
 338      C9A1140F 
 338      2E7457C6 
 338      22E1242E 
 338      711595
 339 074d 8BA2ABD4 		.ascii	"\213\242\253\324\367\214\350*\234.\226\022U\302\027"
 339      F78CE82A 
 339      9C2E9612 
 339      55C217
 340 075c 89E2E068 		.ascii	"\211\342\340h\2340\211V\205RC\344\333\205\341\332\347"
 340      9C308956 
 340      855243E4 
 340      DB85E1DA 
 340      E7
 341 076d C1EDD138 		.ascii	"\301\355\3218\361J(5\212\231\001h\363\223\361\272\004"
 341      F14A2835 
 341      8A990168 
 341      F393F1BA 
 341      04
 342 077e A9779196 		.ascii	"\251w\221\226.\322\324E\036\263E\237/T\001\356\363G"
 342      2ED2D445 
 342      1EB3459F 
ARM GAS  /tmp/ccCtZxjj.s 			page 27


 342      2F5401EE 
 342      F347
 343 0790 AA0D9646 		.ascii	"\252\015\226F\026\245\004\337\254\362\231\345`\251l"
 343      16A504DF 
 343      ACF299E5 
 343      60A96C
 344 079f ECF48245 		.ascii	"\354\364\202E\213\004jSu\301\303\371\213\246\202\377"
 344      8B046A53 
 344      75C1C3F9 
 344      8BA682FF 
 345 07af 399FE8F2 		.ascii	"9\237\350\362M\237!\362\276\231\342\240\302@Q\276X^"
 345      4D9F21F2 
 345      BE99E2A0 
 345      C24051BE 
 345      585E
 346 07c1 416FF2C8 		.ascii	"Ao\362\310\215\247\260\244\250x\266\350%/\224"
 346      8DA7B0A4 
 346      A878B6E8 
 346      252F94
 347 07d0 6B1E5C5D 		.ascii	"k\036\\]E~\037\364(\207\212\222\"\322\316M \362\251"
 347      457E1FF4 
 347      28878A92 
 347      22D2CE4D 
 347      20F2A9
 348 07e3 2EF81748 		.ascii	".\370\027H\367\3705"
 348      F7F835
 349              		.text
 350              		.section	.gnu.lto_.symtab.f4536ca7e237752c,"",%progbits
 351 0000 5F70616C 		.ascii	"_pal_lld_init\000\000\000\000\000\000\000\000\000\000"
 351      5F6C6C64 
 351      5F696E69 
 351      74000000 
 351      00000000 
 352 0017 0000A000 		.ascii	"\000\000\240\000\000\000_pal_lld_setgroupmode\000\000"
 352      00005F70 
 352      616C5F6C 
 352      6C645F73 
 352      65746772 
 353 0034 00000000 		.ascii	"\000\000\000\000\000\000\000\000\000\000\317\000\000"
 353      00000000 
 353      0000CF00 
 353      00
 354 0041 00       		.ascii	"\000"
 355              		.text
 356              		.section	.gnu.lto_.opts,"",%progbits
 357 0000 272D6D63 		.ascii	"'-mcpu=cortex-m4''-mno-thumb-interwork''-mthumb''-g"
 357      70753D63 
 357      6F727465 
 357      782D6D34 
 357      27272D6D 
 358 0033 67646227 		.ascii	"gdb''-O2''-fomit-frame-pointer''-falign-functions=1"
 358      272D4F32 
 358      27272D66 
 358      6F6D6974 
 358      2D667261 
 359 0066 3627272D 		.ascii	"6''-ffunction-sections''-fdata-sections''-fno-commo"
 359      6666756E 
ARM GAS  /tmp/ccCtZxjj.s 			page 28


 359      6374696F 
 359      6E2D7365 
 359      6374696F 
 360 0099 6E27272D 		.ascii	"n''-flto'\000"
 360      666C746F 
 360      2700
 361              		.text
 362              		.cfi_sections	.debug_frame
 363              		.section	.text._pal_lld_init,"ax",%progbits
 364              		.align	2
 365              		.p2align 4,,15
 366              		.global	_pal_lld_init
 367              		.thumb
 368              		.thumb_func
 369              		.type	_pal_lld_init, %function
 370              	_pal_lld_init:
 371              	.LFB273:
 372              		.file 1 "../../../os/hal/ports/STM32/LLD/GPIOv2/pal_lld.c"
 373              		.loc 1 88 0
 374              		.cfi_startproc
 375              		@ args = 0, pretend = 0, frame = 0
 376              		@ frame_needed = 0, uses_anonymous_args = 0
 377              		@ link register save eliminated.
 378              	.LVL0:
 379              		.loc 1 102 0
 380 0000 4FF48053 		mov	r3, #4096
 381 0004 C4F20203 		movt	r3, 16386
 382 0008 5A69     		ldr	r2, [r3, #20]
 383 000a 42F4BC02 		orr	r2, r2, #6160384
 384 000e 5A61     		str	r2, [r3, #20]
 385              	.LVL1:
 386              	.LBB12:
 387              	.LBB13:
 388              		.loc 1 63 0
 389 0010 4168     		ldr	r1, [r0, #4]
 390 0012 4FF09043 		mov	r3, #1207959552
 391              	.LBE13:
 392              	.LBE12:
 393              	.LBB15:
 394              	.LBB16:
 395 0016 4FF48062 		mov	r2, #1024
 396              	.LBE16:
 397              	.LBE15:
 398              	.LBB19:
 399              	.LBB14:
 400 001a 5960     		str	r1, [r3, #4]
 401              		.loc 1 64 0
 402 001c 8168     		ldr	r1, [r0, #8]
 403 001e 9960     		str	r1, [r3, #8]
 404              		.loc 1 65 0
 405 0020 C168     		ldr	r1, [r0, #12]
 406 0022 D960     		str	r1, [r3, #12]
 407              		.loc 1 66 0
 408 0024 0169     		ldr	r1, [r0, #16]
 409 0026 5961     		str	r1, [r3, #20]
 410              		.loc 1 67 0
 411 0028 4169     		ldr	r1, [r0, #20]
ARM GAS  /tmp/ccCtZxjj.s 			page 29


 412 002a 1962     		str	r1, [r3, #32]
 413              		.loc 1 68 0
 414 002c 8169     		ldr	r1, [r0, #24]
 415 002e 5962     		str	r1, [r3, #36]
 416              		.loc 1 69 0
 417 0030 0168     		ldr	r1, [r0, #0]
 418 0032 1960     		str	r1, [r3, #0]
 419              	.LVL2:
 420              	.LBE14:
 421              	.LBE19:
 422              	.LBB20:
 423              	.LBB17:
 424              		.loc 1 63 0
 425 0034 016A     		ldr	r1, [r0, #32]
 426 0036 C4F60002 		movt	r2, 18432
 427              	.LBE17:
 428              	.LBE20:
 429              	.LBB21:
 430              	.LBB22:
 431 003a 4FF40063 		mov	r3, #2048
 432              	.LBE22:
 433              	.LBE21:
 434              	.LBB25:
 435              	.LBB18:
 436 003e 5160     		str	r1, [r2, #4]
 437              		.loc 1 64 0
 438 0040 416A     		ldr	r1, [r0, #36]
 439 0042 9160     		str	r1, [r2, #8]
 440              		.loc 1 65 0
 441 0044 816A     		ldr	r1, [r0, #40]
 442 0046 D160     		str	r1, [r2, #12]
 443              		.loc 1 66 0
 444 0048 C16A     		ldr	r1, [r0, #44]
 445 004a 5161     		str	r1, [r2, #20]
 446              		.loc 1 67 0
 447 004c 016B     		ldr	r1, [r0, #48]
 448 004e 1162     		str	r1, [r2, #32]
 449              		.loc 1 68 0
 450 0050 416B     		ldr	r1, [r0, #52]
 451 0052 5162     		str	r1, [r2, #36]
 452              		.loc 1 69 0
 453 0054 C169     		ldr	r1, [r0, #28]
 454 0056 1160     		str	r1, [r2, #0]
 455              	.LVL3:
 456              	.LBE18:
 457              	.LBE25:
 458              	.LBB26:
 459              	.LBB23:
 460              		.loc 1 63 0
 461 0058 C4F60003 		movt	r3, 18432
 462 005c C26B     		ldr	r2, [r0, #60]
 463 005e 5A60     		str	r2, [r3, #4]
 464              		.loc 1 64 0
 465 0060 026C     		ldr	r2, [r0, #64]
 466 0062 9A60     		str	r2, [r3, #8]
 467              		.loc 1 65 0
 468 0064 426C     		ldr	r2, [r0, #68]
ARM GAS  /tmp/ccCtZxjj.s 			page 30


 469 0066 DA60     		str	r2, [r3, #12]
 470              		.loc 1 66 0
 471 0068 826C     		ldr	r2, [r0, #72]
 472 006a 5A61     		str	r2, [r3, #20]
 473              		.loc 1 67 0
 474 006c C26C     		ldr	r2, [r0, #76]
 475 006e 1A62     		str	r2, [r3, #32]
 476              		.loc 1 68 0
 477 0070 026D     		ldr	r2, [r0, #80]
 478 0072 5A62     		str	r2, [r3, #36]
 479              		.loc 1 69 0
 480 0074 816B     		ldr	r1, [r0, #56]
 481              	.LBE23:
 482              	.LBE26:
 483              	.LBB27:
 484              	.LBB28:
 485              		.loc 1 63 0
 486 0076 4FF44062 		mov	r2, #3072
 487              	.LBE28:
 488              	.LBE27:
 489              	.LBB31:
 490              	.LBB24:
 491              		.loc 1 69 0
 492 007a 1960     		str	r1, [r3, #0]
 493              	.LVL4:
 494              	.LBE24:
 495              	.LBE31:
 496              	.LBB32:
 497              	.LBB29:
 498              		.loc 1 63 0
 499 007c 816D     		ldr	r1, [r0, #88]
 500 007e C4F60002 		movt	r2, 18432
 501              	.LBE29:
 502              	.LBE32:
 503              	.LBB33:
 504              	.LBB34:
 505 0082 4FF4A053 		mov	r3, #5120
 506              	.LBE34:
 507              	.LBE33:
 508              	.LBB36:
 509              	.LBB30:
 510 0086 5160     		str	r1, [r2, #4]
 511              		.loc 1 64 0
 512 0088 C16D     		ldr	r1, [r0, #92]
 513 008a 9160     		str	r1, [r2, #8]
 514              		.loc 1 65 0
 515 008c 016E     		ldr	r1, [r0, #96]
 516 008e D160     		str	r1, [r2, #12]
 517              		.loc 1 66 0
 518 0090 416E     		ldr	r1, [r0, #100]
 519 0092 5161     		str	r1, [r2, #20]
 520              		.loc 1 67 0
 521 0094 816E     		ldr	r1, [r0, #104]
 522 0096 1162     		str	r1, [r2, #32]
 523              		.loc 1 68 0
 524 0098 C16E     		ldr	r1, [r0, #108]
 525 009a 5162     		str	r1, [r2, #36]
ARM GAS  /tmp/ccCtZxjj.s 			page 31


 526              		.loc 1 69 0
 527 009c 416D     		ldr	r1, [r0, #84]
 528 009e 1160     		str	r1, [r2, #0]
 529              	.LVL5:
 530              	.LBE30:
 531              	.LBE36:
 532              	.LBB37:
 533              	.LBB35:
 534              		.loc 1 63 0
 535 00a0 C4F60003 		movt	r3, 18432
 536 00a4 426F     		ldr	r2, [r0, #116]
 537 00a6 5A60     		str	r2, [r3, #4]
 538              		.loc 1 64 0
 539 00a8 826F     		ldr	r2, [r0, #120]
 540 00aa 9A60     		str	r2, [r3, #8]
 541              		.loc 1 65 0
 542 00ac C26F     		ldr	r2, [r0, #124]
 543 00ae DA60     		str	r2, [r3, #12]
 544              		.loc 1 66 0
 545 00b0 D0F88020 		ldr	r2, [r0, #128]
 546 00b4 5A61     		str	r2, [r3, #20]
 547              		.loc 1 67 0
 548 00b6 D0F88420 		ldr	r2, [r0, #132]
 549 00ba 1A62     		str	r2, [r3, #32]
 550              		.loc 1 68 0
 551 00bc D0F88820 		ldr	r2, [r0, #136]
 552 00c0 5A62     		str	r2, [r3, #36]
 553              		.loc 1 69 0
 554 00c2 026F     		ldr	r2, [r0, #112]
 555 00c4 1A60     		str	r2, [r3, #0]
 556 00c6 7047     		bx	lr
 557              	.LBE35:
 558              	.LBE37:
 559              		.cfi_endproc
 560              	.LFE273:
 561              		.size	_pal_lld_init, .-_pal_lld_init
 562 00c8 AFF30080 		.section	.text._pal_lld_setgroupmode,"ax",%progbits
 562      AFF30080 
 563              		.align	2
 564              		.p2align 4,,15
 565              		.global	_pal_lld_setgroupmode
 566              		.thumb
 567              		.thumb_func
 568              		.type	_pal_lld_setgroupmode, %function
 569              	_pal_lld_setgroupmode:
 570              	.LFB274:
 571              		.loc 1 161 0
 572              		.cfi_startproc
 573              		@ args = 0, pretend = 0, frame = 0
 574              		@ frame_needed = 0, uses_anonymous_args = 0
 575              		@ link register save eliminated.
 576              	.LVL6:
 577 0000 2DE9F00F 		push	{r4, r5, r6, r7, r8, r9, sl, fp}
 578              	.LCFI0:
 579              		.cfi_def_cfa_offset 32
 580              		.cfi_offset 4, -32
 581              		.cfi_offset 5, -28
ARM GAS  /tmp/ccCtZxjj.s 			page 32


 582              		.cfi_offset 6, -24
 583              		.cfi_offset 7, -20
 584              		.cfi_offset 8, -16
 585              		.cfi_offset 9, -12
 586              		.cfi_offset 10, -8
 587              		.cfi_offset 11, -4
 588              		.loc 1 163 0
 589 0004 02F0030A 		and	sl, r2, #3
 590              	.LVL7:
 591              		.loc 1 164 0
 592 0008 C2F38007 		ubfx	r7, r2, #2, #1
 593              	.LVL8:
 594              		.loc 1 165 0
 595 000c C2F3C106 		ubfx	r6, r2, #3, #2
 596              	.LVL9:
 597              		.loc 1 166 0
 598 0010 C2F34115 		ubfx	r5, r2, #5, #2
 599              	.LVL10:
 600              		.loc 1 167 0
 601 0014 C2F3C31B 		ubfx	fp, r2, #7, #4
 602              	.LVL11:
 603              		.loc 1 163 0
 604 0018 5446     		mov	r4, sl
 605              		.loc 1 168 0
 606 001a 0023     		movs	r3, #0
 607 001c 1BE0     		b	.L9
 608              	.LVL12:
 609              	.L4:
 610              	.LBB38:
 611              		.loc 1 192 0
 612 001e D0F80090 		ldr	r9, [r0, #0]
 613 0022 02EA0902 		and	r2, r2, r9
 614              	.LVL13:
 615 0026 2243     		orrs	r2, r2, r4
 616              		.loc 1 193 0
 617 0028 072B     		cmp	r3, #7
 618              		.loc 1 192 0
 619 002a 0260     		str	r2, [r0, #0]
 620              		.loc 1 194 0
 621 002c 95BF     		itete	ls
 622 002e 026A     		ldrls	r2, [r0, #32]
 623              		.loc 1 196 0
 624 0030 426A     		ldrhi	r2, [r0, #36]
 625              		.loc 1 194 0
 626 0032 22EA0C0C 		bicls	ip, r2, ip
 627              	.LVL14:
 628              		.loc 1 196 0
 629 0036 22EA0C0C 		bichi	ip, r2, ip
 630              		.loc 1 194 0
 631 003a 95BF     		itete	ls
 632 003c 4CEA0802 		orrls	r2, ip, r8
 633              		.loc 1 196 0
 634 0040 4CEA0802 		orrhi	r2, ip, r8
 635              		.loc 1 194 0
 636 0044 0262     		strls	r2, [r0, #32]
 637              		.loc 1 196 0
 638 0046 4262     		strhi	r2, [r0, #36]
ARM GAS  /tmp/ccCtZxjj.s 			page 33


 639              	.LVL15:
 640              	.L3:
 641              	.LBE38:
 642              		.loc 1 200 0
 643 0048 4908     		lsrs	r1, r1, #1
 644              	.LVL16:
 645 004a 4ED0     		beq	.L2
 646              	.LVL17:
 647              	.L14:
 648              		.loc 1 202 0
 649 004c 7F00     		lsls	r7, r7, #1
 650              	.LVL18:
 651              		.loc 1 203 0
 652 004e B600     		lsls	r6, r6, #2
 653              	.LVL19:
 654              		.loc 1 204 0
 655 0050 AD00     		lsls	r5, r5, #2
 656              	.LVL20:
 657              		.loc 1 205 0
 658 0052 A400     		lsls	r4, r4, #2
 659              	.LVL21:
 660              		.loc 1 206 0
 661 0054 0133     		adds	r3, r3, #1
 662              	.LVL22:
 663              	.L9:
 664              		.loc 1 170 0
 665 0056 CA07     		lsls	r2, r1, #31
 666 0058 F6D5     		bpl	.L3
 667              	.LBB39:
 668              		.loc 1 177 0
 669 005a 4268     		ldr	r2, [r0, #4]
 670              		.loc 1 174 0
 671 005c 4FF00108 		mov	r8, #1
 672 0060 08FA03FC 		lsl	ip, r8, r3
 673              		.loc 1 177 0
 674 0064 22EA0C02 		bic	r2, r2, ip
 675 0068 3A43     		orrs	r2, r2, r7
 676 006a 4260     		str	r2, [r0, #4]
 677              		.loc 1 175 0
 678 006c 4FF00309 		mov	r9, #3
 679              		.loc 1 159 0
 680 0070 03FA08F2 		lsl	r2, r3, r8
 681              		.loc 1 178 0
 682 0074 D0F808C0 		ldr	ip, [r0, #8]
 683              		.loc 1 175 0
 684 0078 09FA02F2 		lsl	r2, r9, r2
 685              		.loc 1 178 0
 686 007c D243     		mvns	r2, r2
 687 007e 02EA0C0C 		and	ip, r2, ip
 688 0082 4CEA060C 		orr	ip, ip, r6
 689 0086 C0F808C0 		str	ip, [r0, #8]
 690              		.loc 1 179 0
 691 008a D0F80C80 		ldr	r8, [r0, #12]
 692              		.loc 1 173 0
 693 008e 03F0070C 		and	ip, r3, #7
 694              		.loc 1 179 0
 695 0092 02EA0808 		and	r8, r2, r8
ARM GAS  /tmp/ccCtZxjj.s 			page 34


 696              		.loc 1 173 0
 697 0096 4FEA8C0C 		lsl	ip, ip, #2
 698              		.loc 1 179 0
 699 009a 48EA0508 		orr	r8, r8, r5
 700              		.loc 1 176 0
 701 009e 4FF00F09 		mov	r9, #15
 702              		.loc 1 180 0
 703 00a2 BAF1020F 		cmp	sl, #2
 704              		.loc 1 179 0
 705 00a6 C0F80C80 		str	r8, [r0, #12]
 706              		.loc 1 173 0
 707 00aa 0BFA0CF8 		lsl	r8, fp, ip
 708              	.LVL23:
 709              		.loc 1 176 0
 710 00ae 09FA0CFC 		lsl	ip, r9, ip
 711              	.LVL24:
 712              		.loc 1 180 0
 713 00b2 B4D1     		bne	.L4
 714              		.loc 1 183 0
 715 00b4 072B     		cmp	r3, #7
 716              		.loc 1 184 0
 717 00b6 95BF     		itete	ls
 718 00b8 D0F82090 		ldrls	r9, [r0, #32]
 719              		.loc 1 186 0
 720 00bc D0F82490 		ldrhi	r9, [r0, #36]
 721              		.loc 1 184 0
 722 00c0 29EA0C0C 		bicls	ip, r9, ip
 723              	.LVL25:
 724              		.loc 1 186 0
 725 00c4 29EA0C0C 		bichi	ip, r9, ip
 726              		.loc 1 184 0
 727 00c8 95BF     		itete	ls
 728 00ca 4CEA0808 		orrls	r8, ip, r8
 729              	.LVL26:
 730              		.loc 1 186 0
 731 00ce 4CEA0808 		orrhi	r8, ip, r8
 732              		.loc 1 184 0
 733 00d2 C0F82080 		strls	r8, [r0, #32]
 734              		.loc 1 186 0
 735 00d6 C0F82480 		strhi	r8, [r0, #36]
 736              		.loc 1 187 0
 737 00da D0F800C0 		ldr	ip, [r0, #0]
 738 00de 02EA0C02 		and	r2, r2, ip
 739              	.LVL27:
 740 00e2 2243     		orrs	r2, r2, r4
 741              	.LBE39:
 742              		.loc 1 200 0
 743 00e4 4908     		lsrs	r1, r1, #1
 744              	.LVL28:
 745              	.LBB40:
 746              		.loc 1 187 0
 747 00e6 0260     		str	r2, [r0, #0]
 748              	.LBE40:
 749              		.loc 1 200 0
 750 00e8 B0D1     		bne	.L14
 751              	.LVL29:
 752              	.L2:
ARM GAS  /tmp/ccCtZxjj.s 			page 35


 753              		.loc 1 208 0
 754 00ea BDE8F00F 		pop	{r4, r5, r6, r7, r8, r9, sl, fp}
 755 00ee 7047     		bx	lr
 756              		.cfi_endproc
 757              	.LFE274:
 758              		.size	_pal_lld_setgroupmode, .-_pal_lld_setgroupmode
 759              		.text
 760              	.Letext0:
 761              		.file 2 "/usr/local/bin/../lib/gcc/arm-none-eabi/4.7.2/../../../../arm-none-eabi/include/stdint.h"
 762              		.file 3 "../../../os/rt/ports/ARMCMx/compilers/GCC/chtypes.h"
 763              		.file 4 "../../../os/rt/include/chsystypes.h"
 764              		.file 5 "../../../os/rt/include/chschd.h"
 765              		.file 6 "../../../os/ext/CMSIS/ST/STM32F3xx/stm32f302x8.h"
 766              		.file 7 "../../../os/rt/ports/ARMCMx/chcore.h"
 767              		.file 8 "../../../os/rt/ports/ARMCMx/chcore_v7m.h"
 768              		.file 9 "../../../os/rt/include/chtm.h"
 769              		.file 10 "../../../os/rt/include/chsem.h"
 770              		.file 11 "../../../os/rt/include/chmtx.h"
 771              		.file 12 "../../../os/hal/ports/STM32/LLD/GPIOv2/pal_lld.h"
 772              		.file 13 "../../../os/ext/CMSIS/include/core_cm4.h"