ARM GAS  /tmp/cc7j1sXR.s 			page 1


   1              		.syntax unified
   2              		.cpu cortex-m4
   3              		.fpu softvfp
   4              		.eabi_attribute 20, 1
   5              		.eabi_attribute 21, 1
   6              		.eabi_attribute 23, 3
   7              		.eabi_attribute 24, 1
   8              		.eabi_attribute 25, 1
   9              		.eabi_attribute 26, 1
  10              		.eabi_attribute 30, 2
  11              		.eabi_attribute 34, 1
  12              		.eabi_attribute 18, 4
  13              		.thumb
  14              		.file	"st.c"
  15              		.text
  16              	.Ltext0:
  17              		.section	.gnu.lto_.jmpfuncs.54dd54e2016085aa,"",%progbits
  18 0000 789C6362 		.ascii	"x\234cb`d`g\300\016x\2414+\020322103\26200\000\000\003"
  18      60646067 
  18      C00E78A1 
  18      342B1033 
  18      32323130 
  19 001b 8D0029   		.ascii	"\215\000)"
  20              		.text
  21              		.section	.gnu.lto_.inline.54dd54e2016085aa,"",%progbits
  22 0000 789C6362 		.ascii	"x\234cb`d\340e\300\016\302\2404+\003\003\013\017#\003"
  22      6064E065 
  22      C00EC2A0 
  22      342B0303 
  22      0B0F2303 
  23 0014 1390C9B6 		.ascii	"\023\220\311\266@\236\211\201\221\013\310bd`c\005\212"
  23      409E8981 
  23      910BC862 
  23      64606305 
  23      8A
  24 0025 B17DD083 		.ascii	"\261}\320\203\01021\2600\003\371L\027\370!|f4>\013\032"
  24      083231B0 
  24      3003F94C 
  24      17F8217C 
  24      66343E0B 
  25 003a 9F010050 		.ascii	"\237\001\000P)\010j"
  25      29086A
  26              		.text
  27              		.section	.gnu.lto_.pureconst.54dd54e2016085aa,"",%progbits
  28 0000 789C6362 		.ascii	"x\234cb`d`f``\340f\200\000V\006\011F)&)f)\026)\000\004"
  28      60646066 
  28      6060E066 
  28      80005606 
  28      09462926 
  29 001b 5700A1   		.ascii	"W\000\241"
  30              		.text
  31              		.section	.gnu.lto_stInit.54dd54e2016085aa,"",%progbits
  32 0000 789C6362 		.ascii	"x\234cb`\004BL \011\304\265@,\015\304\214\314\014\214"
  32      6004424C 
  32      2009C4B5 
  32      402C0DC4 
  32      8CCC0C8C 
ARM GAS  /tmp/cc7j1sXR.s 			page 2


  33 0014 4C13CE31 		.ascii	"L\023\316104*012\202\030@-\365L\214\365\241\020\235"
  33      30342A30 
  33      31328218 
  33      402DF54C 
  33      8CF5A110 
  34 0029 A7FEAC63 		.ascii	"\247\376\254c\374c\276\237\351\300\203\377\365\014\014"
  34      FC63BE9F 
  34      E9C083FF 
  34      F50C0C
  35 0038 CC401156 		.ascii	"\314@\021V\206\226\206\006\001\206x\250\311\201 \032"
  35      86968606 
  35      018678A8 
  35      C981201A 
  36 0048 A42F8891 		.ascii	"\244/\210\221\011\314`>\303\300\374\345:{,\343\002F"
  36      09CC603E 
  36      C3C0FCE5 
  36      3A7B2CE3 
  36      0246
  37 005a 56A05415 		.ascii	"V\240T\025\303\317\006\216T\240C\342\031\031!ZRA\364"
  37      C3CF068E 
  37      54A043E2 
  37      1919215A 
  37      5241F4
  38 006d 3906A0B1 		.ascii	"9\006\240\261050\223\030\301\0060\201\234\250\247\247"
  38      30353093 
  38      18C10630 
  38      819CA8A7 
  38      A7
  39 007e 0F41F9C5 		.ascii	"\017A\371\305\372\031\2119\372\305E\311\372\305%z\311"
  39      FA198939 
  39      FAC545C9 
  39      FAC5257A 
  39      C9
  40 008f 0C006074 		.ascii	"\014\000`t%\006"
  40      2506
  41              		.text
  42              		.section	.gnu.lto_stStartAlarm.54dd54e2016085aa,"",%progbits
  43 0000 789C9D90 		.ascii	"x\234\235\220\301J\002Q\024\206\377sgF\267n\205 \021"
  43      C14A0251 
  43      1486FF73 
  43      6746B76E 
  43      852011
  44 0013 A1453097 		.ascii	"\241E0\227j\323\003\264(\322\205e\320\306\304\246\001"
  44      6AD303B4 
  44      28D28565 
  44      D0C6C4A6 
  44      01
  45 0024 05C370A4 		.ascii	"\005\303p\244\255c\371\000\322N!\250\244\215A\017\320"
  45      AD63F900 
  45      D24E21A8 
  45      A48D410F 
  45      D0
  46 0035 A6888870 		.ascii	"\246\210\210p\341*h+\021\255\\\265\210vv\356\214\222"
  46      E12A682B 
  46      11AD5CB5 
  46      887676EE 
  46      8C92
ARM GAS  /tmp/cc7j1sXR.s 			page 3


  47 0047 568BE8CC 		.ascii	"V\213\350\314\314=\347\336s\377\377\033\216\000\361"
  47      CC3DE7DE 
  47      73FFFF1B 
  47      8E00F1
  48 0056 F333C2FC 		.ascii	"\3633\302\374\275qc\2233i Q\357\002\325\210 R\005K*"
  48      BD716393 
  48      33692051 
  48      EF02D588 
  48      2052054B 
  49 006b 822A1BBE 		.ascii	"\202*\033\276\262s\334\232yl\006\256\305MoP\211\241"
  49      B273DC9A 
  49      796C06AE 
  49      C54D6F50 
  49      89A1
  50 007d E5BA47F5 		.ascii	"\345\272G\365Cw\331&\010L\0212\204~\343\235\302\260"
  50      4377D926 
  50      084C1132 
  50      847EE39D 
  50      C2B0
  51 008f 891081CA 		.ascii	"\211\020\201\312\002\272\022\362\015\004\211\322tB1"
  51      02BA12F2 
  51      0D0489D2 
  51      744231
  52 009e B5375073 		.ascii	"\2657Ps\335\020\345=\215\027I\225\025q\2155\252\320"
  52      DD10E53D 
  52      8D174995 
  52      15718D35 
  52      AAD0
  53 00b0 EE21F82C 		.ascii	"\356!\370,\212\323!\345\2407\030L{\250\230'\313\375"
  53      8AD321E5 
  53      A037184C 
  53      7BA89827 
  53      CBFD
  54 00c2 C2F90A8B 		.ascii	"\302\371\012\213[\350\340v\365\365\352\351N\363y#l\232"
  54      5BE8E076 
  54      F5F5EAE9 
  54      4EF37923 
  54      6C9A
  55 00d4 5A14459A 		.ascii	"Z\024E\232\316\310\030SH\\\2725\262I\323g\321\366*]"
  55      CEC81853 
  55      485CBA35 
  55      B249D367 
  55      D1F62A5D 
  56 00e8 6BA2510D 		.ascii	"k\242Q\015\331d\010\305\010\300\345\320\341\327\360"
  56      D96408C5 
  56      08C0E5D0 
  56      E1D7F0
  57 00f7 A6B9A596 		.ascii	"\246\271\245\226\017\315\233\243M\301\241\325\2031\366"
  57      0FCD9BA3 
  57      4DC1A1D5 
  57      8331F6
  58 0106 078B2F17 		.ascii	"\007\213/\027\317\214<g\330\310X\373\2131\215\031k\376"
  58      CF8C3C67 
  58      D8C858FB 
  58      8B318D19 
  58      6BFE
  59 0118 F8D9ACFF 		.ascii	"\370\331\254\377?31a\306;tA\235\26659\204\244\202\362"
ARM GAS  /tmp/cc7j1sXR.s 			page 4


  59      3F333161 
  59      C63B7441 
  59      9DB63539 
  59      84A482F2 
  60 012c EC553F6C 		.ascii	"\354U?l\232\322\177\213\216\314e\013\322)Y\322)\233"
  60      9AD27F8B 
  60      8ECC650B 
  60      D22959D2 
  60      299B
  61 013e 1682D96D 		.ascii	"\026\202\331m\247\234\337\265u\265\310\357\327\366\212"
  61      A79CDFB5 
  61      75B5C8EF 
  61      D7F68A
  62 014d A5B223D7 		.ascii	"\245\262#\327S\211\205y\031\217/\311\324Jb\177\216\205"
  62      53898579 
  62      198F2FC9 
  62      D44A627F 
  62      8E85
  63 015f 994261C7 		.ascii	"\231Ba\307\314\341\023XT|\366"
  63      CCE11358 
  63      547CF6
  64              		.text
  65              		.section	.gnu.lto_stStopAlarm.54dd54e2016085aa,"",%progbits
  66 0000 789C6362 		.ascii	"x\234cb`\004BL \011\304\007\200\330\033\210\031\231"
  66      6004424C 
  66      2009C407 
  66      80D81B88 
  66      1999
  67 0012 19189926 		.ascii	"\031\030\231&\234c`hT`bd\0041\200Z\352\231\030\353C"
  67      9C636068 
  67      54606264 
  67      0431805A 
  67      EA9918EB 
  68 0027 213A4FED 		.ascii	"!:O\355^,\363e6\333~\246\003\017\376\32730\260\000\205"
  68      5E2CF365 
  68      36DB7EA6 
  68      030FFED7 
  68      3330B000 
  69 003c 58195A1A 		.ascii	"X\031Z\032\032\004\030\342\241F\007\202h\220\306 F&"
  69      1A0418E2 
  69      A1460782 
  69      6890C620 
  69      4626
  70 004e 3083F914 		.ascii	"0\203\371\024\303!\213O?o~a\202\252\204R\261\214\013"
  70      C3218B4F 
  70      3F6F7E61 
  70      82AA8452 
  70      B18C0B
  71 0061 1859919C 		.ascii	"\030Y\221\234\241\315\260\252\241\2051\225\221\201y"
  71      A1CDB0AA 
  71      A1853195 
  71      918179
  72 0070 16C3CC46 		.ascii	"\026\303\314F\201TFF&I\206T\240!\015@\300\302\000a3"
  72      81544646 
  72      26498654 
  72      A0210D40 
  72      C0C20061 
ARM GAS  /tmp/cc7j1sXR.s 			page 5


  73 0085 807D1007 		.ascii	"\200}\020\007\"~0\203\335\236\012\265\367\034\003\343"
  73      227E3083 
  73      DD9E0AB5 
  73      F71C03E3 
  74 0095 A97DC9A8 		.ascii	"\251}\311\250\206\00622\202\235\000\322'\251\247\247"
  74      86063232 
  74      829D00D2 
  74      27A9A7A7 
  75 00a5 0F41F9C5 		.ascii	"\017A\371\305\372\031\2119\372\305E\311\372\305%z\311"
  75      FA198939 
  75      FAC545C9 
  75      FAC5257A 
  75      C9
  76 00b6 0CFAE832 		.ascii	"\014\372\3502\005\371E%\305\372\301!\276\306F\372>>"
  76      05F94525 
  76      C5FAC121 
  76      BEC646FA 
  76      3E3E
  77 00c8 2EFA219E 		.ascii	".\372!\236\276e\206@\265\36199)z\031\014\000\277\232"
  77      BE658640 
  77      B5F13939 
  77      297A190C 
  77      00BF9A
  78 00db 40AE     		.ascii	"@\256"
  79              		.text
  80              		.section	.gnu.lto_stSetAlarm.54dd54e2016085aa,"",%progbits
  81 0000 789C6D90 		.ascii	"x\234m\220=K\003A\020\206\337\331\273K\332\264\001\301"
  81      3D4B0341 
  81      1086DFD9 
  81      BB4BDAB4 
  81      01C1
  82 0012 10828D70 		.ascii	"\020\202\215p\213\372\027,\024\223\"\032!\315\031\342"
  82      8BFA172C 
  82      1493221A 
  82      21CD19E2 
  83 0022 7990C049 		.ascii	"y\220\300I$w\330f\243\371\001\301N!\240^g\341\017\260"
  83      2477D866 
  83      A3F901C1 
  83      4E21A05E 
  83      67E10FB0 
  84 0036 5144440E 		.ascii	"QDD\016Io\241\244\262\264\262\260\213\273{\011~\316"
  84      496FA1A4 
  84      B2B4B2B0 
  84      8BBB7B09 
  84      7ECE
  85 0048 7ECCECCE 		.ascii	"~\314\354\316<\373\356.\003\311\366\327\262rTe\242*"
  85      3CFBEE2E 
  85      03C9F6D7 
  85      B2725465 
  85      A22A
  86 005a 3D1920D6 		.ascii	"=\031 \326\037\002\335\034#R\201D:\214:\233\011\031"
  86      1F02DD1C 
  86      23528144 
  86      3A8C3A9B 
  86      0919
  87 006c 3F4573EF 		.ascii	"?Es\357\203\3245\273\031\215;\005DB\034\365\017\305"
  87      83D435BB 
ARM GAS  /tmp/cc7j1sXR.s 			page 6


  87      198D3B05 
  87      44421CF5 
  87      0FC5
  88 007e 8A476098 		.ascii	"\212G`\230!\324\010\217\2037\312\302#B\016\3123\230"
  88      21D4088F 
  88      8337CAC2 
  88      23420ECA 
  88      3398
  89 0090 0A9415B0 		.ascii	"\012\224\025\260\210\034:\245\202Z[\350\011\221\241"
  89      881C3AA5 
  89      825A5BE8 
  89      0991A1
  90 009f A666B495 		.ascii	"\246f\264\225\225W\212\353\222Q\201q\017&\367\3628\233"
  90      95578AEB 
  90      92518171 
  90      0F26F7F2 
  90      389B
  91 00b1 A81C8CC6 		.ascii	"\250\034\214\306\343Y-U\320X\343\037\235/se\0121n\327"
  91      E3592D55 
  91      D058E31F 
  91      9D2F7365 
  91      0A316ED7 
  92 00c5 5EAF9EEF 		.ascii	"^\257\236\357\214Do*\353PDy8tN\3267\202\343R\364\310"
  92      8C446F2A 
  92      EB504479 
  92      38744ED6 
  92      3782E352 
  93 00db 23C39CC7 		.ascii	"#\303\234\307\205\216L\343\004\307\335\214G\026S\032"
  93      858E4CE3 
  93      04C7DD8C 
  93      4716531A 
  94 00eb 29086926 		.ascii	")\010i&\222\030\3727\267\324\364a\350\177\364(=9\352"
  94      9218FA37 
  94      B7D4F461 
  94      E87FF428 
  94      3D39EA
  95 00fe C19ADE60 		.ascii	"\301\232\336`\010\212_\334\237Re\225\220/d\212\262m"
  95      088A5FDC 
  95      9F526595 
  95      902F648A 
  95      B26D
  96 0110 9EF456C0 		.ascii	"\236\364V\300\033u\237\007m\227\007\241\355\"]\337\016"
  96      1B759F07 
  96      6D9707A1 
  96      ED225DDF 
  96      0E
  97 0121 C2E6AE67 		.ascii	"\302\346\256g\252\211\377.\333k\265\303\200oTJK\213"
  97      AA89FF2E 
  97      DB6BB5C3 
  97      806F544A 
  97      4B8B
  98 0133 BC585CE6 		.ascii	"\274X\\\346\225\325\322\376\202\004k\276\277c7\360\011"
  98      95D5D2FE 
  98      82046BBE 
  98      BF6337F0 
  98      09
  99 0144 F41D5F7F 		.ascii	"\364\035_\177"
ARM GAS  /tmp/cc7j1sXR.s 			page 7


 100              		.text
 101              		.section	.gnu.lto_stGetAlarm.54dd54e2016085aa,"",%progbits
 102 0000 789C6362 		.ascii	"x\234cb`\004BL \011\304\022@\011o \315\310\314\300\310"
 102      6004424C 
 102      2009C412 
 102      40096F20 
 102      CDC8CCC0 
 103 0015 34E11C03 		.ascii	"4\341\034\003C\243\002\023##\210\001\324R\317\304X\037"
 103      43A30213 
 103      23238801 
 103      D452CFC4 
 103      581F
 104 0027 0AD6C9A8 		.ascii	"\012\326\311\250\304\260\260\241a\326\204\303M\036M"
 104      C4B0B0A1 
 104      61D684C3 
 104      4D1E4D
 105 0036 0FFEFF97 		.ascii	"\017\376\377\227O\005\211\30632\234\372\371\230W\222"
 105      4F0589C6 
 105      33329CFA 
 105      F9985792 
 106 0046 21959191 		.ascii	"!\225\221\221A\201\001D31\260\240\332q\202\375\313|"
 106      41810144 
 106      3331B0A0 
 106      DA7182FD 
 106      CB7C
 107 0058 B6FD4C07 		.ascii	"\266\375L\007\036\374\257g``ca\210e\\\0004\013\010X"
 107      1EFCAF67 
 107      60606361 
 107      88655C00 
 107      340B0858 
 108 006c 195A1A1A 		.ascii	"\031Z\032\032\004\0303\031A\306\200A \210\006\331\034"
 108      04183319 
 108      41C68041 
 108      208806D9 
 108      1C
 109 007d 043406C4 		.ascii	"\0044\006\304`>\305p(\356\323\317\3732\020\265P-@#\026"
 109      603EC570 
 109      28EED3CF 
 109      FB3210B5 
 109      502D4023 
 110 0092 32B22259 		.ascii	"2\262\"Y\221\314\310\242\317\260\256\241\2051\225\221"
 110      91CCC8A2 
 110      CFB0AEA1 
 110      85319591 
 111 00a2 99459B61 		.ascii	"\231E\233a\025\230\305\302<\213af\243@*#+\023\310]l"
 111      1598C5C2 
 111      3C8B6166 
 111      A3402A23 
 111      2B13C85D 
 112 00b7 0C0D40C0 		.ascii	"\014\015@\300\302\000a3\200\203#\016D\314\340\004\007"
 112      C2006133 
 112      8083230E 
 112      44CCE004 
 112      07
 113 00c8 442A233B 		.ascii	"D*#;\324\264\025\314`\352\034\003\343\251\277\217\031"
 113      D4B415CC 
 113      60EA1C03 
ARM GAS  /tmp/cc7j1sXR.s 			page 8


 113      E3A9BF8F 
 113      19
 114 00d9 2176016D 		.ascii	"!v\001m\2009\221\021\3542&\220&==}\010\312/\326\317"
 114      80399111 
 114      EC322690 
 114      263D3D7D 
 114      08CA2FD6 
 115 00ee 48CCD12F 		.ascii	"H\314\321/.J\326/.\321Kf\320G\227)\310/*)\326\017\016"
 115      2E4AD62F 
 115      2ED14B66 
 115      D0479729 
 115      C82F2A29 
 116 0105 F13536D2 		.ascii	"\36156\322\367\361q\321\017\361\364-3\004\252\215\317"
 116      F7F171D1 
 116      0FF1F42D 
 116      3304AA8D 
 116      CF
 117 0116 C949D1CB 		.ascii	"\311I\321\313`\000\000\026RP["
 117      60000016 
 117      52505B
 118              		.text
 119              		.section	.gnu.lto_.cgraph.54dd54e2016085aa,"",%progbits
 120 0000 789C45C7 		.ascii	"x\234E\307\261\015\2000\020\003@\333O\306d\026G\242"
 120      B10D8030 
 120      100340DB 
 120      4FC66416 
 120      47A2
 121 0012 A10C9082 		.ascii	"\241\014\220\202\212\221\230\201I\020\022B\374u'\020"
 121      8A919881 
 121      49101242 
 121      FC752710 
 122 0022 0160C447 		.ascii	"\001`\304GM\006\332\011\373\230\251Efn\225\225\333\344"
 122      4D06DA09 
 122      FB98A945 
 122      666E9595 
 122      DBE4
 123 0034 C87579F8 		.ascii	"\310uy\370\307].\357je\240`\272n\342\001\205a\035\315"
 123      C75D2EEF 
 123      6A65A060 
 123      BA6EE201 
 123      85611DCD 
 124              		.text
 125              		.section	.gnu.lto_.vars.54dd54e2016085aa,"",%progbits
 126 0000 789C6362 		.ascii	"x\234cb`d`f`\000\222P\000\000\000r\000\010"
 126      60646066 
 126      60009250 
 126      00000072 
 126      0008
 127              		.text
 128              		.section	.gnu.lto_.refs.54dd54e2016085aa,"",%progbits
 129 0000 789C6362 		.ascii	"x\234cb`d`f```b\200\001\000\000\204\000\011"
 129      60646066 
 129      60606062 
 129      80010000 
 129      840009
 130              		.text
 131              		.section	.gnu.lto_.statics.54dd54e2016085aa,"",%progbits
ARM GAS  /tmp/cc7j1sXR.s 			page 9


 132 0000 789C6362 		.ascii	"x\234cb`d`b\300\016@\342\214\020&\000\000\375\000\011"
 132      60646062 
 132      C00E40E2 
 132      8C102600 
 132      00FD0009 
 133              		.text
 134              		.section	.gnu.lto_.decls.54dd54e2016085aa,"",%progbits
 135 0000 789C9D58 		.ascii	"x\234\235X}L\034E\024\237\331=\201\003\212\245i\233"
 135      7D4C1C45 
 135      149FD93D 
 135      81038AA5 
 135      699B
 136 0012 6BB4819A 		.ascii	"k\264\201\232\326\030\222\336\226\217\264\376\323\244"
 136      D61892DE 
 136      968FB4FE 
 136      D3A4
 137 0020 78102029 		.ascii	"x\020 )\265Y\320\320?6'\034T.9\016\274[L\372\337\366"
 137      B559D0D0 
 137      3F36271C 
 137      542E390E 
 137      BC5B4CFA 
 138 0036 306A8C9A 		.ascii	"0j\214\232Sc\322?\214=h\251(\255U\010FZk\251\020\013"
 138      5363D23F 
 138      8C3D68A9 
 138      28AD5508 
 138      465A6BA9 
 139 004c B14D4BAC 		.ascii	"\261MK\254\037M!b\212_\021\253\"\3326E\3177\263\337"
 139      1F4D2162 
 139      8A5F11AB 
 139      22DA3645 
 139      CF37B3DF 
 140 0060 C7EDDD2D 		.ascii	"\307\355\335-\023\336\333\331\271\367~\363{o\336\316"
 140      13DEDBD9 
 140      B9F77EF3 
 140      7B6FDECE 
 141 0070 CEC2208C 		.ascii	"\316\302 \214H{\031.qhO\026\302\025\372Y0\266\033\351"
 141      487B192E 
 141      71684F16 
 141      C215FA59 
 141      30B61BE9 
 142 0084 8DDCC740 		.ascii	"\215\334\307@\372A\206@F@FA\316\241\225\215\3301 \347"
 142      FA418640 
 142      46404641 
 142      CEA1958D 
 142      D83120E7 
 143 0098 417A9531 		.ascii	"Az\2251F\031OfO0s@\006@\012@\362A\306@.\200L\200,\201"
 143      46194F66 
 143      4F307340 
 143      06400A40 
 143      F241C640 
 144 00b2 38405890 		.ascii	"8@X\220\233 \323 W@\260\342K\256\177'`\016)\366c\006"
 144      9B20D320 
 144      5740B0E2 
 144      4BAE7F27 
 144      600E29F6 
 145 00c8 0C6CF01B 		.ascii	"\014l\360\033J\302c$C\036X\341\201\025\037r\215'`\215"
 145      4AC26324 
ARM GAS  /tmp/cc7j1sXR.s 			page 10


 145      431E58E1 
 145      81151F72 
 145      8D27608D 
 146 00dc AE026B54 		.ascii	"\256\002kT\271:\260\031\253\010\275-\305\346\242=R\355"
 146      B93AB019 
 146      AB08BD2D 
 146      C5E6A23D 
 146      52ED
 147 00ee 9D783C7B 		.ascii	"\235x<{#zS\202\026{^\222\260(\340\335\033\320&$\340"
 147      237A5382 
 147      167B5E92 
 147      B028E0DD 
 147      1BD02624 
 148 0103 022742C5 		.ascii	"\002'B\305\264\227\357\224\221\021\364{\361F\245\327"
 148      B497EF94 
 148      9111F47B 
 148      F146A5D7 
 149 0113 C8CA580C 		.ascii	"\310\312X\014b0*A\357J\264)\023)\027'\352\233:\315\252"
 149      62302A41 
 149      EF4AB429 
 149      13291727 
 149      EA9B3ACD 
 150 0128 B33E8CFA 		.ascii	"\263>\214\372\211\311X\304E'! 1\\d\"&\340>\314$2\235"
 150      89C958C4 
 150      45272120 
 150      315C6422 
 150      26E03ECC 
 151 013f FB63354C 		.ascii	"\373c5LO(LYZ)@\345EI\212\020\327\332IH_r\277m\350\270"
 151      4F284C59 
 151      5A2940E5 
 151      45498A10 
 151      D7DA4948 
 152 0159 24454918 		.ascii	"$EI\030\002\036\300N\360,\301\360\3631\\\202\206\316"
 152      021EC04E 
 152      F02CC1F0 
 152      F3315C82 
 152      86CE
 153 016b 9EDAA006 		.ascii	"\236\332\240\006e\023i\220\"\035P\221\336{u\372sN\015"
 153      65136990 
 153      221D5091 
 153      DE7B75FA 
 153      734E0D
 154 017e 37DB690E 		.ascii	"7\333i\016\037\356e+\031X\376Y\355\221\307\351~d\337"
 154      1FEE652B 
 154      1958FE59 
 154      ED91C7E9 
 154      7E64DF
 155 0191 01EBAB05 		.ascii	"\001\353\253\005D>\301*\223\276\353\303\025\362\350"
 155      443EC12A 
 155      93BEEBC3 
 155      15F2E8
 156 01a0 56744C92 		.ascii	"VtL\222^'iV\003\237\242V\375\260>\337f[$Y6M\266\254"
 156      5E276956 
 156      039FA256 
 156      FDB03EDF 
 156      665B2459 
 157 01b8 C4ADDD44 		.ascii	"\304\255\335D\363\375T\313*\227\025\203\2465f3\017\244"
ARM GAS  /tmp/cc7j1sXR.s 			page 11


 157      F3FD54CB 
 157      2A971583 
 157      A6356633 
 157      0FA4
 158 01ca 289AA115 		.ascii	"(\232\241\025E3\234\032\375\004E\237\325\320/mN\036"
 158      45339C1A 
 158      FD04459F 
 158      D5D02F6D 
 158      4E1E
 159 01dc B5803F00 		.ascii	"\265\200?\000 \001\217\300\004\037\333\217zdE\324\037"
 159      20018FC0 
 159      041FDB8F 
 159      7A6445D4 
 159      1F
 160 01ed D9286682 		.ascii	"\331(f\202j]\315g\222<w?\353\001\035\015\232\362\025"
 160      6A5DCD67 
 160      923C773F 
 160      EB011D0D 
 160      9AF215
 161 0200 898E4794 		.ascii	"\211\216G\224\230\210\313(I\230\0256\2658\233\204h4"
 161      9888CB28 
 161      49981536 
 161      B5389B84 
 161      6834
 162 0212 DA13332D 		.ascii	"\332\0233-\317_\332|\377\035\275}\321e^\202O\315\010"
 162      CF5FDA7C 
 162      FF1DBD7D 
 162      D1655E82 
 162      4FCD08
 163 0225 79E825FD 		.ascii	"y\350%\375!\221\001\254\203;\217\363T?\372p\365\244"
 163      219101AC 
 163      833B8FF3 
 163      543FFA70 
 163      F5A4
 164 0237 79B8047C 		.ascii	"y\270\004|\022o\313\260\366\013Q\224fY\222\263<f\310"
 164      126FCBB0 
 164      F60B5194 
 164      665992B3 
 164      3C66C8
 165 024a 326C562A 		.ascii	"2lV*\352Z:y\202\355`*[\001\177\206\013u\312\222\026"
 165      EA5A3A79 
 165      82ED602A 
 165      5B017F86 
 165      0B75CA92 
 166 025f 6A7EAA65 		.ascii	"j~\252e\034\307\362\363\256\216\353=m\2274\331\241u"
 166      1CC7F2F3 
 166      AE8EEB3D 
 166      6D9734D9 
 166      A175
 167 0271 E835025E 		.ascii	"\3505\002^lL\206\224\245y=\205\314[\315\004^\007\013"
 167      6C4C8694 
 167      A5793D85 
 167      CC5BCD04 
 167      5E070B
 168 0284 759A5117 		.ascii	"u\232Q\027\352\326;\2637\330\214\221\310\314\027\001"
 168      EAD63BB3 
 168      37D88C91 
ARM GAS  /tmp/cc7j1sXR.s 			page 12


 168      C8CC1701 
 169 0294 41F6A5B8 		.ascii	"A\366\245\270\222\214KF\221Zl\013\007\321\312\266~\013"
 169      928C4B46 
 169      915A6C0B 
 169      07D1CAB6 
 169      7E0B
 170 02a6 8A49CFF5 		.ascii	"\212I\317\365\220\342\316\222\323\314\240[\224\007\361"
 170      90E2CE92 
 170      D3CCA05B 
 170      9407F1
 171 02b5 BDB6F023 		.ascii	"\275\266\360#N\236\025=\023j6\012\364-1\011\346\242"
 171      4E9E153D 
 171      136A360A 
 171      F42D3109 
 171      E6A2
 172 02c7 863913B0 		.ascii	"\2069\023\260\203Xl\211\370\217\2068\237\0061'C\216"
 172      83586C89 
 172      F88F8638 
 172      9F063127 
 172      438E
 173 02d9 F734C405 		.ascii	"\3674\304\005[\210\326\034%VE\\J\203\2706C\216=\032"
 173      5B88D61C 
 173      2556455C 
 173      4A83B836 
 173      438E3D1A 
 174 02ed E2B22D44 		.ascii	"\342\262-Dk\216/h\210\023\035\251\021]\031r|EC\274d"
 174      6B8E2F68 
 174      88131DA9 
 174      115D1972 
 174      7C4543BC 
 175 0302 0BD19AE3 		.ascii	"\013\321\232\343\033\032\342\2654\210\305\031r<\242"
 175      1B1AE2B5 
 175      3488C519 
 175      723CA2
 176 0311 21CED842 		.ascii	"!\316\330B\264\346\370\226\2068\237\006\361\221\014"
 176      B4E6F896 
 176      86389F06 
 176      F1910C
 177 0320 39C634C4 		.ascii	"9\3064\304\005[\210\326\034\217\353\365\230\006q\207"
 177      055B88D6 
 177      1C8FEBF5 
 177      98067187 
 178 0330 25C7C3B0 		.ascii	"%\307\303\260g\021\304\013\260\2172h@\257G\0151a\323"
 178      6711C40B 
 178      B08F3268 
 178      40AF470D 
 178      3161D3
 179 0343 4D0E694D 		.ascii	"M\016iM\362\244^\220\301\324$\367d\210\370\241^\220"
 179      F2A45E90 
 179      C1D424F7 
 179      6488F8A1 
 179      5E90
 180 0355 69106B33 		.ascii	"i\020k3\\\232\021\275 m!Zs<\243\027d\032\304\375\031"
 180      5C9A11BD 
 180      206D215A 
 180      733CA317 
 180      641AC4FD 
ARM GAS  /tmp/cc7j1sXR.s 			page 13


 181 036a 723CA717 		.ascii	"r<\247\027\244-D#Gy\261\325\027\354\330\312\227\361"
 181      A42D4423 
 181      4779B1D5 
 181      17ECD8CA 
 181      97F1
 182 037c 9E843D31 		.ascii	"\236\204=1\301t0\205\251\200\377\\\305\253x\321\362"
 182      C1743085 
 182      A980FF5C 
 182      C5AB78D1 
 182      F2
 183 038d 556CFC58 		.ascii	"Ul\374X\322\355 \021\343\372s\024LNF\3557%K\355\312"
 183      D2ED2011 
 183      E3FA7314 
 183      4C4E46ED 
 183      37254BED 
 184 03a2 667CDD0A 		.ascii	"f|\335\012x\022\0165\353\005<\205\267\300\315\027T_"
 184      78120E35 
 184      EB053C85 
 184      B7C0CD17 
 184      545F
 185 03b4 A6FA0AD5 		.ascii	"\246\372\012\325\323T\177I\365WT\177C\365u\252oP=K\365"
 185      D3547F49 
 185      F557547F 
 185      43F575AA 
 185      6F503D4B 
 186 03c9 77547F4F 		.ascii	"wT\177O\365M\252\177\240\372'\252\177\241\372W\252\177"
 186      F54DAA7F 
 186      A0FA27AA 
 186      7FA1FA57 
 186      AA7F
 187 03db A3FA77D0 		.ascii	"\243\372w\320JK8\267\221\363\204u\012\227\364s\333C"
 187      4A4B38B7 
 187      91F38475 
 187      0A97F473 
 187      DB43
 188 03ed A857BA7A 		.ascii	"\250W\272z5*E\\\221\271x\274\310x\222zF\371`\232\353"
 188      352A455C 
 188      91B978BC 
 188      C878927A 
 188      46F9609A 
 189 0402 1F731D31 		.ascii	"\037s\0351\034>rL\011\327O\033\232\271\344rYY\013\370"
 189      1C3E724C 
 189      09D74F1B 
 189      9AB9E472 
 189      59590BF8 
 190 0416 0E3D01DE 		.ascii	"\016=\001\3365,\242\322\327\272\344\237\016\014\232"
 190      352CA2D2 
 190      D7BAE49F 
 190      0E0C9A
 191 0425 64897DC2 		.ascii	"d\211}\302\367\257\302?\235\267:w\2736\367\032Sm\322"
 191      F7AFC23F 
 191      9DB73A77 
 191      BB36F71A 
 191      536DD2
 192 0438 E8647B2B 		.ascii	"\350d{+S\001\337[Em.[\326f\276)\200e\2756/\263\352\367"
 192      5301DF5B 
 192      456D2E5B 
ARM GAS  /tmp/cc7j1sXR.s 			page 14


 192      D666BE29 
 192      8065BD36 
 193 0450 5ADFDDE1 		.ascii	"Z\337\335\341\007\255\3500\350k\026+\316\2718\365\262"
 193      07ADE830 
 193      E86B162B 
 193      CEB938F5 
 193      B2
 194 0461 09F8B621 		.ascii	"\011\370\266!\260&\015)/]\016\022M\005|\230\261\237"
 194      B0260D29 
 194      2F5D0E12 
 194      4D057C98 
 194      B19F
 195 0473 83086395 		.ascii	"\203\010c\225\203\\S\016T;\350\376\253}\275\315l\266"
 195      835C530E 
 195      543BE8FE 
 195      AB7DBDCD 
 195      6CB6
 196 0485 22C3A0F9 		.ascii	"\"\303\240\371T\031\020\260\004\\U(\362\3414Sd\015\265"
 196      541910B0 
 196      045C5528 
 196      F2E13453 
 196      640DB5
 197 0498 68824259 		.ascii	"h\202BYa\261.\350\027\263j\366=Q\354A\233\334nN\376"
 197      61B12EE8 
 197      17B36AF6 
 197      3D51EC41 
 197      9BDC6E4E 
 198 04ad EB0C73ED 		.ascii	"\353\014s\355\315\001.\034\362qa\321\355C\316\360\241"
 198      CD012E1C 
 198      F27161D1 
 198      ED43CEF0 
 198      A1
 199 04be B0E8EF68 		.ascii	"\260\350\357h\363\212[\2156!\221\363\007}\201\356\326"
 199      F38A5B8D 
 199      362191F3 
 199      077D81EE 
 199      D6
 200 04cf 36CED74E 		.ascii	"6\316\327NL\016u\265\205\335\355(\247\333\037\024\313"
 200      4C0E75B5 
 200      85DDED28 
 200      A7DB1F14 
 200      CB
 201 04e0 CBBCE201 		.ascii	"\313\274\342\001\256;\034\342\002\235>\000k\361\007"
 201      AE3B1CE2 
 201      029D3E00 
 201      6BF107
 202 04ef 895BC0DF 		.ascii	"\211[\300\337\302=\355\363q\315\241\216\355\301\316"
 202      C23DEDF3 
 202      71CDA18E 
 202      EDC1CE
 203 04fe 60DBF6B6 		.ascii	"`\333\366\266\346\026?W\341\336\345.\3434l\3703\377"
 203      E6163F57 
 203      E1DEE52E 
 203      E3346CF8 
 203      33FF
 204 0510 AE4E1316 		.ascii	"\256N\023\026[\001\032\246\310\017\213\015bsH\254\014"
 204      5B011AA6 
ARM GAS  /tmp/cc7j1sXR.s 			page 15


 204      C80F8B0D 
 204      627348AC 
 204      0C
 205 0521 80617673 		.ascii	"\200avs\013\245\227G\006;\273\350X.\364\333D\265[\243"
 205      0BA59747 
 205      063BBBE8 
 205      582EF4DB 
 205      44B55BA3 
 206 0535 74C1C21B 		.ascii	"t\301\302\033\010\264z\375\0205\227\030nWgH\014s\015"
 206      08B47AFD 
 206      10359718 
 206      6E576748 
 206      0C730D
 207 0548 8DF5E565 		.ascii	"\215\365\345e\334\336\275U\\c]\375\263\245\234\354\001"
 207      DCDEBD55 
 207      5C635DFD 
 207      B3A59CEC 
 207      01
 208 0559 53826F07 		.ascii	"S\202o\007\011\312\337\341\025\3132\365U<\300\235\365"
 208      09CADFE1 
 208      15CB32F5 
 208      553CC09D 
 208      F5
 209 056a F0A52065 		.ascii	"\360\245 e\216\206z\017\357\250\252\253\346\231\006"
 209      8E867A0F 
 209      EFA8AAAB 
 209      E69906
 210 0579 9EADAEE1 		.ascii	"\236\255\256\341\357\363x\352\371R\252\313\034\036O"
 210      EFF378EA 
 210      F952AACB 
 210      1C1E4F
 211 0588 35CF7AF6 		.ascii	"5\317z\3665\262\373\033<l%\317\263\274\007\356\301\341"
 211      35B2FB1B 
 211      3C6C25CF 
 211      B3BC07EE 
 211      C1E1
 212 059a B1AA469E 		.ascii	"\261\252F\236\255\"\236\365\225<\363\270\354U\016\366"
 212      AD229EF5 
 212      953CF3B8 
 212      EC550EF6 
 213 05aa 4DBCC3D7 		.ascii	"M\274\303\327\336\034\312\361z\017v\007}^\357\032\265"
 213      DE1CCAF1 
 213      7A0F7607 
 213      7D5EEF1A 
 213      B5
 214 05bb E3DEF9E8 		.ascii	"\343\336\371\350\316r\343\335\256\035\246\273\212\377"
 214      CE72E3DD 
 214      AE1DA6BB 
 214      8AFF
 215 05c9 013A4B8B 		.ascii	"\001:K\213Y"
 215      59
 216              		.text
 217              		.section	.gnu.lto_.symtab.54dd54e2016085aa,"",%progbits
 218 0000 7374496E 		.ascii	"stInit\000\000\000\000\000\000\000\000\000\000\000\000"
 218      69740000 
 218      00000000 
 218      00000000 
ARM GAS  /tmp/cc7j1sXR.s 			page 16


 218      0000
 219 0012 A0000000 		.ascii	"\240\000\000\000stStartAlarm\000\000\000\000\000\000"
 219      73745374 
 219      61727441 
 219      6C61726D 
 219      00000000 
 220 0028 00000000 		.ascii	"\000\000\000\000\000\000\245\000\000\000stStopAlarm"
 220      0000A500 
 220      00007374 
 220      53746F70 
 220      416C6172 
 221 003d 00000000 		.ascii	"\000\000\000\000\000\000\000\000\000\000\000\000\262"
 221      00000000 
 221      00000000 
 221      B2
 222 004a 00000073 		.ascii	"\000\000\000stSetAlarm\000\000\000\000\000\000\000\000"
 222      74536574 
 222      416C6172 
 222      6D000000 
 222      00000000 
 223 005f 00000000 		.ascii	"\000\000\000\000\265\000\000\000stGetAlarm\000\000\000"
 223      B5000000 
 223      73744765 
 223      74416C61 
 223      726D0000 
 224 0074 00000000 		.ascii	"\000\000\000\000\000\000\000\000\000\271\000\000\000"
 224      00000000 
 224      00B90000 
 224      00
 225 0081 73745F6C 		.ascii	"st_lld_init\000\000\002\000\000\000\000\000\000\000"
 225      6C645F69 
 225      6E697400 
 225      00020000 
 225      00000000 
 226 0096 0000BD00 		.ascii	"\000\000\275\000\000\000"
 226      0000
 227              		.text
 228              		.section	.gnu.lto_.opts,"",%progbits
 229 0000 272D6D63 		.ascii	"'-mcpu=cortex-m4''-mno-thumb-interwork''-mthumb''-g"
 229      70753D63 
 229      6F727465 
 229      782D6D34 
 229      27272D6D 
 230 0033 67646227 		.ascii	"gdb''-O2''-fomit-frame-pointer''-falign-functions=1"
 230      272D4F32 
 230      27272D66 
 230      6F6D6974 
 230      2D667261 
 231 0066 3627272D 		.ascii	"6''-ffunction-sections''-fdata-sections''-fno-commo"
 231      6666756E 
 231      6374696F 
 231      6E2D7365 
 231      6374696F 
 232 0099 6E27272D 		.ascii	"n''-flto'\000"
 232      666C746F 
 232      2700
 233              		.text
ARM GAS  /tmp/cc7j1sXR.s 			page 17


 234              		.cfi_sections	.debug_frame
 235              		.section	.text.stInit,"ax",%progbits
 236              		.align	2
 237              		.p2align 4,,15
 238              		.global	stInit
 239              		.thumb
 240              		.thumb_func
 241              		.type	stInit, %function
 242              	stInit:
 243              	.LFB272:
 244              		.file 1 "../../../os/hal/src/st.c"
 245              		.loc 1 60 0
 246              		.cfi_startproc
 247              		@ args = 0, pretend = 0, frame = 0
 248              		@ frame_needed = 0, uses_anonymous_args = 0
 249              		@ link register save eliminated.
 250              		.loc 1 63 0
 251              		.loc 1 62 0
 252 0000 FFF7FEBF 		b	st_lld_init
 253              	.LVL0:
 254              		.cfi_endproc
 255              	.LFE272:
 256              		.size	stInit, .-stInit
 257 0004 AFF30080 		.section	.text.stStartAlarm,"ax",%progbits
 257      AFF30080 
 257      AFF30080 
 258              		.align	2
 259              		.p2align 4,,15
 260              		.global	stStartAlarm
 261              		.thumb
 262              		.thumb_func
 263              		.type	stStartAlarm, %function
 264              	stStartAlarm:
 265              	.LFB273:
 266              		.loc 1 77 0
 267              		.cfi_startproc
 268              		@ args = 0, pretend = 0, frame = 0
 269              		@ frame_needed = 0, uses_anonymous_args = 0
 270              		@ link register save eliminated.
 271              	.LVL1:
 272              	.LBB10:
 273              	.LBB11:
 274              		.file 2 "../../../os/hal/ports/STM32/LLD/TIMv1/st_lld.h"
 275              		.loc 2 155 0
 276 0000 4FF08043 		mov	r3, #1073741824
 277              	.LVL2:
 278              		.loc 2 156 0
 279 0004 0022     		movs	r2, #0
 280              		.loc 2 155 0
 281 0006 5863     		str	r0, [r3, #52]
 282              		.loc 2 156 0
 283 0008 1A61     		str	r2, [r3, #16]
 284              		.loc 2 157 0
 285 000a 0222     		movs	r2, #2
 286 000c DA60     		str	r2, [r3, #12]
 287 000e 7047     		bx	lr
 288              	.LBE11:
ARM GAS  /tmp/cc7j1sXR.s 			page 18


 289              	.LBE10:
 290              		.cfi_endproc
 291              	.LFE273:
 292              		.size	stStartAlarm, .-stStartAlarm
 293              		.section	.text.stStopAlarm,"ax",%progbits
 294              		.align	2
 295              		.p2align 4,,15
 296              		.global	stStopAlarm
 297              		.thumb
 298              		.thumb_func
 299              		.type	stStopAlarm, %function
 300              	stStopAlarm:
 301              	.LFB274:
 302              		.loc 1 91 0
 303              		.cfi_startproc
 304              		@ args = 0, pretend = 0, frame = 0
 305              		@ frame_needed = 0, uses_anonymous_args = 0
 306              		@ link register save eliminated.
 307              	.LBB12:
 308              	.LBB13:
 309              		.loc 2 167 0
 310 0000 4FF08043 		mov	r3, #1073741824
 311 0004 0022     		movs	r2, #0
 312 0006 DA60     		str	r2, [r3, #12]
 313 0008 7047     		bx	lr
 314              	.LBE13:
 315              	.LBE12:
 316              		.cfi_endproc
 317              	.LFE274:
 318              		.size	stStopAlarm, .-stStopAlarm
 319 000a 00BFAFF3 		.section	.text.stSetAlarm,"ax",%progbits
 319      0080
 320              		.align	2
 321              		.p2align 4,,15
 322              		.global	stSetAlarm
 323              		.thumb
 324              		.thumb_func
 325              		.type	stSetAlarm, %function
 326              	stSetAlarm:
 327              	.LFB275:
 328              		.loc 1 105 0
 329              		.cfi_startproc
 330              		@ args = 0, pretend = 0, frame = 0
 331              		@ frame_needed = 0, uses_anonymous_args = 0
 332              		@ link register save eliminated.
 333              	.LVL3:
 334              	.LBB14:
 335              	.LBB15:
 336              		.loc 2 179 0
 337 0000 4FF08043 		mov	r3, #1073741824
 338 0004 5863     		str	r0, [r3, #52]
 339 0006 7047     		bx	lr
 340              	.LBE15:
 341              	.LBE14:
 342              		.cfi_endproc
 343              	.LFE275:
 344              		.size	stSetAlarm, .-stSetAlarm
ARM GAS  /tmp/cc7j1sXR.s 			page 19


 345 0008 AFF30080 		.section	.text.stGetAlarm,"ax",%progbits
 345      AFF30080 
 346              		.align	2
 347              		.p2align 4,,15
 348              		.global	stGetAlarm
 349              		.thumb
 350              		.thumb_func
 351              		.type	stGetAlarm, %function
 352              	stGetAlarm:
 353              	.LFB276:
 354              		.loc 1 121 0
 355              		.cfi_startproc
 356              		@ args = 0, pretend = 0, frame = 0
 357              		@ frame_needed = 0, uses_anonymous_args = 0
 358              		@ link register save eliminated.
 359              	.LBB16:
 360              	.LBB17:
 361              		.loc 2 191 0
 362 0000 4FF08043 		mov	r3, #1073741824
 363 0004 586B     		ldr	r0, [r3, #52]
 364              	.LBE17:
 365              	.LBE16:
 366              		.loc 1 126 0
 367 0006 7047     		bx	lr
 368              		.cfi_endproc
 369              	.LFE276:
 370              		.size	stGetAlarm, .-stGetAlarm
 371 0008 AFF30080 		.text
 371      AFF30080 
 372              	.Letext0:
 373              		.file 3 "/usr/local/bin/../lib/gcc/arm-none-eabi/4.7.2/../../../../arm-none-eabi/include/stdint.h"
 374              		.file 4 "../../../os/rt/ports/ARMCMx/compilers/GCC/chtypes.h"
 375              		.file 5 "../../../os/rt/include/chsystypes.h"
 376              		.file 6 "../../../os/rt/include/chschd.h"
 377              		.file 7 "../../../os/rt/ports/ARMCMx/chcore.h"
 378              		.file 8 "../../../os/rt/ports/ARMCMx/chcore_v7m.h"
 379              		.file 9 "../../../os/hal/ports/STM32/LLD/TIMv1/stm32_tim.h"
 380              		.file 10 "../../../os/rt/include/chtm.h"
 381              		.file 11 "../../../os/rt/include/chsem.h"
 382              		.file 12 "../../../os/rt/include/chmtx.h"
 383              		.file 13 "../../../os/ext/CMSIS/include/core_cm4.h"
 384              		.section	.debug_info,"",%progbits
 385              	.Ldebug_info0:
 386 0000 8D090000 		.4byte	0x98d
 387 0004 0200     		.2byte	0x2
 388 0006 00000000 		.4byte	.Ldebug_abbrev0
 389 000a 04       		.byte	0x4
 390 000b 01       		.uleb128 0x1
 391 000c 13030000 		.4byte	.LASF120
 392 0010 01       		.byte	0x1
 393 0011 02020000 		.4byte	.LASF121
 394 0015 1E010000 		.4byte	.LASF122
 395 0019 00000000 		.4byte	.Ldebug_ranges0+0
 396 001d 00000000 		.4byte	0
 397 0021 00000000 		.4byte	0
 398 0025 00000000 		.4byte	.Ldebug_line0
 399 0029 02       		.uleb128 0x2
ARM GAS  /tmp/cc7j1sXR.s 			page 20


 400 002a 04       		.byte	0x4
 401 002b 05       		.byte	0x5
 402 002c 696E7400 		.ascii	"int\000"
 403 0030 03       		.uleb128 0x3
 404 0031 04       		.byte	0x4
 405 0032 07       		.byte	0x7
 406 0033 D8010000 		.4byte	.LASF0
 407 0037 03       		.uleb128 0x3
 408 0038 01       		.byte	0x1
 409 0039 06       		.byte	0x6
 410 003a CC000000 		.4byte	.LASF1
 411 003e 04       		.uleb128 0x4
 412 003f B5030000 		.4byte	.LASF5
 413 0043 03       		.byte	0x3
 414 0044 2A       		.byte	0x2a
 415 0045 49000000 		.4byte	0x49
 416 0049 03       		.uleb128 0x3
 417 004a 01       		.byte	0x1
 418 004b 08       		.byte	0x8
 419 004c 76030000 		.4byte	.LASF2
 420 0050 03       		.uleb128 0x3
 421 0051 02       		.byte	0x2
 422 0052 05       		.byte	0x5
 423 0053 8E030000 		.4byte	.LASF3
 424 0057 03       		.uleb128 0x3
 425 0058 02       		.byte	0x2
 426 0059 07       		.byte	0x7
 427 005a 87010000 		.4byte	.LASF4
 428 005e 04       		.uleb128 0x4
 429 005f 6E030000 		.4byte	.LASF6
 430 0063 03       		.byte	0x3
 431 0064 4F       		.byte	0x4f
 432 0065 69000000 		.4byte	0x69
 433 0069 03       		.uleb128 0x3
 434 006a 04       		.byte	0x4
 435 006b 05       		.byte	0x5
 436 006c F1000000 		.4byte	.LASF7
 437 0070 04       		.uleb128 0x4
 438 0071 FC030000 		.4byte	.LASF8
 439 0075 03       		.byte	0x3
 440 0076 50       		.byte	0x50
 441 0077 7B000000 		.4byte	0x7b
 442 007b 03       		.uleb128 0x3
 443 007c 04       		.byte	0x4
 444 007d 07       		.byte	0x7
 445 007e 2D040000 		.4byte	.LASF9
 446 0082 03       		.uleb128 0x3
 447 0083 08       		.byte	0x8
 448 0084 05       		.byte	0x5
 449 0085 10010000 		.4byte	.LASF10
 450 0089 04       		.uleb128 0x4
 451 008a 1F000000 		.4byte	.LASF11
 452 008e 03       		.byte	0x3
 453 008f 78       		.byte	0x78
 454 0090 94000000 		.4byte	0x94
 455 0094 03       		.uleb128 0x3
 456 0095 08       		.byte	0x8
ARM GAS  /tmp/cc7j1sXR.s 			page 21


 457 0096 07       		.byte	0x7
 458 0097 43000000 		.4byte	.LASF12
 459 009b 04       		.uleb128 0x4
 460 009c AF040000 		.4byte	.LASF13
 461 00a0 04       		.byte	0x4
 462 00a1 39       		.byte	0x39
 463 00a2 70000000 		.4byte	0x70
 464 00a6 04       		.uleb128 0x4
 465 00a7 FA000000 		.4byte	.LASF14
 466 00ab 04       		.byte	0x4
 467 00ac 3C       		.byte	0x3c
 468 00ad 3E000000 		.4byte	0x3e
 469 00b1 04       		.uleb128 0x4
 470 00b2 02010000 		.4byte	.LASF15
 471 00b6 04       		.byte	0x4
 472 00b7 3D       		.byte	0x3d
 473 00b8 3E000000 		.4byte	0x3e
 474 00bc 04       		.uleb128 0x4
 475 00bd 31030000 		.4byte	.LASF16
 476 00c1 04       		.byte	0x4
 477 00c2 3E       		.byte	0x3e
 478 00c3 3E000000 		.4byte	0x3e
 479 00c7 04       		.uleb128 0x4
 480 00c8 50030000 		.4byte	.LASF17
 481 00cc 04       		.byte	0x4
 482 00cd 40       		.byte	0x40
 483 00ce 70000000 		.4byte	0x70
 484 00d2 04       		.uleb128 0x4
 485 00d3 3B020000 		.4byte	.LASF18
 486 00d7 04       		.byte	0x4
 487 00d8 41       		.byte	0x41
 488 00d9 5E000000 		.4byte	0x5e
 489 00dd 04       		.uleb128 0x4
 490 00de 67020000 		.4byte	.LASF19
 491 00e2 04       		.byte	0x4
 492 00e3 43       		.byte	0x43
 493 00e4 70000000 		.4byte	0x70
 494 00e8 04       		.uleb128 0x4
 495 00e9 D2010000 		.4byte	.LASF20
 496 00ed 04       		.byte	0x4
 497 00ee 45       		.byte	0x45
 498 00ef 5E000000 		.4byte	0x5e
 499 00f3 04       		.uleb128 0x4
 500 00f4 65040000 		.4byte	.LASF21
 501 00f8 05       		.byte	0x5
 502 00f9 33       		.byte	0x33
 503 00fa 70000000 		.4byte	0x70
 504 00fe 04       		.uleb128 0x4
 505 00ff 55040000 		.4byte	.LASF22
 506 0103 05       		.byte	0x5
 507 0104 3F       		.byte	0x3f
 508 0105 09010000 		.4byte	0x109
 509 0109 05       		.uleb128 0x5
 510 010a 31020000 		.4byte	.LASF42
 511 010e 44       		.byte	0x44
 512 010f 06       		.byte	0x6
 513 0110 C2       		.byte	0xc2
ARM GAS  /tmp/cc7j1sXR.s 			page 22


 514 0111 1A020000 		.4byte	0x21a
 515 0115 06       		.uleb128 0x6
 516 0116 AE030000 		.4byte	.LASF23
 517 011a 06       		.byte	0x6
 518 011b C3       		.byte	0xc3
 519 011c 25020000 		.4byte	0x225
 520 0120 02       		.byte	0x2
 521 0121 23       		.byte	0x23
 522 0122 00       		.uleb128 0
 523 0123 06       		.uleb128 0x6
 524 0124 49030000 		.4byte	.LASF24
 525 0128 06       		.byte	0x6
 526 0129 C5       		.byte	0xc5
 527 012a 25020000 		.4byte	0x225
 528 012e 02       		.byte	0x2
 529 012f 23       		.byte	0x23
 530 0130 04       		.uleb128 0x4
 531 0131 06       		.uleb128 0x6
 532 0132 B3000000 		.4byte	.LASF25
 533 0136 06       		.byte	0x6
 534 0137 C7       		.byte	0xc7
 535 0138 C7000000 		.4byte	0xc7
 536 013c 02       		.byte	0x2
 537 013d 23       		.byte	0x23
 538 013e 08       		.uleb128 0x8
 539 013f 06       		.uleb128 0x6
 540 0140 60050000 		.4byte	.LASF26
 541 0144 06       		.byte	0x6
 542 0145 C8       		.byte	0xc8
 543 0146 AD040000 		.4byte	0x4ad
 544 014a 02       		.byte	0x2
 545 014b 23       		.byte	0x23
 546 014c 0C       		.uleb128 0xc
 547 014d 06       		.uleb128 0x6
 548 014e 77010000 		.4byte	.LASF27
 549 0152 06       		.byte	0x6
 550 0153 CA       		.byte	0xca
 551 0154 25020000 		.4byte	0x225
 552 0158 02       		.byte	0x2
 553 0159 23       		.byte	0x23
 554 015a 10       		.uleb128 0x10
 555 015b 06       		.uleb128 0x6
 556 015c E8020000 		.4byte	.LASF28
 557 0160 06       		.byte	0x6
 558 0161 CB       		.byte	0xcb
 559 0162 25020000 		.4byte	0x225
 560 0166 02       		.byte	0x2
 561 0167 23       		.byte	0x23
 562 0168 14       		.uleb128 0x14
 563 0169 06       		.uleb128 0x6
 564 016a 21050000 		.4byte	.LASF29
 565 016e 06       		.byte	0x6
 566 016f D2       		.byte	0xd2
 567 0170 96070000 		.4byte	0x796
 568 0174 02       		.byte	0x2
 569 0175 23       		.byte	0x23
 570 0176 18       		.uleb128 0x18
ARM GAS  /tmp/cc7j1sXR.s 			page 23


 571 0177 06       		.uleb128 0x6
 572 0178 98030000 		.4byte	.LASF30
 573 017c 06       		.byte	0x6
 574 017d DD       		.byte	0xdd
 575 017e B1000000 		.4byte	0xb1
 576 0182 02       		.byte	0x2
 577 0183 23       		.byte	0x23
 578 0184 1C       		.uleb128 0x1c
 579 0185 06       		.uleb128 0x6
 580 0186 3F050000 		.4byte	.LASF31
 581 018a 06       		.byte	0x6
 582 018b E1       		.byte	0xe1
 583 018c A6000000 		.4byte	0xa6
 584 0190 02       		.byte	0x2
 585 0191 23       		.byte	0x23
 586 0192 1D       		.uleb128 0x1d
 587 0193 06       		.uleb128 0x6
 588 0194 E9040000 		.4byte	.LASF32
 589 0198 06       		.byte	0x6
 590 0199 E6       		.byte	0xe6
 591 019a BC000000 		.4byte	0xbc
 592 019e 02       		.byte	0x2
 593 019f 23       		.byte	0x23
 594 01a0 1E       		.uleb128 0x1e
 595 01a1 07       		.uleb128 0x7
 596 01a2 705F7500 		.ascii	"p_u\000"
 597 01a6 06       		.byte	0x6
 598 01a7 3101     		.2byte	0x131
 599 01a9 C7060000 		.4byte	0x6c7
 600 01ad 02       		.byte	0x2
 601 01ae 23       		.byte	0x23
 602 01af 20       		.uleb128 0x20
 603 01b0 08       		.uleb128 0x8
 604 01b1 9F020000 		.4byte	.LASF33
 605 01b5 06       		.byte	0x6
 606 01b6 3601     		.2byte	0x136
 607 01b8 2B020000 		.4byte	0x22b
 608 01bc 02       		.byte	0x2
 609 01bd 23       		.byte	0x23
 610 01be 24       		.uleb128 0x24
 611 01bf 08       		.uleb128 0x8
 612 01c0 1B020000 		.4byte	.LASF34
 613 01c4 06       		.byte	0x6
 614 01c5 3C01     		.2byte	0x13c
 615 01c7 51020000 		.4byte	0x251
 616 01cb 02       		.byte	0x2
 617 01cc 23       		.byte	0x23
 618 01cd 28       		.uleb128 0x28
 619 01ce 08       		.uleb128 0x8
 620 01cf A9040000 		.4byte	.LASF35
 621 01d3 06       		.byte	0x6
 622 01d4 4001     		.2byte	0x140
 623 01d6 D2000000 		.4byte	0xd2
 624 01da 02       		.byte	0x2
 625 01db 23       		.byte	0x23
 626 01dc 30       		.uleb128 0x30
 627 01dd 08       		.uleb128 0x8
ARM GAS  /tmp/cc7j1sXR.s 			page 24


 628 01de F1030000 		.4byte	.LASF36
 629 01e2 06       		.byte	0x6
 630 01e3 4601     		.2byte	0x146
 631 01e5 DD000000 		.4byte	0xdd
 632 01e9 02       		.byte	0x2
 633 01ea 23       		.byte	0x23
 634 01eb 34       		.uleb128 0x34
 635 01ec 08       		.uleb128 0x8
 636 01ed 84030000 		.4byte	.LASF37
 637 01f1 06       		.byte	0x6
 638 01f2 4D01     		.2byte	0x14d
 639 01f4 90070000 		.4byte	0x790
 640 01f8 02       		.byte	0x2
 641 01f9 23       		.byte	0x23
 642 01fa 38       		.uleb128 0x38
 643 01fb 08       		.uleb128 0x8
 644 01fc 6F040000 		.4byte	.LASF38
 645 0200 06       		.byte	0x6
 646 0201 5101     		.2byte	0x151
 647 0203 C7000000 		.4byte	0xc7
 648 0207 02       		.byte	0x2
 649 0208 23       		.byte	0x23
 650 0209 3C       		.uleb128 0x3c
 651 020a 08       		.uleb128 0x8
 652 020b A2010000 		.4byte	.LASF39
 653 020f 06       		.byte	0x6
 654 0210 5801     		.2byte	0x158
 655 0212 15030000 		.4byte	0x315
 656 0216 02       		.byte	0x2
 657 0217 23       		.byte	0x23
 658 0218 40       		.uleb128 0x40
 659 0219 00       		.byte	0
 660 021a 04       		.uleb128 0x4
 661 021b B2020000 		.4byte	.LASF40
 662 021f 05       		.byte	0x5
 663 0220 44       		.byte	0x44
 664 0221 25020000 		.4byte	0x225
 665 0225 09       		.uleb128 0x9
 666 0226 04       		.byte	0x4
 667 0227 FE000000 		.4byte	0xfe
 668 022b 04       		.uleb128 0x4
 669 022c 28050000 		.4byte	.LASF41
 670 0230 05       		.byte	0x5
 671 0231 49       		.byte	0x49
 672 0232 36020000 		.4byte	0x236
 673 0236 05       		.uleb128 0x5
 674 0237 1D040000 		.4byte	.LASF43
 675 023b 04       		.byte	0x4
 676 023c 06       		.byte	0x6
 677 023d B0       		.byte	0xb0
 678 023e 51020000 		.4byte	0x251
 679 0242 06       		.uleb128 0x6
 680 0243 AE030000 		.4byte	.LASF23
 681 0247 06       		.byte	0x6
 682 0248 B1       		.byte	0xb1
 683 0249 25020000 		.4byte	0x225
 684 024d 02       		.byte	0x2
ARM GAS  /tmp/cc7j1sXR.s 			page 25


 685 024e 23       		.byte	0x23
 686 024f 00       		.uleb128 0
 687 0250 00       		.byte	0
 688 0251 04       		.uleb128 0x4
 689 0252 D0040000 		.4byte	.LASF44
 690 0256 05       		.byte	0x5
 691 0257 50       		.byte	0x50
 692 0258 5C020000 		.4byte	0x25c
 693 025c 05       		.uleb128 0x5
 694 025d A2000000 		.4byte	.LASF45
 695 0261 08       		.byte	0x8
 696 0262 06       		.byte	0x6
 697 0263 B7       		.byte	0xb7
 698 0264 85020000 		.4byte	0x285
 699 0268 06       		.uleb128 0x6
 700 0269 AE030000 		.4byte	.LASF23
 701 026d 06       		.byte	0x6
 702 026e B8       		.byte	0xb8
 703 026f 25020000 		.4byte	0x225
 704 0273 02       		.byte	0x2
 705 0274 23       		.byte	0x23
 706 0275 00       		.uleb128 0
 707 0276 06       		.uleb128 0x6
 708 0277 49030000 		.4byte	.LASF24
 709 027b 06       		.byte	0x6
 710 027c B9       		.byte	0xb9
 711 027d 25020000 		.4byte	0x225
 712 0281 02       		.byte	0x2
 713 0282 23       		.byte	0x23
 714 0283 04       		.uleb128 0x4
 715 0284 00       		.byte	0
 716 0285 04       		.uleb128 0x4
 717 0286 00000000 		.4byte	.LASF46
 718 028a 05       		.byte	0x5
 719 028b 57       		.byte	0x57
 720 028c 90020000 		.4byte	0x290
 721 0290 0A       		.uleb128 0xa
 722 0291 59020000 		.4byte	.LASF47
 723 0295 1C       		.byte	0x1c
 724 0296 06       		.byte	0x6
 725 0297 9001     		.2byte	0x190
 726 0299 F8020000 		.4byte	0x2f8
 727 029d 08       		.uleb128 0x8
 728 029e 0C040000 		.4byte	.LASF48
 729 02a2 06       		.byte	0x6
 730 02a3 9101     		.2byte	0x191
 731 02a5 51020000 		.4byte	0x251
 732 02a9 02       		.byte	0x2
 733 02aa 23       		.byte	0x23
 734 02ab 00       		.uleb128 0
 735 02ac 08       		.uleb128 0x8
 736 02ad A0030000 		.4byte	.LASF49
 737 02b1 06       		.byte	0x6
 738 02b2 9201     		.2byte	0x192
 739 02b4 C7000000 		.4byte	0xc7
 740 02b8 02       		.byte	0x2
 741 02b9 23       		.byte	0x23
ARM GAS  /tmp/cc7j1sXR.s 			page 26


 742 02ba 08       		.uleb128 0x8
 743 02bb 08       		.uleb128 0x8
 744 02bc F7020000 		.4byte	.LASF50
 745 02c0 06       		.byte	0x6
 746 02c1 9401     		.2byte	0x194
 747 02c3 AD040000 		.4byte	0x4ad
 748 02c7 02       		.byte	0x2
 749 02c8 23       		.byte	0x23
 750 02c9 0C       		.uleb128 0xc
 751 02ca 08       		.uleb128 0x8
 752 02cb 9A010000 		.4byte	.LASF51
 753 02cf 06       		.byte	0x6
 754 02d0 9701     		.2byte	0x197
 755 02d2 25020000 		.4byte	0x225
 756 02d6 02       		.byte	0x2
 757 02d7 23       		.byte	0x23
 758 02d8 10       		.uleb128 0x10
 759 02d9 08       		.uleb128 0x8
 760 02da 29030000 		.4byte	.LASF52
 761 02de 06       		.byte	0x6
 762 02df 9801     		.2byte	0x198
 763 02e1 25020000 		.4byte	0x225
 764 02e5 02       		.byte	0x2
 765 02e6 23       		.byte	0x23
 766 02e7 14       		.uleb128 0x14
 767 02e8 08       		.uleb128 0x8
 768 02e9 1F030000 		.4byte	.LASF53
 769 02ed 06       		.byte	0x6
 770 02ee 9B01     		.2byte	0x19b
 771 02f0 25020000 		.4byte	0x225
 772 02f4 02       		.byte	0x2
 773 02f5 23       		.byte	0x23
 774 02f6 18       		.uleb128 0x18
 775 02f7 00       		.byte	0
 776 02f8 04       		.uleb128 0x4
 777 02f9 7A040000 		.4byte	.LASF54
 778 02fd 05       		.byte	0x5
 779 02fe 5C       		.byte	0x5c
 780 02ff 03030000 		.4byte	0x303
 781 0303 09       		.uleb128 0x9
 782 0304 04       		.byte	0x4
 783 0305 09030000 		.4byte	0x309
 784 0309 0B       		.uleb128 0xb
 785 030a 01       		.byte	0x1
 786 030b 15030000 		.4byte	0x315
 787 030f 0C       		.uleb128 0xc
 788 0310 15030000 		.4byte	0x315
 789 0314 00       		.byte	0
 790 0315 0D       		.uleb128 0xd
 791 0316 04       		.byte	0x4
 792 0317 04       		.uleb128 0x4
 793 0318 39030000 		.4byte	.LASF55
 794 031c 05       		.byte	0x5
 795 031d 61       		.byte	0x61
 796 031e 22030000 		.4byte	0x322
 797 0322 0A       		.uleb128 0xa
 798 0323 BD030000 		.4byte	.LASF56
ARM GAS  /tmp/cc7j1sXR.s 			page 27


 799 0327 14       		.byte	0x14
 800 0328 06       		.byte	0x6
 801 0329 6B01     		.2byte	0x16b
 802 032b 7B030000 		.4byte	0x37b
 803 032f 08       		.uleb128 0x8
 804 0330 F3010000 		.4byte	.LASF57
 805 0334 06       		.byte	0x6
 806 0335 6C01     		.2byte	0x16c
 807 0337 A8070000 		.4byte	0x7a8
 808 033b 02       		.byte	0x2
 809 033c 23       		.byte	0x23
 810 033d 00       		.uleb128 0
 811 033e 08       		.uleb128 0x8
 812 033f B3010000 		.4byte	.LASF58
 813 0343 06       		.byte	0x6
 814 0344 6D01     		.2byte	0x16d
 815 0346 A8070000 		.4byte	0x7a8
 816 034a 02       		.byte	0x2
 817 034b 23       		.byte	0x23
 818 034c 04       		.uleb128 0x4
 819 034d 08       		.uleb128 0x8
 820 034e 14040000 		.4byte	.LASF59
 821 0352 06       		.byte	0x6
 822 0353 6E01     		.2byte	0x16e
 823 0355 F3000000 		.4byte	0xf3
 824 0359 02       		.byte	0x2
 825 035a 23       		.byte	0x23
 826 035b 08       		.uleb128 0x8
 827 035c 08       		.uleb128 0x8
 828 035d 66050000 		.4byte	.LASF60
 829 0361 06       		.byte	0x6
 830 0362 6F01     		.2byte	0x16f
 831 0364 F8020000 		.4byte	0x2f8
 832 0368 02       		.byte	0x2
 833 0369 23       		.byte	0x23
 834 036a 0C       		.uleb128 0xc
 835 036b 08       		.uleb128 0x8
 836 036c C9040000 		.4byte	.LASF61
 837 0370 06       		.byte	0x6
 838 0371 7101     		.2byte	0x171
 839 0373 15030000 		.4byte	0x315
 840 0377 02       		.byte	0x2
 841 0378 23       		.byte	0x23
 842 0379 10       		.uleb128 0x10
 843 037a 00       		.byte	0
 844 037b 04       		.uleb128 0x4
 845 037c 6E000000 		.4byte	.LASF62
 846 0380 05       		.byte	0x5
 847 0381 66       		.byte	0x66
 848 0382 86030000 		.4byte	0x386
 849 0386 0A       		.uleb128 0xa
 850 0387 C5020000 		.4byte	.LASF63
 851 038b 10       		.byte	0x10
 852 038c 06       		.byte	0x6
 853 038d 7B01     		.2byte	0x17b
 854 038f D0030000 		.4byte	0x3d0
 855 0393 08       		.uleb128 0x8
ARM GAS  /tmp/cc7j1sXR.s 			page 28


 856 0394 F3010000 		.4byte	.LASF57
 857 0398 06       		.byte	0x6
 858 0399 7C01     		.2byte	0x17c
 859 039b A8070000 		.4byte	0x7a8
 860 039f 02       		.byte	0x2
 861 03a0 23       		.byte	0x23
 862 03a1 00       		.uleb128 0
 863 03a2 08       		.uleb128 0x8
 864 03a3 B3010000 		.4byte	.LASF58
 865 03a7 06       		.byte	0x6
 866 03a8 7E01     		.2byte	0x17e
 867 03aa A8070000 		.4byte	0x7a8
 868 03ae 02       		.byte	0x2
 869 03af 23       		.byte	0x23
 870 03b0 04       		.uleb128 0x4
 871 03b1 08       		.uleb128 0x8
 872 03b2 14040000 		.4byte	.LASF59
 873 03b6 06       		.byte	0x6
 874 03b7 8001     		.2byte	0x180
 875 03b9 F3000000 		.4byte	0xf3
 876 03bd 02       		.byte	0x2
 877 03be 23       		.byte	0x23
 878 03bf 08       		.uleb128 0x8
 879 03c0 08       		.uleb128 0x8
 880 03c1 DC020000 		.4byte	.LASF64
 881 03c5 06       		.byte	0x6
 882 03c6 8801     		.2byte	0x188
 883 03c8 F3000000 		.4byte	0xf3
 884 03cc 02       		.byte	0x2
 885 03cd 23       		.byte	0x23
 886 03ce 0C       		.uleb128 0xc
 887 03cf 00       		.byte	0
 888 03d0 04       		.uleb128 0x4
 889 03d1 34000000 		.4byte	.LASF65
 890 03d5 05       		.byte	0x5
 891 03d6 6B       		.byte	0x6b
 892 03d7 DB030000 		.4byte	0x3db
 893 03db 0A       		.uleb128 0xa
 894 03dc 58030000 		.4byte	.LASF66
 895 03e0 04       		.byte	0x4
 896 03e1 06       		.byte	0x6
 897 03e2 A201     		.2byte	0x1a2
 898 03e4 F8030000 		.4byte	0x3f8
 899 03e8 08       		.uleb128 0x8
 900 03e9 83040000 		.4byte	.LASF67
 901 03ed 06       		.byte	0x6
 902 03ee AA01     		.2byte	0x1aa
 903 03f0 AE070000 		.4byte	0x7ae
 904 03f4 02       		.byte	0x2
 905 03f5 23       		.byte	0x23
 906 03f6 00       		.uleb128 0
 907 03f7 00       		.byte	0
 908 03f8 04       		.uleb128 0x4
 909 03f9 41020000 		.4byte	.LASF68
 910 03fd 05       		.byte	0x5
 911 03fe 70       		.byte	0x70
 912 03ff 03040000 		.4byte	0x403
ARM GAS  /tmp/cc7j1sXR.s 			page 29


 913 0403 0E       		.uleb128 0xe
 914 0404 E7000000 		.4byte	.LASF69
 915 0408 5001     		.2byte	0x150
 916 040a 06       		.byte	0x6
 917 040b C201     		.2byte	0x1c2
 918 040d 6B040000 		.4byte	0x46b
 919 0411 08       		.uleb128 0x8
 920 0412 F0040000 		.4byte	.LASF70
 921 0416 06       		.byte	0x6
 922 0417 C601     		.2byte	0x1c6
 923 0419 85020000 		.4byte	0x285
 924 041d 02       		.byte	0x2
 925 041e 23       		.byte	0x23
 926 041f 00       		.uleb128 0
 927 0420 08       		.uleb128 0x8
 928 0421 E0000000 		.4byte	.LASF71
 929 0425 06       		.byte	0x6
 930 0426 CA01     		.2byte	0x1ca
 931 0428 7B030000 		.4byte	0x37b
 932 042c 02       		.byte	0x2
 933 042d 23       		.byte	0x23
 934 042e 1C       		.uleb128 0x1c
 935 042f 07       		.uleb128 0x7
 936 0430 64626700 		.ascii	"dbg\000"
 937 0434 06       		.byte	0x6
 938 0435 CE01     		.2byte	0x1ce
 939 0437 D0030000 		.4byte	0x3d0
 940 043b 02       		.byte	0x2
 941 043c 23       		.byte	0x23
 942 043d 2C       		.uleb128 0x2c
 943 043e 08       		.uleb128 0x8
 944 043f 63000000 		.4byte	.LASF72
 945 0443 06       		.byte	0x6
 946 0444 D201     		.2byte	0x1d2
 947 0446 FE000000 		.4byte	0xfe
 948 044a 02       		.byte	0x2
 949 044b 23       		.byte	0x23
 950 044c 30       		.uleb128 0x30
 951 044d 07       		.uleb128 0x7
 952 044e 746D00   		.ascii	"tm\000"
 953 0451 06       		.byte	0x6
 954 0452 D701     		.2byte	0x1d7
 955 0454 BC060000 		.4byte	0x6bc
 956 0458 02       		.byte	0x2
 957 0459 23       		.byte	0x23
 958 045a 74       		.uleb128 0x74
 959 045b 08       		.uleb128 0x8
 960 045c C3010000 		.4byte	.LASF73
 961 0460 06       		.byte	0x6
 962 0461 E301     		.2byte	0x1e3
 963 0463 B3070000 		.4byte	0x7b3
 964 0467 02       		.byte	0x2
 965 0468 23       		.byte	0x23
 966 0469 78       		.uleb128 0x78
 967 046a 00       		.byte	0
 968 046b 03       		.uleb128 0x3
 969 046c 04       		.byte	0x4
ARM GAS  /tmp/cc7j1sXR.s 			page 30


 970 046d 07       		.byte	0x7
 971 046e A9020000 		.4byte	.LASF74
 972 0472 0F       		.uleb128 0xf
 973 0473 70000000 		.4byte	0x70
 974 0477 10       		.uleb128 0x10
 975 0478 70000000 		.4byte	0x70
 976 047c 87040000 		.4byte	0x487
 977 0480 11       		.uleb128 0x11
 978 0481 6B040000 		.4byte	0x46b
 979 0485 01       		.byte	0x1
 980 0486 00       		.byte	0
 981 0487 10       		.uleb128 0x10
 982 0488 70000000 		.4byte	0x70
 983 048c 97040000 		.4byte	0x497
 984 0490 11       		.uleb128 0x11
 985 0491 6B040000 		.4byte	0x46b
 986 0495 03       		.byte	0x3
 987 0496 00       		.byte	0
 988 0497 04       		.uleb128 0x4
 989 0498 AA010000 		.4byte	.LASF75
 990 049c 07       		.byte	0x7
 991 049d 65       		.byte	0x65
 992 049e 15030000 		.4byte	0x315
 993 04a2 04       		.uleb128 0x4
 994 04a3 94020000 		.4byte	.LASF76
 995 04a7 07       		.byte	0x7
 996 04a8 6D       		.byte	0x6d
 997 04a9 89000000 		.4byte	0x89
 998 04ad 05       		.uleb128 0x5
 999 04ae A1040000 		.4byte	.LASF77
 1000 04b2 04       		.byte	0x4
 1001 04b3 07       		.byte	0x7
 1002 04b4 89       		.byte	0x89
 1003 04b5 C8040000 		.4byte	0x4c8
 1004 04b9 12       		.uleb128 0x12
 1005 04ba 72313300 		.ascii	"r13\000"
 1006 04be 07       		.byte	0x7
 1007 04bf 8A       		.byte	0x8a
 1008 04c0 55050000 		.4byte	0x555
 1009 04c4 02       		.byte	0x2
 1010 04c5 23       		.byte	0x23
 1011 04c6 00       		.uleb128 0
 1012 04c7 00       		.byte	0
 1013 04c8 05       		.uleb128 0x5
 1014 04c9 28000000 		.4byte	.LASF78
 1015 04cd 24       		.byte	0x24
 1016 04ce 08       		.byte	0x8
 1017 04cf FD       		.byte	0xfd
 1018 04d0 55050000 		.4byte	0x555
 1019 04d4 07       		.uleb128 0x7
 1020 04d5 723400   		.ascii	"r4\000"
 1021 04d8 08       		.byte	0x8
 1022 04d9 1001     		.2byte	0x110
 1023 04db 97040000 		.4byte	0x497
 1024 04df 02       		.byte	0x2
 1025 04e0 23       		.byte	0x23
 1026 04e1 00       		.uleb128 0
ARM GAS  /tmp/cc7j1sXR.s 			page 31


 1027 04e2 07       		.uleb128 0x7
 1028 04e3 723500   		.ascii	"r5\000"
 1029 04e6 08       		.byte	0x8
 1030 04e7 1101     		.2byte	0x111
 1031 04e9 97040000 		.4byte	0x497
 1032 04ed 02       		.byte	0x2
 1033 04ee 23       		.byte	0x23
 1034 04ef 04       		.uleb128 0x4
 1035 04f0 07       		.uleb128 0x7
 1036 04f1 723600   		.ascii	"r6\000"
 1037 04f4 08       		.byte	0x8
 1038 04f5 1201     		.2byte	0x112
 1039 04f7 97040000 		.4byte	0x497
 1040 04fb 02       		.byte	0x2
 1041 04fc 23       		.byte	0x23
 1042 04fd 08       		.uleb128 0x8
 1043 04fe 07       		.uleb128 0x7
 1044 04ff 723700   		.ascii	"r7\000"
 1045 0502 08       		.byte	0x8
 1046 0503 1301     		.2byte	0x113
 1047 0505 97040000 		.4byte	0x497
 1048 0509 02       		.byte	0x2
 1049 050a 23       		.byte	0x23
 1050 050b 0C       		.uleb128 0xc
 1051 050c 07       		.uleb128 0x7
 1052 050d 723800   		.ascii	"r8\000"
 1053 0510 08       		.byte	0x8
 1054 0511 1401     		.2byte	0x114
 1055 0513 97040000 		.4byte	0x497
 1056 0517 02       		.byte	0x2
 1057 0518 23       		.byte	0x23
 1058 0519 10       		.uleb128 0x10
 1059 051a 07       		.uleb128 0x7
 1060 051b 723900   		.ascii	"r9\000"
 1061 051e 08       		.byte	0x8
 1062 051f 1501     		.2byte	0x115
 1063 0521 97040000 		.4byte	0x497
 1064 0525 02       		.byte	0x2
 1065 0526 23       		.byte	0x23
 1066 0527 14       		.uleb128 0x14
 1067 0528 07       		.uleb128 0x7
 1068 0529 72313000 		.ascii	"r10\000"
 1069 052d 08       		.byte	0x8
 1070 052e 1601     		.2byte	0x116
 1071 0530 97040000 		.4byte	0x497
 1072 0534 02       		.byte	0x2
 1073 0535 23       		.byte	0x23
 1074 0536 18       		.uleb128 0x18
 1075 0537 07       		.uleb128 0x7
 1076 0538 72313100 		.ascii	"r11\000"
 1077 053c 08       		.byte	0x8
 1078 053d 1701     		.2byte	0x117
 1079 053f 97040000 		.4byte	0x497
 1080 0543 02       		.byte	0x2
 1081 0544 23       		.byte	0x23
 1082 0545 1C       		.uleb128 0x1c
 1083 0546 07       		.uleb128 0x7
ARM GAS  /tmp/cc7j1sXR.s 			page 32


 1084 0547 6C7200   		.ascii	"lr\000"
 1085 054a 08       		.byte	0x8
 1086 054b 1801     		.2byte	0x118
 1087 054d 97040000 		.4byte	0x497
 1088 0551 02       		.byte	0x2
 1089 0552 23       		.byte	0x23
 1090 0553 20       		.uleb128 0x20
 1091 0554 00       		.byte	0
 1092 0555 09       		.uleb128 0x9
 1093 0556 04       		.byte	0x4
 1094 0557 C8040000 		.4byte	0x4c8
 1095 055b 13       		.uleb128 0x13
 1096 055c 60       		.byte	0x60
 1097 055d 09       		.byte	0x9
 1098 055e A101     		.2byte	0x1a1
 1099 0560 8F060000 		.4byte	0x68f
 1100 0564 07       		.uleb128 0x7
 1101 0565 43523100 		.ascii	"CR1\000"
 1102 0569 09       		.byte	0x9
 1103 056a A201     		.2byte	0x1a2
 1104 056c 72040000 		.4byte	0x472
 1105 0570 02       		.byte	0x2
 1106 0571 23       		.byte	0x23
 1107 0572 00       		.uleb128 0
 1108 0573 07       		.uleb128 0x7
 1109 0574 43523200 		.ascii	"CR2\000"
 1110 0578 09       		.byte	0x9
 1111 0579 A301     		.2byte	0x1a3
 1112 057b 72040000 		.4byte	0x472
 1113 057f 02       		.byte	0x2
 1114 0580 23       		.byte	0x23
 1115 0581 04       		.uleb128 0x4
 1116 0582 08       		.uleb128 0x8
 1117 0583 2C020000 		.4byte	.LASF79
 1118 0587 09       		.byte	0x9
 1119 0588 A401     		.2byte	0x1a4
 1120 058a 72040000 		.4byte	0x472
 1121 058e 02       		.byte	0x2
 1122 058f 23       		.byte	0x23
 1123 0590 08       		.uleb128 0x8
 1124 0591 08       		.uleb128 0x8
 1125 0592 0D000000 		.4byte	.LASF80
 1126 0596 09       		.byte	0x9
 1127 0597 A501     		.2byte	0x1a5
 1128 0599 72040000 		.4byte	0x472
 1129 059d 02       		.byte	0x2
 1130 059e 23       		.byte	0x23
 1131 059f 0C       		.uleb128 0xc
 1132 05a0 07       		.uleb128 0x7
 1133 05a1 535200   		.ascii	"SR\000"
 1134 05a4 09       		.byte	0x9
 1135 05a5 A601     		.2byte	0x1a6
 1136 05a7 72040000 		.4byte	0x472
 1137 05ab 02       		.byte	0x2
 1138 05ac 23       		.byte	0x23
 1139 05ad 10       		.uleb128 0x10
 1140 05ae 07       		.uleb128 0x7
ARM GAS  /tmp/cc7j1sXR.s 			page 33


 1141 05af 45475200 		.ascii	"EGR\000"
 1142 05b3 09       		.byte	0x9
 1143 05b4 A701     		.2byte	0x1a7
 1144 05b6 72040000 		.4byte	0x472
 1145 05ba 02       		.byte	0x2
 1146 05bb 23       		.byte	0x23
 1147 05bc 14       		.uleb128 0x14
 1148 05bd 08       		.uleb128 0x8
 1149 05be BA000000 		.4byte	.LASF81
 1150 05c2 09       		.byte	0x9
 1151 05c3 A801     		.2byte	0x1a8
 1152 05c5 72040000 		.4byte	0x472
 1153 05c9 02       		.byte	0x2
 1154 05ca 23       		.byte	0x23
 1155 05cb 18       		.uleb128 0x18
 1156 05cc 08       		.uleb128 0x8
 1157 05cd C0000000 		.4byte	.LASF82
 1158 05d1 09       		.byte	0x9
 1159 05d2 A901     		.2byte	0x1a9
 1160 05d4 72040000 		.4byte	0x472
 1161 05d8 02       		.byte	0x2
 1162 05d9 23       		.byte	0x23
 1163 05da 1C       		.uleb128 0x1c
 1164 05db 08       		.uleb128 0x8
 1165 05dc 0B010000 		.4byte	.LASF83
 1166 05e0 09       		.byte	0x9
 1167 05e1 AA01     		.2byte	0x1aa
 1168 05e3 72040000 		.4byte	0x472
 1169 05e7 02       		.byte	0x2
 1170 05e8 23       		.byte	0x23
 1171 05e9 20       		.uleb128 0x20
 1172 05ea 07       		.uleb128 0x7
 1173 05eb 434E5400 		.ascii	"CNT\000"
 1174 05ef 09       		.byte	0x9
 1175 05f0 AB01     		.2byte	0x1ab
 1176 05f2 72040000 		.4byte	0x472
 1177 05f6 02       		.byte	0x2
 1178 05f7 23       		.byte	0x23
 1179 05f8 24       		.uleb128 0x24
 1180 05f9 07       		.uleb128 0x7
 1181 05fa 50534300 		.ascii	"PSC\000"
 1182 05fe 09       		.byte	0x9
 1183 05ff AC01     		.2byte	0x1ac
 1184 0601 72040000 		.4byte	0x472
 1185 0605 02       		.byte	0x2
 1186 0606 23       		.byte	0x23
 1187 0607 28       		.uleb128 0x28
 1188 0608 07       		.uleb128 0x7
 1189 0609 41525200 		.ascii	"ARR\000"
 1190 060d 09       		.byte	0x9
 1191 060e AD01     		.2byte	0x1ad
 1192 0610 72040000 		.4byte	0x472
 1193 0614 02       		.byte	0x2
 1194 0615 23       		.byte	0x23
 1195 0616 2C       		.uleb128 0x2c
 1196 0617 07       		.uleb128 0x7
 1197 0618 52435200 		.ascii	"RCR\000"
ARM GAS  /tmp/cc7j1sXR.s 			page 34


 1198 061c 09       		.byte	0x9
 1199 061d AE01     		.2byte	0x1ae
 1200 061f 72040000 		.4byte	0x472
 1201 0623 02       		.byte	0x2
 1202 0624 23       		.byte	0x23
 1203 0625 30       		.uleb128 0x30
 1204 0626 07       		.uleb128 0x7
 1205 0627 43435200 		.ascii	"CCR\000"
 1206 062b 09       		.byte	0x9
 1207 062c AF01     		.2byte	0x1af
 1208 062e 8F060000 		.4byte	0x68f
 1209 0632 02       		.byte	0x2
 1210 0633 23       		.byte	0x23
 1211 0634 34       		.uleb128 0x34
 1212 0635 08       		.uleb128 0x8
 1213 0636 9D000000 		.4byte	.LASF84
 1214 063a 09       		.byte	0x9
 1215 063b B001     		.2byte	0x1b0
 1216 063d 72040000 		.4byte	0x472
 1217 0641 02       		.byte	0x2
 1218 0642 23       		.byte	0x23
 1219 0643 44       		.uleb128 0x44
 1220 0644 07       		.uleb128 0x7
 1221 0645 44435200 		.ascii	"DCR\000"
 1222 0649 09       		.byte	0x9
 1223 064a B101     		.2byte	0x1b1
 1224 064c 72040000 		.4byte	0x472
 1225 0650 02       		.byte	0x2
 1226 0651 23       		.byte	0x23
 1227 0652 48       		.uleb128 0x48
 1228 0653 08       		.uleb128 0x8
 1229 0654 50040000 		.4byte	.LASF85
 1230 0658 09       		.byte	0x9
 1231 0659 B201     		.2byte	0x1b2
 1232 065b 72040000 		.4byte	0x472
 1233 065f 02       		.byte	0x2
 1234 0660 23       		.byte	0x23
 1235 0661 4C       		.uleb128 0x4c
 1236 0662 07       		.uleb128 0x7
 1237 0663 4F5200   		.ascii	"OR\000"
 1238 0666 09       		.byte	0x9
 1239 0667 B301     		.2byte	0x1b3
 1240 0669 72040000 		.4byte	0x472
 1241 066d 02       		.byte	0x2
 1242 066e 23       		.byte	0x23
 1243 066f 50       		.uleb128 0x50
 1244 0670 08       		.uleb128 0x8
 1245 0671 C6000000 		.4byte	.LASF86
 1246 0675 09       		.byte	0x9
 1247 0676 B401     		.2byte	0x1b4
 1248 0678 72040000 		.4byte	0x472
 1249 067c 02       		.byte	0x2
 1250 067d 23       		.byte	0x23
 1251 067e 54       		.uleb128 0x54
 1252 067f 08       		.uleb128 0x8
 1253 0680 EC030000 		.4byte	.LASF87
 1254 0684 09       		.byte	0x9
ARM GAS  /tmp/cc7j1sXR.s 			page 35


 1255 0685 B501     		.2byte	0x1b5
 1256 0687 94060000 		.4byte	0x694
 1257 068b 02       		.byte	0x2
 1258 068c 23       		.byte	0x23
 1259 068d 58       		.uleb128 0x58
 1260 068e 00       		.byte	0
 1261 068f 0F       		.uleb128 0xf
 1262 0690 87040000 		.4byte	0x487
 1263 0694 0F       		.uleb128 0xf
 1264 0695 77040000 		.4byte	0x477
 1265 0699 14       		.uleb128 0x14
 1266 069a 4D020000 		.4byte	.LASF88
 1267 069e 09       		.byte	0x9
 1268 069f B601     		.2byte	0x1b6
 1269 06a1 5B050000 		.4byte	0x55b
 1270 06a5 15       		.uleb128 0x15
 1271 06a6 04       		.byte	0x4
 1272 06a7 0A       		.byte	0xa
 1273 06a8 38       		.byte	0x38
 1274 06a9 BC060000 		.4byte	0x6bc
 1275 06ad 06       		.uleb128 0x6
 1276 06ae 8D040000 		.4byte	.LASF89
 1277 06b2 0A       		.byte	0xa
 1278 06b3 3C       		.byte	0x3c
 1279 06b4 9B000000 		.4byte	0x9b
 1280 06b8 02       		.byte	0x2
 1281 06b9 23       		.byte	0x23
 1282 06ba 00       		.uleb128 0
 1283 06bb 00       		.byte	0
 1284 06bc 04       		.uleb128 0x4
 1285 06bd FD020000 		.4byte	.LASF90
 1286 06c1 0A       		.byte	0xa
 1287 06c2 3D       		.byte	0x3d
 1288 06c3 A5060000 		.4byte	0x6a5
 1289 06c7 16       		.uleb128 0x16
 1290 06c8 04       		.byte	0x4
 1291 06c9 06       		.byte	0x6
 1292 06ca FA       		.byte	0xfa
 1293 06cb 24070000 		.4byte	0x724
 1294 06cf 17       		.uleb128 0x17
 1295 06d0 18000000 		.4byte	.LASF91
 1296 06d4 06       		.byte	0x6
 1297 06d5 0101     		.2byte	0x101
 1298 06d7 D2000000 		.4byte	0xd2
 1299 06db 17       		.uleb128 0x17
 1300 06dc 5A000000 		.4byte	.LASF92
 1301 06e0 06       		.byte	0x6
 1302 06e1 0801     		.2byte	0x108
 1303 06e3 D2000000 		.4byte	0xd2
 1304 06e7 17       		.uleb128 0x17
 1305 06e8 1A050000 		.4byte	.LASF93
 1306 06ec 06       		.byte	0x6
 1307 06ed 0F01     		.2byte	0x10f
 1308 06ef 15030000 		.4byte	0x315
 1309 06f3 17       		.uleb128 0x17
 1310 06f4 12000000 		.4byte	.LASF94
 1311 06f8 06       		.byte	0x6
ARM GAS  /tmp/cc7j1sXR.s 			page 36


 1312 06f9 1601     		.2byte	0x116
 1313 06fb 24070000 		.4byte	0x724
 1314 06ff 17       		.uleb128 0x17
 1315 0700 FB010000 		.4byte	.LASF95
 1316 0704 06       		.byte	0x6
 1317 0705 1E01     		.2byte	0x11e
 1318 0707 53070000 		.4byte	0x753
 1319 070b 17       		.uleb128 0x17
 1320 070c 05040000 		.4byte	.LASF96
 1321 0710 06       		.byte	0x6
 1322 0711 2701     		.2byte	0x127
 1323 0713 90070000 		.4byte	0x790
 1324 0717 17       		.uleb128 0x17
 1325 0718 A7030000 		.4byte	.LASF97
 1326 071c 06       		.byte	0x6
 1327 071d 2F01     		.2byte	0x12f
 1328 071f DD000000 		.4byte	0xdd
 1329 0723 00       		.byte	0
 1330 0724 09       		.uleb128 0x9
 1331 0725 04       		.byte	0x4
 1332 0726 1A020000 		.4byte	0x21a
 1333 072a 05       		.uleb128 0x5
 1334 072b DF030000 		.4byte	.LASF98
 1335 072f 0C       		.byte	0xc
 1336 0730 0B       		.byte	0xb
 1337 0731 34       		.byte	0x34
 1338 0732 53070000 		.4byte	0x753
 1339 0736 06       		.uleb128 0x6
 1340 0737 7F010000 		.4byte	.LASF99
 1341 073b 0B       		.byte	0xb
 1342 073c 35       		.byte	0x35
 1343 073d 51020000 		.4byte	0x251
 1344 0741 02       		.byte	0x2
 1345 0742 23       		.byte	0x23
 1346 0743 00       		.uleb128 0
 1347 0744 06       		.uleb128 0x6
 1348 0745 26020000 		.4byte	.LASF100
 1349 0749 0B       		.byte	0xb
 1350 074a 37       		.byte	0x37
 1351 074b E8000000 		.4byte	0xe8
 1352 074f 02       		.byte	0x2
 1353 0750 23       		.byte	0x23
 1354 0751 08       		.uleb128 0x8
 1355 0752 00       		.byte	0
 1356 0753 09       		.uleb128 0x9
 1357 0754 04       		.byte	0x4
 1358 0755 2A070000 		.4byte	0x72a
 1359 0759 05       		.uleb128 0x5
 1360 075a E0040000 		.4byte	.LASF101
 1361 075e 10       		.byte	0x10
 1362 075f 0C       		.byte	0xc
 1363 0760 39       		.byte	0x39
 1364 0761 90070000 		.4byte	0x790
 1365 0765 06       		.uleb128 0x6
 1366 0766 D8000000 		.4byte	.LASF102
 1367 076a 0C       		.byte	0xc
 1368 076b 3A       		.byte	0x3a
ARM GAS  /tmp/cc7j1sXR.s 			page 37


 1369 076c 51020000 		.4byte	0x251
 1370 0770 02       		.byte	0x2
 1371 0771 23       		.byte	0x23
 1372 0772 00       		.uleb128 0
 1373 0773 06       		.uleb128 0x6
 1374 0774 58050000 		.4byte	.LASF103
 1375 0778 0C       		.byte	0xc
 1376 0779 3C       		.byte	0x3c
 1377 077a 25020000 		.4byte	0x225
 1378 077e 02       		.byte	0x2
 1379 077f 23       		.byte	0x23
 1380 0780 08       		.uleb128 0x8
 1381 0781 06       		.uleb128 0x6
 1382 0782 5E040000 		.4byte	.LASF104
 1383 0786 0C       		.byte	0xc
 1384 0787 3E       		.byte	0x3e
 1385 0788 CE070000 		.4byte	0x7ce
 1386 078c 02       		.byte	0x2
 1387 078d 23       		.byte	0x23
 1388 078e 0C       		.uleb128 0xc
 1389 078f 00       		.byte	0
 1390 0790 09       		.uleb128 0x9
 1391 0791 04       		.byte	0x4
 1392 0792 59070000 		.4byte	0x759
 1393 0796 09       		.uleb128 0x9
 1394 0797 04       		.byte	0x4
 1395 0798 9C070000 		.4byte	0x79c
 1396 079c 18       		.uleb128 0x18
 1397 079d A1070000 		.4byte	0x7a1
 1398 07a1 03       		.uleb128 0x3
 1399 07a2 01       		.byte	0x1
 1400 07a3 08       		.byte	0x8
 1401 07a4 4B040000 		.4byte	.LASF105
 1402 07a8 09       		.uleb128 0x9
 1403 07a9 04       		.byte	0x4
 1404 07aa 17030000 		.4byte	0x317
 1405 07ae 0F       		.uleb128 0xf
 1406 07af 96070000 		.4byte	0x796
 1407 07b3 10       		.uleb128 0x10
 1408 07b4 A2040000 		.4byte	0x4a2
 1409 07b8 C3070000 		.4byte	0x7c3
 1410 07bc 11       		.uleb128 0x11
 1411 07bd 6B040000 		.4byte	0x46b
 1412 07c1 1A       		.byte	0x1a
 1413 07c2 00       		.byte	0
 1414 07c3 04       		.uleb128 0x4
 1415 07c4 BB010000 		.4byte	.LASF106
 1416 07c8 0C       		.byte	0xc
 1417 07c9 34       		.byte	0x34
 1418 07ca 59070000 		.4byte	0x759
 1419 07ce 09       		.uleb128 0x9
 1420 07cf 04       		.byte	0x4
 1421 07d0 C3070000 		.4byte	0x7c3
 1422 07d4 03       		.uleb128 0x3
 1423 07d5 01       		.byte	0x1
 1424 07d6 02       		.byte	0x2
 1425 07d7 68030000 		.4byte	.LASF107
ARM GAS  /tmp/cc7j1sXR.s 			page 38


 1426 07db 19       		.uleb128 0x19
 1427 07dc 81020000 		.4byte	.LASF108
 1428 07e0 02       		.byte	0x2
 1429 07e1 99       		.byte	0x99
 1430 07e2 01       		.byte	0x1
 1431 07e3 03       		.byte	0x3
 1432 07e4 F4070000 		.4byte	0x7f4
 1433 07e8 1A       		.uleb128 0x1a
 1434 07e9 0E030000 		.4byte	.LASF110
 1435 07ed 02       		.byte	0x2
 1436 07ee 99       		.byte	0x99
 1437 07ef F3000000 		.4byte	0xf3
 1438 07f3 00       		.byte	0
 1439 07f4 1B       		.uleb128 0x1b
 1440 07f5 B7040000 		.4byte	.LASF123
 1441 07f9 02       		.byte	0x2
 1442 07fa A5       		.byte	0xa5
 1443 07fb 01       		.byte	0x1
 1444 07fc 03       		.byte	0x3
 1445 07fd 19       		.uleb128 0x19
 1446 07fe 47050000 		.4byte	.LASF109
 1447 0802 02       		.byte	0x2
 1448 0803 B1       		.byte	0xb1
 1449 0804 01       		.byte	0x1
 1450 0805 03       		.byte	0x3
 1451 0806 16080000 		.4byte	0x816
 1452 080a 1A       		.uleb128 0x1a
 1453 080b 0E030000 		.4byte	.LASF110
 1454 080f 02       		.byte	0x2
 1455 0810 B1       		.byte	0xb1
 1456 0811 F3000000 		.4byte	0xf3
 1457 0815 00       		.byte	0
 1458 0816 1C       		.uleb128 0x1c
 1459 0817 CE030000 		.4byte	.LASF124
 1460 081b 02       		.byte	0x2
 1461 081c BD       		.byte	0xbd
 1462 081d 01       		.byte	0x1
 1463 081e F3000000 		.4byte	0xf3
 1464 0822 03       		.byte	0x3
 1465 0823 1D       		.uleb128 0x1d
 1466 0824 01       		.byte	0x1
 1467 0825 F0020000 		.4byte	.LASF111
 1468 0829 01       		.byte	0x1
 1469 082a 3C       		.byte	0x3c
 1470 082b 01       		.byte	0x1
 1471 082c 00000000 		.4byte	.LFB272
 1472 0830 04000000 		.4byte	.LFE272
 1473 0834 02       		.byte	0x2
 1474 0835 7D       		.byte	0x7d
 1475 0836 00       		.sleb128 0
 1476 0837 01       		.byte	0x1
 1477 0838 47080000 		.4byte	0x847
 1478 083c 1E       		.uleb128 0x1e
 1479 083d 04000000 		.4byte	.LVL0
 1480 0841 01       		.byte	0x1
 1481 0842 86090000 		.4byte	0x986
 1482 0846 00       		.byte	0
ARM GAS  /tmp/cc7j1sXR.s 			page 39


 1483 0847 1D       		.uleb128 0x1d
 1484 0848 01       		.byte	0x1
 1485 0849 94040000 		.4byte	.LASF112
 1486 084d 01       		.byte	0x1
 1487 084e 4D       		.byte	0x4d
 1488 084f 01       		.byte	0x1
 1489 0850 00000000 		.4byte	.LFB273
 1490 0854 10000000 		.4byte	.LFE273
 1491 0858 02       		.byte	0x2
 1492 0859 7D       		.byte	0x7d
 1493 085a 00       		.sleb128 0
 1494 085b 01       		.byte	0x1
 1495 085c 8F080000 		.4byte	0x88f
 1496 0860 1F       		.uleb128 0x1f
 1497 0861 37050000 		.4byte	.LASF115
 1498 0865 01       		.byte	0x1
 1499 0866 4D       		.byte	0x4d
 1500 0867 F3000000 		.4byte	0xf3
 1501 086b 01       		.byte	0x1
 1502 086c 50       		.byte	0x50
 1503 086d 20       		.uleb128 0x20
 1504 086e E5010000 		.4byte	.LASF116
 1505 0872 9F080000 		.4byte	0x89f
 1506 0876 01       		.byte	0x1
 1507 0877 21       		.uleb128 0x21
 1508 0878 DB070000 		.4byte	0x7db
 1509 087c 00000000 		.4byte	.LBB10
 1510 0880 10000000 		.4byte	.LBE10
 1511 0884 01       		.byte	0x1
 1512 0885 51       		.byte	0x51
 1513 0886 22       		.uleb128 0x22
 1514 0887 E8070000 		.4byte	0x7e8
 1515 088b 01       		.byte	0x1
 1516 088c 50       		.byte	0x50
 1517 088d 00       		.byte	0
 1518 088e 00       		.byte	0
 1519 088f 10       		.uleb128 0x10
 1520 0890 A1070000 		.4byte	0x7a1
 1521 0894 9F080000 		.4byte	0x89f
 1522 0898 11       		.uleb128 0x11
 1523 0899 6B040000 		.4byte	0x46b
 1524 089d 0C       		.byte	0xc
 1525 089e 00       		.byte	0
 1526 089f 18       		.uleb128 0x18
 1527 08a0 8F080000 		.4byte	0x88f
 1528 08a4 1D       		.uleb128 0x1d
 1529 08a5 01       		.byte	0x1
 1530 08a6 3F040000 		.4byte	.LASF113
 1531 08aa 01       		.byte	0x1
 1532 08ab 5B       		.byte	0x5b
 1533 08ac 01       		.byte	0x1
 1534 08ad 00000000 		.4byte	.LFB274
 1535 08b1 0A000000 		.4byte	.LFE274
 1536 08b5 02       		.byte	0x2
 1537 08b6 7D       		.byte	0x7d
 1538 08b7 00       		.sleb128 0
 1539 08b8 01       		.byte	0x1
ARM GAS  /tmp/cc7j1sXR.s 			page 40


 1540 08b9 CD080000 		.4byte	0x8cd
 1541 08bd 23       		.uleb128 0x23
 1542 08be F4070000 		.4byte	0x7f4
 1543 08c2 00000000 		.4byte	.LBB12
 1544 08c6 0A000000 		.4byte	.LBE12
 1545 08ca 01       		.byte	0x1
 1546 08cb 5D       		.byte	0x5d
 1547 08cc 00       		.byte	0
 1548 08cd 1D       		.uleb128 0x1d
 1549 08ce 01       		.byte	0x1
 1550 08cf F6040000 		.4byte	.LASF114
 1551 08d3 01       		.byte	0x1
 1552 08d4 69       		.byte	0x69
 1553 08d5 01       		.byte	0x1
 1554 08d6 00000000 		.4byte	.LFB275
 1555 08da 08000000 		.4byte	.LFE275
 1556 08de 02       		.byte	0x2
 1557 08df 7D       		.byte	0x7d
 1558 08e0 00       		.sleb128 0
 1559 08e1 01       		.byte	0x1
 1560 08e2 15090000 		.4byte	0x915
 1561 08e6 1F       		.uleb128 0x1f
 1562 08e7 37050000 		.4byte	.LASF115
 1563 08eb 01       		.byte	0x1
 1564 08ec 69       		.byte	0x69
 1565 08ed F3000000 		.4byte	0xf3
 1566 08f1 01       		.byte	0x1
 1567 08f2 50       		.byte	0x50
 1568 08f3 20       		.uleb128 0x20
 1569 08f4 73020000 		.4byte	.LASF117
 1570 08f8 25090000 		.4byte	0x925
 1571 08fc 01       		.byte	0x1
 1572 08fd 21       		.uleb128 0x21
 1573 08fe FD070000 		.4byte	0x7fd
 1574 0902 00000000 		.4byte	.LBB14
 1575 0906 08000000 		.4byte	.LBE14
 1576 090a 01       		.byte	0x1
 1577 090b 6D       		.byte	0x6d
 1578 090c 22       		.uleb128 0x22
 1579 090d 0A080000 		.4byte	0x80a
 1580 0911 01       		.byte	0x1
 1581 0912 50       		.byte	0x50
 1582 0913 00       		.byte	0
 1583 0914 00       		.byte	0
 1584 0915 10       		.uleb128 0x10
 1585 0916 A1070000 		.4byte	0x7a1
 1586 091a 25090000 		.4byte	0x925
 1587 091e 11       		.uleb128 0x11
 1588 091f 6B040000 		.4byte	0x46b
 1589 0923 0A       		.byte	0xa
 1590 0924 00       		.byte	0
 1591 0925 18       		.uleb128 0x18
 1592 0926 15090000 		.4byte	0x915
 1593 092a 24       		.uleb128 0x24
 1594 092b 01       		.byte	0x1
 1595 092c 0F050000 		.4byte	.LASF125
 1596 0930 01       		.byte	0x1
ARM GAS  /tmp/cc7j1sXR.s 			page 41


 1597 0931 79       		.byte	0x79
 1598 0932 01       		.byte	0x1
 1599 0933 F3000000 		.4byte	0xf3
 1600 0937 00000000 		.4byte	.LFB276
 1601 093b 08000000 		.4byte	.LFE276
 1602 093f 02       		.byte	0x2
 1603 0940 7D       		.byte	0x7d
 1604 0941 00       		.sleb128 0
 1605 0942 01       		.byte	0x1
 1606 0943 61090000 		.4byte	0x961
 1607 0947 20       		.uleb128 0x20
 1608 0948 01050000 		.4byte	.LASF118
 1609 094c 61090000 		.4byte	0x961
 1610 0950 01       		.byte	0x1
 1611 0951 23       		.uleb128 0x23
 1612 0952 16080000 		.4byte	0x816
 1613 0956 00000000 		.4byte	.LBB16
 1614 095a 06000000 		.4byte	.LBE16
 1615 095e 01       		.byte	0x1
 1616 095f 7D       		.byte	0x7d
 1617 0960 00       		.byte	0
 1618 0961 18       		.uleb128 0x18
 1619 0962 15090000 		.4byte	0x915
 1620 0966 25       		.uleb128 0x25
 1621 0967 84000000 		.4byte	.LASF119
 1622 096b 0D       		.byte	0xd
 1623 096c FA06     		.2byte	0x6fa
 1624 096e 74090000 		.4byte	0x974
 1625 0972 01       		.byte	0x1
 1626 0973 01       		.byte	0x1
 1627 0974 0F       		.uleb128 0xf
 1628 0975 5E000000 		.4byte	0x5e
 1629 0979 26       		.uleb128 0x26
 1630 097a 636800   		.ascii	"ch\000"
 1631 097d 06       		.byte	0x6
 1632 097e 0902     		.2byte	0x209
 1633 0980 F8030000 		.4byte	0x3f8
 1634 0984 01       		.byte	0x1
 1635 0985 01       		.byte	0x1
 1636 0986 27       		.uleb128 0x27
 1637 0987 01       		.byte	0x1
 1638 0988 91000000 		.4byte	.LASF126
 1639 098c 02       		.byte	0x2
 1640 098d 7B       		.byte	0x7b
 1641 098e 01       		.byte	0x1
 1642 098f 01       		.byte	0x1
 1643 0990 00       		.byte	0
 1644              		.section	.debug_abbrev,"",%progbits
 1645              	.Ldebug_abbrev0:
 1646 0000 01       		.uleb128 0x1
 1647 0001 11       		.uleb128 0x11
 1648 0002 01       		.byte	0x1
 1649 0003 25       		.uleb128 0x25
 1650 0004 0E       		.uleb128 0xe
 1651 0005 13       		.uleb128 0x13
 1652 0006 0B       		.uleb128 0xb
 1653 0007 03       		.uleb128 0x3
ARM GAS  /tmp/cc7j1sXR.s 			page 42


 1654 0008 0E       		.uleb128 0xe
 1655 0009 1B       		.uleb128 0x1b
 1656 000a 0E       		.uleb128 0xe
 1657 000b 55       		.uleb128 0x55
 1658 000c 06       		.uleb128 0x6
 1659 000d 11       		.uleb128 0x11
 1660 000e 01       		.uleb128 0x1
 1661 000f 52       		.uleb128 0x52
 1662 0010 01       		.uleb128 0x1
 1663 0011 10       		.uleb128 0x10
 1664 0012 06       		.uleb128 0x6
 1665 0013 00       		.byte	0
 1666 0014 00       		.byte	0
 1667 0015 02       		.uleb128 0x2
 1668 0016 24       		.uleb128 0x24
 1669 0017 00       		.byte	0
 1670 0018 0B       		.uleb128 0xb
 1671 0019 0B       		.uleb128 0xb
 1672 001a 3E       		.uleb128 0x3e
 1673 001b 0B       		.uleb128 0xb
 1674 001c 03       		.uleb128 0x3
 1675 001d 08       		.uleb128 0x8
 1676 001e 00       		.byte	0
 1677 001f 00       		.byte	0
 1678 0020 03       		.uleb128 0x3
 1679 0021 24       		.uleb128 0x24
 1680 0022 00       		.byte	0
 1681 0023 0B       		.uleb128 0xb
 1682 0024 0B       		.uleb128 0xb
 1683 0025 3E       		.uleb128 0x3e
 1684 0026 0B       		.uleb128 0xb
 1685 0027 03       		.uleb128 0x3
 1686 0028 0E       		.uleb128 0xe
 1687 0029 00       		.byte	0
 1688 002a 00       		.byte	0
 1689 002b 04       		.uleb128 0x4
 1690 002c 16       		.uleb128 0x16
 1691 002d 00       		.byte	0
 1692 002e 03       		.uleb128 0x3
 1693 002f 0E       		.uleb128 0xe
 1694 0030 3A       		.uleb128 0x3a
 1695 0031 0B       		.uleb128 0xb
 1696 0032 3B       		.uleb128 0x3b
 1697 0033 0B       		.uleb128 0xb
 1698 0034 49       		.uleb128 0x49
 1699 0035 13       		.uleb128 0x13
 1700 0036 00       		.byte	0
 1701 0037 00       		.byte	0
 1702 0038 05       		.uleb128 0x5
 1703 0039 13       		.uleb128 0x13
 1704 003a 01       		.byte	0x1
 1705 003b 03       		.uleb128 0x3
 1706 003c 0E       		.uleb128 0xe
 1707 003d 0B       		.uleb128 0xb
 1708 003e 0B       		.uleb128 0xb
 1709 003f 3A       		.uleb128 0x3a
 1710 0040 0B       		.uleb128 0xb
ARM GAS  /tmp/cc7j1sXR.s 			page 43


 1711 0041 3B       		.uleb128 0x3b
 1712 0042 0B       		.uleb128 0xb
 1713 0043 01       		.uleb128 0x1
 1714 0044 13       		.uleb128 0x13
 1715 0045 00       		.byte	0
 1716 0046 00       		.byte	0
 1717 0047 06       		.uleb128 0x6
 1718 0048 0D       		.uleb128 0xd
 1719 0049 00       		.byte	0
 1720 004a 03       		.uleb128 0x3
 1721 004b 0E       		.uleb128 0xe
 1722 004c 3A       		.uleb128 0x3a
 1723 004d 0B       		.uleb128 0xb
 1724 004e 3B       		.uleb128 0x3b
 1725 004f 0B       		.uleb128 0xb
 1726 0050 49       		.uleb128 0x49
 1727 0051 13       		.uleb128 0x13
 1728 0052 38       		.uleb128 0x38
 1729 0053 0A       		.uleb128 0xa
 1730 0054 00       		.byte	0
 1731 0055 00       		.byte	0
 1732 0056 07       		.uleb128 0x7
 1733 0057 0D       		.uleb128 0xd
 1734 0058 00       		.byte	0
 1735 0059 03       		.uleb128 0x3
 1736 005a 08       		.uleb128 0x8
 1737 005b 3A       		.uleb128 0x3a
 1738 005c 0B       		.uleb128 0xb
 1739 005d 3B       		.uleb128 0x3b
 1740 005e 05       		.uleb128 0x5
 1741 005f 49       		.uleb128 0x49
 1742 0060 13       		.uleb128 0x13
 1743 0061 38       		.uleb128 0x38
 1744 0062 0A       		.uleb128 0xa
 1745 0063 00       		.byte	0
 1746 0064 00       		.byte	0
 1747 0065 08       		.uleb128 0x8
 1748 0066 0D       		.uleb128 0xd
 1749 0067 00       		.byte	0
 1750 0068 03       		.uleb128 0x3
 1751 0069 0E       		.uleb128 0xe
 1752 006a 3A       		.uleb128 0x3a
 1753 006b 0B       		.uleb128 0xb
 1754 006c 3B       		.uleb128 0x3b
 1755 006d 05       		.uleb128 0x5
 1756 006e 49       		.uleb128 0x49
 1757 006f 13       		.uleb128 0x13
 1758 0070 38       		.uleb128 0x38
 1759 0071 0A       		.uleb128 0xa
 1760 0072 00       		.byte	0
 1761 0073 00       		.byte	0
 1762 0074 09       		.uleb128 0x9
 1763 0075 0F       		.uleb128 0xf
 1764 0076 00       		.byte	0
 1765 0077 0B       		.uleb128 0xb
 1766 0078 0B       		.uleb128 0xb
 1767 0079 49       		.uleb128 0x49
ARM GAS  /tmp/cc7j1sXR.s 			page 44


 1768 007a 13       		.uleb128 0x13
 1769 007b 00       		.byte	0
 1770 007c 00       		.byte	0
 1771 007d 0A       		.uleb128 0xa
 1772 007e 13       		.uleb128 0x13
 1773 007f 01       		.byte	0x1
 1774 0080 03       		.uleb128 0x3
 1775 0081 0E       		.uleb128 0xe
 1776 0082 0B       		.uleb128 0xb
 1777 0083 0B       		.uleb128 0xb
 1778 0084 3A       		.uleb128 0x3a
 1779 0085 0B       		.uleb128 0xb
 1780 0086 3B       		.uleb128 0x3b
 1781 0087 05       		.uleb128 0x5
 1782 0088 01       		.uleb128 0x1
 1783 0089 13       		.uleb128 0x13
 1784 008a 00       		.byte	0
 1785 008b 00       		.byte	0
 1786 008c 0B       		.uleb128 0xb
 1787 008d 15       		.uleb128 0x15
 1788 008e 01       		.byte	0x1
 1789 008f 27       		.uleb128 0x27
 1790 0090 0C       		.uleb128 0xc
 1791 0091 01       		.uleb128 0x1
 1792 0092 13       		.uleb128 0x13
 1793 0093 00       		.byte	0
 1794 0094 00       		.byte	0
 1795 0095 0C       		.uleb128 0xc
 1796 0096 05       		.uleb128 0x5
 1797 0097 00       		.byte	0
 1798 0098 49       		.uleb128 0x49
 1799 0099 13       		.uleb128 0x13
 1800 009a 00       		.byte	0
 1801 009b 00       		.byte	0
 1802 009c 0D       		.uleb128 0xd
 1803 009d 0F       		.uleb128 0xf
 1804 009e 00       		.byte	0
 1805 009f 0B       		.uleb128 0xb
 1806 00a0 0B       		.uleb128 0xb
 1807 00a1 00       		.byte	0
 1808 00a2 00       		.byte	0
 1809 00a3 0E       		.uleb128 0xe
 1810 00a4 13       		.uleb128 0x13
 1811 00a5 01       		.byte	0x1
 1812 00a6 03       		.uleb128 0x3
 1813 00a7 0E       		.uleb128 0xe
 1814 00a8 0B       		.uleb128 0xb
 1815 00a9 05       		.uleb128 0x5
 1816 00aa 3A       		.uleb128 0x3a
 1817 00ab 0B       		.uleb128 0xb
 1818 00ac 3B       		.uleb128 0x3b
 1819 00ad 05       		.uleb128 0x5
 1820 00ae 01       		.uleb128 0x1
 1821 00af 13       		.uleb128 0x13
 1822 00b0 00       		.byte	0
 1823 00b1 00       		.byte	0
 1824 00b2 0F       		.uleb128 0xf
ARM GAS  /tmp/cc7j1sXR.s 			page 45


 1825 00b3 35       		.uleb128 0x35
 1826 00b4 00       		.byte	0
 1827 00b5 49       		.uleb128 0x49
 1828 00b6 13       		.uleb128 0x13
 1829 00b7 00       		.byte	0
 1830 00b8 00       		.byte	0
 1831 00b9 10       		.uleb128 0x10
 1832 00ba 01       		.uleb128 0x1
 1833 00bb 01       		.byte	0x1
 1834 00bc 49       		.uleb128 0x49
 1835 00bd 13       		.uleb128 0x13
 1836 00be 01       		.uleb128 0x1
 1837 00bf 13       		.uleb128 0x13
 1838 00c0 00       		.byte	0
 1839 00c1 00       		.byte	0
 1840 00c2 11       		.uleb128 0x11
 1841 00c3 21       		.uleb128 0x21
 1842 00c4 00       		.byte	0
 1843 00c5 49       		.uleb128 0x49
 1844 00c6 13       		.uleb128 0x13
 1845 00c7 2F       		.uleb128 0x2f
 1846 00c8 0B       		.uleb128 0xb
 1847 00c9 00       		.byte	0
 1848 00ca 00       		.byte	0
 1849 00cb 12       		.uleb128 0x12
 1850 00cc 0D       		.uleb128 0xd
 1851 00cd 00       		.byte	0
 1852 00ce 03       		.uleb128 0x3
 1853 00cf 08       		.uleb128 0x8
 1854 00d0 3A       		.uleb128 0x3a
 1855 00d1 0B       		.uleb128 0xb
 1856 00d2 3B       		.uleb128 0x3b
 1857 00d3 0B       		.uleb128 0xb
 1858 00d4 49       		.uleb128 0x49
 1859 00d5 13       		.uleb128 0x13
 1860 00d6 38       		.uleb128 0x38
 1861 00d7 0A       		.uleb128 0xa
 1862 00d8 00       		.byte	0
 1863 00d9 00       		.byte	0
 1864 00da 13       		.uleb128 0x13
 1865 00db 13       		.uleb128 0x13
 1866 00dc 01       		.byte	0x1
 1867 00dd 0B       		.uleb128 0xb
 1868 00de 0B       		.uleb128 0xb
 1869 00df 3A       		.uleb128 0x3a
 1870 00e0 0B       		.uleb128 0xb
 1871 00e1 3B       		.uleb128 0x3b
 1872 00e2 05       		.uleb128 0x5
 1873 00e3 01       		.uleb128 0x1
 1874 00e4 13       		.uleb128 0x13
 1875 00e5 00       		.byte	0
 1876 00e6 00       		.byte	0
 1877 00e7 14       		.uleb128 0x14
 1878 00e8 16       		.uleb128 0x16
 1879 00e9 00       		.byte	0
 1880 00ea 03       		.uleb128 0x3
 1881 00eb 0E       		.uleb128 0xe
ARM GAS  /tmp/cc7j1sXR.s 			page 46


 1882 00ec 3A       		.uleb128 0x3a
 1883 00ed 0B       		.uleb128 0xb
 1884 00ee 3B       		.uleb128 0x3b
 1885 00ef 05       		.uleb128 0x5
 1886 00f0 49       		.uleb128 0x49
 1887 00f1 13       		.uleb128 0x13
 1888 00f2 00       		.byte	0
 1889 00f3 00       		.byte	0
 1890 00f4 15       		.uleb128 0x15
 1891 00f5 13       		.uleb128 0x13
 1892 00f6 01       		.byte	0x1
 1893 00f7 0B       		.uleb128 0xb
 1894 00f8 0B       		.uleb128 0xb
 1895 00f9 3A       		.uleb128 0x3a
 1896 00fa 0B       		.uleb128 0xb
 1897 00fb 3B       		.uleb128 0x3b
 1898 00fc 0B       		.uleb128 0xb
 1899 00fd 01       		.uleb128 0x1
 1900 00fe 13       		.uleb128 0x13
 1901 00ff 00       		.byte	0
 1902 0100 00       		.byte	0
 1903 0101 16       		.uleb128 0x16
 1904 0102 17       		.uleb128 0x17
 1905 0103 01       		.byte	0x1
 1906 0104 0B       		.uleb128 0xb
 1907 0105 0B       		.uleb128 0xb
 1908 0106 3A       		.uleb128 0x3a
 1909 0107 0B       		.uleb128 0xb
 1910 0108 3B       		.uleb128 0x3b
 1911 0109 0B       		.uleb128 0xb
 1912 010a 01       		.uleb128 0x1
 1913 010b 13       		.uleb128 0x13
 1914 010c 00       		.byte	0
 1915 010d 00       		.byte	0
 1916 010e 17       		.uleb128 0x17
 1917 010f 0D       		.uleb128 0xd
 1918 0110 00       		.byte	0
 1919 0111 03       		.uleb128 0x3
 1920 0112 0E       		.uleb128 0xe
 1921 0113 3A       		.uleb128 0x3a
 1922 0114 0B       		.uleb128 0xb
 1923 0115 3B       		.uleb128 0x3b
 1924 0116 05       		.uleb128 0x5
 1925 0117 49       		.uleb128 0x49
 1926 0118 13       		.uleb128 0x13
 1927 0119 00       		.byte	0
 1928 011a 00       		.byte	0
 1929 011b 18       		.uleb128 0x18
 1930 011c 26       		.uleb128 0x26
 1931 011d 00       		.byte	0
 1932 011e 49       		.uleb128 0x49
 1933 011f 13       		.uleb128 0x13
 1934 0120 00       		.byte	0
 1935 0121 00       		.byte	0
 1936 0122 19       		.uleb128 0x19
 1937 0123 2E       		.uleb128 0x2e
 1938 0124 01       		.byte	0x1
ARM GAS  /tmp/cc7j1sXR.s 			page 47


 1939 0125 03       		.uleb128 0x3
 1940 0126 0E       		.uleb128 0xe
 1941 0127 3A       		.uleb128 0x3a
 1942 0128 0B       		.uleb128 0xb
 1943 0129 3B       		.uleb128 0x3b
 1944 012a 0B       		.uleb128 0xb
 1945 012b 27       		.uleb128 0x27
 1946 012c 0C       		.uleb128 0xc
 1947 012d 20       		.uleb128 0x20
 1948 012e 0B       		.uleb128 0xb
 1949 012f 01       		.uleb128 0x1
 1950 0130 13       		.uleb128 0x13
 1951 0131 00       		.byte	0
 1952 0132 00       		.byte	0
 1953 0133 1A       		.uleb128 0x1a
 1954 0134 05       		.uleb128 0x5
 1955 0135 00       		.byte	0
 1956 0136 03       		.uleb128 0x3
 1957 0137 0E       		.uleb128 0xe
 1958 0138 3A       		.uleb128 0x3a
 1959 0139 0B       		.uleb128 0xb
 1960 013a 3B       		.uleb128 0x3b
 1961 013b 0B       		.uleb128 0xb
 1962 013c 49       		.uleb128 0x49
 1963 013d 13       		.uleb128 0x13
 1964 013e 00       		.byte	0
 1965 013f 00       		.byte	0
 1966 0140 1B       		.uleb128 0x1b
 1967 0141 2E       		.uleb128 0x2e
 1968 0142 00       		.byte	0
 1969 0143 03       		.uleb128 0x3
 1970 0144 0E       		.uleb128 0xe
 1971 0145 3A       		.uleb128 0x3a
 1972 0146 0B       		.uleb128 0xb
 1973 0147 3B       		.uleb128 0x3b
 1974 0148 0B       		.uleb128 0xb
 1975 0149 27       		.uleb128 0x27
 1976 014a 0C       		.uleb128 0xc
 1977 014b 20       		.uleb128 0x20
 1978 014c 0B       		.uleb128 0xb
 1979 014d 00       		.byte	0
 1980 014e 00       		.byte	0
 1981 014f 1C       		.uleb128 0x1c
 1982 0150 2E       		.uleb128 0x2e
 1983 0151 00       		.byte	0
 1984 0152 03       		.uleb128 0x3
 1985 0153 0E       		.uleb128 0xe
 1986 0154 3A       		.uleb128 0x3a
 1987 0155 0B       		.uleb128 0xb
 1988 0156 3B       		.uleb128 0x3b
 1989 0157 0B       		.uleb128 0xb
 1990 0158 27       		.uleb128 0x27
 1991 0159 0C       		.uleb128 0xc
 1992 015a 49       		.uleb128 0x49
 1993 015b 13       		.uleb128 0x13
 1994 015c 20       		.uleb128 0x20
 1995 015d 0B       		.uleb128 0xb
ARM GAS  /tmp/cc7j1sXR.s 			page 48


 1996 015e 00       		.byte	0
 1997 015f 00       		.byte	0
 1998 0160 1D       		.uleb128 0x1d
 1999 0161 2E       		.uleb128 0x2e
 2000 0162 01       		.byte	0x1
 2001 0163 3F       		.uleb128 0x3f
 2002 0164 0C       		.uleb128 0xc
 2003 0165 03       		.uleb128 0x3
 2004 0166 0E       		.uleb128 0xe
 2005 0167 3A       		.uleb128 0x3a
 2006 0168 0B       		.uleb128 0xb
 2007 0169 3B       		.uleb128 0x3b
 2008 016a 0B       		.uleb128 0xb
 2009 016b 27       		.uleb128 0x27
 2010 016c 0C       		.uleb128 0xc
 2011 016d 11       		.uleb128 0x11
 2012 016e 01       		.uleb128 0x1
 2013 016f 12       		.uleb128 0x12
 2014 0170 01       		.uleb128 0x1
 2015 0171 40       		.uleb128 0x40
 2016 0172 0A       		.uleb128 0xa
 2017 0173 9742     		.uleb128 0x2117
 2018 0175 0C       		.uleb128 0xc
 2019 0176 01       		.uleb128 0x1
 2020 0177 13       		.uleb128 0x13
 2021 0178 00       		.byte	0
 2022 0179 00       		.byte	0
 2023 017a 1E       		.uleb128 0x1e
 2024 017b 898201   		.uleb128 0x4109
 2025 017e 00       		.byte	0
 2026 017f 11       		.uleb128 0x11
 2027 0180 01       		.uleb128 0x1
 2028 0181 9542     		.uleb128 0x2115
 2029 0183 0C       		.uleb128 0xc
 2030 0184 31       		.uleb128 0x31
 2031 0185 13       		.uleb128 0x13
 2032 0186 00       		.byte	0
 2033 0187 00       		.byte	0
 2034 0188 1F       		.uleb128 0x1f
 2035 0189 05       		.uleb128 0x5
 2036 018a 00       		.byte	0
 2037 018b 03       		.uleb128 0x3
 2038 018c 0E       		.uleb128 0xe
 2039 018d 3A       		.uleb128 0x3a
 2040 018e 0B       		.uleb128 0xb
 2041 018f 3B       		.uleb128 0x3b
 2042 0190 0B       		.uleb128 0xb
 2043 0191 49       		.uleb128 0x49
 2044 0192 13       		.uleb128 0x13
 2045 0193 02       		.uleb128 0x2
 2046 0194 0A       		.uleb128 0xa
 2047 0195 00       		.byte	0
 2048 0196 00       		.byte	0
 2049 0197 20       		.uleb128 0x20
 2050 0198 34       		.uleb128 0x34
 2051 0199 00       		.byte	0
 2052 019a 03       		.uleb128 0x3
ARM GAS  /tmp/cc7j1sXR.s 			page 49


 2053 019b 0E       		.uleb128 0xe
 2054 019c 49       		.uleb128 0x49
 2055 019d 13       		.uleb128 0x13
 2056 019e 34       		.uleb128 0x34
 2057 019f 0C       		.uleb128 0xc
 2058 01a0 00       		.byte	0
 2059 01a1 00       		.byte	0
 2060 01a2 21       		.uleb128 0x21
 2061 01a3 1D       		.uleb128 0x1d
 2062 01a4 01       		.byte	0x1
 2063 01a5 31       		.uleb128 0x31
 2064 01a6 13       		.uleb128 0x13
 2065 01a7 11       		.uleb128 0x11
 2066 01a8 01       		.uleb128 0x1
 2067 01a9 12       		.uleb128 0x12
 2068 01aa 01       		.uleb128 0x1
 2069 01ab 58       		.uleb128 0x58
 2070 01ac 0B       		.uleb128 0xb
 2071 01ad 59       		.uleb128 0x59
 2072 01ae 0B       		.uleb128 0xb
 2073 01af 00       		.byte	0
 2074 01b0 00       		.byte	0
 2075 01b1 22       		.uleb128 0x22
 2076 01b2 05       		.uleb128 0x5
 2077 01b3 00       		.byte	0
 2078 01b4 31       		.uleb128 0x31
 2079 01b5 13       		.uleb128 0x13
 2080 01b6 02       		.uleb128 0x2
 2081 01b7 0A       		.uleb128 0xa
 2082 01b8 00       		.byte	0
 2083 01b9 00       		.byte	0
 2084 01ba 23       		.uleb128 0x23
 2085 01bb 1D       		.uleb128 0x1d
 2086 01bc 00       		.byte	0
 2087 01bd 31       		.uleb128 0x31
 2088 01be 13       		.uleb128 0x13
 2089 01bf 11       		.uleb128 0x11
 2090 01c0 01       		.uleb128 0x1
 2091 01c1 12       		.uleb128 0x12
 2092 01c2 01       		.uleb128 0x1
 2093 01c3 58       		.uleb128 0x58
 2094 01c4 0B       		.uleb128 0xb
 2095 01c5 59       		.uleb128 0x59
 2096 01c6 0B       		.uleb128 0xb
 2097 01c7 00       		.byte	0
 2098 01c8 00       		.byte	0
 2099 01c9 24       		.uleb128 0x24
 2100 01ca 2E       		.uleb128 0x2e
 2101 01cb 01       		.byte	0x1
 2102 01cc 3F       		.uleb128 0x3f
 2103 01cd 0C       		.uleb128 0xc
 2104 01ce 03       		.uleb128 0x3
 2105 01cf 0E       		.uleb128 0xe
 2106 01d0 3A       		.uleb128 0x3a
 2107 01d1 0B       		.uleb128 0xb
 2108 01d2 3B       		.uleb128 0x3b
 2109 01d3 0B       		.uleb128 0xb
ARM GAS  /tmp/cc7j1sXR.s 			page 50


 2110 01d4 27       		.uleb128 0x27
 2111 01d5 0C       		.uleb128 0xc
 2112 01d6 49       		.uleb128 0x49
 2113 01d7 13       		.uleb128 0x13
 2114 01d8 11       		.uleb128 0x11
 2115 01d9 01       		.uleb128 0x1
 2116 01da 12       		.uleb128 0x12
 2117 01db 01       		.uleb128 0x1
 2118 01dc 40       		.uleb128 0x40
 2119 01dd 0A       		.uleb128 0xa
 2120 01de 9742     		.uleb128 0x2117
 2121 01e0 0C       		.uleb128 0xc
 2122 01e1 01       		.uleb128 0x1
 2123 01e2 13       		.uleb128 0x13
 2124 01e3 00       		.byte	0
 2125 01e4 00       		.byte	0
 2126 01e5 25       		.uleb128 0x25
 2127 01e6 34       		.uleb128 0x34
 2128 01e7 00       		.byte	0
 2129 01e8 03       		.uleb128 0x3
 2130 01e9 0E       		.uleb128 0xe
 2131 01ea 3A       		.uleb128 0x3a
 2132 01eb 0B       		.uleb128 0xb
 2133 01ec 3B       		.uleb128 0x3b
 2134 01ed 05       		.uleb128 0x5
 2135 01ee 49       		.uleb128 0x49
 2136 01ef 13       		.uleb128 0x13
 2137 01f0 3F       		.uleb128 0x3f
 2138 01f1 0C       		.uleb128 0xc
 2139 01f2 3C       		.uleb128 0x3c
 2140 01f3 0C       		.uleb128 0xc
 2141 01f4 00       		.byte	0
 2142 01f5 00       		.byte	0
 2143 01f6 26       		.uleb128 0x26
 2144 01f7 34       		.uleb128 0x34
 2145 01f8 00       		.byte	0
 2146 01f9 03       		.uleb128 0x3
 2147 01fa 08       		.uleb128 0x8
 2148 01fb 3A       		.uleb128 0x3a
 2149 01fc 0B       		.uleb128 0xb
 2150 01fd 3B       		.uleb128 0x3b
 2151 01fe 05       		.uleb128 0x5
 2152 01ff 49       		.uleb128 0x49
 2153 0200 13       		.uleb128 0x13
 2154 0201 3F       		.uleb128 0x3f
 2155 0202 0C       		.uleb128 0xc
 2156 0203 3C       		.uleb128 0x3c
 2157 0204 0C       		.uleb128 0xc
 2158 0205 00       		.byte	0
 2159 0206 00       		.byte	0
 2160 0207 27       		.uleb128 0x27
 2161 0208 2E       		.uleb128 0x2e
 2162 0209 00       		.byte	0
 2163 020a 3F       		.uleb128 0x3f
 2164 020b 0C       		.uleb128 0xc
 2165 020c 03       		.uleb128 0x3
 2166 020d 0E       		.uleb128 0xe
ARM GAS  /tmp/cc7j1sXR.s 			page 51


 2167 020e 3A       		.uleb128 0x3a
 2168 020f 0B       		.uleb128 0xb
 2169 0210 3B       		.uleb128 0x3b
 2170 0211 0B       		.uleb128 0xb
 2171 0212 27       		.uleb128 0x27
 2172 0213 0C       		.uleb128 0xc
 2173 0214 3C       		.uleb128 0x3c
 2174 0215 0C       		.uleb128 0xc
 2175 0216 00       		.byte	0
 2176 0217 00       		.byte	0
 2177 0218 00       		.byte	0
 2178              		.section	.debug_aranges,"",%progbits
 2179 0000 3C000000 		.4byte	0x3c
 2180 0004 0200     		.2byte	0x2
 2181 0006 00000000 		.4byte	.Ldebug_info0
 2182 000a 04       		.byte	0x4
 2183 000b 00       		.byte	0
 2184 000c 0000     		.2byte	0
 2185 000e 0000     		.2byte	0
 2186 0010 00000000 		.4byte	.LFB272
 2187 0014 04000000 		.4byte	.LFE272-.LFB272
 2188 0018 00000000 		.4byte	.LFB273
 2189 001c 10000000 		.4byte	.LFE273-.LFB273
 2190 0020 00000000 		.4byte	.LFB274
 2191 0024 0A000000 		.4byte	.LFE274-.LFB274
 2192 0028 00000000 		.4byte	.LFB275
 2193 002c 08000000 		.4byte	.LFE275-.LFB275
 2194 0030 00000000 		.4byte	.LFB276
 2195 0034 08000000 		.4byte	.LFE276-.LFB276
 2196 0038 00000000 		.4byte	0
 2197 003c 00000000 		.4byte	0
 2198              		.section	.debug_ranges,"",%progbits
 2199              	.Ldebug_ranges0:
 2200 0000 00000000 		.4byte	.LFB272
 2201 0004 04000000 		.4byte	.LFE272
 2202 0008 00000000 		.4byte	.LFB273
 2203 000c 10000000 		.4byte	.LFE273
 2204 0010 00000000 		.4byte	.LFB274
 2205 0014 0A000000 		.4byte	.LFE274
 2206 0018 00000000 		.4byte	.LFB275
 2207 001c 08000000 		.4byte	.LFE275
 2208 0020 00000000 		.4byte	.LFB276
 2209 0024 08000000 		.4byte	.LFE276
 2210 0028 00000000 		.4byte	0
 2211 002c 00000000 		.4byte	0
 2212              		.section	.debug_line,"",%progbits
 2213              	.Ldebug_line0:
 2214 0000 33020000 		.section	.debug_str,"MS",%progbits,1
 2214      0200BA01 
 2214      00000201 
 2214      FB0E0D00 
 2214      01010101 
 2215              	.LASF46:
 2216 0000 72656164 		.ascii	"ready_list_t\000"
 2216      795F6C69 
 2216      73745F74 
 2216      00
ARM GAS  /tmp/cc7j1sXR.s 			page 52


 2217              	.LASF80:
 2218 000d 44494552 		.ascii	"DIER\000"
 2218      00
 2219              	.LASF94:
 2220 0012 77747472 		.ascii	"wttrp\000"
 2220      7000
 2221              	.LASF91:
 2222 0018 7264796D 		.ascii	"rdymsg\000"
 2222      736700
 2223              	.LASF11:
 2224 001f 75696E74 		.ascii	"uint64_t\000"
 2224      36345F74 
 2224      00
 2225              	.LASF78:
 2226 0028 706F7274 		.ascii	"port_intctx\000"
 2226      5F696E74 
 2226      63747800 
 2227              	.LASF65:
 2228 0034 73797374 		.ascii	"system_debug_t\000"
 2228      656D5F64 
 2228      65627567 
 2228      5F7400
 2229              	.LASF12:
 2230 0043 6C6F6E67 		.ascii	"long long unsigned int\000"
 2230      206C6F6E 
 2230      6720756E 
 2230      7369676E 
 2230      65642069 
 2231              	.LASF92:
 2232 005a 65786974 		.ascii	"exitcode\000"
 2232      636F6465 
 2232      00
 2233              	.LASF72:
 2234 0063 6D61696E 		.ascii	"mainthread\000"
 2234      74687265 
 2234      616400
 2235              	.LASF62:
 2236 006e 76697274 		.ascii	"virtual_timers_list_t\000"
 2236      75616C5F 
 2236      74696D65 
 2236      72735F6C 
 2236      6973745F 
 2237              	.LASF119:
 2238 0084 49544D5F 		.ascii	"ITM_RxBuffer\000"
 2238      52784275 
 2238      66666572 
 2238      00
 2239              	.LASF126:
 2240 0091 73745F6C 		.ascii	"st_lld_init\000"
 2240      6C645F69 
 2240      6E697400 
 2241              	.LASF84:
 2242 009d 42445452 		.ascii	"BDTR\000"
 2242      00
 2243              	.LASF45:
 2244 00a2 63685F74 		.ascii	"ch_threads_queue\000"
 2244      68726561 
ARM GAS  /tmp/cc7j1sXR.s 			page 53


 2244      64735F71 
 2244      75657565 
 2244      00
 2245              	.LASF25:
 2246 00b3 705F7072 		.ascii	"p_prio\000"
 2246      696F00
 2247              	.LASF81:
 2248 00ba 43434D52 		.ascii	"CCMR1\000"
 2248      3100
 2249              	.LASF82:
 2250 00c0 43434D52 		.ascii	"CCMR2\000"
 2250      3200
 2251              	.LASF86:
 2252 00c6 43434D52 		.ascii	"CCMR3\000"
 2252      3300
 2253              	.LASF1:
 2254 00cc 7369676E 		.ascii	"signed char\000"
 2254      65642063 
 2254      68617200 
 2255              	.LASF102:
 2256 00d8 6D5F7175 		.ascii	"m_queue\000"
 2256      65756500 
 2257              	.LASF71:
 2258 00e0 76746C69 		.ascii	"vtlist\000"
 2258      737400
 2259              	.LASF69:
 2260 00e7 63685F73 		.ascii	"ch_system\000"
 2260      79737465 
 2260      6D00
 2261              	.LASF7:
 2262 00f1 6C6F6E67 		.ascii	"long int\000"
 2262      20696E74 
 2262      00
 2263              	.LASF14:
 2264 00fa 746D6F64 		.ascii	"tmode_t\000"
 2264      655F7400 
 2265              	.LASF15:
 2266 0102 74737461 		.ascii	"tstate_t\000"
 2266      74655F74 
 2266      00
 2267              	.LASF83:
 2268 010b 43434552 		.ascii	"CCER\000"
 2268      00
 2269              	.LASF10:
 2270 0110 6C6F6E67 		.ascii	"long long int\000"
 2270      206C6F6E 
 2270      6720696E 
 2270      7400
 2271              	.LASF122:
 2272 011e 2F686F6D 		.ascii	"/home/sylvain/Documents/TelecomRobotics/ChibiOS_16."
 2272      652F7379 
 2272      6C766169 
 2272      6E2F446F 
 2272      63756D65 
 2273 0151 312E372F 		.ascii	"1.7/demos/STM32/RT-STM32F302R8-NUCLEO\000"
 2273      64656D6F 
 2273      732F5354 
ARM GAS  /tmp/cc7j1sXR.s 			page 54


 2273      4D33322F 
 2273      52542D53 
 2274              	.LASF27:
 2275 0177 705F6E65 		.ascii	"p_newer\000"
 2275      77657200 
 2276              	.LASF99:
 2277 017f 735F7175 		.ascii	"s_queue\000"
 2277      65756500 
 2278              	.LASF4:
 2279 0187 73686F72 		.ascii	"short unsigned int\000"
 2279      7420756E 
 2279      7369676E 
 2279      65642069 
 2279      6E7400
 2280              	.LASF51:
 2281 019a 725F6E65 		.ascii	"r_newer\000"
 2281      77657200 
 2282              	.LASF39:
 2283 01a2 705F6D70 		.ascii	"p_mpool\000"
 2283      6F6F6C00 
 2284              	.LASF75:
 2285 01aa 72656761 		.ascii	"regarm_t\000"
 2285      726D5F74 
 2285      00
 2286              	.LASF58:
 2287 01b3 76745F70 		.ascii	"vt_prev\000"
 2287      72657600 
 2288              	.LASF106:
 2289 01bb 6D757465 		.ascii	"mutex_t\000"
 2289      785F7400 
 2290              	.LASF73:
 2291 01c3 69646C65 		.ascii	"idle_thread_wa\000"
 2291      5F746872 
 2291      6561645F 
 2291      776100
 2292              	.LASF20:
 2293 01d2 636E745F 		.ascii	"cnt_t\000"
 2293      7400
 2294              	.LASF0:
 2295 01d8 756E7369 		.ascii	"unsigned int\000"
 2295      676E6564 
 2295      20696E74 
 2295      00
 2296              	.LASF116:
 2297 01e5 5F5F6675 		.ascii	"__func__.6863\000"
 2297      6E635F5F 
 2297      2E363836 
 2297      3300
 2298              	.LASF57:
 2299 01f3 76745F6E 		.ascii	"vt_next\000"
 2299      65787400 
 2300              	.LASF95:
 2301 01fb 77747365 		.ascii	"wtsemp\000"
 2301      6D7000
 2302              	.LASF121:
 2303 0202 2E2E2F2E 		.ascii	"../../../os/hal/src/st.c\000"
 2303      2E2F2E2E 
ARM GAS  /tmp/cc7j1sXR.s 			page 55


 2303      2F6F732F 
 2303      68616C2F 
 2303      7372632F 
 2304              	.LASF34:
 2305 021b 705F6D73 		.ascii	"p_msgqueue\000"
 2305      67717565 
 2305      756500
 2306              	.LASF100:
 2307 0226 735F636E 		.ascii	"s_cnt\000"
 2307      7400
 2308              	.LASF79:
 2309 022c 534D4352 		.ascii	"SMCR\000"
 2309      00
 2310              	.LASF42:
 2311 0231 63685F74 		.ascii	"ch_thread\000"
 2311      68726561 
 2311      6400
 2312              	.LASF18:
 2313 023b 6D73675F 		.ascii	"msg_t\000"
 2313      7400
 2314              	.LASF68:
 2315 0241 63685F73 		.ascii	"ch_system_t\000"
 2315      79737465 
 2315      6D5F7400 
 2316              	.LASF88:
 2317 024d 73746D33 		.ascii	"stm32_tim_t\000"
 2317      325F7469 
 2317      6D5F7400 
 2318              	.LASF47:
 2319 0259 63685F72 		.ascii	"ch_ready_list\000"
 2319      65616479 
 2319      5F6C6973 
 2319      7400
 2320              	.LASF19:
 2321 0267 6576656E 		.ascii	"eventmask_t\000"
 2321      746D6173 
 2321      6B5F7400 
 2322              	.LASF117:
 2323 0273 5F5F6675 		.ascii	"__func__.6870\000"
 2323      6E635F5F 
 2323      2E363837 
 2323      3000
 2324              	.LASF108:
 2325 0281 73745F6C 		.ascii	"st_lld_start_alarm\000"
 2325      6C645F73 
 2325      74617274 
 2325      5F616C61 
 2325      726D00
 2326              	.LASF76:
 2327 0294 73746B61 		.ascii	"stkalign_t\000"
 2327      6C69676E 
 2327      5F7400
 2328              	.LASF33:
 2329 029f 705F7761 		.ascii	"p_waiting\000"
 2329      6974696E 
 2329      6700
 2330              	.LASF74:
ARM GAS  /tmp/cc7j1sXR.s 			page 56


 2331 02a9 73697A65 		.ascii	"sizetype\000"
 2331      74797065 
 2331      00
 2332              	.LASF40:
 2333 02b2 74687265 		.ascii	"thread_reference_t\000"
 2333      61645F72 
 2333      65666572 
 2333      656E6365 
 2333      5F7400
 2334              	.LASF63:
 2335 02c5 63685F76 		.ascii	"ch_virtual_timers_list\000"
 2335      69727475 
 2335      616C5F74 
 2335      696D6572 
 2335      735F6C69 
 2336              	.LASF64:
 2337 02dc 76745F6C 		.ascii	"vt_lasttime\000"
 2337      61737474 
 2337      696D6500 
 2338              	.LASF28:
 2339 02e8 705F6F6C 		.ascii	"p_older\000"
 2339      64657200 
 2340              	.LASF111:
 2341 02f0 7374496E 		.ascii	"stInit\000"
 2341      697400
 2342              	.LASF50:
 2343 02f7 725F6374 		.ascii	"r_ctx\000"
 2343      7800
 2344              	.LASF90:
 2345 02fd 746D5F63 		.ascii	"tm_calibration_t\000"
 2345      616C6962 
 2345      72617469 
 2345      6F6E5F74 
 2345      00
 2346              	.LASF110:
 2347 030e 74696D65 		.ascii	"time\000"
 2347      00
 2348              	.LASF120:
 2349 0313 474E5520 		.ascii	"GNU C 4.7.2\000"
 2349      4320342E 
 2349      372E3200 
 2350              	.LASF53:
 2351 031f 725F6375 		.ascii	"r_current\000"
 2351      7272656E 
 2351      7400
 2352              	.LASF52:
 2353 0329 725F6F6C 		.ascii	"r_older\000"
 2353      64657200 
 2354              	.LASF16:
 2355 0331 74726566 		.ascii	"trefs_t\000"
 2355      735F7400 
 2356              	.LASF55:
 2357 0339 76697274 		.ascii	"virtual_timer_t\000"
 2357      75616C5F 
 2357      74696D65 
 2357      725F7400 
 2358              	.LASF24:
ARM GAS  /tmp/cc7j1sXR.s 			page 57


 2359 0349 705F7072 		.ascii	"p_prev\000"
 2359      657600
 2360              	.LASF17:
 2361 0350 74707269 		.ascii	"tprio_t\000"
 2361      6F5F7400 
 2362              	.LASF66:
 2363 0358 63685F73 		.ascii	"ch_system_debug\000"
 2363      79737465 
 2363      6D5F6465 
 2363      62756700 
 2364              	.LASF107:
 2365 0368 5F426F6F 		.ascii	"_Bool\000"
 2365      6C00
 2366              	.LASF6:
 2367 036e 696E7433 		.ascii	"int32_t\000"
 2367      325F7400 
 2368              	.LASF2:
 2369 0376 756E7369 		.ascii	"unsigned char\000"
 2369      676E6564 
 2369      20636861 
 2369      7200
 2370              	.LASF37:
 2371 0384 705F6D74 		.ascii	"p_mtxlist\000"
 2371      786C6973 
 2371      7400
 2372              	.LASF3:
 2373 038e 73686F72 		.ascii	"short int\000"
 2373      7420696E 
 2373      7400
 2374              	.LASF30:
 2375 0398 705F7374 		.ascii	"p_state\000"
 2375      61746500 
 2376              	.LASF49:
 2377 03a0 725F7072 		.ascii	"r_prio\000"
 2377      696F00
 2378              	.LASF97:
 2379 03a7 65776D61 		.ascii	"ewmask\000"
 2379      736B00
 2380              	.LASF23:
 2381 03ae 705F6E65 		.ascii	"p_next\000"
 2381      787400
 2382              	.LASF5:
 2383 03b5 75696E74 		.ascii	"uint8_t\000"
 2383      385F7400 
 2384              	.LASF56:
 2385 03bd 63685F76 		.ascii	"ch_virtual_timer\000"
 2385      69727475 
 2385      616C5F74 
 2385      696D6572 
 2385      00
 2386              	.LASF124:
 2387 03ce 73745F6C 		.ascii	"st_lld_get_alarm\000"
 2387      6C645F67 
 2387      65745F61 
 2387      6C61726D 
 2387      00
 2388              	.LASF98:
ARM GAS  /tmp/cc7j1sXR.s 			page 58


 2389 03df 63685F73 		.ascii	"ch_semaphore\000"
 2389      656D6170 
 2389      686F7265 
 2389      00
 2390              	.LASF87:
 2391 03ec 43435852 		.ascii	"CCXR\000"
 2391      00
 2392              	.LASF36:
 2393 03f1 705F6570 		.ascii	"p_epending\000"
 2393      656E6469 
 2393      6E6700
 2394              	.LASF8:
 2395 03fc 75696E74 		.ascii	"uint32_t\000"
 2395      33325F74 
 2395      00
 2396              	.LASF96:
 2397 0405 77746D74 		.ascii	"wtmtxp\000"
 2397      787000
 2398              	.LASF48:
 2399 040c 725F7175 		.ascii	"r_queue\000"
 2399      65756500 
 2400              	.LASF59:
 2401 0414 76745F64 		.ascii	"vt_delta\000"
 2401      656C7461 
 2401      00
 2402              	.LASF43:
 2403 041d 63685F74 		.ascii	"ch_threads_list\000"
 2403      68726561 
 2403      64735F6C 
 2403      69737400 
 2404              	.LASF9:
 2405 042d 6C6F6E67 		.ascii	"long unsigned int\000"
 2405      20756E73 
 2405      69676E65 
 2405      6420696E 
 2405      7400
 2406              	.LASF113:
 2407 043f 73745374 		.ascii	"stStopAlarm\000"
 2407      6F70416C 
 2407      61726D00 
 2408              	.LASF105:
 2409 044b 63686172 		.ascii	"char\000"
 2409      00
 2410              	.LASF85:
 2411 0450 444D4152 		.ascii	"DMAR\000"
 2411      00
 2412              	.LASF22:
 2413 0455 74687265 		.ascii	"thread_t\000"
 2413      61645F74 
 2413      00
 2414              	.LASF104:
 2415 045e 6D5F6E65 		.ascii	"m_next\000"
 2415      787400
 2416              	.LASF21:
 2417 0465 73797374 		.ascii	"systime_t\000"
 2417      696D655F 
 2417      7400
ARM GAS  /tmp/cc7j1sXR.s 			page 59


 2418              	.LASF38:
 2419 046f 705F7265 		.ascii	"p_realprio\000"
 2419      616C7072 
 2419      696F00
 2420              	.LASF54:
 2421 047a 76746675 		.ascii	"vtfunc_t\000"
 2421      6E635F74 
 2421      00
 2422              	.LASF67:
 2423 0483 70616E69 		.ascii	"panic_msg\000"
 2423      635F6D73 
 2423      6700
 2424              	.LASF89:
 2425 048d 6F666673 		.ascii	"offset\000"
 2425      657400
 2426              	.LASF112:
 2427 0494 73745374 		.ascii	"stStartAlarm\000"
 2427      61727441 
 2427      6C61726D 
 2427      00
 2428              	.LASF77:
 2429 04a1 636F6E74 		.ascii	"context\000"
 2429      65787400 
 2430              	.LASF35:
 2431 04a9 705F6D73 		.ascii	"p_msg\000"
 2431      6700
 2432              	.LASF13:
 2433 04af 7274636E 		.ascii	"rtcnt_t\000"
 2433      745F7400 
 2434              	.LASF123:
 2435 04b7 73745F6C 		.ascii	"st_lld_stop_alarm\000"
 2435      6C645F73 
 2435      746F705F 
 2435      616C6172 
 2435      6D00
 2436              	.LASF61:
 2437 04c9 76745F70 		.ascii	"vt_par\000"
 2437      617200
 2438              	.LASF44:
 2439 04d0 74687265 		.ascii	"threads_queue_t\000"
 2439      6164735F 
 2439      71756575 
 2439      655F7400 
 2440              	.LASF101:
 2441 04e0 63685F6D 		.ascii	"ch_mutex\000"
 2441      75746578 
 2441      00
 2442              	.LASF32:
 2443 04e9 705F7265 		.ascii	"p_refs\000"
 2443      667300
 2444              	.LASF70:
 2445 04f0 726C6973 		.ascii	"rlist\000"
 2445      7400
 2446              	.LASF114:
 2447 04f6 73745365 		.ascii	"stSetAlarm\000"
 2447      74416C61 
 2447      726D00
ARM GAS  /tmp/cc7j1sXR.s 			page 60


 2448              	.LASF118:
 2449 0501 5F5F6675 		.ascii	"__func__.6874\000"
 2449      6E635F5F 
 2449      2E363837 
 2449      3400
 2450              	.LASF125:
 2451 050f 73744765 		.ascii	"stGetAlarm\000"
 2451      74416C61 
 2451      726D00
 2452              	.LASF93:
 2453 051a 77746F62 		.ascii	"wtobjp\000"
 2453      6A7000
 2454              	.LASF29:
 2455 0521 705F6E61 		.ascii	"p_name\000"
 2455      6D6500
 2456              	.LASF41:
 2457 0528 74687265 		.ascii	"threads_list_t\000"
 2457      6164735F 
 2457      6C697374 
 2457      5F7400
 2458              	.LASF115:
 2459 0537 61627374 		.ascii	"abstime\000"
 2459      696D6500 
 2460              	.LASF31:
 2461 053f 705F666C 		.ascii	"p_flags\000"
 2461      61677300 
 2462              	.LASF109:
 2463 0547 73745F6C 		.ascii	"st_lld_set_alarm\000"
 2463      6C645F73 
 2463      65745F61 
 2463      6C61726D 
 2463      00
 2464              	.LASF103:
 2465 0558 6D5F6F77 		.ascii	"m_owner\000"
 2465      6E657200 
 2466              	.LASF26:
 2467 0560 705F6374 		.ascii	"p_ctx\000"
 2467      7800
 2468              	.LASF60:
 2469 0566 76745F66 		.ascii	"vt_func\000"
 2469      756E6300 
 2470              		.comm	__gnu_lto_v1,1,1
 2471              		.ident	"GCC: (GNU) 4.7.2"
ARM GAS  /tmp/cc7j1sXR.s 			page 61


DEFINED SYMBOLS
                            *ABS*:00000000 st.c
     /tmp/cc7j1sXR.s:236    .text.stInit:00000000 $t
     /tmp/cc7j1sXR.s:242    .text.stInit:00000000 stInit
     /tmp/cc7j1sXR.s:258    .text.stStartAlarm:00000000 $t
     /tmp/cc7j1sXR.s:264    .text.stStartAlarm:00000000 stStartAlarm
     /tmp/cc7j1sXR.s:294    .text.stStopAlarm:00000000 $t
     /tmp/cc7j1sXR.s:300    .text.stStopAlarm:00000000 stStopAlarm
     /tmp/cc7j1sXR.s:320    .text.stSetAlarm:00000000 $t
     /tmp/cc7j1sXR.s:326    .text.stSetAlarm:00000000 stSetAlarm
     /tmp/cc7j1sXR.s:346    .text.stGetAlarm:00000000 $t
     /tmp/cc7j1sXR.s:352    .text.stGetAlarm:00000000 stGetAlarm
                            *COM*:00000001 __gnu_lto_v1
                     .debug_frame:00000010 $d

UNDEFINED SYMBOLS
st_lld_init
