ARM GAS  /tmp/cc7j1sXR.s 			page 1


   1              		.syntax unified
   2              		.cpu cortex-m4
   3              		.fpu softvfp
   4              		.eabi_attribute 20, 1
   5              		.eabi_attribute 21, 1
   6              		.eabi_attribute 23, 3
   7              		.eabi_attribute 24, 1
   8              		.eabi_attribute 25, 1
   9              		.eabi_attribute 26, 1
  10              		.eabi_attribute 30, 2
  11              		.eabi_attribute 34, 1
  12              		.eabi_attribute 18, 4
  13              		.thumb
  14              		.file	"st.c"
  15              		.text
  16              	.Ltext0:
  17              		.section	.gnu.lto_.jmpfuncs.54dd54e2016085aa,"",%progbits
  18 0000 789C6362 		.ascii	"x\234cb`d`g\300\016x\2414+\020322103\26200\000\000\003"
  18      60646067 
  18      C00E78A1 
  18      342B1033 
  18      32323130 
  19 001b 8D0029   		.ascii	"\215\000)"
  20              		.text
  21              		.section	.gnu.lto_.inline.54dd54e2016085aa,"",%progbits
  22 0000 789C6362 		.ascii	"x\234cb`d\340e\300\016\302\2404+\003\003\013\017#\003"
  22      6064E065 
  22      C00EC2A0 
  22      342B0303 
  22      0B0F2303 
  23 0014 1390C9B6 		.ascii	"\023\220\311\266@\236\211\201\221\013\310bd`c\005\212"
  23      409E8981 
  23      910BC862 
  23      64606305 
  23      8A
  24 0025 B17DD083 		.ascii	"\261}\320\203\01021\2600\003\371L\027\370!|f4>\013\032"
  24      083231B0 
  24      3003F94C 
  24      17F8217C 
  24      66343E0B 
  25 003a 9F010050 		.ascii	"\237\001\000P)\010j"
  25      29086A
  26              		.text
  27              		.section	.gnu.lto_.pureconst.54dd54e2016085aa,"",%progbits
  28 0000 789C6362 		.ascii	"x\234cb`d`f``\340f\200\000V\006\011F)&)f)\026)\000\004"
  28      60646066 
  28      6060E066 
  28      80005606 
  28      09462926 
  29 001b 5700A1   		.ascii	"W\000\241"
  30              		.text
  31              		.section	.gnu.lto_stInit.54dd54e2016085aa,"",%progbits
  32 0000 789C6362 		.ascii	"x\234cb`\004BL \011\304\265@,\015\304\214\314\014\214"
  32      6004424C 
  32      2009C4B5 
  32      402C0DC4 
  32      8CCC0C8C 
ARM GAS  /tmp/cc7j1sXR.s 			page 2


  33 0014 4C13CE31 		.ascii	"L\023\316104*012\202\030@-\365L\214\365\241\020\235"
  33      30342A30 
  33      31328218 
  33      402DF54C 
  33      8CF5A110 
  34 0029 A7FEAC63 		.ascii	"\247\376\254c\374c\276\237\351\300\203\377\365\014\014"
  34      FC63BE9F 
  34      E9C083FF 
  34      F50C0C
  35 0038 CC401156 		.ascii	"\314@\021V\206\226\206\006\001\206x\250\311\201 \032"
  35      86968606 
  35      018678A8 
  35      C981201A 
  36 0048 A42F8891 		.ascii	"\244/\210\221\011\314`>\303\300\374\345:{,\343\002F"
  36      09CC603E 
  36      C3C0FCE5 
  36      3A7B2CE3 
  36      0246
  37 005a 56A05415 		.ascii	"V\240T\025\303\317\006\216T\240C\342\031\031!ZRA\364"
  37      C3CF068E 
  37      54A043E2 
  37      1919215A 
  37      5241F4
  38 006d 3906A0B1 		.ascii	"9\006\240\261050\223\030\301\0060\201\234\250\247\247"
  38      30353093 
  38      18C10630 
  38      819CA8A7 
  38      A7
  39 007e 0F41F9C5 		.ascii	"\017A\371\305\372\031\2119\372\305E\311\372\305%z\311"
  39      FA198939 
  39      FAC545C9 
  39      FAC5257A 
  39      C9
  40 008f 0C006074 		.ascii	"\014\000`t%\006"
  40      2506
  41              		.text
  42              		.section	.gnu.lto_stStartAlarm.54dd54e2016085aa,"",%progbits
  43 0000 789C9D90 		.ascii	"x\234\235\220\301J\002Q\024\206\377sgF\267n\205 \021"
  43      C14A0251 
  43      1486FF73 
  43      6746B76E 
  43      852011
  44 0013 A1453097 		.ascii	"\241E0\227j\323\003\264(\322\205e\320\306\304\246\001"
  44      6AD303B4 
  44      28D28565 
  44      D0C6C4A6 
  44      01
  45 0024 05C370A4 		.ascii	"\005\303p\244\255c\371\000\322N!\250\244\215A\017\320"
  45      AD63F900 
  45      D24E21A8 
  45      A48D410F 
  45      D0
  46 0035 A6888870 		.ascii	"\246\210\210p\341*h+\021\255\\\265\210vv\356\214\222"
  46      E12A682B 
  46      11AD5CB5 
  46      887676EE 
  46      8C92
ARM GAS  /tmp/cc7j1sXR.s 			page 3


  47 0047 568BE8CC 		.ascii	"V\213\350\314\314=\347\336s\377\377\033\216\000\361"
  47      CC3DE7DE 
  47      73FFFF1B 
  47      8E00F1
  48 0056 F333C2FC 		.ascii	"\3633\302\374\275qc\2233i Q\357\002\325\210 R\005K*"
  48      BD716393 
  48      33692051 
  48      EF02D588 
  48      2052054B 
  49 006b 822A1BBE 		.ascii	"\202*\033\276\262s\334\232yl\006\256\305MoP\211\241"
  49      B273DC9A 
  49      796C06AE 
  49      C54D6F50 
  49      89A1
  50 007d E5BA47F5 		.ascii	"\345\272G\365Cw\331&\010L\0212\204~\343\235\302\260"
  50      4377D926 
  50      084C1132 
  50      847EE39D 
  50      C2B0
  51 008f 891081CA 		.ascii	"\211\020\201\312\002\272\022\362\015\004\211\322tB1"
  51      02BA12F2 
  51      0D0489D2 
  51      744231
  52 009e B5375073 		.ascii	"\2657Ps\335\020\345=\215\027I\225\025q\2155\252\320"
  52      DD10E53D 
  52      8D174995 
  52      15718D35 
  52      AAD0
  53 00b0 EE21F82C 		.ascii	"\356!\370,\212\323!\345\2407\030L{\250\230'\313\375"
  53      8AD321E5 
  53      A037184C 
  53      7BA89827 
  53      CBFD
  54 00c2 C2F90A8B 		.ascii	"\302\371\012\213[\350\340v\365\365\352\351N\363y#l\232"
  54      5BE8E076 
  54      F5F5EAE9 
  54      4EF37923 
  54      6C9A
  55 00d4 5A14459A 		.ascii	"Z\024E\232\316\310\030SH\\\2725\262I\323g\321\366*]"
  55      CEC81853 
  55      485CBA35 
  55      B249D367 
  55      D1F62A5D 
  56 00e8 6BA2510D 		.ascii	"k\242Q\015\331d\010\305\010\300\345\320\341\327\360"
  56      D96408C5 
  56      08C0E5D0 
  56      E1D7F0
  57 00f7 A6B9A596 		.ascii	"\246\271\245\226\017\315\233\243M\301\241\325\2031\366"
  57      0FCD9BA3 
  57      4DC1A1D5 
  57      8331F6
  58 0106 078B2F17 		.ascii	"\007\213/\027\317\214<g\330\310X\373\2131\215\031k\376"
  58      CF8C3C67 
  58      D8C858FB 
  58      8B318D19 
  58      6BFE
  59 0118 F8D9ACFF 		.ascii	"\370\331\254\377?31a\306;tA\235\26659\204\244\202\362"
ARM GAS  /tmp/cc7j1sXR.s 			page 4


  59      3F333161 
  59      C63B7441 
  59      9DB63539 
  59      84A482F2 
  60 012c EC553F6C 		.ascii	"\354U?l\232\322\177\213\216\314e\013\322)Y\322)\233"
  60      9AD27F8B 
  60      8ECC650B 
  60      D22959D2 
  60      299B
  61 013e 1682D96D 		.ascii	"\026\202\331m\247\234\337\265u\265\310\357\327\366\212"
  61      A79CDFB5 
  61      75B5C8EF 
  61      D7F68A
  62 014d A5B223D7 		.ascii	"\245\262#\327S\211\205y\031\217/\311\324Jb\177\216\205"
  62      53898579 
  62      198F2FC9 
  62      D44A627F 
  62      8E85
  63 015f 994261C7 		.ascii	"\231Ba\307\314\341\023XT|\366"
  63      CCE11358 
  63      547CF6
  64              		.text
  65              		.section	.gnu.lto_stStopAlarm.54dd54e2016085aa,"",%progbits
  66 0000 789C6362 		.ascii	"x\234cb`\004BL \011\304\007\200\330\033\210\031\231"
  66      6004424C 
  66      2009C407 
  66      80D81B88 
  66      1999
  67 0012 19189926 		.ascii	"\031\030\231&\234c`hT`bd\0041\200Z\352\231\030\353C"
  67      9C636068 
  67      54606264 
  67      0431805A 
  67      EA9918EB 
  68 0027 213A4FED 		.ascii	"!:O\355^,\363e6\333~\246\003\017\376\32730\260\000\205"
  68      5E2CF365 
  68      36DB7EA6 
  68      030FFED7 
  68      3330B000 
  69 003c 58195A1A 		.ascii	"X\031Z\032\032\004\030\342\241F\007\202h\220\306 F&"
  69      1A0418E2 
  69      A1460782 
  69      6890C620 
  69      4626
  70 004e 3083F914 		.ascii	"0\203\371\024\303!\213O?o~a\202\252\204R\261\214\013"
  70      C3218B4F 
  70      3F6F7E61 
  70      82AA8452 
  70      B18C0B
  71 0061 1859919C 		.ascii	"\030Y\221\234\241\315\260\252\241\2051\225\221\201y"
  71      A1CDB0AA 
  71      A1853195 
  71      918179
  72 0070 16C3CC46 		.ascii	"\026\303\314F\201TFF&I\206T\240!\015@\300\302\000a3"
  72      81544646 
  72      26498654 
  72      A0210D40 
  72      C0C20061 
ARM GAS  /tmp/cc7j1sXR.s 			page 5


  73 0085 807D1007 		.ascii	"\200}\020\007\"~0\203\335\236\012\265\367\034\003\343"
  73      227E3083 
  73      DD9E0AB5 
  73      F71C03E3 
  74 0095 A97DC9A8 		.ascii	"\251}\311\250\206\00622\202\235\000\322'\251\247\247"
  74      86063232 
  74      829D00D2 
  74      27A9A7A7 
  75 00a5 0F41F9C5 		.ascii	"\017A\371\305\372\031\2119\372\305E\311\372\305%z\311"
  75      FA198939 
  75      FAC545C9 
  75      FAC5257A 
  75      C9
  76 00b6 0CFAE832 		.ascii	"\014\372\3502\005\371E%\305\372\301!\276\306F\372>>"
  76      05F94525 
  76      C5FAC121 
  76      BEC646FA 
  76      3E3E
  77 00c8 2EFA219E 		.ascii	".\372!\236\276e\206@\265\36199)z\031\014\000\277\232"
  77      BE658640 
  77      B5F13939 
  77      297A190C 
  77      00BF9A
  78 00db 40AE     		.ascii	"@\256"
  79              		.text
  80              		.section	.gnu.lto_stSetAlarm.54dd54e2016085aa,"",%progbits
  81 0000 789C6D90 		.ascii	"x\234m\220=K\003A\020\206\337\331\273K\332\264\001\301"
  81      3D4B0341 
  81      1086DFD9 
  81      BB4BDAB4 
  81      01C1
  82 0012 10828D70 		.ascii	"\020\202\215p\213\372\027,\024\223\"\032!\315\031\342"
  82      8BFA172C 
  82      1493221A 
  82      21CD19E2 
  83 0022 7990C049 		.ascii	"y\220\300I$w\330f\243\371\001\301N!\240^g\341\017\260"
  83      2477D866 
  83      A3F901C1 
  83      4E21A05E 
  83      67E10FB0 
  84 0036 5144440E 		.ascii	"QDD\016Io\241\244\262\264\262\260\213\273{\011~\316"
  84      496FA1A4 
  84      B2B4B2B0 
  84      8BBB7B09 
  84      7ECE
  85 0048 7ECCECCE 		.ascii	"~\314\354\316<\373\356.\003\311\366\327\262rTe\242*"
  85      3CFBEE2E 
  85      03C9F6D7 
  85      B2725465 
  85      A22A
  86 005a 3D1920D6 		.ascii	"=\031 \326\037\002\335\034#R\201D:\214:\233\011\031"
  86      1F02DD1C 
  86      23528144 
  86      3A8C3A9B 
  86      0919
  87 006c 3F4573EF 		.ascii	"?Es\357\203\3245\273\031\215;\005DB\034\365\017\305"
  87      83D435BB 
ARM GAS  /tmp/cc7j1sXR.s 			page 6


  87      198D3B05 
  87      44421CF5 
  87      0FC5
  88 007e 8A476098 		.ascii	"\212G`\230!\324\010\217\2037\312\302#B\016\3123\230"
  88      21D4088F 
  88      8337CAC2 
  88      23420ECA 
  88      3398
  89 0090 0A9415B0 		.ascii	"\012\224\025\260\210\034:\245\202Z[\350\011\221\241"
  89      881C3AA5 
  89      825A5BE8 
  89      0991A1
  90 009f A666B495 		.ascii	"\246f\264\225\225W\212\353\222Q\201q\017&\367\3628\233"
  90      95578AEB 
  90      92518171 
  90      0F26F7F2 
  90      389B
  91 00b1 A81C8CC6 		.ascii	"\250\034\214\306\343Y-U\320X\343\037\235/se\0121n\327"
  91      E3592D55 
  91      D058E31F 
  91      9D2F7365 
  91      0A316ED7 
  92 00c5 5EAF9EEF 		.ascii	"^\257\236\357\214Do*\353PDy8tN\3267\202\343R\364\310"
  92      8C446F2A 
  92      EB504479 
  92      38744ED6 
  92      3782E352 
  93 00db 23C39CC7 		.ascii	"#\303\234\307\205\216L\343\004\307\335\214G\026S\032"
  93      858E4CE3 
  93      04C7DD8C 
  93      4716531A 
  94 00eb 29086926 		.ascii	")\010i&\222\030\3727\267\324\364a\350\177\364(=9\352"
  94      9218FA37 
  94      B7D4F461 
  94      E87FF428 
  94      3D39EA
  95 00fe C19ADE60 		.ascii	"\301\232\336`\010\212_\334\237Re\225\220/d\212\262m"
  95      088A5FDC 
  95      9F526595 
  95      902F648A 
  95      B26D
  96 0110 9EF456C0 		.ascii	"\236\364V\300\033u\237\007m\227\007\241\355\"]\337\016"
  96      1B759F07 
  96      6D9707A1 
  96      ED225DDF 
  96      0E
  97 0121 C2E6AE67 		.ascii	"\302\346\256g\252\211\377.\333k\265\303\200oTJK\213"
  97      AA89FF2E 
  97      DB6BB5C3 
  97      806F544A 
  97      4B8B
  98 0133 BC585CE6 		.ascii	"\274X\\\346\225\325\322\376\202\004k\276\277c7\360\011"
  98      95D5D2FE 
  98      82046BBE 
  98      BF6337F0 
  98      09
  99 0144 F41D5F7F 		.ascii	"\364\035_\177"
ARM GAS  /tmp/cc7j1sXR.s 			page 7


 100              		.text
 101              		.section	.gnu.lto_stGetAlarm.54dd54e2016085aa,"",%progbits
 102 0000 789C6362 		.ascii	"x\234cb`\004BL \011\304\022@\011o \315\310\314\300\310"
 102      6004424C 
 102      2009C412 
 102      40096F20 
 102      CDC8CCC0 
 103 0015 34E11C03 		.ascii	"4\341\034\003C\243\002\023##\210\001\324R\317\304X\037"
 103      43A30213 
 103      23238801 
 103      D452CFC4 
 103      581F
 104 0027 0AD6C9A8 		.ascii	"\012\326\311\250\304\260\260\241a\326\204\303M\036M"
 104      C4B0B0A1 
 104      61D684C3 
 104      4D1E4D
 105 0036 0FFEFF97 		.ascii	"\017\376\377\227O\005\211\30632\234\372\371\230W\222"
 105      4F0589C6 
 105      33329CFA 
 105      F9985792 
 106 0046 21959191 		.ascii	"!\225\221\221A\201\001D31\260\240\332q\202\375\313|"
 106      41810144 
 106      3331B0A0 
 106      DA7182FD 
 106      CB7C
 107 0058 B6FD4C07 		.ascii	"\266\375L\007\036\374\257g``ca\210e\\\0004\013\010X"
 107      1EFCAF67 
 107      60606361 
 107      88655C00 
 107      340B0858 
 108 006c 195A1A1A 		.ascii	"\031Z\032\032\004\0303\031A\306\200A \210\006\331\034"
 108      04183319 
 108      41C68041 
 108      208806D9 
 108      1C
 109 007d 043406C4 		.ascii	"\0044\006\304`>\305p(\356\323\317\3732\020\265P-@#\026"
 109      603EC570 
 109      28EED3CF 
 109      FB3210B5 
 109      502D4023 
 110 0092 32B22259 		.ascii	"2\262\"Y\221\314\310\242\317\260\256\241\2051\225\221"
 110      91CCC8A2 
 110      CFB0AEA1 
 110      85319591 
 111 00a2 99459B61 		.ascii	"\231E\233a\025\230\305\302<\213af\243@*#+\023\310]l"
 111      1598C5C2 
 111      3C8B6166 
 111      A3402A23 
 111      2B13C85D 
 112 00b7 0C0D40C0 		.ascii	"\014\015@\300\302\000a3\200\203#\016D\314\340\004\007"
 112      C2006133 
 112      8083230E 
 112      44CCE004 
 112      07
 113 00c8 442A233B 		.ascii	"D*#;\324\264\025\314`\352\034\003\343\251\277\217\031"
 113      D4B415CC 
 113      60EA1C03 
ARM GAS  /tmp/cc7j1sXR.s 			page 8


 113      E3A9BF8F 
 113      19
 114 00d9 2176016D 		.ascii	"!v\001m\2009\221\021\3542&\220&==}\010\312/\326\317"
 114      80399111 
 114      EC322690 
 114      263D3D7D 
 114      08CA2FD6 
 115 00ee 48CCD12F 		.ascii	"H\314\321/.J\326/.\321Kf\320G\227)\310/*)\326\017\016"
 115      2E4AD62F 
 115      2ED14B66 
 115      D0479729 
 115      C82F2A29 
 116 0105 F13536D2 		.ascii	"\36156\322\367\361q\321\017\361\364-3\004\252\215\317"
 116      F7F171D1 
 116      0FF1F42D 
 116      3304AA8D 
 116      CF
 117 0116 C949D1CB 		.ascii	"\311I\321\313`\000\000\026RP["
 117      60000016 
 117      52505B
 118              		.text
 119              		.section	.gnu.lto_.cgraph.54dd54e2016085aa,"",%progbits
 120 0000 789C45C7 		.ascii	"x\234E\307\261\015\2000\020\003@\333O\306d\026G\242"
 120      B10D8030 
 120      100340DB 
 120      4FC66416 
 120      47A2
 121 0012 A10C9082 		.ascii	"\241\014\220\202\212\221\230\201I\020\022B\374u'\020"
 121      8A919881 
 121      49101242 
 121      FC752710 
 122 0022 0160C447 		.ascii	"\001`\304GM\006\332\011\373\230\251Efn\225\225\333\344"
 122      4D06DA09 
 122      FB98A945 
 122      666E9595 
 122      DBE4
 123 0034 C87579F8 		.ascii	"\310uy\370\307].\357je\240`\272n\342\001\205a\035\315"
 123      C75D2EEF 
 123      6A65A060 
 123      BA6EE201 
 123      85611DCD 
 124              		.text
 125              		.section	.gnu.lto_.vars.54dd54e2016085aa,"",%progbits
 126 0000 789C6362 		.ascii	"x\234cb`d`f`\000\222P\000\000\000r\000\010"
 126      60646066 
 126      60009250 
 126      00000072 
 126      0008
 127              		.text
 128              		.section	.gnu.lto_.refs.54dd54e2016085aa,"",%progbits
 129 0000 789C6362 		.ascii	"x\234cb`d`f```b\200\001\000\000\204\000\011"
 129      60646066 
 129      60606062 
 129      80010000 
 129      840009
 130              		.text
 131              		.section	.gnu.lto_.statics.54dd54e2016085aa,"",%progbits
ARM GAS  /tmp/cc7j1sXR.s 			page 9


 132 0000 789C6362 		.ascii	"x\234cb`d`b\300\016@\342\214\020&\000\000\375\000\011"
 132      60646062 
 132      C00E40E2 
 132      8C102600 
 132      00FD0009 
 133              		.text
 134              		.section	.gnu.lto_.decls.54dd54e2016085aa,"",%progbits
 135 0000 789C9D58 		.ascii	"x\234\235X}L\034E\024\237\331=\201\003\212\245i\233"
 135      7D4C1C45 
 135      149FD93D 
 135      81038AA5 
 135      699B
 136 0012 6BB4819A 		.ascii	"k\264\201\232\326\030\222\336\226\217\264\376\323\244"
 136      D61892DE 
 136      968FB4FE 
 136      D3A4
 137 0020 78102029 		.ascii	"x\020 )\265Y\320\320?6'\034T.9\016\274[L\372\337\366"
 137      B559D0D0 
 137      3F36271C 
 137      542E390E 
 137      BC5B4CFA 
 138 0036 306A8C9A 		.ascii	"0j\214\232Sc\322?\214=h\251(\255U\010FZk\251\020\013"
 138      5363D23F 
 138      8C3D68A9 
 138      28AD5508 
 138      465A6BA9 
 139 004c B14D4BAC 		.ascii	"\261MK\254\037M!b\212_\021\253\"\3326E\3177\263\337"
 139      1F4D2162 
 139      8A5F11AB 
 139      22DA3645 
 139      CF37B3DF 
 140 0060 C7EDDD2D 		.ascii	"\307\355\335-\023\336\333\331\271\367~\363{o\336\316"
 140      13DEDBD9 
 140      B9F77EF3 
 140      7B6FDECE 
 141 0070 CEC2208C 		.ascii	"\316\302 \214H{\031.qhO\026\302\025\372Y0\266\033\351"
 141      487B192E 
 141      71684F16 
 141      C215FA59 
 141      30B61BE9 
 142 0084 8DDCC740 		.ascii	"\215\334\307@\372A\206@F@FA\316\241\225\215\3301 \347"
 142      FA418640 
 142      46404641 
 142      CEA1958D 
 142      D83120E7 
 143 0098 417A9531 		.ascii	"Az\2251F\031OfO0s@\006@\012@\362A\306@.\200L\200,\201"
 143      46194F66 
 143      4F307340 
 143      06400A40 
 143      F241C640 
 144 00b2 38405890 		.ascii	"8@X\220\233 \323 W@\260\342K\256\177'`\016)\366c\006"
 144      9B20D320 
 144      5740B0E2 
 144      4BAE7F27 
 144      600E29F6 
 145 00c8 0C6CF01B 		.ascii	"\014l\360\033J\302c$C\036X\341\201\025\037r\215'`\215"
 145      4AC26324 
ARM GAS  /tmp/cc7j1sXR.s 			page 10


 145      431E58E1 
 145      81151F72 
 145      8D27608D 
 146 00dc AE026B54 		.ascii	"\256\002kT\271:\260\031\253\010\275-\305\346\242=R\355"
 146      B93AB019 
 146      AB08BD2D 
 146      C5E6A23D 
 146      52ED
 147 00ee 9D783C7B 		.ascii	"\235x<{#zS\202\026{^\222\260(\340\335\033\320&$\340"
 147      237A5382 
 147      167B5E92 
 147      B028E0DD 
 147      1BD02624 
 148 0103 022742C5 		.ascii	"\002'B\305\264\227\357\224\221\021\364{\361F\245\327"
 148      B497EF94 
 148      9111F47B 
 148      F146A5D7 
 149 0113 C8CA580C 		.ascii	"\310\312X\014b0*A\357J\264)\023)\027'\352\233:\315\252"
 149      62302A41 
 149      EF4AB429 
 149      13291727 
 149      EA9B3ACD 
 150 0128 B33E8CFA 		.ascii	"\263>\214\372\211\311X\304E'! 1\\d\"&\340>\314$2\235"
 150      89C958C4 
 150      45272120 
 150      315C6422 
 150      26E03ECC 
 151 013f FB63354C 		.ascii	"\373c5LO(LYZ)@\345EI\212\020\327\332IH_r\277m\350\270"
 151      4F284C59 
 151      5A2940E5 
 151      45498A10 
 151      D7DA4948 
 152 0159 24454918 		.ascii	"$EI\030\002\036\300N\360,\301\360\3631\\\202\206\316"
 152      021EC04E 
 152      F02CC1F0 
 152      F3315C82 
 152      86CE
 153 016b 9EDAA006 		.ascii	"\236\332\240\006e\023i\220\"\035P\221\336{u\372sN\015"
 153      65136990 
 153      221D5091 
 153      DE7B75FA 
 153      734E0D
 154 017e 37DB690E 		.ascii	"7\333i\016\037\356e+\031X\376Y\355\221\307\351~d\337"
 154      1FEE652B 
 154      1958FE59 
 154      ED91C7E9 
 154      7E64DF
 155 0191 01EBAB05 		.ascii	"\001\353\253\005D>\301*\223\276\353\303\025\362\350"
 155      443EC12A 
 155      93BEEBC3 
 155      15F2E8
 156 01a0 56744C92 		.ascii	"VtL\222^'iV\003\237\242V\375\260>\337f[$Y6M\266\254"
 156      5E276956 
 156      039FA256 
 156      FDB03EDF 
 156      665B2459 
 157 01b8 C4ADDD44 		.ascii	"\304\255\335D\363\375T\313*\227\025\203\2465f3\017\244"
ARM GAS  /tmp/cc7j1sXR.s 			page 11


 157      F3FD54CB 
 157      2A971583 
 157      A6356633 
 157      0FA4
 158 01ca 289AA115 		.ascii	"(\232\241\025E3\234\032\375\004E\237\325\320/mN\036"
 158      45339C1A 
 158      FD04459F 
 158      D5D02F6D 
 158      4E1E
 159 01dc B5803F00 		.ascii	"\265\200?\000 \001\217\300\004\037\333\217zdE\324\037"
 159      20018FC0 
 159      041FDB8F 
 159      7A6445D4 
 159      1F
 160 01ed D9286682 		.ascii	"\331(f\202j]\315g\222<w?\353\001\035\015\232\362\025"
 160      6A5DCD67 
 160      923C773F 
 160      EB011D0D 
 160      9AF215
 161 0200 898E4794 		.ascii	"\211\216G\224\230\210\313(I\230\0256\2658\233\204h4"
 161      9888CB28 
 161      49981536 
 161      B5389B84 
 161      6834
 162 0212 DA13332D 		.ascii	"\332\0233-\317_\332|\377\035\275}\321e^\202O\315\010"
 162      CF5FDA7C 
 162      FF1DBD7D 
 162      D1655E82 
 162      4FCD08
 163 0225 79E825FD 		.ascii	"y\350%\375!\221\001\254\203;\217\363T?\372p\365\244"
 163      219101AC 
 163      833B8FF3 
 163      543FFA70 
 163      F5A4
 164 0237 79B8047C 		.ascii	"y\270\004|\022o\313\260\366\013Q\224fY\222\263<f\310"
 164      126FCBB0 
 164      F60B5194 
 164      665992B3 
 164      3C66C8
 165 024a 326C562A 		.ascii	"2lV*\352Z:y\202\355`*[\001\177\206\013u\312\222\026"
 165      EA5A3A79 
 165      82ED602A 
 165      5B017F86 
 165      0B75CA92 
 166 025f 6A7EAA65 		.ascii	"j~\252e\034\307\362\363\256\216\353=m\2274\331\241u"
 166      1CC7F2F3 
 166      AE8EEB3D 
 166      6D9734D9 
 166      A175
 167 0271 E835025E 		.ascii	"\3505\002^lL\206\224\245y=\205\314[\315\004^\007\013"
 167      6C4C8694 
 167      A5793D85 
 167      CC5BCD04 
 167      5E070B
 168 0284 759A5117 		.ascii	"u\232Q\027\352\326;\2637\330\214\221\310\314\027\001"
 168      EAD63BB3 
 168      37D88C91 
ARM GAS  /tmp/cc7j1sXR.s 			page 12


 168      C8CC1701 
 169 0294 41F6A5B8 		.ascii	"A\366\245\270\222\214KF\221Zl\013\007\321\312\266~\013"
 169      928C4B46 
 169      915A6C0B 
 169      07D1CAB6 
 169      7E0B
 170 02a6 8A49CFF5 		.ascii	"\212I\317\365\220\342\316\222\323\314\240[\224\007\361"
 170      90E2CE92 
 170      D3CCA05B 
 170      9407F1
 171 02b5 BDB6F023 		.ascii	"\275\266\360#N\236\025=\023j6\012\364-1\011\346\242"
 171      4E9E153D 
 171      136A360A 
 171      F42D3109 
 171      E6A2
 172 02c7 863913B0 		.ascii	"\2069\023\260\203Xl\211\370\217\2068\237\0061'C\216"
 172      83586C89 
 172      F88F8638 
 172      9F063127 
 172      438E
 173 02d9 F734C405 		.ascii	"\3674\304\005[\210\326\034%VE\\J\203\2706C\216=\032"
 173      5B88D61C 
 173      2556455C 
 173      4A83B836 
 173      438E3D1A 
 174 02ed E2B22D44 		.ascii	"\342\262-Dk\216/h\210\023\035\251\021]\031r|EC\274d"
 174      6B8E2F68 
 174      88131DA9 
 174      115D1972 
 174      7C4543BC 
 175 0302 0BD19AE3 		.ascii	"\013\321\232\343\033\032\342\2654\210\305\031r<\242"
 175      1B1AE2B5 
 175      3488C519 
 175      723CA2
 176 0311 21CED842 		.ascii	"!\316\330B\264\346\370\226\2068\237\006\361\221\014"
 176      B4E6F896 
 176      86389F06 
 176      F1910C
 177 0320 39C634C4 		.ascii	"9\3064\304\005[\210\326\034\217\353\365\230\006q\207"
 177      055B88D6 
 177      1C8FEBF5 
 177      98067187 
 178 0330 25C7C3B0 		.ascii	"%\307\303\260g\021\304\013\260\2172h@\257G\0151a\323"
 178      6711C40B 
 178      B08F3268 
 178      40AF470D 
 178      3161D3
 179 0343 4D0E694D 		.ascii	"M\016iM\362\244^\220\301\324$\367d\210\370\241^\220"
 179      F2A45E90 
 179      C1D424F7 
 179      6488F8A1 
 179      5E90
 180 0355 69106B33 		.ascii	"i\020k3\\\232\021\275 m!Zs<\243\027d\032\304\375\031"
 180      5C9A11BD 
 180      206D215A 
 180      733CA317 
 180      641AC4FD 
ARM GAS  /tmp/cc7j1sXR.s 			page 13


 181 036a 723CA717 		.ascii	"r<\247\027\244-D#Gy\261\325\027\354\330\312\227\361"
 181      A42D4423 
 181      4779B1D5 
 181      17ECD8CA 
 181      97F1
 182 037c 9E843D31 		.ascii	"\236\204=1\301t0\205\251\200\377\\\305\253x\321\362"
 182      C1743085 
 182      A980FF5C 
 182      C5AB78D1 
 182      F2
 183 038d 556CFC58 		.ascii	"Ul\374X\322\355 \021\343\372s\024LNF\3557%K\355\312"
 183      D2ED2011 
 183      E3FA7314 
 183      4C4E46ED 
 183      37254BED 
 184 03a2 667CDD0A 		.ascii	"f|\335\012x\022\0165\353\005<\205\267\300\315\027T_"
 184      78120E35 
 184      EB053C85 
 184      B7C0CD17 
 184      545F
 185 03b4 A6FA0AD5 		.ascii	"\246\372\012\325\323T\177I\365WT\177C\365u\252oP=K\365"
 185      D3547F49 
 185      F557547F 
 185      43F575AA 
 185      6F503D4B 
 186 03c9 77547F4F 		.ascii	"wT\177O\365M\252\177\240\372'\252\177\241\372W\252\177"
 186      F54DAA7F 
 186      A0FA27AA 
 186      7FA1FA57 
 186      AA7F
 187 03db A3FA77D0 		.ascii	"\243\372w\320JK8\267\221\363\204u\012\227\364s\333C"
 187      4A4B38B7 
 187      91F38475 
 187      0A97F473 
 187      DB43
 188 03ed A857BA7A 		.ascii	"\250W\272z5*E\\\221\271x\274\310x\222zF\371`\232\353"
 188      352A455C 
 188      91B978BC 
 188      C878927A 
 188      46F9609A 
 189 0402 1F731D31 		.ascii	"\037s\0351\034>rL\011\327O\033\232\271\344rYY\013\370"
 189      1C3E724C 
 189      09D74F1B 
 189      9AB9E472 
 189      59590BF8 
 190 0416 0E3D01DE 		.ascii	"\016=\001\3365,\242\322\327\272\344\237\016\014\232"
 190      352CA2D2 
 190      D7BAE49F 
 190      0E0C9A
 191 0425 64897DC2 		.ascii	"d\211}\302\367\257\302?\235\267:w\2736\367\032Sm\322"
 191      F7AFC23F 
 191      9DB73A77 
 191      BB36F71A 
 191      536DD2
 192 0438 E8647B2B 		.ascii	"\350d{+S\001\337[Em.[\326f\276)\200e\2756/\263\352\367"
 192      5301DF5B 
 192      456D2E5B 
ARM GAS  /tmp/cc7j1sXR.s 			page 14


 192      D666BE29 
 192      8065BD36 
 193 0450 5ADFDDE1 		.ascii	"Z\337\335\341\007\255\3500\350k\026+\316\2718\365\262"
 193      07ADE830 
 193      E86B162B 
 193      CEB938F5 
 193      B2
 194 0461 09F8B621 		.ascii	"\011\370\266!\260&\015)/]\016\022M\005|\230\261\237"
 194      B0260D29 
 194      2F5D0E12 
 194      4D057C98 
 194      B19F
 195 0473 83086395 		.ascii	"\203\010c\225\203\\S\016T;\350\376\253}\275\315l\266"
 195      835C530E 
 195      543BE8FE 
 195      AB7DBDCD 
 195      6CB6
 196 0485 22C3A0F9 		.ascii	"\"\303\240\371T\031\020\260\004\\U(\362\3414Sd\015\265"
 196      541910B0 
 196      045C5528 
 196      F2E13453 
 196      640DB5
 197 0498 68824259 		.ascii	"h\202BYa\261.\350\027\263j\366=Q\354A\233\334nN\376"
 197      61B12EE8 
 197      17B36AF6 
 197      3D51EC41 
 197      9BDC6E4E 
 198 04ad EB0C73ED 		.ascii	"\353\014s\355\315\001.\034\362qa\321\355C\316\360\241"
 198      CD012E1C 
 198      F27161D1 
 198      ED43CEF0 
 198      A1
 199 04be B0E8EF68 		.ascii	"\260\350\357h\363\212[\2156!\221\363\007}\201\356\326"
 199      F38A5B8D 
 199      362191F3 
 199      077D81EE 
 199      D6
 200 04cf 36CED74E 		.ascii	"6\316\327NL\016u\265\205\335\355(\247\333\037\024\313"
 200      4C0E75B5 
 200      85DDED28 
 200      A7DB1F14 
 200      CB
 201 04e0 CBBCE201 		.ascii	"\313\274\342\001\256;\034\342\002\235>\000k\361\007"
 201      AE3B1CE2 
 201      029D3E00 
 201      6BF107
 202 04ef 895BC0DF 		.ascii	"\211[\300\337\302=\355\363q\315\241\216\355\301\316"
 202      C23DEDF3 
 202      71CDA18E 
 202      EDC1CE
 203 04fe 60DBF6B6 		.ascii	"`\333\366\266\346\026?W\341\336\345.\3434l\3703\377"
 203      E6163F57 
 203      E1DEE52E 
 203      E3346CF8 
 203      33FF
 204 0510 AE4E1316 		.ascii	"\256N\023\026[\001\032\246\310\017\213\015bsH\254\014"
 204      5B011AA6 
ARM GAS  /tmp/cc7j1sXR.s 			page 15


 204      C80F8B0D 
 204      627348AC 
 204      0C
 205 0521 80617673 		.ascii	"\200avs\013\245\227G\006;\273\350X.\364\333D\265[\243"
 205      0BA59747 
 205      063BBBE8 
 205      582EF4DB 
 205      44B55BA3 
 206 0535 74C1C21B 		.ascii	"t\301\302\033\010\264z\375\0205\227\030nWgH\014s\015"
 206      08B47AFD 
 206      10359718 
 206      6E576748 
 206      0C730D
 207 0548 8DF5E565 		.ascii	"\215\365\345e\334\336\275U\\c]\375\263\245\234\354\001"
 207      DCDEBD55 
 207      5C635DFD 
 207      B3A59CEC 
 207      01
 208 0559 53826F07 		.ascii	"S\202o\007\011\312\337\341\025\3132\365U<\300\235\365"
 208      09CADFE1 
 208      15CB32F5 
 208      553CC09D 
 208      F5
 209 056a F0A52065 		.ascii	"\360\245 e\216\206z\017\357\250\252\253\346\231\006"
 209      8E867A0F 
 209      EFA8AAAB 
 209      E69906
 210 0579 9EADAEE1 		.ascii	"\236\255\256\341\357\363x\352\371R\252\313\034\036O"
 210      EFF378EA 
 210      F952AACB 
 210      1C1E4F
 211 0588 35CF7AF6 		.ascii	"5\317z\3665\262\373\033<l%\317\263\274\007\356\301\341"
 211      35B2FB1B 
 211      3C6C25CF 
 211      B3BC07EE 
 211      C1E1
 212 059a B1AA469E 		.ascii	"\261\252F\236\255\"\236\365\225<\363\270\354U\016\366"
 212      AD229EF5 
 212      953CF3B8 
 212      EC550EF6 
 213 05aa 4DBCC3D7 		.ascii	"M\274\303\327\336\034\312\361z\017v\007}^\357\032\265"
 213      DE1CCAF1 
 213      7A0F7607 
 213      7D5EEF1A 
 213      B5
 214 05bb E3DEF9E8 		.ascii	"\343\336\371\350\316r\343\335\256\035\246\273\212\377"
 214      CE72E3DD 
 214      AE1DA6BB 
 214      8AFF
 215 05c9 013A4B8B 		.ascii	"\001:K\213Y"
 215      59
 216              		.text
 217              		.section	.gnu.lto_.symtab.54dd54e2016085aa,"",%progbits
 218 0000 7374496E 		.ascii	"stInit\000\000\000\000\000\000\000\000\000\000\000\000"
 218      69740000 
 218      00000000 
 218      00000000 
ARM GAS  /tmp/cc7j1sXR.s 			page 16


 218      0000
 219 0012 A0000000 		.ascii	"\240\000\000\000stStartAlarm\000\000\000\000\000\000"
 219      73745374 
 219      61727441 
 219      6C61726D 
 219      00000000 
 220 0028 00000000 		.ascii	"\000\000\000\000\000\000\245\000\000\000stStopAlarm"
 220      0000A500 
 220      00007374 
 220      53746F70 
 220      416C6172 
 221 003d 00000000 		.ascii	"\000\000\000\000\000\000\000\000\000\000\000\000\262"
 221      00000000 
 221      00000000 
 221      B2
 222 004a 00000073 		.ascii	"\000\000\000stSetAlarm\000\000\000\000\000\000\000\000"
 222      74536574 
 222      416C6172 
 222      6D000000 
 222      00000000 
 223 005f 00000000 		.ascii	"\000\000\000\000\265\000\000\000stGetAlarm\000\000\000"
 223      B5000000 
 223      73744765 
 223      74416C61 
 223      726D0000 
 224 0074 00000000 		.ascii	"\000\000\000\000\000\000\000\000\000\271\000\000\000"
 224      00000000 
 224      00B90000 
 224      00
 225 0081 73745F6C 		.ascii	"st_lld_init\000\000\002\000\000\000\000\000\000\000"
 225      6C645F69 
 225      6E697400 
 225      00020000 
 225      00000000 
 226 0096 0000BD00 		.ascii	"\000\000\275\000\000\000"
 226      0000
 227              		.text
 228              		.section	.gnu.lto_.opts,"",%progbits
 229 0000 272D6D63 		.ascii	"'-mcpu=cortex-m4''-mno-thumb-interwork''-mthumb''-g"
 229      70753D63 
 229      6F727465 
 229      782D6D34 
 229      27272D6D 
 230 0033 67646227 		.ascii	"gdb''-O2''-fomit-frame-pointer''-falign-functions=1"
 230      272D4F32 
 230      27272D66 
 230      6F6D6974 
 230      2D667261 
 231 0066 3627272D 		.ascii	"6''-ffunction-sections''-fdata-sections''-fno-commo"
 231      6666756E 
 231      6374696F 
 231      6E2D7365 
 231      6374696F 
 232 0099 6E27272D 		.ascii	"n''-flto'\000"
 232      666C746F 
 232      2700
 233              		.text
ARM GAS  /tmp/cc7j1sXR.s 			page 17


 234              		.cfi_sections	.debug_frame
 235              		.section	.text.stInit,"ax",%progbits
 236              		.align	2
 237              		.p2align 4,,15
 238              		.global	stInit
 239              		.thumb
 240              		.thumb_func
 241              		.type	stInit, %function
 242              	stInit:
 243              	.LFB272:
 244              		.file 1 "../../../os/hal/src/st.c"
 245              		.loc 1 60 0
 246              		.cfi_startproc
 247              		@ args = 0, pretend = 0, frame = 0
 248              		@ frame_needed = 0, uses_anonymous_args = 0
 249              		@ link register save eliminated.
 250              		.loc 1 63 0
 251              		.loc 1 62 0
 252 0000 FFF7FEBF 		b	st_lld_init
 253              	.LVL0:
 254              		.cfi_endproc
 255              	.LFE272:
 256              		.size	stInit, .-stInit
 257 0004 AFF30080 		.section	.text.stStartAlarm,"ax",%progbits
 257      AFF30080 
 257      AFF30080 
 258              		.align	2
 259              		.p2align 4,,15
 260              		.global	stStartAlarm
 261              		.thumb
 262              		.thumb_func
 263              		.type	stStartAlarm, %function
 264              	stStartAlarm:
 265              	.LFB273:
 266              		.loc 1 77 0
 267              		.cfi_startproc
 268              		@ args = 0, pretend = 0, frame = 0
 269              		@ frame_needed = 0, uses_anonymous_args = 0
 270              		@ link register save eliminated.
 271              	.LVL1:
 272              	.LBB10:
 273              	.LBB11:
 274              		.file 2 "../../../os/hal/ports/STM32/LLD/TIMv1/st_lld.h"
 275              		.loc 2 155 0
 276 0000 4FF08043 		mov	r3, #1073741824
 277              	.LVL2:
 278              		.loc 2 156 0
 279 0004 0022     		movs	r2, #0
 280              		.loc 2 155 0
 281 0006 5863     		str	r0, [r3, #52]
 282              		.loc 2 156 0
 283 0008 1A61     		str	r2, [r3, #16]
 284              		.loc 2 157 0
 285 000a 0222     		movs	r2, #2
 286 000c DA60     		str	r2, [r3, #12]
 287 000e 7047     		bx	lr
 288              	.LBE11:
ARM GAS  /tmp/cc7j1sXR.s 			page 18


 289              	.LBE10:
 290              		.cfi_endproc
 291              	.LFE273:
 292              		.size	stStartAlarm, .-stStartAlarm
 293              		.section	.text.stStopAlarm,"ax",%progbits
 294              		.align	2
 295              		.p2align 4,,15
 296              		.global	stStopAlarm
 297              		.thumb
 298              		.thumb_func
 299              		.type	stStopAlarm, %function
 300              	stStopAlarm:
 301              	.LFB274:
 302              		.loc 1 91 0
 303              		.cfi_startproc
 304              		@ args = 0, pretend = 0, frame = 0
 305              		@ frame_needed = 0, uses_anonymous_args = 0
 306              		@ link register save eliminated.
 307              	.LBB12:
 308              	.LBB13:
 309              		.loc 2 167 0
 310 0000 4FF08043 		mov	r3, #1073741824
 311 0004 0022     		movs	r2, #0
 312 0006 DA60     		str	r2, [r3, #12]
 313 0008 7047     		bx	lr
 314              	.LBE13:
 315              	.LBE12:
 316              		.cfi_endproc
 317              	.LFE274:
 318              		.size	stStopAlarm, .-stStopAlarm
 319 000a 00BFAFF3 		.section	.text.stSetAlarm,"ax",%progbits
 319      0080
 320              		.align	2
 321              		.p2align 4,,15
 322              		.global	stSetAlarm
 323              		.thumb
 324              		.thumb_func
 325              		.type	stSetAlarm, %function
 326              	stSetAlarm:
 327              	.LFB275:
 328              		.loc 1 105 0
 329              		.cfi_startproc
 330              		@ args = 0, pretend = 0, frame = 0
 331              		@ frame_needed = 0, uses_anonymous_args = 0
 332              		@ link register save eliminated.
 333              	.LVL3:
 334              	.LBB14:
 335              	.LBB15:
 336              		.loc 2 179 0
 337 0000 4FF08043 		mov	r3, #1073741824
 338 0004 5863     		str	r0, [r3, #52]
 339 0006 7047     		bx	lr
 340              	.LBE15:
 341              	.LBE14:
 342              		.cfi_endproc
 343              	.LFE275:
 344              		.size	stSetAlarm, .-stSetAlarm
ARM GAS  /tmp/cc7j1sXR.s 			page 19


 345 0008 AFF30080 		.section	.text.stGetAlarm,"ax",%progbits
 345      AFF30080 
 346              		.align	2
 347              		.p2align 4,,15
 348              		.global	stGetAlarm
 349              		.thumb
 350              		.thumb_func
 351              		.type	stGetAlarm, %function
 352              	stGetAlarm:
 353              	.LFB276:
 354              		.loc 1 121 0
 355              		.cfi_startproc
 356              		@ args = 0, pretend = 0, frame = 0
 357              		@ frame_needed = 0, uses_anonymous_args = 0
 358              		@ link register save eliminated.
 359              	.LBB16:
 360              	.LBB17:
 361              		.loc 2 191 0
 362 0000 4FF08043 		mov	r3, #1073741824
 363 0004 586B     		ldr	r0, [r3, #52]
 364              	.LBE17:
 365              	.LBE16:
 366              		.loc 1 126 0
 367 0006 7047     		bx	lr
 368              		.cfi_endproc
 369              	.LFE276:
 370              		.size	stGetAlarm, .-stGetAlarm
 371 0008 AFF30080 		.text
 371      AFF30080 
 372              	.Letext0:
 373              		.file 3 "/usr/local/bin/../lib/gcc/arm-none-eabi/4.7.2/../../../../arm-none-eabi/include/stdint.h"
 374              		.file 4 "../../../os/rt/ports/ARMCMx/compilers/GCC/chtypes.h"
 375              		.file 5 "../../../os/rt/include/chsystypes.h"
 376              		.file 6 "../../../os/rt/include/chschd.h"
 377              		.file 7 "../../../os/rt/ports/ARMCMx/chcore.h"
 378              		.file 8 "../../../os/rt/ports/ARMCMx/chcore_v7m.h"
 379              		.file 9 "../../../os/hal/ports/STM32/LLD/TIMv1/stm32_tim.h"
 380              		.file 10 "../../../os/rt/include/chtm.h"
 381              		.file 11 "../../../os/rt/include/chsem.h"
 382              		.file 12 "../../../os/rt/include/chmtx.h"
 383              		.file 13 "../../../os/ext/CMSIS/include/core_cm4.h"