ARM GAS  /tmp/cc9zij47.s 			page 1


   1              		.syntax unified
   2              		.cpu cortex-m4
   3              		.fpu softvfp
   4              		.eabi_attribute 20, 1
   5              		.eabi_attribute 21, 1
   6              		.eabi_attribute 23, 3
   7              		.eabi_attribute 24, 1
   8              		.eabi_attribute 25, 1
   9              		.eabi_attribute 26, 1
  10              		.eabi_attribute 30, 2
  11              		.eabi_attribute 34, 1
  12              		.eabi_attribute 18, 4
  13              		.thumb
  14              		.file	"testheap.c"
  15              		.text
  16              	.Ltext0:
  17              		.section	.gnu.lto_.jmpfuncs.85edd30e49bc20fd,"",%progbits
  18 0000 789C6362 		.ascii	"x\234cb`d`g\300\016\272\231\031\030d\2014\023\0201I"
  18      60646067 
  18      C00EBA99 
  18      19186481 
  18      34131031 
  19 0015 32A43232 		.ascii	"2\244220\360 \230\334 f\025\303\317\006\216TFF\306L"
  19      30F02098 
  19      DC206615 
  19      C3CF068E 
  19      544646C6 
  20 002a 468663B3 		.ascii	"F\206c\263\2362\202\2641\302\225p\241+\371\243\001R"
  20      9E3282B4 
  20      31C29570 
  20      A12BF9A3 
  20      0152
  21 003c 802AF665 		.ascii	"\200*\366e\305:FL\3217+\266AE!Fq\242+\270\262\202\017"
  21      C53A464C 
  21      D1372BB6 
  21      41452146 
  21      71A22BB8 
  22 0053 621923BA 		.ascii	"b\031#\272\035\363\301\346\201\36511(\300M\340\300\260"
  22      1DF3C1E6 
  22      81F53131 
  22      28C04DE0 
  22      C0B0
  23 0065 783E1FCC 		.ascii	"x>\037\314\271\310\302OP\364\013\240\311\336\221G\225"
  23      B9C8C24F 
  23      50F40BA0 
  23      C9DE9147 
  23      95
  24 0076 8398CD8E 		.ascii	"\203\230\315\216n\366\221\371H\256\203\250aCW\363D\016"
  24      6EF691F9 
  24      48AE83A8 
  24      614357F3 
  24      440E
  25 0088 D3DB0C98 		.ascii	"\323\333\014\230Bg\346\241\273\007b\036+\206\235\363"
  25      4267E6A1 
  25      BB07621E 
  25      2B869DF3 
  26 0098 B0FAE7CB 		.ascii	"\260\372\347\313\\|\376y#\213\220\023\204\233\315\202"
ARM GAS  /tmp/cc9zij47.s 			page 2


  26      5C7CFE79 
  26      238B9013 
  26      849BCD82 
  27 00a8 11DA73E1 		.ascii	"\021\332s\341\376\3010\177\016^\363ep\313=\221\301\346"
  27      FEC1307F 
  27      0E5EF365 
  27      70CB3D91 
  27      C1E6
  28 00ba 2F668C00 		.ascii	"/f\214\000\230\203\323\3567\263\361\331\375D\032O<\342"
  28      9883D3EE 
  28      37B3F1D9 
  28      FD441A4F 
  28      3CE2
  29 00cc 913B321B 		.ascii	"\221;2\0335\355\301\323?\334.\006\206\206\177\377\377"
  29      35EDC1D3 
  29      3FDC2E06 
  29      86867FFF 
  29      FF
  30 00dd F323C52E 		.ascii	"\363#\305.#\206\032\204\237 \321\312\310\300\214\032"
  30      23861A84 
  30      9F20D1CA 
  30      C8C08C1A 
  31 00ed A433206E 		.ascii	"\2443 n\207\21213j3h\2452\2620g22\306\201$N\000\223"
  31      878A3133 
  31      6A3368A5 
  31      32B23067 
  31      3232C681 
  32 0105 3C430727 		.ascii	"<C\007'\302\312\027\300\314'\243\247\247\017A%\251\305"
  32      C2CA17C0 
  32      CC27A3A7 
  32      A70F4125 
  32      A9C5
  33 0117 25FA4525 		.ascii	"%\372E%`:#5\261@/\231\001\000\262\242\226\216"
  33      603A2335 
  33      B1402F99 
  33      0100B2A2 
  33      968E
  34              		.text
  35              		.section	.gnu.lto_.inline.85edd30e49bc20fd,"",%progbits
  36 0000 789C6362 		.ascii	"x\234cb`d\340e\300\016\2663Bh&\006\216\347\214g\201"
  36      6064E065 
  36      C00EB633 
  36      42682606 
  36      8EE78C67 
  37 0015 0A99429A 		.ascii	"\012\231B\232\234\030\330\026\31031\260\360\202\204"
  37      9C18D816 
  37      C83331B0 
  37      F08284
  38 0024 27F8A1D2 		.ascii	"'\370\241\322\014L\334\014\014\214\030\2420.3\017\012"
  38      0C4CDC0C 
  38      0C8C18A2 
  38      302E330F 
  38      0A
  39 0035 17550F8A 		.ascii	"\027U\017\212V\034jP$\2111\007\273\026\312M\307\243"
  39      561C6A50 
  39      24893107 
  39      BB16CA4D 
ARM GAS  /tmp/cc9zij47.s 			page 3


  39      C7A3
  40 0047 837C8D78 		.ascii	"\203|\215x\203\007M\024\252\226\221\013\030=\214\014"
  40      83074D14 
  40      AA96910B 
  40      183D8C0C 
  41 0057 ECFC8C20 		.ascii	"\354\374\214 \036\"j\230A\321\006\000\220\357 \212"
  41      1E226A98 
  41      41D10600 
  41      90EF208A 
  42              		.text
  43              		.section	.gnu.lto_.pureconst.85edd30e49bc20fd,"",%progbits
  44 0000 789C6362 		.ascii	"x\234cb`d`f```e\200\000&\006\011F\011\000\0012\000?"
  44      60646066 
  44      60606065 
  44      80002606 
  44      09460900 
  45              		.text
  46              		.section	.gnu.lto_heap1_execute.85edd30e49bc20fd,"",%progbits
  47 0000 789CCD58 		.ascii	"x\234\315XIlSW\024}\357\017\266\343y\014\231\210C\022"
  47      496C5357 
  47      147DEF0F 
  47      B6E3790C 
  47      99884312 
  48 0014 88438893 		.ascii	"\210C\210\223\020 \255\252\356\333%H]RTEF\200T\024\225"
  48      1020ADAA 
  48      EEDB2548 
  48      5D525445 
  48      46805414 
  49 0029 A86AD9E0 		.ascii	"\250j\331\340\006\026\335TB]Qf:\320\204\316t\202\026"
  49      0616DD54 
  49      425D5166 
  49      3AD084CE 
  49      748216
  50 003c 150A06DA 		.ascii	"\025\012\006\332\310\215PeU,\262@j\324v\341\005\013"
  50      C88D5065 
  50      552CB240 
  50      6AD476E1 
  50      050B
  51 004e 6F2A454D 		.ascii	"o*EM\317\033\376\367\300\377\277!6\252\235\310\307\367"
  51      CF1BFEF7 
  51      C0FFBF21 
  51      36AA9DC8 
  51      C7F7
  52 0060 FD7BEEBB 		.ascii	"\375{\356\273\303\361\177\266\025B\361\367\350\303\203"
  52      C3F17FB6 
  52      1542F1F7 
  52      E8C383
  53 006f C517BB08 		.ascii	"\305\027\273\010y\026\257i\202P\345\370\002!o\364(J"
  53      7916AF69 
  53      8250E5F8 
  53      02216FF4 
  53      284A
  54 0081 F4DA04C9 		.ascii	"\364\332\004\311\246\324B+\311\216\252\322\322\270\245"
  54      A6D4422B 
  54      C98EAAD2 
  54      D2B8A5
  55 0090 494BE796 		.ascii	"IK\347\226.-\027\267\\\322rs\313\255x\337\332\004\313"
ARM GAS  /tmp/cc9zij47.s 			page 4


  55      2E2D17B7 
  55      5CD27273 
  55      CBAD78DF 
  55      DA04CB
  56 00a3 733405CB 		.ascii	"s4\005\313\243\304\037&`y\317?\005+N\275l+\352\225\014"
  56      A3C41F26 
  56      6079CF3F 
  56      052B4EBD 
  56      6C2BEA95 
  57 00b8 1F67F8A4 		.ascii	"\037g\370\244\345\347\226_Z\001n\005\244\025\344VPZ"
  57      E5E7965F 
  57      5A016E05 
  57      A415E456 
  57      505A
  58 00ca 216E85A4 		.ascii	"!n\205\244\025\346VX\211\026F`E\256u\303\212\320\230"
  58      15E65658 
  58      89164660 
  58      45AE75C3 
  58      8AD098
  59 00dd 282A6ABC 		.ascii	"(*j\274\210Q\312^\240!G\024U\323]nO\334\353\363\007"
  59      8851CA5E 
  59      A0214714 
  59      55D35D6E 
  59      4FDCEBF3 
  60 00f2 82A17024 		.ascii	"\202\241p$\032\243G^\340\215\332\334K.d\263o?\2749\323"
  60      1AA3475E 
  60      E08DDADC 
  60      4B2E64B3 
  60      6F3FBC39 
  61 0107 36F36065 		.ascii	"6\363`e%\231a\253{(\231\277\364;m'\031J\211\2070Tj\373"
  61      259961AB 
  61      7B2899BF 
  61      F43B6D27 
  61      194A8987 
  62 011f 6AC3236B 		.ascii	"j\303#k!\025;\236\324V\307o\315<'I*'\345\273\004\253"
  62      21153B9E 
  62      D456C76F 
  62      CD3C2749 
  62      2A27E5BB 
  63 0135 47B2B427 		.ascii	"G\262\264'W\325\232\362+\254o\356\374r\335\315\224\337"
  63      57D59AF2 
  63      2BAC6FEE 
  63      FC72DDCD 
  63      94DF
  64 0147 F18AFC34 		.ascii	"\361\212\3744\205$)\343-\255&\305G\012#O\212\364\177"
  64      852429E3 
  64      2DAD26C5 
  64      470A234F 
  64      8AF47F
  65 015a 0E2BD9DC 		.ascii	"\016+\331\334\371\225\232<\277B\252i\363S\310\000\027"
  65      F9959A3C 
  65      BF42AA69 
  65      F353C800 
  65      17
  66 016b 7B69F653 		.ascii	"{i\366S\272\026\345.\317\006\233\2666\321\373\301\246"
  66      BA16E52E 
  66      CF069BB6 
ARM GAS  /tmp/cc9zij47.s 			page 5


  66      36D1FBC1 
  66      A6
  67 017c CD4F2143 		.ascii	"\315O!C\274\367\213M\226\342\321\254\221\242\256\220"
  67      BCF78B4D 
  67      96E2D1AC 
  67      91A2AE90 
  68 018c 51218F13 		.ascii	"Q!\217\023{W\243\216*\3468g\376\245>6q\007'^\321\377"
  68      7B57A38E 
  68      2AE63867 
  68      FEA53E36 
  68      7107275E 
  69 01a2 9378A392 		.ascii	"\223x\243\222\350R\310\323\234\270|\342\300c3\237\341"
  69      E852C8D3 
  69      9CB87CE2 
  69      C063339F 
  69      E1
  70 01b3 CCFBCEB9 		.ascii	"\314\373\316\271\026O\\T\226\346\\\327\225\033\017V"
  70      164F5C54 
  70      96E65CD7 
  70      951B0F56 
  71 01c3 8E10F21A 		.ascii	"\216\020\362\032%\273\351'\264\227(\300\237\200*\360"
  71      25BBE927 
  71      B49728C0 
  71      9F802AF0 
  72 01d3 3C50035E 		.ascii	"<P\003^\000\352r\335\005|\027\350\006\276\007\364\310"
  72      00EA72DD 
  72      057C17E8 
  72      06BE07F4 
  72      C8
  73 01e4 F516E03C 		.ascii	"\365\026\340<\320\013\314\003}\300\367\201~\340\007"
  73      D00BCC03 
  73      7DC0F781 
  73      7EE007
  74 01f3 C000F022 		.ascii	"\300\000\360\"0(\375C\322?,\375#\300\017\201Q\340,0"
  74      3028FD43 
  74      D23F2CFD 
  74      23C00F81 
  74      51E02C30 
  75 0207 069C03C6 		.ascii	"\006\234\003\306\245\177B\372\267\002/\001\327\001?"
  75      A57F42FA 
  75      B7022F01 
  75      D7013F
  76 0216 02B6013F 		.ascii	"\002\266\001?\006\266K\277\016\340g\300N\340\347\300"
  76      06B64BBF 
  76      0EE067C0 
  76      4EE0E7C0 
  77 0226 6EE017C0 		.ascii	"n\340\027\300$\3602\260\007\370%p\003\360+`/\360k`\237"
  77      24F032B0 
  77      07F82570 
  77      03F02B60 
  77      2FF06B60 
  78 023b E4F7CB7D 		.ascii	"\344\367\313}6\002\277\001n\002~\013\034\000^\001\246"
  78      3602BF01 
  78      6E027E0B 
  78      1C005E01 
  78      A6
  79 024c A4DF20F0 		.ascii	"\244\337 \360*p3\360;\340\020\360{\340\026\3405\340"
ARM GAS  /tmp/cc9zij47.s 			page 6


  79      2A7033F0 
  79      3BE010F0 
  79      7BE016E0 
  79      35E0
  80 025e B0F44B03 		.ascii	"\260\364K\003\177\000\216\000\257\003G\2017\200c\300"
  80      7F008E00 
  80      AF034781 
  80      378063C0 
  81 026e 1F815B81 		.ascii	"\037\201[\2017\201\343\300[\300m\222\277\035\230\003"
  81      3781E3C0 
  81      5BC06D92 
  81      BF1D9803 
  82 027e EE00DE01 		.ascii	"\356\000\336\001N\000\357\002\361\320\311\261l6\254"
  82      4E00EF02 
  82      F1D0C9B1 
  82      6C36AC
  83 028d 8BF8225B 		.ascii	"\213\370\"[\321\303\335t\201?\337\303\363\036\371v\330"
  83      D1C3DD74 
  83      813FDFC3 
  83      F31EF976 
  83      D8
  84 029e C9907DE4 		.ascii	"\311\220}\344\335\005\015\260\027j\236\250\205w\202"
  84      DD050DB0 
  84      176A9EA8 
  84      857782
  85 02ad BBE9AF54 		.ascii	"\273\351\257T\307\245\303\344\357\254'C\335t\017\245"
  85      C7A5C3E4 
  85      EFAC2743 
  85      DD740FA5 
  86 02bd 8292A11E 		.ascii	"\202\222\241\036B\362D\317u\324\370\264\300G\021>LR"
  86      42F244CF 
  86      75D4F8B4 
  86      C047113E 
  86      4C52
  87 02cf 5E7EE5F5 		.ascii	"^~\345\365\014\365Q\261\345}\235\263\375\234\235?)\351"
  87      0CF551B1 
  87      E57D9DB3 
  87      FD9C9D3F 
  87      29E9
  88 02e1 935491FC 		.ascii	"\223T\221\374\000\370j5\237\241\013\032\310\320 !w\270"
  88      00F86A35 
  88      9FA10B1A 
  88      C8D02021 
  88      77B8
  89 02f3 F8184794 		.ascii	"\370\030G\2246\3112\236'G\027\324\302\311\240\021L\305"
  89      36C9329E 
  89      274717D4 
  89      C2C9A011 
  89      4CC5
  90 0305 2A63E93C 		.ascii	"*c\351<N\236\353R\\\321\3446!l\243\225\267Qqc\000-C"
  90      4E9EEB52 
  90      5CD1E436 
  90      216CA395 
  90      B7517163 
  91 031c C384DC26 		.ascii	"\303\204\334&\307\376\244e\002\273\\\375\256\330\305"
  91      C7FEA465 
  91      02BB5CFD 
ARM GAS  /tmp/cc9zij47.s 			page 7


  91      AED8C5
  92 032b 6EB48556 		.ascii	"n\264\205V\364H[<\371jM\375\021\004\326\005\001Idh\224"
  92      F4485B3C 
  92      F96A4DFD 
  92      1104D605 
  92      01496468 
  93 0340 EFBF542E 		.ascii	"\357\277T.Tw.T%\331\177VVBv\305\352\274\330_\324b\271"
  93      54772E54 
  93      25D97F56 
  93      564276C5 
  93      EABCD85F 
  94 0357 581756AD 		.ascii	"X\027V\255\213u\333\025\2530\232E\261n\253bqO\370\331"
  94      8B75DB15 
  94      AB309A45 
  94      B16EAB62 
  94      714FF8D9 
  95 036b A5B25977 		.ascii	"\245\262Yw\332\317Z\256x\351~*F\\5tR1\363\305Sf+<\217"
  95      DACF5AAE 
  95      78E97E2A 
  95      465C3574 
  95      5231F3C5 
  96 0384 B6A232CE 		.ascii	"\266\2422\316\025\335b\370\373\252\373!T\270\324i\204"
  96      15DD62F8 
  96      FBAAFB21 
  96      54B8D469 
  96      84
  97 0395 6CA927E4 		.ascii	"l\251'\344<\017\331\302C\026\315\220\336zB\346yH/\013"
  97      3C0FD9C2 
  97      4316CD90 
  97      DE7A42E6 
  97      79482F0B 
  98 03a9 A9954E39 		.ascii	"\251\225N9\212\305#\305\242-\327\366\271\312\255\305"
  98      8AC523C5 
  98      A22DD7F6 
  98      B9CAADC5 
  99 03b9 70CB7539 		.ascii	"p\313u9\271y\015\351\345O\233J\3619\317\215T\216m\241"
  99      B9790DE9 
  99      E54F9B4A 
  99      F139CF8D 
  99      548E6DA1 
 100 03cd 726C5C72 		.ascii	"rl\\r\246J\374\210$\012\2465\202\013\330\011Ne4\013"
 100      A64AFC88 
 100      240AA635 
 100      820BD809 
 100      4E65340B 
 101 03e1 C105AC04 		.ascii	"\301\005\254\004\207\222J\224\011n\351\264)\225`\375"
 101      87924A94 
 101      096EE9B4 
 101      299560FD 
 102 03f1 52098AB9 		.ascii	"R\011\212\271v\031!C\365K%\304C\226\314\220\341\372"
 102      76192143 
 102      F54B25C4 
 102      4396CC90 
 102      E1FA
 103 0403 A5121612 		.ascii	"\245\022\026\0228\355(\225\260\251\201\365Nn!\303-\357"
 103      38ED2895 
 103      B0A981F5 
ARM GAS  /tmp/cc9zij47.s 			page 8


 103      4E6E21C3 
 103      2DEF
 104 0415 E81634A4 		.ascii	"\350\0264\244R8cJ%\322\030\251D\021\311Z*1;\251h\214"
 104      5238634A 
 104      25D218A9 
 104      4411C95A 
 104      2A313BA9 
 105 042b 66219598 		.ascii	"f!\225\230\225T\\\204\334e\207\225^<cJ%\276\352!D\354"
 105      95545C84 
 105      DC658795 
 105      5E3C634A 
 105      25BEEA21 
 106 0441 A4121773 		.ascii	"\244\022\027s]o\204L\324/\225\204\230\353\031\307\271"
 106      5D6F844C 
 106      D42F9584 
 106      98EB19C7 
 106      B9
 107 0452 C68D49E4 		.ascii	"\306\215I\344\316\232\223hm\314$\326!\222HQ\251\231"
 107      CE9A9368 
 107      6DCC24D6 
 107      21924851 
 107      A999
 108 0464 449BDD24 		.ascii	"D\233\335$8\315b\022mV\223p\023\222`\203\310\2375\007"
 108      38CD6212 
 108      6D569370 
 108      13926083 
 108      C89F3507 
 109 0478 D15EFF7B 		.ascii	"\321^\377{\266]\334\336\313\335\350Xk7n\223\334\037"
 109      B65DDCDE 
 109      CBDDE858 
 109      6B376E93 
 109      DC1F
 110 048a E5123ACA 		.ascii	"\345\022:\312\242,\227\200\263\304\247Vv\246\2631\233"
 110      A22C9780 
 110      B3C4A756 
 110      76A6B331 
 110      9B
 111 049b 7596FB6E 		.ascii	"u\226\373n<v2\211\251t\027;\031\022\352<\231)\226'\325"
 111      3C763289 
 111      A974173B 
 111      1912EA3C 
 111      99299627 
 112 04b0 3DC93E63 		.ascii	"=\311>cU\346\221\264\233\220\213\271[L(Y;\241\337\010"
 112      55E691B4 
 112      9B908BB9 
 112      5B4C2859 
 112      3BA1DF08 
 113 04c4 FFAEABA1 		.ascii	"\377\256\253\241\3428\021\257\210\374N\304\326\334\274"
 113      E23811AF 
 113      88FC4EC4 
 113      D6DCBC
 114 04d3 7E1F21EC 		.ascii	"~\037!\354\234\327Jg\035E\2320\317\251n'\267vS\313\347"
 114      9CD74A67 
 114      1D459A30 
 114      CFA96E27 
 114      B77653CB 
 115 04e8 CCE9F534 		.ascii	"\314\351\3654F\313\033\020\311\372\256\322k\327)7\243"
ARM GAS  /tmp/cc9zij47.s 			page 9


 115      46CB1B10 
 115      C9FAAED2 
 115      6BD72937 
 115      A3
 116 04f9 5974AAD7 		.ascii	"Yt\252\327J\313\330PaBX<gj\271\257~-\367\011-'\215\220"
 116      4ACBD850 
 116      6142583C 
 116      676AB9AF 
 116      7E2DF709 
 117 0511 FDF5DF54 		.ascii	"\375\365\337T\372\371\034\212\347\034\347\325g\014\242"
 117      FAF91C8A 
 117      E71CE7D5 
 117      670CA2
 118 0520 541EC4C6 		.ascii	"T\036\304\306\306\014b\023\"Y\337T\006\354\006\341a"
 118      C60C6213 
 118      2259DF54 
 118      06EC06E1 
 118      61
 119 0531 348B410C 		.ascii	"4\213A\014X\015\"@\010\377 \260\\\036Dj\325]\353\261"
 119      580D2240 
 119      08FF20B0 
 119      5C1E446A 
 119      D55DEBB1 
 120 0545 1B444A1C 		.ascii	"\033DJ\034\235\263\216]K\231gg\312\311\255\337<;g\315"
 120      9DB38E5D 
 120      4B996767 
 120      CAC9ADDF 
 120      3C3B67CD 
 121 0559 E60E36A6 		.ascii	"\346\0166\246\271\233\021\311Z\345Cv\315ma4\213\346"
 121      B99B11C9 
 121      5AE54376 
 121      CD6D6134 
 121      8BE6
 122 056b 0E593517 		.ascii	"\016Y5\027\275\021Ggm\201\253\372X_\223\370\314\363"
 122      BD114767 
 122      6D81ABFA 
 122      585F93F8 
 122      CCF3
 123 057d ECF73463 		.ascii	"\354\3674c\277-\306u\204\337g,\016\257br\240\332\014"
 123      BF2DC675 
 123      84DF672C 
 123      0EAF6272 
 123      A0DA0C
 124 0590 6D98075B 		.ascii	"m\230\007[.w9\335\230.\217 \222\3502\251\351\362\250"
 124      2E7739DD 
 124      982E8F20 
 124      92E832A9 
 124      E9F2A8
 125 05a3 5D97BD8C 		.ascii	"]\227\275\214f\321\345Q\253.\207D\227\265\334\234\243"
 125      66D1E551 
 125      AB2E8744 
 125      97B5DC9C 
 125      A3
 126 05b4 DC864D1D 		.ascii	"\334\206M\035\315\231\025\2165\246\302\255\210d\255"
 126      CD99158E 
 126      35A6C2AD 
 126      8864AD
ARM GAS  /tmp/cc9zij47.s 			page 10


 127 05c3 A371BB0A 		.ascii	"\243q\273\012}\214fQ\341\270U\205aV!S\300\342\240\341"
 127      7D8C6651 
 127      E1B85585 
 127      61562153 
 127      C0E2A0E1 
 128 05d7 B7CD4888 		.ascii	"\267\315H\210-\233\354\355\306\227\301\352\374v\300"
 128      2D9BECED 
 128      C697C1EA 
 128      FC76C0
 129 05e6 1F17AB53 		.ascii	"\037\027\253S\233\260K\315\317\030\026\251MX\245\026"
 129      9BB04BCD 
 129      CF1816A9 
 129      4D58A516 
 130 05f6 11A9DD3C 		.ascii	"\021\251\335<@\0151-\360_Q.g\337\244r\344UW\357\325"
 130      400D312D 
 130      F05F512E 
 130      67DFA472 
 130      E45557EF 
 131 060b 5E1561A2 		.ascii	"^\025a\242\3427\221\372\003\305D\240\005B\251!\006\361"
 131      E23791FA 
 131      03C544A0 
 131      0542A921 
 131      06F1
 132 061d D8C98E7C 		.ascii	"\330\311\216|\\b\267\321\256tzD\374Og\016M\217\2742"
 132      5C62B7D1 
 132      AE747A44 
 132      FC4F670E 
 132      4D8FBC32 
 133 0631 CD715FE6 		.ascii	"\315q_\346\245\251\364$q\357\337;\375\362TzT=\230\036"
 133      A5A9F424 
 133      71EFDF3B 
 133      FDF2547A 
 133      543D981E 
 134 0645 D30E1D4E 		.ascii	"\323\016\035NoU\246\306\224)<\217\323\203\312\241\303"
 134      6F55A6C6 
 134      94293C8F 
 134      D383CAA1 
 134      C3
 135 0656 FF026F3E 		.ascii	"\377\002o>_Z"
 135      5F5A
 136              		.text
 137              		.section	.gnu.lto_heap1_setup.85edd30e49bc20fd,"",%progbits
 138 0000 789C6362 		.ascii	"x\234cb`\004BL \011\304\273\201X\016\210\031\231\031"
 138      6004424C 
 138      2009C4BB 
 138      81580E88 
 138      199919
 139 0013 1899269C 		.ascii	"\030\231&\234c`hT`bd\0041\200Z\352\231\030\353C!:Ou"
 139      63606854 
 139      60626404 
 139      31805AEA 
 139      9918EB43 
 140 002b 3C96BF33 		.ascii	"<\226\2773\203m?\323\201\007\377\353\031\030\230\201"
 140      836D3FD3 
 140      8107FFEB 
 140      19189881 
 141 003b 42AC0C2D 		.ascii	"B\254\014-\015\015\002\014\361P\243\003A4Hc\020#\023"
ARM GAS  /tmp/cc9zij47.s 			page 11


 141      0D0D020C 
 141      F150A303 
 141      41344863 
 141      102313
 142 004e 98C17C86 		.ascii	"\230\301|\206\201\355\312\214u\214\261\214\013\030Y"
 142      81EDCA8C 
 142      758CB18C 
 142      0B1859
 143 005d 8172550C 		.ascii	"\201rU\014?\0338R\201N\211gd\204\350\201\21202f\242"
 143      3F1B3852 
 143      814E8967 
 143      6484E881 
 143      8A303266 
 144 0072 F09918B5 		.ascii	"\360\231\030\265\031\264R\031\231\2313\031\031\343@"
 144      19B45219 
 144      99993319 
 144      19E340
 145 0081 32273881 		.ascii	"2'8\201D\007'\330\311\251\214,\014/x\200\024\320\310"
 145      440727D8 
 145      C9A98C2C 
 145      0C2F7880 
 145      14D0C8
 146 0094 730C8C40 		.ascii	"s\014\214@7\301\314\2079\203\021l;\320\015\0142zz\372"
 146      37C1CC87 
 146      3983116C 
 146      3BD00D0C 
 146      327A7AFA 
 147 00a8 1054925A 		.ascii	"\020T\222Z\\\242_T\002\2463R\023\013\364\222\031\000"
 147      5CA25F54 
 147      02A63352 
 147      130BF492 
 147      1900
 148 00ba 22BF312B 		.ascii	"\"\2771+"
 149              		.text
 150              		.section	.gnu.lto_.cgraph.85edd30e49bc20fd,"",%progbits
 151 0000 789C3D90 		.ascii	"x\234=\220\315JC1\020\205g2\267\355K\224v\347K\271\262"
 151      CD4A4331 
 151      10856732 
 151      B7ED4B94 
 151      76E74BB9 
 152 0015 175A68A1 		.ascii	"\027Zh\241\202/0\205\200\242B\025\273+\342&+\237#{\227"
 152      822F3085 
 152      80A24215 
 152      BB2BE226 
 152      2B9F237B 
 153 002a ED56092E 		.ascii	"\355V\011.\335(\370\013b\346\344\232\273\310\2273?g"
 153      DD28F80B 
 153      62E6E49A 
 153      BBC89733 
 153      3F67
 154 003c 26D71193 		.ascii	"&\327\021\223\020\321\013S\371\334\033+\321\365\003"
 154      10D10B53 
 154      F9DC1B2B 
 154      D1F503
 155 004b A9DE9E1F 		.ascii	"\251\336\236\037\271WV\256\212\277X\035\324j\305\374"
 155      B95756AE 
 155      8ABF581D 
ARM GAS  /tmp/cc9zij47.s 			page 12


 155      D46AC5FC 
 156 005b C12A557C 		.ascii	"\301*U|\2636U|\262\366\252xg\355W\361\303:\370\027B"
 156      B336557C 
 156      B2F6AA78 
 156      67ED57F1 
 156      C33AF817 
 157 0070 7DF28FBF 		.ascii	"}\362\217\277\231B\001\354Q\004\035\205'cC\351\376\300"
 157      994201EC 
 157      51041D85 
 157      276343E9 
 157      FEC0
 158 0082 C2FEF4B9 		.ascii	"\302\376\364\271\261p\002s\371\331\256\224w\364\027"
 158      B1700273 
 158      F9D9AE94 
 158      77F417
 159 0091 9D061BF2 		.ascii	"\235\006\033\362\227\205\241c\004\205\022\230\355\327"
 159      9785A163 
 159      04851298 
 159      EDD7
 160 009f A53EAD87 		.ascii	"\245>\255\207\206p\005$Cn\272\001bA2\010\371\315\320"
 160      86700524 
 160      436EBA01 
 160      62413208 
 160      F9CDD0
 161 00b2 1AE30695 		.ascii	"\032\343\006\225~'\030g\310\323\366\202\245\014y\307"
 161      7E271867 
 161      C8D3F682 
 161      A50C79C7 
 162 00c2 3D72615B 		.ascii	"=ra[&\026\204CK\371\273\262\315\010\306#\370\216a;\206"
 162      26168443 
 162      4BF9BBB2 
 162      CD08C623 
 162      F88E613B 
 163 00d7 EB04A613 		.ascii	"\353\004\246\023x\266hk\341\330\302p\212.\234~\206\354"
 163      78B6686B 
 163      E1D8C270 
 163      8A2E9C7E 
 163      86EC
 164 00e9 0CD9729F 		.ascii	"\014\331r\237\343\005s\334\027\210/\360\230\245E\342"
 164      E30573DC 
 164      17882FF0 
 164      98A545E2 
 165 00f9 12E38FF1 		.ascii	"\022\343\217\361\366\023\341\001~<\375\001\004\363{"
 165      F613E101 
 165      7E3CFD01 
 165      04F37B
 166 0108 26       		.ascii	"&"
 167              		.text
 168              		.section	.gnu.lto_.vars.85edd30e49bc20fd,"",%progbits
 169 0000 789C6362 		.ascii	"x\234cb`d`f``\220d\200\000\226\217\214\014,\365\314"
 169      60646066 
 169      60609064 
 169      8000968F 
 169      8C0C2CF5 
 170 0015 7F181919 		.ascii	"\177\030\031\031\352\031\27622\261\3263|ad\006\222\000"
 170      EA19BE32 
 170      32B1D633 
ARM GAS  /tmp/cc9zij47.s 			page 13


 170      7C616406 
 170      9200
 171 0027 55370611 		.ascii	"U7\006\021"
 172              		.text
 173              		.section	.gnu.lto_.refs.85edd30e49bc20fd,"",%progbits
 174 0000 789C6362 		.ascii	"x\234cb`d`f``\210`\200\000I\006V\222!\023#\220dd`ab"
 174      60646066 
 174      60608860 
 174      80004906 
 174      56922113 
 175 001b 6586400E 		.ascii	"e\206@\016f\026F\026\006d\314\000\000RR\001X"
 175      66164616 
 175      0664CC00 
 175      00525201 
 175      58
 176              		.text
 177              		.section	.gnu.lto_.statics.85edd30e49bc20fd,"",%progbits
 178 0000 789C6362 		.ascii	"x\234cb`d`b\300\016@\342\214\020&\000\000\375\000\011"
 178      60646062 
 178      C00E40E2 
 178      8C102600 
 178      00FD0009 
 179              		.text
 180              		.section	.gnu.lto_.decls.85edd30e49bc20fd,"",%progbits
 181 0000 789CAD5A 		.ascii	"x\234\255Z\177p\024\325\035\177\273\233\373\225\304"
 181      7F7014D5 
 181      1D7FBB9B 
 181      FB95C4
 182 000f 88D832A1 		.ascii	"\210\3302\241\343@\332JK\255& T\261S-\026\247b[u\246"
 182      E340DA4A 
 182      4BAD2620 
 182      54B1532D 
 182      16A7625B 
 183 0025 A533F68F 		.ascii	"\2453\366\217\233\353q\331$\247\311\335\271\267!\301"
 183      9BEB71D9 
 183      24A7C9DD 
 183      B9B721C1 
 184 0035 BF566835 		.ascii	"\277Vh5\255\325\006\230@b\211\004\005\001\345\267`\001"
 184      ADD50698 
 184      40628904 
 184      0501E5B7 
 184      6001
 185 0047 29A418F9 		.ascii	")\244\030\371!\221\237\001$\204\037\023\"\"\023( \210"
 185      21919F01 
 185      24841F13 
 185      22221328 
 185      2088
 186 0059 4034FDBE 		.ascii	"@4\375\276\267\273o\337nv\357n/\354\344\275\335\333"
 186      B7BB6FDF 
 186      6E76EF6E 
 186      2FECE4BD 
 186      DDDB
 187 006b 7DDFCFF7 		.ascii	"}\337\317\367\367\373\225\307#\016\341k\"\334\372\341"
 187      F7FB95C7 
 187      230EE16B 
 187      22DCFAE1 
 188 007b CA1B8FD0 		.ascii	"\312\033\217\320G\036\204\004x\3670\024\217VZ\240,\207"
ARM GAS  /tmp/cc9zij47.s 			page 14


 188      471E8404 
 188      78F73014 
 188      8F565AA0 
 188      2C87
 189 008d 320DDAD5 		.ascii	"2\015\332\325@\301T\323\241\362\303\3755\270\317\206"
 189      40C154D3 
 189      A1F2C3FD 
 189      35B8CF86 
 190 009d D200A519 		.ascii	"\322\000\245\031\312[P\226@Y\016e\025\224\034h\263\036"
 190      CA5B5096 
 190      40590E65 
 190      15941C68 
 190      B31E
 191 00af EEFF86B2 		.ascii	"\356\377\206\262\021\312^\225%\2750\375\235p\237\007"
 191      11CA5E95 
 191      25BD30FD 
 191      9D709F07 
 192 00bf F702B8E7 		.ascii	"\367\002\270\347k<1\335#\032\337N\370\266\002\3121N"
 192      6B3C31DD 
 192      231ADF4E 
 192      F8B602CA 
 192      314E
 193 00d1 956521DC 		.ascii	"\225e!\334\337\200\322\005e)\224\343P\346B9\001e\221"
 193      DF80D205 
 193      652994E3 
 193      50E64239 
 193      016591
 194 00e4 86EFD5B0 		.ascii	"\206\357\325\260\227kr-\321d|K\223\177\275E\016\254"
 194      976B722D 
 194      D1647C4B 
 194      937FBD45 
 194      0EAC
 195 00f6 03A639A9 		.ascii	"\003\2469\251\361\320u\305\262\254ft\346\265\266\253"
 195      F1D075C5 
 195      B2AC6674 
 195      E6B5B6AB 
 196 0106 B4675D37 		.ascii	"\264g]7\366\312C\177W\224\031J\313K\312\344\235\005"
 196      F6CA437F 
 196      5794194A 
 196      CB4BCAE4 
 196      9D05
 197 0118 43D12C05 		.ascii	"C\321,\005\256\242\272\323\320j8\012r\005\001\204\024"
 197      AEA2BAD3 
 197      D06A380A 
 197      72050184 
 197      14
 198 0129 9E3CE6C3 		.ascii	"\236<\346\303c\021\020\214B\213\024\245\036ZqAn!7\024"
 198      6311108C 
 198      428B14A5 
 198      1E5A7141 
 198      6E213714 
 199 013d 80790EDD 		.ascii	"\200y\016\335\203\226)\344\322\320\265\333\020\264e"
 199      839629E4 
 199      D2D0B5DB 
 199      10B465
 200 014c D7AA11EA 		.ascii	"\327\252\021\352s&\330<\232\300\301\317\305\000\033"
 200      7326D83C 
ARM GAS  /tmp/cc9zij47.s 			page 15


 200      9AC0C1CF 
 200      C5001B
 201 015b E41671F7 		.ascii	"\344\026q\367\250\314\024\225\031~\213\264\367}MS\321"
 201      A8CC1495 
 201      197E8BB4 
 201      F77D4D53 
 201      D1
 202 016c C04BF83E 		.ascii	"\300K\370>j\001e\352g*\223\275&\275\206\241\006\014"
 202      6A0165EA 
 202      672A93BD 
 202      26BD86A1 
 202      060C
 203 017e 023F144E 		.ascii	"\002?\024N\016r\217\344Q\001\212(\377\034\002\021\344"
 203      0E728FE4 
 203      51018A28 
 203      FF1C0211 
 203      E4
 204 018f DEE186A9 		.ascii	"\336\341\206\251`\304d(\200\352\014\034\344@\307\332"
 204      60C46428 
 204      80EA0C1C 
 204      E440C7DA 
 205 019f 64391700 		.ascii	"d9\027\000\312\3078M\322\013\3778\266\247\004i\330\236"
 205      CAC7384D 
 205      D20BFF38 
 205      B6A70469 
 205      D89E
 206 01b1 002B2EF9 		.ascii	"\000+.\371\255\266R\201\325\317\372\023\216\362\333"
 206      ADB65281 
 206      D5CFFA13 
 206      8EF2DB
 207 01c0 C194416E 		.ascii	"\301\224An\212\240Q\244\347\276\214\313\003\356\257"
 207      8AA051A4 
 207      E7BE8CCB 
 207      03EEAF
 208 01cf 703AFBEE 		.ascii	"p:\373\356\206\243\237\3606\236V\365t\266\302\032\300"
 208      86A39FF0 
 208      369E56F5 
 208      74B6C21A 
 208      C0
 209 01e0 D145335F 		.ascii	"\321E3_\003\276\361h3\247{m\313\337\326\267\013\366"
 209      03BEF168 
 209      33A77B6D 
 209      CBDFD6B7 
 209      0BF6
 210 01f2 A8FAB359 		.ascii	"\250\372\263Y\023\355\"\216SZf*u\202\367N4\033;\253"
 210      13ED228E 
 210      535A662A 
 210      7582F74E 
 210      341B3BAB 
 211 0206 D56B8A94 		.ascii	"\325k\212\224\211\024\300Ox\356 <\327qw\332D\012~\253"
 211      8914C04F 
 211      78EE203C 
 211      D77177DA 
 211      440A7EAB 
 212 021a 474A7BE3 		.ascii	"GJ{\343\010\233H\341\325HQ\031j.n}I\251\343^\\s\227"
 212      089B48E1 
 212      D5485119 
ARM GAS  /tmp/cc9zij47.s 			page 16


 212      6A2E6E7D 
 212      49A9E35E 
 213 0231 134FD6CC 		.ascii	"\023O\326\314\033\210\223\017R3\337h\376`\207f\216,"
 213      1B88930F 
 213      5233DF68 
 213      FE608766 
 213      8E2C
 214 0243 D03E2068 		.ascii	"\320> h\177\341u\264\257\026]\332\361\013\335\332\001"
 214      7FE175B4 
 214      AF165DDA 
 214      F10BDDDA 
 214      01
 215 0254 4BCC04CC 		.ascii	"K\314\004\3141\023\2401\023\320b\206\\\346,wA\305\243"
 215      3113A031 
 215      13D06286 
 215      5CE62C77 
 215      41C5A3
 216 0267 CF79DDB2 		.ascii	"\317y\335\262[\226\255\271\302\331\213\237\2017A\271"
 216      5B96ADB9 
 216      C2D98B9F 
 216      813741B9 
 217 0277 C95E2DEB 		.ascii	"\311^-\353[&\262\311c\206\302\342\265\332f|+\223\361"
 217      5B26B2C9 
 217      6386C2E2 
 217      B5DA667C 
 217      2B93F1
 218 028a 5D8D058E 		.ascii	"]\215\005\216~TH\306kq\323\342u\316S\014\366\241m\310"
 218      7E5448C6 
 218      6B71D3E2 
 218      75CE530C 
 218      F6A16DC8 
 219 029e 7CC8844C 		.ascii	"|\310\204LO\3430\347\220\031\330\271\250\266rf\270\035"
 219      4FE330E7 
 219      9019D8B9 
 219      A8B67266 
 219      B81D
 220 02b0 D245C740 		.ascii	"\322E\307@\347\211q1\267\336\306s\\\266\231\242J\021"
 220      E7897131 
 220      B7DEC673 
 220      5CB699A2 
 220      4A11
 221 02c2 E45A48B6 		.ascii	"\344ZH\266_\246\230W\012\263@\244\262]#8\330\350}\215"
 221      5FA69857 
 221      0AB340A4 
 221      B25D2338 
 221      D8E87D8D 
 222 02d6 23062B9A 		.ascii	"#\006+\232\332\015^\247\220mMg\\\251[d\021\356[\032"
 222      DA0D5EA7 
 222      906D4D67 
 222      5CA95B64 
 222      11EE5B1A 
 223 02ea 95ED4DC3 		.ascii	"\225\355M\303\262\210I\012\244\010zg\325\361\372\231"
 223      B288490A 
 223      A4087A67 
 223      D5F1FA99 
 224 02fa 34D1ED77 		.ascii	"4\321\355wT\323\024\335El\304\301\020\250\223\017A\346"
 224      54D314DD 
ARM GAS  /tmp/cc9zij47.s 			page 17


 224      456CC4C1 
 224      10A8930F 
 224      41E6
 225 030c 3CDF4786 		.ascii	"<\337G\206\313\227\005=\317\277]wT\313\323\014\200x"
 225      CB97053D 
 225      CFBF5D77 
 225      54CBD30C 
 225      8078
 226 031e B48A101E 		.ascii	"\264\212\020\036\264M\225\203L\252\264\317\363Z\325"
 226      B44D9583 
 226      4CAAB4CF 
 226      F35AD5
 227 032d 46FAE0E8 		.ascii	"F\372\340\350,\267s\367t\204\210\275\201\212\335\275"
 227      2CB773F7 
 227      748488BD 
 227      818ADDBD 
 228 033d 79FFF627 		.ascii	"y\377\366'Lr\247Jo\210yB\331i+w'#\367\215\255'w\027"
 228      4C72A74A 
 228      6F887942 
 228      D9692B77 
 228      2723F78D 
 229 0355 DA48EE98 		.ascii	"\332H\356\230yvj\264\344P\356\217Y\3648I\364X\220c\350"
 229      79766AB4 
 229      E450EE8F 
 229      59F43849 
 229      F4589063 
 230 036a D17F4870 		.ascii	"\321\177Hp\266\277\005\211GK\011e\267\255\036\335&="
 230      B6BF0589 
 230      474B0965 
 230      B7AD1EDD 
 230      263D
 231 037c 1AF6D8E9 		.ascii	"\032\366\330\3511\324\224 'H\356\256\245\230]\033\006"
 231      31D49420 
 231      2748EEAE 
 231      A5985D1B 
 231      06
 232 038d DF1FA898 		.ascii	"\337\037\250\230\033)f\357\204,R\216At=\3719G\262\276"
 232      1B2966EF 
 232      842C528E 
 232      41743DF9 
 232      3947B2BE 
 233 03a1 D53071FB 		.ascii	"\3250q\373\254\356O}*\256k\260\363\004\354\233\034c"
 233      ACEE4F7D 
 233      2AAE6BB0 
 233      F304EC9B 
 233      1C63
 234 03b3 58DCBF9D 		.ascii	"X\334\277\235N\245|\226a\321g\036\340|t\200\363\031"
 234      4EA57C96 
 234      61D1671E 
 234      E07C7480 
 234      F319
 235 03c5 5329D704 		.ascii	"S)\327\004<z\311\243\333\362\306\326\005{\036Jm\316"
 235      3C7AC9A3 
 235      DBF2C6D6 
 235      057B1E4A 
 235      6DCE
 236 03d7 54DDC54C 		.ascii	"T\335\305Lf0L1B\361\350U\302\361\262m\224]f\243\254"
ARM GAS  /tmp/cc9zij47.s 			page 18


 236      66304C31 
 236      42F1E855 
 236      C2F1B26D 
 236      945D66A3 
 237 03ec F9BD8FED 		.ascii	"\371\275\217\355\242\214s\225-\306\374\373n\302\275"
 237      A28C7395 
 237      2DC6FCFB 
 237      6EC2BD
 238 03fb 8170BF66 		.ascii	"\201p\277f\313\375\032\303\375\355\303k,s\014\315\311"
 238      CBFD1AC3 
 238      FDEDC36B 
 238      2C730CCD 
 238      C9
 239 040c CEA3E4C3 		.ascii	"\316\243\344\303\337\315\300\3477I\004\357\366\030\023"
 239      DFCDC0E7 
 239      374904EF 
 239      F61813
 240 041b AB7FED18 		.ascii	"\253\177\355\030\251\273\354\221<\226\025\371m\232\207"
 240      A9BBEC91 
 240      3C9615F9 
 240      6D9A87
 241 042a 7650E1DF 		.ascii	"vP\341\337><\353\235\327=\203M'U\230#\024\265\3757\203"
 241      3E3CEB9D 
 241      D73D834D 
 241      27559823 
 241      14B5FD37 
 242 043f 4B271DB1 		.ascii	"K'\035\261\223\"v\244At\216(3\342q\212\330\345\012\321"
 242      932276A4 
 242      41748E28 
 242      33E2718A 
 242      D8E50AD1 
 243 0453 59C65314 		.ascii	"Y\306S\024\261'\015\342\220\014e<M\021{]!:\313x\206"
 243      B1270DE2 
 243      900C653C 
 243      4D117B5D 
 243      213ACB78 
 244 0468 225E4983 		.ascii	"\"^I\203X\230\241\214\347(b\237+Dg\031/P\304\266\337"
 244      5898A18C 
 244      E728629F 
 244      2B446719 
 244      2F50C4B6 
 245 047d A6462CB2 		.ascii	"\246F,\262\223q@LYg\227_\261\263\313K\264\357\270\321"
 245      9371404C 
 245      5967975F 
 245      B1B3CB4B 
 245      B4EFB8D1 
 246 0491 BCFEE392 		.ascii	"\274\376\343\222\301L\006\2572\035\337\032w\035\237"
 246      C14C06AF 
 246      321DDF1A 
 246      771D9F
 247 04a0 9D31D491 		.ascii	"\2351\324\221\351&\005\355\330\230n\264K\037V*\346L"
 247      E92605ED 
 247      D8986EB4 
 247      4B1F562A 
 247      E64C
 248 04b2 2F1D41D3 		.ascii	"/\035A\323H\231.\254L\375\2256Z\235Z\334Z\330\310t\230"
 248      48992EAC 
ARM GAS  /tmp/cc9zij47.s 			page 19


 248      4CFD9536 
 248      5A9D5ADC 
 248      5AD8C874 
 249 04c7 7E8A867B 		.ascii	"~\212\206{?\243w\244\315\225\302B\247\326A\256\221\037"
 249      3FA377A4 
 249      CD95C242 
 249      A7D641AE 
 249      911F
 250 04d9 0575131F 		.ascii	"\005u\023\037\240\222h\317\364Q]\202\275\342\305\355"
 250      A09268CF 
 250      F4515D82 
 250      BDE2C5ED 
 251 04e9 EDFAD7F4 		.ascii	"\355\372\327\364\324\316\2412\227gB\245\236\232\255"
 251      D4CEA132 
 251      976742A5 
 251      9E9AAD
 252 04f8 E3E759E7 		.ascii	"\343\347Y\347\316\305\031J\241\227Q=\215\245\264>\276"
 252      CEC5194A 
 252      A197513D 
 252      8DA5B43E 
 252      BE
 253 0509 99C7E3FA 		.ascii	"\231\307\343\372<\2571IXs\362a\025\3265V\013\301j\361"
 253      3CAF3149 
 253      5873F261 
 253      15D63556 
 253      0BC16AF1 
 254 051d 1A7384F5 		.ascii	"\032s\204\365\337\360\272\2518\313\034\2013\017\371"
 254      DFF0BAA9 
 254      38CB1C81 
 254      330FF9
 255 052c 1C351EA7 		.ascii	"\0345\036\247\331\316]k\230\021z\215$\271i$\211Y\334"
 255      D9CE5D6B 
 255      98117A8D 
 255      24B96924 
 255      8959DC
 256 053f 0C7A8CEC 		.ascii	"\014z\214\354\354\270\230\350\276\232\261\343,\335\216"
 256      ECB898E8 
 256      BE9AB1E3 
 256      2CDD8E
 257 054e AA61DCAA 		.ascii	"\252a\334\252\263\201Qg\316^W\352\214\036\274:\357\020"
 257      B3815167 
 257      CE5E57EA 
 257      8C1EBC3A 
 257      EF10
 258 0560 755A1975 		.ascii	"uZ\031u\366\017N\235\235\214:\315\356\324\031\303\250"
 258      F60F4E9D 
 258      9D8C3ACD 
 258      EED419C3 
 258      A8
 259 0571 E36A7761 		.ascii	"\343jwa\025o\267\273\200\337\3523\247\216\255v\033\031"
 259      156FB7BB 
 259      80DFEA33 
 259      A78EAD76 
 259      1B19
 260 0583 3E8615B1 		.ascii	">\206\025\261\234\342b\242\274\226Xn/\233P\346Y\267"
 260      9CE262A2 
 260      BC96586E 
ARM GAS  /tmp/cc9zij47.s 			page 20


 260      2F9B50E6 
 260      59B7
 261 0595 1BB0F504 		.ascii	"\033\260\365\004\354\020\223Q[\267\337\247[\335k\361"
 261      EC109351 
 261      5BB7DFA7 
 261      5BDD6BF1 
 262 05a5 82D7EC05 		.ascii	"\202\327\354\005\374\031s\373\232l&\031\333J\3727\374"
 262      FC1973FB 
 262      9A6C2619 
 262      DB4AFA37 
 262      FC
 263 05b6 C3876E05 		.ascii	"\303\207n\005\004Ly\210\204\330\262\020\254\007\322"
 263      044C7988 
 263      84D8B210 
 263      AC07D2
 264 05c5 74FDC8E4 		.ascii	"t\375\310\344]4\300\273\272\015{(h\333\023\203\235="
 264      5D34C0BB 
 264      BA0D7B28 
 264      68DB1383 
 264      9D3D
 265 05d7 3E8247A7 		.ascii	">\202G\247\363\024\260o\327`\327w\246\361\3112\271\306"
 265      F314B06F 
 265      D760D777 
 265      A6F1C932 
 265      B9C6
 266 05e9 6BDBF4BE 		.ascii	"k\333\364\276\335\312c\231\256\030\201\262\271i\373"
 266      DDCA6399 
 266      AE1881B2 
 266      B969FB
 267 05f8 BDBA234E 		.ascii	"\275\272#Np\226\351\365\011\363>\257s\320oa\007\226"
 267      7096E9F5 
 267      09F33EAF 
 267      73D06F61 
 267      0796
 268 060a 977D865F 		.ascii	"\227}\206_\216\037H3\266\270R\331n\001\363g\012\225"
 268      8E1F4833 
 268      B6B852D9 
 268      6E01F367 
 268      0A95
 269 061c 4FB8BF4A 		.ascii	"O\270\277J\270\177\304\333\255_\360[=\013\317]\235u"
 269      B87FC4DB 
 269      AD5FF05B 
 269      3D0BCF5D 
 269      9D75
 270 062e 6C341A78 		.ascii	"l4\032x\351\033\212\012q\241\272\363\261\211b\366\276"
 270      E91B8A0A 
 270      71A1BAF3 
 270      B18962F6 
 270      BE
 271 063f 5FA033B6 		.ascii	"_\2403\266\3370J\027g\256\263q7\011\313m>&\265O\353"
 271      DF304A17 
 271      67AEB371 
 271      3709CB6D 
 271      3E26B54F 
 272 0654 A9ADE6AA 		.ascii	"\251\255\346\252\311e\331&\323N\252\342\271\253\227"
 272      C965D926 
 272      D34EAAE2 
ARM GAS  /tmp/cc9zij47.s 			page 21


 272      B9AB97
 273 0663 8E65B3CC 		.ascii	"\216e\263\314\265\250>0H\332\330 \331\303\004\3117\267"
 273      B5A83E30 
 273      48DAD820 
 273      D9C304C9 
 273      37B7
 274 0675 3448D4AD 		.ascii	"4H\324\2550g1\366\263b\034\242b\364\375np2\270\336\334"
 274      306731F6 
 274      B3621CA2 
 274      62F4FD6E 
 274      7032B8DE 
 275 068a E8208EED 		.ascii	"\350 \216\355b\034{\251\333p\354y\353\324%\263\335\212"
 275      621C7BA9 
 275      DB70EC79 
 275      EBD425B3 
 275      DD8A
 276 069c B38C59B7 		.ascii	"\263\214Y\267\036\314\246O\244\246\371\237O\037<\333"
 276      1ECCA64F 
 276      A4A6F99F 
 276      4F1F3CDB 
 277 06ac 9FCA62DD 		.ascii	"\237\312b\335\342n\327\2035L'\217s\356K\3030\233\337"
 277      E26ED783 
 277      354C278F 
 277      73EE4BC3 
 277      309BDF
 278 06bf DB3E5905 		.ascii	"\333>Y\005\315h\377d\206\037S\036\267\355\001\216\363"
 278      CD68FF64 
 278      861F531E 
 278      B7ED018E 
 278      F3
 279 06d0 EC2EDD7E 		.ascii	"\354.\335~\333\335Fn\300\032#\310\235\341x\015\263}"
 279      DBDD466E 
 279      C01A23C8 
 279      9DE1780D 
 279      B37D
 280 06e2 6556BDF8 		.ascii	"eV\275\370\300\213\025\021\272oX\030\200|\247\240\373"
 280      C08B1511 
 280      BA6F5818 
 280      807CA7A0 
 280      FB
 281 06f3 A11E98ED 		.ascii	"\241\036\230\355\327=peO\272\275s\263\017\212L>`\273"
 281      D73D7065 
 281      4FBABD73 
 281      B30F8A4C 
 281      3E60BB
 282 0706 B2F914B3 		.ascii	"\262\371\024\263\347\351\324=\331\3504^\325G\314%\024"
 282      E7E9D43D 
 282      D9E8345E 
 282      D547CC25 
 282      14
 283 0717 B1ED99D4 		.ascii	"\261\355\231\3242\216qD\324\215\255\346\304\012CoW\210"
 283      328E7144 
 283      D48DADE6 
 283      C40A436F 
 283      5788
 284 0729 453688FB 		.ascii	"E6\210\373\311\200\267\201\"\366\036M\347\276\011i\245"
 284      C980B781 
ARM GAS  /tmp/cc9zij47.s 			page 22


 284      22F61E4D 
 284      E7BE0969 
 284      A5
 285 073a 54F738B7 		.ascii	"T\3678\267Q\314\366\316t\336\231\220VN2W\370\3040\345"
 285      51CCF6CE 
 285      74DE9990 
 285      564E3257 
 285      F8C430E5 
 286 074e B174624E 		.ascii	"\261tbN\3144\312\214\355\352 \327\303\215BC\203\334"
 286      CC34CA8C 
 286      EDEA20D7 
 286      C38D4243 
 286      83DC
 287 0760 6710E241 		.ascii	"g\020\342A\356sR\177A\352K\244\236\305\343z\016\251"
 287      EE73527F 
 287      41EA4BA4 
 287      9EC5E37A 
 287      0EA9
 288 0772 1B483D9F 		.ascii	"\033H=\237\324\213H\275\214\324+I}\224\324\335\244\356"
 288      D48B48BD 
 288      8CD42B49 
 288      7D94D4DD 
 288      A4EE
 289 0784 21F51952 		.ascii	"!\365\031R\237%\3659R\367\032\261\354\334\033[\246\030"
 289      9F25F539 
 289      52F71AB1 
 289      ECDC1B5B 
 289      A618
 290 0796 7AA6E1FF 		.ascii	"z\246\341\377\012\264e\263}a\223\273g)b\273+\304\"g"
 290      0AB465B3 
 290      7D6193BB 
 290      672962BB 
 290      2BC42267 
 291 07aa 9B763236 		.ascii	"\233v26\355\002\233\362\220\314\304\202\027\330\374"
 291      ED029BF2 
 291      90CCC482 
 291      17D8FC
 292 07b9 3DE4D7FF 		.ascii	"=\344\327\377]\363\355\272\253\237\320\377\212\273\235"
 292      5DF3EDBA 
 292      AB9FD0FF 
 292      8ABB9D
 293 07c8 3898773B 		.ascii	"8\230w;\216S\320\236"
 293      8E53D09E 
 294 07d0 2305A9D5 		.ascii	"#\005\251\325I\267wh\0316\367\245\0346\277d\207\315"
 294      49B77768 
 294      1936F7A5 
 294      1C36BF64 
 294      87CD
 295 07e2 CFA81057 		.ascii	"\317\250\020W|ndHa\322\203\214I\017\201I\205 w\230\230"
 295      7C6E6448 
 295      61D2838C 
 295      490F8149 
 295      85207798 
 296 07f7 F42209A6 		.ascii	"\364\"\011\246\313\254a{\375\364\270\301.\346\270\201"
 296      CBAC617B 
 296      FDF4B8C1 
 296      2EE6B881 
ARM GAS  /tmp/cc9zij47.s 			page 23


 297 0807 E5FF65EC 		.ascii	"\345\377e\354sF\231\262\230\021a\211*\302R\"\302{\244"
 297      734699B2 
 297      98116189 
 297      2AC25222 
 297      C27BA4
 298 081a DECB6510 		.ascii	"\336\313e\020\317-\306\034\332d\336;P=\031\271\3600"
 298      CF2DC61C 
 298      DA64DE3B 
 298      503D19B9 
 298      F030
 299 082c F4BCBA9A 		.ascii	"\364\274\272\232\325AZ\313(\312\331|\015\346\032\177"
 299      D5415ACB 
 299      28CAD97C 
 299      0DE61A7F 
 300 083c 0779324D 		.ascii	"\007y2M\027I\033g\326_3\373B\371\001\366\351\363\374"
 300      17491B67 
 300      D65F33FB 
 300      42F901F6 
 300      E9F3FC
 301 084f B4727F65 		.ascii	"\264r\177e\270\227\216\032\205^U\020\036]\006\203k\353"
 301      B8978E1A 
 301      855E5510 
 301      1E5D0683 
 301      6BEB
 302 0861 5FF3F11D 		.ascii	"_\363\361\035\253\354<\272N|s\323v\025|\223Y\005o\352"
 302      ABEC3CBA 
 302      4E7C73D3 
 302      76157C93 
 302      59056FEA 
 303 0875 B8DC5D6B 		.ascii	"\270\334]k\343\006c\376]'xm\217\014\331\331\253\337"
 303      E30663FE 
 303      5D27786D 
 303      8F0CD9D9 
 303      ABDF
 304 0887 76B4EF67 		.ascii	"v\264\357gF\373\036\333\343\003\036\226\033\353\243"
 304      46FB1EDB 
 304      E3031E96 
 304      1BEBA3
 305 0896 C602F58C 		.ascii	"\306\002\365\214\007e\372\035\312t'\2571\235!\270w\322"
 305      0765FA1D 
 305      CA7427AF 
 305      319D21B8 
 305      77D2
 306 08a8 4CC1C949 		.ascii	"L\301\311I\372b\204G\013\002\234\246Ro\3430'\0012Yp"
 306      FA628447 
 306      0B029CA6 
 306      526FE330 
 306      27013259 
 307 08bd 10AD5439 		.ascii	"\020\255T9y\364&E5\016\0118\201j*f\200\272\230\242\366"
 307      79F42645 
 307      350E0938 
 307      816A2A66 
 307      80BA98A2 
 308 08d2 A545ADF7 		.ascii	"\245E\255\367d\212\272\224\242\266\015O\207\252\315"
 308      648ABA94 
 308      A2B60D4F 
 308      87AACD
ARM GAS  /tmp/cc9zij47.s 			page 24


 309 08e1 9933407D 		.ascii	"\2313@}\227\242\266\247Em\311\265C\245.Z\031\320\243"
 309      97A2B6A7 
 309      456DC9B5 
 309      43A52E5A 
 309      19D0A3
 310 08f4 BC63B853 		.ascii	"\274c\270S\\\246\364P\220\273n\364h]M\261\254@F\242"
 310      5CA6F450 
 310      90BB6EF4 
 310      685D4DB1 
 310      AC4046A2 
 311 0908 3794D68B 		.ascii	"7\224\326\213\270/\207\365\235\317r\306\315\361\277"
 311      B82F87F5 
 311      9DCF72C6 
 311      CDF1BF
 312 0917 6D98F93F 		.ascii	"m\230\371?\205a\332\223~\264\214Gk\002\364X\302\221"
 312      8561DA93 
 312      7EB48C47 
 312      6B02F458 
 312      C291
 313 0929 B5A73FD5 		.ascii	"\265\247?\325\217\234\241\037\241\305\030\267uF!\001"
 313      8F9CA11F 
 313      A1C518B7 
 313      75462101 
 314 0939 C544AF09 		.ascii	"\305D\257\011#M\006\011r\365\002\317\2760K\246\362\203"
 314      234D0609 
 314      72F502CF 
 314      BE304BA6 
 314      F283
 315 094b C50EE5D0 		.ascii	"\305\016\345\320V\230\002}\366\000\3649\003\321O\325"
 315      5698027D 
 315      F600F439 
 315      03D14FD5 
 316 095b D7CF6C19 		.ascii	"\327\317l\031\250\267\037\275L6\035\377\252\274\310"
 316      A8B71FBD 
 316      4C361DFF 
 316      AABCC8
 317 096a 3D6F18CC 		.ascii	"=o\030\314i\327>\310\315\023\374x\335\024p\336o\307"
 317      69D73EC8 
 317      CD13FC78 
 317      DD1470DE 
 317      6FC7
 318 097c 2D74E36B 		.ascii	"-t\343k\317\3641\365v\273`:HH\016\365\361\364\207\012"
 318      CFF431F5 
 318      76BB603A 
 318      48480EF5 
 318      F1F4870A 
 319 0990 C59CEDE3 		.ascii	"\305\234\355\343\321\005j\237M\035\007.\324\011f9\346"
 319      D1056A9F 
 319      4D1D072E 
 319      D4096639 
 319      E6
 320 09a1 676C04F5 		.ascii	"gl\004\365\360\215\263`oX\005#\307\210\264_\226YAj\244"
 320      F08DB360 
 320      6F580523 
 320      C788B45F 
 320      9659416A 
 321 09b6 85421E2B 		.ascii	"\205B\036+\"\243\313M\252\313\226\246\017:L\226\015"
ARM GAS  /tmp/cc9zij47.s 			page 25


 321      22A3CB4D 
 321      AACB96A6 
 321      0F3A4C96 
 321      0D
 322 09c7 726FBA50 		.ascii	"ro\272P%e\034/\262j\002\363h\316$G].\215\271f\323\221"
 322      25651C2F 
 322      B26A02F3 
 322      68CE2447 
 322      5D2E8DB9 
 323 09de D120F7B6 		.ascii	"\321 \367\266\013)R\236\030]\232\312\236\252\011-\326"
 323      0B29529E 
 323      185D9ACA 
 323      9EAA092D 
 323      D6
 324 09ef 9943A5EA 		.ascii	"\231C\245\352\233_f\226\352\335[\346\346\0256I\276\200"
 324      9B5F6696 
 324      EADD5BE6 
 324      E6153649 
 324      BE80
 325 0a01 32EE6E68 		.ascii	"2\356nh\330\361=3\353\225\267\312-\253\355\014\"\260"
 325      D8F13D33 
 325      EB95B7CA 
 325      2DABED0C 
 325      22B0
 326 0a13 4E62BED9 		.ascii	"Nb\276\331\230g5\225r\313\027\033\333,\301\263\316,"
 326      98673595 
 326      72CB171B 
 326      DB2CC1B3 
 326      CE2C
 327 0a25 E50FD042 		.ascii	"\345\017\320B\245u\037\351\351\025\245\257\277_\320"
 327      A5751FE9 
 327      E915A5AF 
 327      BF5FD0
 328 0a34 4F25FF37 		.ascii	"O%\3777\327\350\317.w\026\323Y\242\371\3041F|\337@\304"
 328      D7E8CF2E 
 328      7716D359 
 328      A2F9C431 
 328      467CDF40 
 329 0a49 68A0B3D2 		.ascii	"h\240\263\322b\240\341^\236G\273s\215\334\234\375\376"
 329      62A0E15E 
 329      9E47BB73 
 329      8DDC9CFD 
 329      FE
 330 0a5a 469F5387 		.ascii	"F\237S\207\215\3616\230\361V\267\342%\270r\252\277\177"
 330      8DF13698 
 330      F156B7E2 
 330      25B872AA 
 330      BF7F
 331 0a6c A43EC568 		.ascii	"\244>\305h\305F\244\231\326j\354m\302\250\305\245<\003"
 331      C546A499 
 331      D66AEC6D 
 331      C2A8C5A5 
 331      3C03
 332 0a7e B60FE4C8 		.ascii	"\266\017\344\310\340\260X\220\373\217\200\227=[\004"
 332      E0B05890 
 332      FB8F8097 
 332      3D5B04
ARM GAS  /tmp/cc9zij47.s 			page 26


 333 0a8d BB89117E 		.ascii	"\273\211\021~K\317U\332\036\026\3131-=\346\222U\364"
 333      4BCF55DA 
 333      1E16CB31 
 333      2D3DE692 
 333      55F4
 334 0a9f 5162024C 		.ascii	"Qb\002L\333s-\315\264_\2752^z\340\341\3019\232>\024"
 334      DB732DCD 
 334      B45FBD32 
 334      5E7AE0E1 
 334      C1399A3E 
 335 0ab4 98A5C709 		.ascii	"\230\245\307\011*D\357\021o\026\3139\223^\030\231G="
 335      2A44EF11 
 335      6F16CB39 
 335      935E1899 
 335      473D
 336 0ac6 14D2DD6A 		.ascii	"\024\322\335jf\240Z:\342y\212\3307\210\365\221\276."
 336      66A05A3A 
 336      E2798AD8 
 336      3788F591 
 336      BE2E
 337 0ad8 CE0972AD 		.ascii	"\316\011r\255\002^\201l#\365G\244\336!\244]\215X\214"
 337      025E816C 
 337      23F547A4 
 337      DE21A45D 
 337      8D588C
 338 0aeb BC5948B5 		.ascii	"\274YH\265\276\333%\2306\377\031\330\211\026aM1\254"
 338      BEDB2598 
 338      36FF19D8 
 338      8916614D 
 338      31AC
 339 0afd 123A350D 		.ascii	"\022:5\015r\037g1G\336\3558Gf{\002\243\035>\254\300"
 339      721F6731 
 339      47DEED38 
 339      47667B02 
 339      A31D3EAC 
 340 0b12 E4FA8195 		.ascii	"\344\372\201\225G\003\316\002\265k\2719\016\255U\352"
 340      4703CE02 
 340      B56BB939 
 340      0EAD55EA 
 341 0b22 2606B94D 		.ascii	"&\006\271Mxjhx\364\005t])T\225\342p\356^\334GsW\265"
 341      786A6878 
 341      F405745D 
 341      295495E2 
 341      70EE5EDC 
 342 0b3a 208F5ECC 		.ascii	" \217^\314\323y]Yf\354\322X\362\017\263\332\007\254"
 342      D3795D59 
 342      66ECD258 
 342      F20FB3DA 
 342      07AC
 343 0b4c 46A057F2 		.ascii	"F\240W\362\232\025\277\211%\206\321|J\330\245Z(6\261"
 343      9A15BF89 
 343      2586D17C 
 343      4AD8A55A 
 343      2836B1
 344 0b5f 0B45A3E7 		.ascii	"\013E\243\347\032\255\2618\224\205y\017;\232\367\307"
 344      1AADB138 
 344      9485790F 
ARM GAS  /tmp/cc9zij47.s 			page 27


 344      3B9AF7C7 
 345 0b6f 69022AC8 		.ascii	"i\002*\310u\030Q\302\215@\315\240Z\343DM\212\276e\005"
 345      751851C2 
 345      8D40CDA0 
 345      5AE3444D 
 345      8ABE6505 
 346 0b83 A4C9364D 		.ascii	"\244\3116M-\277\232\014\234:\237k\273\207|\304\261;"
 346      2DBF9A0C 
 346      9C3A9F6B 
 346      BB877CC4 
 346      B13B
 347 0b95 DC486935 		.ascii	"\334Hi5\214\315\255\361\334\262C\335\016\352\371)#\214"
 347      8CCDADF1 
 347      DCB243DD 
 347      0EEAF929 
 347      238C
 348 0ba7 6A5F1AA6 		.ascii	"j_\032\246\226\340^\221\262\007\351\024\354W\345\352"
 348      96E05E91 
 348      B207E914 
 348      EC57E5EA 
 349 0bb7 54C899EE 		.ascii	"T\310\231\356\230#\335\322\224t]\216tsS\322\035w\244"
 349      9823DDD2 
 349      94745D8E 
 349      747353D2 
 349      1D77A4
 350 0bca 5B9492EE 		.ascii	"[\224\222\356\204`\332E\263\320\256NI{\222I\374\333"
 350      8460DA45 
 350      B3D0AE4E 
 350      497B9249 
 350      FCDB
 351 0bdc AAC4AAB8 		.ascii	"\252\304\252\2704=T!\206\023!\331\373\370S\177,\232"
 351      343D5421 
 351      861321D9 
 351      FBF8537F 
 351      2C9A
 352 0bee 848A8A8B 		.ascii	"\204\212\212\213K\324\277x\262D\222K\242\261Heu\251"
 352      4BD4BF78 
 352      B244924B 
 352      A2B14865 
 352      75A9
 353 0c00 5812A9C0 		.ascii	"X\022\251\300\315\212+P\036C\345MF_\020C\362/K\252\223"
 353      CD8A2B50 
 353      1E43E54D 
 353      465F1043 
 353      F22F4BAA 
 354 0c15 5249653C 		.ascii	"RIe<\022\256,\231\032\215a\342\312\350\324\222\362H"
 354      12AE2C99 
 354      1A8D61E2 
 354      CAE8D492 
 354      F248
 355 0c27 A4242C55 		.ascii	"\244$,U\335\027\213\307\304\373\304\360\324h\311\370"
 355      DD178BC7 
 355      C4FBC4F0 
 355      D468C9F8 
 356 0c37 E2078BEF 		.ascii	"\342\007\213\357\247\220I\271\264T,\003\310|\200,\027"
 356      A79049B9 
 356      B4542C03 
ARM GAS  /tmp/cc9zij47.s 			page 28


 356      C87C802C 
 356      17
 357 0c48 E5B2EA58 		.ascii	"\345\262\352X$$\377\320Q\000h\025\211K\"\020\344V\204"
 357      2424FFD0 
 357      51006815 
 357      894B2210 
 357      E45684
 358 0c5b 12527C5A 		.ascii	"\022R|Z\264T\224\362\210\364P\301snR~.\\\031-\217\205"
 358      B45494F2 
 358      88F450C1 
 358      736E527E 
 358      2E5C192D 
 359 0c71 E4511694 		.ascii	"\344Q\026\224D\\\222\223%\217\376\376\311IO\326\002"
 359      445C9293 
 359      258FFEFE 
 359      C9494FD6 
 359      02
 360 0c82 9486E3AF 		.ascii	"\224\206\343\257\216\306\344\007\306\207\344?\271\323"
 360      8EC6E407 
 360      C687E43F 
 360      B9D3
 361 0c90 8082C39F 		.ascii	"\200\202\303\237\371;\243\033@\003\013\017\021('&\326"
 361      F93BA31B 
 361      40030B0F 
 361      11282726 
 361      D6
 362 0ca1 CA395854 		.ascii	"\3129XT\256:\007\033\215\253\360V\204\312$Q\364UU\313"
 362      AE3A071B 
 362      8DABF056 
 362      84CA2451 
 362      F45555CB 
 363 0cb5 626D481E 		.ascii	"bmH\036\351\254\266\\\213E\215T\204H\323\333\345\012"
 363      E9ACB65C 
 363      8B458D54 
 363      8448D3DB 
 363      E50A
 364 0cc7 09B44D86 		.ascii	"\011\264M\206\236\257\026\253\301\370w;\022&\247'\345"
 364      9EAF16AB 
 364      C1F8773B 
 364      1226A727 
 364      E5
 365 0cd8 E9093109 		.ascii	"\351\0111\011\324C\200\332D\347\354\346d\244\242\024"
 365      D44380DA 
 365      44E7ECE6 
 365      64A4A214 
 366 0ce8 F3539B87 		.ascii	"\363S\233\207\344\000%\365&BX\015\270%$q\232ONH\321"
 366      E40025F5 
 366      2642580D 
 366      B8252471 
 366      9A4F4E48 
 367 0cfd 78481E9F 		.ascii	"xH\036\237\322\322\361\252D\264R\224\222%\217O\232\004"
 367      D2D2F1AA 
 367      44B45294 
 367      92258F4F 
 367      9A04
 368 0d0f E0BA3CC4 		.ascii	"\340\272<\304\360\343\356\017\251`\321\270/\022\217"
 368      F0E3EE0F 
ARM GAS  /tmp/cc9zij47.s 			page 29


 368      A960D1B8 
 368      2F128F
 369 0d1e 816E721E 		.ascii	"\201nr\036\246\016\301\267\210\\\373\223\364.\014M{"
 369      A60EC1B7 
 369      885CFB93 
 369      F42E0C4D 
 369      7B
 370 0d2f B00AA349 		.ascii	"\260\012\243Ib9\270!$\363\322x^\372\031/=\300K\017\362"
 370      6239B821 
 370      24F3D278 
 370      5EFA192F 
 370      3DC04B0F 
 371 0d44 D2045E7A 		.ascii	"\322\004^zH\220\306\216\2012\226\257\224\3406\316\223"
 371      4890C68E 
 371      813296AF 
 371      94E036CE 
 371      93
 372 0d55 0801B20F 		.ascii	"\010\001\262\017+R#Jp\217WB\334\344D*\302\022\326.\\"
 372      2B52234A 
 372      708F5742 
 372      DCE4442A 
 372      C212D62E 
 373 0d6a 25FAE5A4 		.ascii	"%\372\345\244\034\226\301\256>,\342\004\270'B\344\215"
 373      1C96C1AE 
 373      3E2CE204 
 373      B82742E4 
 373      8D
 374 0d7b 4FAE8A97 		.ascii	"O\256\212\227\212\344wYe\270<\351\223%\261,I4\300\017"
 374      8AE47759 
 374      65B83CE9 
 374      9325B12C 
 374      4934C00F 
 375 0d8f 9EAA6439 		.ascii	"\236\252d9|\324\325\222J\247\303\013\277X\033\225#@"
 375      7CD4D592 
 375      4AA7C30B 
 375      BF581B95 
 375      2340
 376 0da1 E6AD91E3 		.ascii	"\346\255\221\343S\237M\014\325\214\012\004\242$\306"
 376      539F4D0C 
 376      D58C0A04 
 376      A224C6
 377 0db0 2200E7A9 		.ascii	"\"\000\347\251\221e)\221\017FN\212U\341D\005h\345\034"
 377      91652991 
 377      0F464E8A 
 377      55E14405 
 377      68E51C
 378 0dc3 0AD004D4 		.ascii	"\012\320\004\324\365i>\364Db2\000$Cp\007\006\3601\001"
 378      F5693EF4 
 378      44623200 
 378      24437007 
 378      06F03101 
 379 0dd7 37089744 		.ascii	"7\010\227D\2368M\214\311U\341\344s \212X\203\037\204"
 379      9E384D8C 
 379      C955E1E4 
 379      73208A58 
 379      831F84
 380 0dea 44A8BA40 		.ascii	"D\250\272@\017\201\312h\022(og\202\002\277\011$B5\341"
ARM GAS  /tmp/cc9zij47.s 			page 30


 380      0F81CA68 
 380      12286F67 
 380      8202BF09 
 380      244235E1 
 381 0dfe A81C8D95 		.ascii	"\250\034\215\225\347&B \275\312\204<\302\0131!\306 "
 381      E7264220 
 381      BDCA843C 
 381      C20B3121 
 381      C620
 382 0e10 A6CBA115 		.ascii	"\246\313\241\025\260\300\355s\261\346\341J\342?x\231"
 382      B0C0ED73 
 382      B1E6E14A 
 382      E23F7899 
 383 0e20 88C72B7D 		.ascii	"\210\307+}U\252hp\217\327\304D\311[EB\306S\201i\274"
 383      55AA6870 
 383      8FD7C444 
 383      C95B4542 
 383      C6538169 
 384 0e35 53ABCB40 		.ascii	"S\253\313@\357|Y\004\356\352s\262\220\352\212\337bm"
 384      EF7C5904 
 384      EEEA73B2 
 384      90EA8ADF 
 384      626D
 385 0e47 F11D94E4 		.ascii	"\361\035\224\344\247\214\341\247\214\345\247\334\317"
 385      A78CE1A7 
 385      8CE5A7DC 
 385      CF
 386 0e54 4F19C74F 		.ascii	"O\031\307O\031\317\327\204o\303\35136$\326\212\021\310"
 386      19CFD784 
 386      6FC3E933 
 386      3624D68A 
 386      11C8
 387 0e66 83BB6C09 		.ascii	"\203\273l\011I\037\025Ayj\323\244(W'<\241_\201`\371"
 387      491F1541 
 387      796AD3A4 
 387      2857273C 
 387      A15F8160 
 388 0e7b 21C2359C 		.ascii	"!\3025\234L\212\222\014\326\236\014\015\376\000n\255"
 388      4C8A920C 
 388      D69E0C0D 
 388      FE006EAD 
 389 0e8b 4EE6AA3F 		.ascii	"N\346\252?~\015\271\230\247>>Z\011\035\001d\314$\360"
 389      7E0DB998 
 389      A73E3E5A 
 389      091D0164 
 389      CC24F0
 390 0e9e C5E3A2AC 		.ascii	"\305\343\242\2546{f\210\372\361\351\251\317\212\021"
 390      367B6688 
 390      FAF1E9A9 
 390      CF8A11
 391 0ead F9895854 		.ascii	"\371\211XT\016\020D\314)\007?\371q\025\011'\305\034"
 391      0E1044CC 
 391      29073FF9 
 391      71150927 
 391      C51C
 392 0ebf 1C461EC2 		.ascii	"\034F\036\302\033\336\205\245R\260\204O\223:/\021\226"
 392      1BDE85A5 
ARM GAS  /tmp/cc9zij47.s 			page 31


 392      52B0844F 
 392      933A2F11 
 392      96
 393 0ed0 65518A61 		.ascii	"eQ\212a\252\200.\360\330;\212\245xiX\016\027\3237\243"
 393      AA802EF0 
 393      D83B8AA5 
 393      7869580E 
 393      17D337A3 
 394 0ee4 31AB7B8B 		.ascii	"1\253{\213\302X\222\260\034\215\307\212\302\261\322"
 394      C25892B0 
 394      1C8DC78A 
 394      C2B1D2
 395 0ef3 A232295C 		.ascii	"\2422)\\^\005\216U\337\340\306\350\377L6\264\215"
 395      5E058E55 
 395      DFE0C6E8 
 395      FF4C36B4 
 395      8D
 396              		.text
 397              		.section	.gnu.lto_.symtab.85edd30e49bc20fd,"",%progbits
 398 0000 5F746573 		.ascii	"_test_assert\000\000\002\000\000\000\000\000\000\000"
 398      745F6173 
 398      73657274 
 398      00000200 
 398      00000000 
 399 0016 00009501 		.ascii	"\000\000\225\001\000\000chHeapStatus\000\000\002\000"
 399      00006368 
 399      48656170 
 399      53746174 
 399      75730000 
 400 002c 00000000 		.ascii	"\000\000\000\000\000\000\000\000\235\001\000\000chH"
 400      00000000 
 400      9D010000 
 400      636848
 401 003b 65617046 		.ascii	"eapFree\000\000\002\000\000\000\000\000\000\000\000"
 401      72656500 
 401      00020000 
 401      00000000 
 401      0000
 402 004d 00A30100 		.ascii	"\000\243\001\000\000chHeapAlloc\000\000\002\000\000"
 402      00636848 
 402      65617041 
 402      6C6C6F63 
 402      00000200 
 403 0062 00000000 		.ascii	"\000\000\000\000\000\000\000\247\001\000\000chCoreG"
 403      000000A7 
 403      01000063 
 403      68436F72 
 403      6547
 404 0074 65745374 		.ascii	"etStatusX\000\000\002\000\000\000\000\000\000\000\000"
 404      61747573 
 404      58000002 
 404      00000000 
 404      00000000 
 405 0088 00AC0100 		.ascii	"\000\254\001\000\000chHeapObjectInit\000\000\002\000"
 405      00636848 
 405      6561704F 
 405      626A6563 
ARM GAS  /tmp/cc9zij47.s 			page 32


 405      74496E69 
 406 00a1 00000000 		.ascii	"\000\000\000\000\000\000\000\000\257\001\000\000pat"
 406      00000000 
 406      AF010000 
 406      706174
 407 00b0 7465726E 		.ascii	"ternheap\000\000\000\000\000\000\000\000\000\000\000"
 407      68656170 
 407      00000000 
 407      00000000 
 407      000000
 408 00c3 00B90100 		.ascii	"\000\271\001\000\000testheap1\000\000\000\000\000\000"
 408      00746573 
 408      74686561 
 408      70310000 
 408      00000000 
 409 00d7 00000000 		.ascii	"\000\000\000\000\000\000\317\001\000\000test\000\000"
 409      0000CF01 
 409      00007465 
 409      73740000 
 410 00e7 02000000 		.ascii	"\002\000\000\000\000\000\000\000\000\000\267\001\000"
 410      00000000 
 410      0000B701 
 410      00
 411 00f4 00       		.ascii	"\000"
 412              		.text
 413              		.section	.gnu.lto_.opts,"",%progbits
 414 0000 272D6D63 		.ascii	"'-mcpu=cortex-m4''-mno-thumb-interwork''-mthumb''-g"
 414      70753D63 
 414      6F727465 
 414      782D6D34 
 414      27272D6D 
 415 0033 67646227 		.ascii	"gdb''-O2''-fomit-frame-pointer''-falign-functions=1"
 415      272D4F32 
 415      27272D66 
 415      6F6D6974 
 415      2D667261 
 416 0066 3627272D 		.ascii	"6''-ffunction-sections''-fdata-sections''-fno-commo"
 416      6666756E 
 416      6374696F 
 416      6E2D7365 
 416      6374696F 
 417 0099 6E27272D 		.ascii	"n''-flto'\000"
 417      666C746F 
 417      2700
 418              		.text
 419              		.cfi_sections	.debug_frame
 420              		.section	.text.heap1_execute,"ax",%progbits
 421              		.align	2
 422              		.p2align 4,,15
 423              		.thumb
 424              		.thumb_func
 425              		.type	heap1_execute, %function
 426              	heap1_execute:
 427              	.LFB242:
 428              		.file 1 "../../../test/rt/testheap.c"
 429              		.loc 1 69 0
 430              		.cfi_startproc
ARM GAS  /tmp/cc9zij47.s 			page 33


 431              		@ args = 0, pretend = 0, frame = 8
 432              		@ frame_needed = 0, uses_anonymous_args = 0
 433 0000 70B5     		push	{r4, r5, r6, lr}
 434              	.LCFI0:
 435              		.cfi_def_cfa_offset 16
 436              		.cfi_offset 4, -16
 437              		.cfi_offset 5, -12
 438              		.cfi_offset 6, -8
 439              		.cfi_offset 14, -4
 440 0002 82B0     		sub	sp, sp, #8
 441              	.LCFI1:
 442              		.cfi_def_cfa_offset 24
 443              		.loc 1 74 0
 444 0004 FFF7FEFF 		bl	chCoreGetStatusX
 445              	.LVL0:
 446              		.loc 1 80 0
 447 0008 01A9     		add	r1, sp, #4
 448 000a 0020     		movs	r0, #0
 449 000c FFF7FEFF 		bl	chHeapStatus
 450              	.LVL1:
 451              		.loc 1 81 0
 452 0010 1021     		movs	r1, #16
 453 0012 0020     		movs	r0, #0
 454 0014 FFF7FEFF 		bl	chHeapAlloc
 455              	.LVL2:
 456              		.loc 1 82 0
 457 0018 011C     		adds	r1, r0, #0
 458 001a 18BF     		it	ne
 459 001c 0121     		movne	r1, #1
 460 001e 0446     		mov	r4, r0
 461 0020 0120     		movs	r0, #1
 462              	.LVL3:
 463 0022 FFF7FEFF 		bl	_test_assert
 464              	.LVL4:
 465 0026 0546     		mov	r5, r0
 466 0028 08B1     		cbz	r0, .L7
 467              	.LVL5:
 468              	.L1:
 469              		.loc 1 140 0
 470 002a 02B0     		add	sp, sp, #8
 471 002c 70BD     		pop	{r4, r5, r6, pc}
 472              	.LVL6:
 473              	.L7:
 474              		.loc 1 83 0
 475 002e 2046     		mov	r0, r4
 476 0030 FFF7FEFF 		bl	chHeapFree
 477              	.LVL7:
 478              		.loc 1 84 0
 479 0034 6FF0FF01 		mvn	r1, #255
 480 0038 2846     		mov	r0, r5
 481 003a FFF7FEFF 		bl	chHeapAlloc
 482              	.LVL8:
 483              		.loc 1 85 0
 484 003e D0F10101 		rsbs	r1, r0, #1
 485 0042 38BF     		it	cc
 486 0044 0021     		movcc	r1, #0
 487 0046 0220     		movs	r0, #2
ARM GAS  /tmp/cc9zij47.s 			page 34


 488              	.LVL9:
 489 0048 FFF7FEFF 		bl	_test_assert
 490              	.LVL10:
 491 004c 0028     		cmp	r0, #0
 492 004e ECD1     		bne	.L1
 493              		.loc 1 88 0
 494 0050 01A9     		add	r1, sp, #4
 495 0052 7C48     		ldr	r0, .L8
 496 0054 FFF7FEFF 		bl	chHeapStatus
 497              	.LVL11:
 498              		.loc 1 91 0
 499 0058 1021     		movs	r1, #16
 500 005a 7A48     		ldr	r0, .L8
 501 005c FFF7FEFF 		bl	chHeapAlloc
 502              	.LVL12:
 503              		.loc 1 92 0
 504 0060 1021     		movs	r1, #16
 505              		.loc 1 91 0
 506 0062 0546     		mov	r5, r0
 507              	.LVL13:
 508              		.loc 1 92 0
 509 0064 7748     		ldr	r0, .L8
 510              	.LVL14:
 511 0066 FFF7FEFF 		bl	chHeapAlloc
 512              	.LVL15:
 513              		.loc 1 93 0
 514 006a 1021     		movs	r1, #16
 515              		.loc 1 92 0
 516 006c 0446     		mov	r4, r0
 517              	.LVL16:
 518              		.loc 1 93 0
 519 006e 7548     		ldr	r0, .L8
 520              	.LVL17:
 521 0070 FFF7FEFF 		bl	chHeapAlloc
 522              	.LVL18:
 523 0074 0646     		mov	r6, r0
 524              	.LVL19:
 525              		.loc 1 94 0
 526 0076 2846     		mov	r0, r5
 527              	.LVL20:
 528 0078 FFF7FEFF 		bl	chHeapFree
 529              	.LVL21:
 530              		.loc 1 95 0
 531 007c 2046     		mov	r0, r4
 532 007e FFF7FEFF 		bl	chHeapFree
 533              	.LVL22:
 534              		.loc 1 96 0
 535 0082 3046     		mov	r0, r6
 536 0084 FFF7FEFF 		bl	chHeapFree
 537              	.LVL23:
 538              		.loc 1 97 0
 539 0088 6946     		mov	r1, sp
 540 008a 6E48     		ldr	r0, .L8
 541 008c FFF7FEFF 		bl	chHeapStatus
 542              	.LVL24:
 543 0090 B0F1010E 		subs	lr, r0, #1
 544 0094 DEF10001 		rsbs	r1, lr, #0
ARM GAS  /tmp/cc9zij47.s 			page 35


 545 0098 51EB0E01 		adcs	r1, r1, lr
 546 009c 0320     		movs	r0, #3
 547 009e FFF7FEFF 		bl	_test_assert
 548              	.LVL25:
 549 00a2 0028     		cmp	r0, #0
 550 00a4 C1D1     		bne	.L1
 551              		.loc 1 100 0
 552 00a6 1021     		movs	r1, #16
 553 00a8 6648     		ldr	r0, .L8
 554 00aa FFF7FEFF 		bl	chHeapAlloc
 555              	.LVL26:
 556              		.loc 1 101 0
 557 00ae 1021     		movs	r1, #16
 558              		.loc 1 100 0
 559 00b0 0446     		mov	r4, r0
 560              	.LVL27:
 561              		.loc 1 101 0
 562 00b2 6448     		ldr	r0, .L8
 563              	.LVL28:
 564 00b4 FFF7FEFF 		bl	chHeapAlloc
 565              	.LVL29:
 566              		.loc 1 102 0
 567 00b8 1021     		movs	r1, #16
 568              		.loc 1 101 0
 569 00ba 0546     		mov	r5, r0
 570              	.LVL30:
 571              		.loc 1 102 0
 572 00bc 6148     		ldr	r0, .L8
 573              	.LVL31:
 574 00be FFF7FEFF 		bl	chHeapAlloc
 575              	.LVL32:
 576              		.loc 1 103 0
 577 00c2 FFF7FEFF 		bl	chHeapFree
 578              	.LVL33:
 579              		.loc 1 104 0
 580 00c6 2846     		mov	r0, r5
 581 00c8 FFF7FEFF 		bl	chHeapFree
 582              	.LVL34:
 583              		.loc 1 105 0
 584 00cc 2046     		mov	r0, r4
 585 00ce FFF7FEFF 		bl	chHeapFree
 586              	.LVL35:
 587              		.loc 1 106 0
 588 00d2 6946     		mov	r1, sp
 589 00d4 5B48     		ldr	r0, .L8
 590 00d6 FFF7FEFF 		bl	chHeapStatus
 591              	.LVL36:
 592 00da 0138     		subs	r0, r0, #1
 593 00dc 4142     		rsbs	r1, r0, #0
 594 00de 4141     		adcs	r1, r1, r0
 595 00e0 0420     		movs	r0, #4
 596 00e2 FFF7FEFF 		bl	_test_assert
 597              	.LVL37:
 598 00e6 0028     		cmp	r0, #0
 599 00e8 9FD1     		bne	.L1
 600              		.loc 1 109 0
 601 00ea 1121     		movs	r1, #17
ARM GAS  /tmp/cc9zij47.s 			page 36


 602 00ec 5548     		ldr	r0, .L8
 603 00ee FFF7FEFF 		bl	chHeapAlloc
 604              	.LVL38:
 605              		.loc 1 110 0
 606 00f2 1021     		movs	r1, #16
 607              		.loc 1 109 0
 608 00f4 0446     		mov	r4, r0
 609              	.LVL39:
 610              		.loc 1 110 0
 611 00f6 5348     		ldr	r0, .L8
 612              	.LVL40:
 613 00f8 FFF7FEFF 		bl	chHeapAlloc
 614              	.LVL41:
 615 00fc 0546     		mov	r5, r0
 616              	.LVL42:
 617              		.loc 1 111 0
 618 00fe 2046     		mov	r0, r4
 619              	.LVL43:
 620 0100 FFF7FEFF 		bl	chHeapFree
 621              	.LVL44:
 622              		.loc 1 112 0
 623 0104 6946     		mov	r1, sp
 624 0106 4F48     		ldr	r0, .L8
 625 0108 FFF7FEFF 		bl	chHeapStatus
 626              	.LVL45:
 627 010c 821E     		subs	r2, r0, #2
 628 010e 5142     		rsbs	r1, r2, #0
 629 0110 5141     		adcs	r1, r1, r2
 630 0112 0520     		movs	r0, #5
 631 0114 FFF7FEFF 		bl	_test_assert
 632              	.LVL46:
 633 0118 0028     		cmp	r0, #0
 634 011a 86D1     		bne	.L1
 635              		.loc 1 113 0
 636 011c 1021     		movs	r1, #16
 637 011e 4948     		ldr	r0, .L8
 638 0120 FFF7FEFF 		bl	chHeapAlloc
 639              	.LVL47:
 640              		.loc 1 116 0
 641 0124 6946     		mov	r1, sp
 642              		.loc 1 113 0
 643 0126 0446     		mov	r4, r0
 644              	.LVL48:
 645              		.loc 1 116 0
 646 0128 4648     		ldr	r0, .L8
 647              	.LVL49:
 648 012a FFF7FEFF 		bl	chHeapStatus
 649              	.LVL50:
 650 012e 0128     		cmp	r0, #1
 651 0130 08BF     		it	eq
 652 0132 0146     		moveq	r1, r0
 653 0134 06D0     		beq	.L3
 654              		.loc 1 116 0 is_stmt 0 discriminator 2
 655 0136 6946     		mov	r1, sp
 656 0138 4248     		ldr	r0, .L8
 657 013a FFF7FEFF 		bl	chHeapStatus
 658              	.LVL51:
ARM GAS  /tmp/cc9zij47.s 			page 37


 659 013e 831E     		subs	r3, r0, #2
 660 0140 5942     		rsbs	r1, r3, #0
 661 0142 5941     		adcs	r1, r1, r3
 662              	.L3:
 663              		.loc 1 116 0 discriminator 4
 664 0144 0620     		movs	r0, #6
 665 0146 FFF7FEFF 		bl	_test_assert
 666              	.LVL52:
 667 014a 0028     		cmp	r0, #0
 668 014c 7FF46DAF 		bne	.L1
 669              		.loc 1 118 0 is_stmt 1
 670 0150 2846     		mov	r0, r5
 671 0152 FFF7FEFF 		bl	chHeapFree
 672              	.LVL53:
 673              		.loc 1 119 0
 674 0156 2046     		mov	r0, r4
 675 0158 FFF7FEFF 		bl	chHeapFree
 676              	.LVL54:
 677              		.loc 1 120 0
 678 015c 6946     		mov	r1, sp
 679 015e 3948     		ldr	r0, .L8
 680 0160 FFF7FEFF 		bl	chHeapStatus
 681              	.LVL55:
 682 0164 B0F1010C 		subs	ip, r0, #1
 683 0168 DCF10001 		rsbs	r1, ip, #0
 684 016c 51EB0C01 		adcs	r1, r1, ip
 685 0170 0720     		movs	r0, #7
 686 0172 FFF7FEFF 		bl	_test_assert
 687              	.LVL56:
 688 0176 0028     		cmp	r0, #0
 689 0178 7FF457AF 		bne	.L1
 690              		.loc 1 123 0
 691 017c 1021     		movs	r1, #16
 692 017e 3148     		ldr	r0, .L8
 693 0180 FFF7FEFF 		bl	chHeapAlloc
 694              	.LVL57:
 695              		.loc 1 124 0
 696 0184 1021     		movs	r1, #16
 697              		.loc 1 123 0
 698 0186 0546     		mov	r5, r0
 699              	.LVL58:
 700              		.loc 1 124 0
 701 0188 2E48     		ldr	r0, .L8
 702              	.LVL59:
 703 018a FFF7FEFF 		bl	chHeapAlloc
 704              	.LVL60:
 705 018e 0446     		mov	r4, r0
 706              	.LVL61:
 707              		.loc 1 125 0
 708 0190 2846     		mov	r0, r5
 709              	.LVL62:
 710 0192 FFF7FEFF 		bl	chHeapFree
 711              	.LVL63:
 712              		.loc 1 126 0
 713 0196 6946     		mov	r1, sp
 714 0198 2A48     		ldr	r0, .L8
 715 019a FFF7FEFF 		bl	chHeapStatus
ARM GAS  /tmp/cc9zij47.s 			page 38


 716              	.LVL64:
 717 019e B0F1020E 		subs	lr, r0, #2
 718 01a2 DEF10001 		rsbs	r1, lr, #0
 719 01a6 51EB0E01 		adcs	r1, r1, lr
 720 01aa 0820     		movs	r0, #8
 721 01ac FFF7FEFF 		bl	_test_assert
 722              	.LVL65:
 723 01b0 0028     		cmp	r0, #0
 724 01b2 7FF43AAF 		bne	.L1
 725              		.loc 1 127 0
 726 01b6 2021     		movs	r1, #32
 727 01b8 2248     		ldr	r0, .L8
 728 01ba FFF7FEFF 		bl	chHeapAlloc
 729              	.LVL66:
 730              		.loc 1 128 0
 731 01be FFF7FEFF 		bl	chHeapFree
 732              	.LVL67:
 733              		.loc 1 129 0
 734 01c2 2046     		mov	r0, r4
 735 01c4 FFF7FEFF 		bl	chHeapFree
 736              	.LVL68:
 737              		.loc 1 130 0
 738 01c8 6946     		mov	r1, sp
 739 01ca 1E48     		ldr	r0, .L8
 740 01cc FFF7FEFF 		bl	chHeapStatus
 741              	.LVL69:
 742 01d0 0138     		subs	r0, r0, #1
 743 01d2 4142     		rsbs	r1, r0, #0
 744 01d4 4141     		adcs	r1, r1, r0
 745 01d6 0920     		movs	r0, #9
 746 01d8 FFF7FEFF 		bl	_test_assert
 747              	.LVL70:
 748 01dc 0028     		cmp	r0, #0
 749 01de 7FF424AF 		bne	.L1
 750              		.loc 1 133 0
 751 01e2 6946     		mov	r1, sp
 752 01e4 1748     		ldr	r0, .L8
 753 01e6 FFF7FEFF 		bl	chHeapStatus
 754              	.LVL71:
 755              		.loc 1 134 0
 756 01ea 0099     		ldr	r1, [sp, #0]
 757 01ec 1548     		ldr	r0, .L8
 758 01ee FFF7FEFF 		bl	chHeapAlloc
 759              	.LVL72:
 760              		.loc 1 135 0
 761 01f2 6946     		mov	r1, sp
 762              		.loc 1 134 0
 763 01f4 0446     		mov	r4, r0
 764              	.LVL73:
 765              		.loc 1 135 0
 766 01f6 1348     		ldr	r0, .L8
 767              	.LVL74:
 768 01f8 FFF7FEFF 		bl	chHeapStatus
 769              	.LVL75:
 770 01fc D0F10101 		rsbs	r1, r0, #1
 771 0200 38BF     		it	cc
 772 0202 0021     		movcc	r1, #0
ARM GAS  /tmp/cc9zij47.s 			page 39


 773 0204 0A20     		movs	r0, #10
 774 0206 FFF7FEFF 		bl	_test_assert
 775              	.LVL76:
 776 020a 0028     		cmp	r0, #0
 777 020c 7FF40DAF 		bne	.L1
 778              		.loc 1 136 0
 779 0210 2046     		mov	r0, r4
 780 0212 FFF7FEFF 		bl	chHeapFree
 781              	.LVL77:
 782              		.loc 1 138 0
 783 0216 6946     		mov	r1, sp
 784 0218 0A48     		ldr	r0, .L8
 785 021a FFF7FEFF 		bl	chHeapStatus
 786              	.LVL78:
 787 021e 421E     		subs	r2, r0, #1
 788 0220 5142     		rsbs	r1, r2, #0
 789 0222 5141     		adcs	r1, r1, r2
 790 0224 0B20     		movs	r0, #11
 791 0226 FFF7FEFF 		bl	_test_assert
 792              	.LVL79:
 793 022a 0028     		cmp	r0, #0
 794 022c 7FF4FDAE 		bne	.L1
 795              	.LVL80:
 796              		.loc 1 139 0
 797 0230 9DE80A00 		ldmia	sp, {r1, r3}
 798 0234 0C20     		movs	r0, #12
 799 0236 CB1A     		subs	r3, r1, r3
 800              	.LVL81:
 801 0238 5942     		rsbs	r1, r3, #0
 802              	.LVL82:
 803 023a 5941     		adcs	r1, r1, r3
 804 023c FFF7FEFF 		bl	_test_assert
 805              	.LVL83:
 806 0240 F3E6     		b	.L1
 807              	.L9:
 808 0242 00BF     		.align	2
 809              	.L8:
 810 0244 00000000 		.word	.LANCHOR0
 811              		.cfi_endproc
 812              	.LFE242:
 813              		.size	heap1_execute, .-heap1_execute
 814 0248 AFF30080 		.section	.text.heap1_setup,"ax",%progbits
 814      AFF30080 
 815              		.align	2
 816              		.p2align 4,,15
 817              		.thumb
 818              		.thumb_func
 819              		.type	heap1_setup, %function
 820              	heap1_setup:
 821              	.LFB241:
 822              		.loc 1 64 0
 823              		.cfi_startproc
 824              		@ args = 0, pretend = 0, frame = 0
 825              		@ frame_needed = 0, uses_anonymous_args = 0
 826              		@ link register save eliminated.
 827              		.loc 1 66 0
 828 0000 40F20000 		movw	r0, #:lower16:.LANCHOR0
ARM GAS  /tmp/cc9zij47.s 			page 40


 829 0004 40F20001 		movw	r1, #:lower16:test
 830 0008 C0F20000 		movt	r0, #:upper16:.LANCHOR0
 831 000c C0F20001 		movt	r1, #:upper16:test
 832 0010 4FF4CD62 		mov	r2, #1640
 833              		.loc 1 67 0
 834              		.loc 1 66 0
 835 0014 FFF7FEBF 		b	chHeapObjectInit
 836              	.LVL84:
 837              		.cfi_endproc
 838              	.LFE241:
 839              		.size	heap1_setup, .-heap1_setup
 840              		.global	patternheap
 841              		.global	testheap1
 842 0018 AFF30080 		.section	.rodata.patternheap,"a",%progbits
 842      AFF30080 
 843              		.align	2
 844              		.type	patternheap, %object
 845              		.size	patternheap, 8
 846              	patternheap:
 847 0000 00000000 		.word	testheap1
 848 0004 00000000 		.word	0
 849              		.section	.rodata.str1.4,"aMS",%progbits,1
 850              		.align	2
 851              	.LC0:
 852 0000 48656170 		.ascii	"Heap, allocation and fragmentation test\000"
 852      2C20616C 
 852      6C6F6361 
 852      74696F6E 
 852      20616E64 
 853              		.section	.rodata.testheap1,"a",%progbits
 854              		.align	2
 855              		.type	testheap1, %object
 856              		.size	testheap1, 16
 857              	testheap1:
 858 0000 00000000 		.word	.LC0
 859 0004 00000000 		.word	heap1_setup
 860 0008 00000000 		.word	0
 861 000c 00000000 		.word	heap1_execute
 862              		.section	.bss.test_heap,"aw",%nobits
 863              		.align	3
 864              		.set	.LANCHOR0,. + 0
 865              		.type	test_heap, %object
 866              		.size	test_heap, 32
 867              	test_heap:
 868 0000 00000000 		.space	32
 868      00000000 
 868      00000000 
 868      00000000 
 868      00000000 
 869              		.text
 870              	.Letext0:
 871              		.file 2 "/usr/local/bin/../lib/gcc/arm-none-eabi/4.7.2/include/stddef.h"
 872              		.file 3 "/usr/local/bin/../lib/gcc/arm-none-eabi/4.7.2/../../../../arm-none-eabi/include/stdint.h"
 873              		.file 4 "../../../os/rt/ports/ARMCMx/compilers/GCC/chtypes.h"
 874              		.file 5 "../../../os/rt/include/chsystypes.h"
 875              		.file 6 "../../../os/rt/include/chschd.h"
 876              		.file 7 "../../../os/rt/ports/ARMCMx/chcore.h"
ARM GAS  /tmp/cc9zij47.s 			page 41


 877              		.file 8 "../../../os/rt/ports/ARMCMx/chcore_v7m.h"
 878              		.file 9 "../../../os/rt/include/chtm.h"
 879              		.file 10 "../../../os/rt/include/chsem.h"
 880              		.file 11 "../../../os/rt/include/chmtx.h"
 881              		.file 12 "../../../os/rt/include/chmemcore.h"
 882              		.file 13 "../../../os/rt/include/chheap.h"
 883              		.file 14 "../../../test/rt/test.h"
 884              		.file 15 "../../../os/ext/CMSIS/include/core_cm4.h"
 885              		.section	.debug_info,"",%progbits
 886              	.Ldebug_info0:
 887 0000 DF0E0000 		.4byte	0xedf
 888 0004 0200     		.2byte	0x2
 889 0006 00000000 		.4byte	.Ldebug_abbrev0
 890 000a 04       		.byte	0x4
 891 000b 01       		.uleb128 0x1
 892 000c 6A010000 		.4byte	.LASF127
 893 0010 01       		.byte	0x1
 894 0011 14040000 		.4byte	.LASF128
 895 0015 E6040000 		.4byte	.LASF129
 896 0019 00000000 		.4byte	.Ldebug_ranges0+0
 897 001d 00000000 		.4byte	0
 898 0021 00000000 		.4byte	0
 899 0025 00000000 		.4byte	.Ldebug_line0
 900 0029 02       		.uleb128 0x2
 901 002a 04       		.byte	0x4
 902 002b 05       		.byte	0x5
 903 002c 696E7400 		.ascii	"int\000"
 904 0030 03       		.uleb128 0x3
 905 0031 07020000 		.4byte	.LASF2
 906 0035 02       		.byte	0x2
 907 0036 D5       		.byte	0xd5
 908 0037 3B000000 		.4byte	0x3b
 909 003b 04       		.uleb128 0x4
 910 003c 04       		.byte	0x4
 911 003d 07       		.byte	0x7
 912 003e 83000000 		.4byte	.LASF0
 913 0042 04       		.uleb128 0x4
 914 0043 01       		.byte	0x1
 915 0044 06       		.byte	0x6
 916 0045 58050000 		.4byte	.LASF1
 917 0049 03       		.uleb128 0x3
 918 004a 8A020000 		.4byte	.LASF3
 919 004e 03       		.byte	0x3
 920 004f 2A       		.byte	0x2a
 921 0050 54000000 		.4byte	0x54
 922 0054 04       		.uleb128 0x4
 923 0055 01       		.byte	0x1
 924 0056 08       		.byte	0x8
 925 0057 A0040000 		.4byte	.LASF4
 926 005b 04       		.uleb128 0x4
 927 005c 02       		.byte	0x2
 928 005d 05       		.byte	0x5
 929 005e 9F030000 		.4byte	.LASF5
 930 0062 04       		.uleb128 0x4
 931 0063 02       		.byte	0x2
 932 0064 07       		.byte	0x7
 933 0065 64050000 		.4byte	.LASF6
ARM GAS  /tmp/cc9zij47.s 			page 42


 934 0069 03       		.uleb128 0x3
 935 006a 89040000 		.4byte	.LASF7
 936 006e 03       		.byte	0x3
 937 006f 4F       		.byte	0x4f
 938 0070 74000000 		.4byte	0x74
 939 0074 04       		.uleb128 0x4
 940 0075 04       		.byte	0x4
 941 0076 05       		.byte	0x5
 942 0077 D2030000 		.4byte	.LASF8
 943 007b 03       		.uleb128 0x3
 944 007c 41010000 		.4byte	.LASF9
 945 0080 03       		.byte	0x3
 946 0081 50       		.byte	0x50
 947 0082 86000000 		.4byte	0x86
 948 0086 04       		.uleb128 0x4
 949 0087 04       		.byte	0x4
 950 0088 07       		.byte	0x7
 951 0089 6A040000 		.4byte	.LASF10
 952 008d 04       		.uleb128 0x4
 953 008e 08       		.byte	0x8
 954 008f 05       		.byte	0x5
 955 0090 D7020000 		.4byte	.LASF11
 956 0094 03       		.uleb128 0x3
 957 0095 05040000 		.4byte	.LASF12
 958 0099 03       		.byte	0x3
 959 009a 78       		.byte	0x78
 960 009b 9F000000 		.4byte	0x9f
 961 009f 04       		.uleb128 0x4
 962 00a0 08       		.byte	0x8
 963 00a1 07       		.byte	0x7
 964 00a2 A3010000 		.4byte	.LASF13
 965 00a6 03       		.uleb128 0x3
 966 00a7 8C030000 		.4byte	.LASF14
 967 00ab 04       		.byte	0x4
 968 00ac 39       		.byte	0x39
 969 00ad 7B000000 		.4byte	0x7b
 970 00b1 03       		.uleb128 0x3
 971 00b2 68030000 		.4byte	.LASF15
 972 00b6 04       		.byte	0x4
 973 00b7 3C       		.byte	0x3c
 974 00b8 49000000 		.4byte	0x49
 975 00bc 03       		.uleb128 0x3
 976 00bd 71020000 		.4byte	.LASF16
 977 00c1 04       		.byte	0x4
 978 00c2 3D       		.byte	0x3d
 979 00c3 49000000 		.4byte	0x49
 980 00c7 03       		.uleb128 0x3
 981 00c8 62040000 		.4byte	.LASF17
 982 00cc 04       		.byte	0x4
 983 00cd 3E       		.byte	0x3e
 984 00ce 49000000 		.4byte	0x49
 985 00d2 03       		.uleb128 0x3
 986 00d3 8A010000 		.4byte	.LASF18
 987 00d7 04       		.byte	0x4
 988 00d8 40       		.byte	0x40
 989 00d9 7B000000 		.4byte	0x7b
 990 00dd 03       		.uleb128 0x3
ARM GAS  /tmp/cc9zij47.s 			page 43


 991 00de F5020000 		.4byte	.LASF19
 992 00e2 04       		.byte	0x4
 993 00e3 41       		.byte	0x41
 994 00e4 69000000 		.4byte	0x69
 995 00e8 03       		.uleb128 0x3
 996 00e9 57010000 		.4byte	.LASF20
 997 00ed 04       		.byte	0x4
 998 00ee 43       		.byte	0x43
 999 00ef 7B000000 		.4byte	0x7b
 1000 00f3 03       		.uleb128 0x3
 1001 00f4 C4010000 		.4byte	.LASF21
 1002 00f8 04       		.byte	0x4
 1003 00f9 45       		.byte	0x45
 1004 00fa 69000000 		.4byte	0x69
 1005 00fe 03       		.uleb128 0x3
 1006 00ff 57000000 		.4byte	.LASF22
 1007 0103 05       		.byte	0x5
 1008 0104 33       		.byte	0x33
 1009 0105 7B000000 		.4byte	0x7b
 1010 0109 03       		.uleb128 0x3
 1011 010a F2010000 		.4byte	.LASF23
 1012 010e 05       		.byte	0x5
 1013 010f 3F       		.byte	0x3f
 1014 0110 14010000 		.4byte	0x114
 1015 0114 05       		.uleb128 0x5
 1016 0115 B0020000 		.4byte	.LASF43
 1017 0119 44       		.byte	0x44
 1018 011a 06       		.byte	0x6
 1019 011b C2       		.byte	0xc2
 1020 011c 25020000 		.4byte	0x225
 1021 0120 06       		.uleb128 0x6
 1022 0121 FE030000 		.4byte	.LASF24
 1023 0125 06       		.byte	0x6
 1024 0126 C3       		.byte	0xc3
 1025 0127 30020000 		.4byte	0x230
 1026 012b 02       		.byte	0x2
 1027 012c 23       		.byte	0x23
 1028 012d 00       		.uleb128 0
 1029 012e 06       		.uleb128 0x6
 1030 012f 48040000 		.4byte	.LASF25
 1031 0133 06       		.byte	0x6
 1032 0134 C5       		.byte	0xc5
 1033 0135 30020000 		.4byte	0x230
 1034 0139 02       		.byte	0x2
 1035 013a 23       		.byte	0x23
 1036 013b 04       		.uleb128 0x4
 1037 013c 06       		.uleb128 0x6
 1038 013d 50000000 		.4byte	.LASF26
 1039 0141 06       		.byte	0x6
 1040 0142 C7       		.byte	0xc7
 1041 0143 D2000000 		.4byte	0xd2
 1042 0147 02       		.byte	0x2
 1043 0148 23       		.byte	0x23
 1044 0149 08       		.uleb128 0x8
 1045 014a 06       		.uleb128 0x6
 1046 014b 0E040000 		.4byte	.LASF27
 1047 014f 06       		.byte	0x6
ARM GAS  /tmp/cc9zij47.s 			page 44


 1048 0150 C8       		.byte	0xc8
 1049 0151 93040000 		.4byte	0x493
 1050 0155 02       		.byte	0x2
 1051 0156 23       		.byte	0x23
 1052 0157 0C       		.uleb128 0xc
 1053 0158 06       		.uleb128 0x6
 1054 0159 D3010000 		.4byte	.LASF28
 1055 015d 06       		.byte	0x6
 1056 015e CA       		.byte	0xca
 1057 015f 30020000 		.4byte	0x230
 1058 0163 02       		.byte	0x2
 1059 0164 23       		.byte	0x23
 1060 0165 10       		.uleb128 0x10
 1061 0166 06       		.uleb128 0x6
 1062 0167 7A020000 		.4byte	.LASF29
 1063 016b 06       		.byte	0x6
 1064 016c CB       		.byte	0xcb
 1065 016d 30020000 		.4byte	0x230
 1066 0171 02       		.byte	0x2
 1067 0172 23       		.byte	0x23
 1068 0173 14       		.uleb128 0x14
 1069 0174 06       		.uleb128 0x6
 1070 0175 2B020000 		.4byte	.LASF30
 1071 0179 06       		.byte	0x6
 1072 017a D2       		.byte	0xd2
 1073 017b 32060000 		.4byte	0x632
 1074 017f 02       		.byte	0x2
 1075 0180 23       		.byte	0x23
 1076 0181 18       		.uleb128 0x18
 1077 0182 06       		.uleb128 0x6
 1078 0183 82020000 		.4byte	.LASF31
 1079 0187 06       		.byte	0x6
 1080 0188 DD       		.byte	0xdd
 1081 0189 BC000000 		.4byte	0xbc
 1082 018d 02       		.byte	0x2
 1083 018e 23       		.byte	0x23
 1084 018f 1C       		.uleb128 0x1c
 1085 0190 06       		.uleb128 0x6
 1086 0191 25030000 		.4byte	.LASF32
 1087 0195 06       		.byte	0x6
 1088 0196 E1       		.byte	0xe1
 1089 0197 B1000000 		.4byte	0xb1
 1090 019b 02       		.byte	0x2
 1091 019c 23       		.byte	0x23
 1092 019d 1D       		.uleb128 0x1d
 1093 019e 06       		.uleb128 0x6
 1094 019f CA040000 		.4byte	.LASF33
 1095 01a3 06       		.byte	0x6
 1096 01a4 E6       		.byte	0xe6
 1097 01a5 C7000000 		.4byte	0xc7
 1098 01a9 02       		.byte	0x2
 1099 01aa 23       		.byte	0x23
 1100 01ab 1E       		.uleb128 0x1e
 1101 01ac 07       		.uleb128 0x7
 1102 01ad 705F7500 		.ascii	"p_u\000"
 1103 01b1 06       		.byte	0x6
 1104 01b2 3101     		.2byte	0x131
ARM GAS  /tmp/cc9zij47.s 			page 45


 1105 01b4 63050000 		.4byte	0x563
 1106 01b8 02       		.byte	0x2
 1107 01b9 23       		.byte	0x23
 1108 01ba 20       		.uleb128 0x20
 1109 01bb 08       		.uleb128 0x8
 1110 01bc 20000000 		.4byte	.LASF34
 1111 01c0 06       		.byte	0x6
 1112 01c1 3601     		.2byte	0x136
 1113 01c3 36020000 		.4byte	0x236
 1114 01c7 02       		.byte	0x2
 1115 01c8 23       		.byte	0x23
 1116 01c9 24       		.uleb128 0x24
 1117 01ca 08       		.uleb128 0x8
 1118 01cb 78000000 		.4byte	.LASF35
 1119 01cf 06       		.byte	0x6
 1120 01d0 3C01     		.2byte	0x13c
 1121 01d2 5C020000 		.4byte	0x25c
 1122 01d6 02       		.byte	0x2
 1123 01d7 23       		.byte	0x23
 1124 01d8 28       		.uleb128 0x28
 1125 01d9 08       		.uleb128 0x8
 1126 01da 62030000 		.4byte	.LASF36
 1127 01de 06       		.byte	0x6
 1128 01df 4001     		.2byte	0x140
 1129 01e1 DD000000 		.4byte	0xdd
 1130 01e5 02       		.byte	0x2
 1131 01e6 23       		.byte	0x23
 1132 01e7 30       		.uleb128 0x30
 1133 01e8 08       		.uleb128 0x8
 1134 01e9 BF030000 		.4byte	.LASF37
 1135 01ed 06       		.byte	0x6
 1136 01ee 4601     		.2byte	0x146
 1137 01f0 E8000000 		.4byte	0xe8
 1138 01f4 02       		.byte	0x2
 1139 01f5 23       		.byte	0x23
 1140 01f6 34       		.uleb128 0x34
 1141 01f7 08       		.uleb128 0x8
 1142 01f8 A6020000 		.4byte	.LASF38
 1143 01fc 06       		.byte	0x6
 1144 01fd 4D01     		.2byte	0x14d
 1145 01ff 2C060000 		.4byte	0x62c
 1146 0203 02       		.byte	0x2
 1147 0204 23       		.byte	0x23
 1148 0205 38       		.uleb128 0x38
 1149 0206 08       		.uleb128 0x8
 1150 0207 94030000 		.4byte	.LASF39
 1151 020b 06       		.byte	0x6
 1152 020c 5101     		.2byte	0x151
 1153 020e D2000000 		.4byte	0xd2
 1154 0212 02       		.byte	0x2
 1155 0213 23       		.byte	0x23
 1156 0214 3C       		.uleb128 0x3c
 1157 0215 08       		.uleb128 0x8
 1158 0216 9E020000 		.4byte	.LASF40
 1159 021a 06       		.byte	0x6
 1160 021b 5801     		.2byte	0x158
 1161 021d 20030000 		.4byte	0x320
ARM GAS  /tmp/cc9zij47.s 			page 46


 1162 0221 02       		.byte	0x2
 1163 0222 23       		.byte	0x23
 1164 0223 40       		.uleb128 0x40
 1165 0224 00       		.byte	0
 1166 0225 03       		.uleb128 0x3
 1167 0226 52020000 		.4byte	.LASF41
 1168 022a 05       		.byte	0x5
 1169 022b 44       		.byte	0x44
 1170 022c 30020000 		.4byte	0x230
 1171 0230 09       		.uleb128 0x9
 1172 0231 04       		.byte	0x4
 1173 0232 09010000 		.4byte	0x109
 1174 0236 03       		.uleb128 0x3
 1175 0237 A1000000 		.4byte	.LASF42
 1176 023b 05       		.byte	0x5
 1177 023c 49       		.byte	0x49
 1178 023d 41020000 		.4byte	0x241
 1179 0241 05       		.uleb128 0x5
 1180 0242 00000000 		.4byte	.LASF44
 1181 0246 04       		.byte	0x4
 1182 0247 06       		.byte	0x6
 1183 0248 B0       		.byte	0xb0
 1184 0249 5C020000 		.4byte	0x25c
 1185 024d 06       		.uleb128 0x6
 1186 024e FE030000 		.4byte	.LASF24
 1187 0252 06       		.byte	0x6
 1188 0253 B1       		.byte	0xb1
 1189 0254 30020000 		.4byte	0x230
 1190 0258 02       		.byte	0x2
 1191 0259 23       		.byte	0x23
 1192 025a 00       		.uleb128 0
 1193 025b 00       		.byte	0
 1194 025c 03       		.uleb128 0x3
 1195 025d 10000000 		.4byte	.LASF45
 1196 0261 05       		.byte	0x5
 1197 0262 50       		.byte	0x50
 1198 0263 67020000 		.4byte	0x267
 1199 0267 05       		.uleb128 0x5
 1200 0268 00010000 		.4byte	.LASF46
 1201 026c 08       		.byte	0x8
 1202 026d 06       		.byte	0x6
 1203 026e B7       		.byte	0xb7
 1204 026f 90020000 		.4byte	0x290
 1205 0273 06       		.uleb128 0x6
 1206 0274 FE030000 		.4byte	.LASF24
 1207 0278 06       		.byte	0x6
 1208 0279 B8       		.byte	0xb8
 1209 027a 30020000 		.4byte	0x230
 1210 027e 02       		.byte	0x2
 1211 027f 23       		.byte	0x23
 1212 0280 00       		.uleb128 0
 1213 0281 06       		.uleb128 0x6
 1214 0282 48040000 		.4byte	.LASF25
 1215 0286 06       		.byte	0x6
 1216 0287 B9       		.byte	0xb9
 1217 0288 30020000 		.4byte	0x230
 1218 028c 02       		.byte	0x2
ARM GAS  /tmp/cc9zij47.s 			page 47


 1219 028d 23       		.byte	0x23
 1220 028e 04       		.uleb128 0x4
 1221 028f 00       		.byte	0
 1222 0290 03       		.uleb128 0x3
 1223 0291 7C040000 		.4byte	.LASF47
 1224 0295 05       		.byte	0x5
 1225 0296 57       		.byte	0x57
 1226 0297 9B020000 		.4byte	0x29b
 1227 029b 0A       		.uleb128 0xa
 1228 029c DC000000 		.4byte	.LASF48
 1229 02a0 1C       		.byte	0x1c
 1230 02a1 06       		.byte	0x6
 1231 02a2 9001     		.2byte	0x190
 1232 02a4 03030000 		.4byte	0x303
 1233 02a8 08       		.uleb128 0x8
 1234 02a9 E5020000 		.4byte	.LASF49
 1235 02ad 06       		.byte	0x6
 1236 02ae 9101     		.2byte	0x191
 1237 02b0 5C020000 		.4byte	0x25c
 1238 02b4 02       		.byte	0x2
 1239 02b5 23       		.byte	0x23
 1240 02b6 00       		.uleb128 0
 1241 02b7 08       		.uleb128 0x8
 1242 02b8 63010000 		.4byte	.LASF50
 1243 02bc 06       		.byte	0x6
 1244 02bd 9201     		.2byte	0x192
 1245 02bf D2000000 		.4byte	0xd2
 1246 02c3 02       		.byte	0x2
 1247 02c4 23       		.byte	0x23
 1248 02c5 08       		.uleb128 0x8
 1249 02c6 08       		.uleb128 0x8
 1250 02c7 77050000 		.4byte	.LASF51
 1251 02cb 06       		.byte	0x6
 1252 02cc 9401     		.2byte	0x194
 1253 02ce 93040000 		.4byte	0x493
 1254 02d2 02       		.byte	0x2
 1255 02d3 23       		.byte	0x23
 1256 02d4 0C       		.uleb128 0xc
 1257 02d5 08       		.uleb128 0x8
 1258 02d6 ED020000 		.4byte	.LASF52
 1259 02da 06       		.byte	0x6
 1260 02db 9701     		.2byte	0x197
 1261 02dd 30020000 		.4byte	0x230
 1262 02e1 02       		.byte	0x2
 1263 02e2 23       		.byte	0x23
 1264 02e3 10       		.uleb128 0x10
 1265 02e4 08       		.uleb128 0x8
 1266 02e5 42030000 		.4byte	.LASF53
 1267 02e9 06       		.byte	0x6
 1268 02ea 9801     		.2byte	0x198
 1269 02ec 30020000 		.4byte	0x230
 1270 02f0 02       		.byte	0x2
 1271 02f1 23       		.byte	0x23
 1272 02f2 14       		.uleb128 0x14
 1273 02f3 08       		.uleb128 0x8
 1274 02f4 B5030000 		.4byte	.LASF54
 1275 02f8 06       		.byte	0x6
ARM GAS  /tmp/cc9zij47.s 			page 48


 1276 02f9 9B01     		.2byte	0x19b
 1277 02fb 30020000 		.4byte	0x230
 1278 02ff 02       		.byte	0x2
 1279 0300 23       		.byte	0x23
 1280 0301 18       		.uleb128 0x18
 1281 0302 00       		.byte	0
 1282 0303 03       		.uleb128 0x3
 1283 0304 11010000 		.4byte	.LASF55
 1284 0308 05       		.byte	0x5
 1285 0309 5C       		.byte	0x5c
 1286 030a 0E030000 		.4byte	0x30e
 1287 030e 09       		.uleb128 0x9
 1288 030f 04       		.byte	0x4
 1289 0310 14030000 		.4byte	0x314
 1290 0314 0B       		.uleb128 0xb
 1291 0315 01       		.byte	0x1
 1292 0316 20030000 		.4byte	0x320
 1293 031a 0C       		.uleb128 0xc
 1294 031b 20030000 		.4byte	0x320
 1295 031f 00       		.byte	0
 1296 0320 0D       		.uleb128 0xd
 1297 0321 04       		.byte	0x4
 1298 0322 03       		.uleb128 0x3
 1299 0323 2D030000 		.4byte	.LASF56
 1300 0327 05       		.byte	0x5
 1301 0328 61       		.byte	0x61
 1302 0329 2D030000 		.4byte	0x32d
 1303 032d 0A       		.uleb128 0xa
 1304 032e 92010000 		.4byte	.LASF57
 1305 0332 14       		.byte	0x14
 1306 0333 06       		.byte	0x6
 1307 0334 6B01     		.2byte	0x16b
 1308 0336 86030000 		.4byte	0x386
 1309 033a 08       		.uleb128 0x8
 1310 033b DE040000 		.4byte	.LASF58
 1311 033f 06       		.byte	0x6
 1312 0340 6C01     		.2byte	0x16c
 1313 0342 44060000 		.4byte	0x644
 1314 0346 02       		.byte	0x2
 1315 0347 23       		.byte	0x23
 1316 0348 00       		.uleb128 0
 1317 0349 08       		.uleb128 0x8
 1318 034a 90050000 		.4byte	.LASF59
 1319 034e 06       		.byte	0x6
 1320 034f 6D01     		.2byte	0x16d
 1321 0351 44060000 		.4byte	0x644
 1322 0355 02       		.byte	0x2
 1323 0356 23       		.byte	0x23
 1324 0357 04       		.uleb128 0x4
 1325 0358 08       		.uleb128 0x8
 1326 0359 49020000 		.4byte	.LASF60
 1327 035d 06       		.byte	0x6
 1328 035e 6E01     		.2byte	0x16e
 1329 0360 FE000000 		.4byte	0xfe
 1330 0364 02       		.byte	0x2
 1331 0365 23       		.byte	0x23
 1332 0366 08       		.uleb128 0x8
ARM GAS  /tmp/cc9zij47.s 			page 49


 1333 0367 08       		.uleb128 0x8
 1334 0368 88050000 		.4byte	.LASF61
 1335 036c 06       		.byte	0x6
 1336 036d 6F01     		.2byte	0x16f
 1337 036f 03030000 		.4byte	0x303
 1338 0373 02       		.byte	0x2
 1339 0374 23       		.byte	0x23
 1340 0375 0C       		.uleb128 0xc
 1341 0376 08       		.uleb128 0x8
 1342 0377 76010000 		.4byte	.LASF62
 1343 037b 06       		.byte	0x6
 1344 037c 7101     		.2byte	0x171
 1345 037e 20030000 		.4byte	0x320
 1346 0382 02       		.byte	0x2
 1347 0383 23       		.byte	0x23
 1348 0384 10       		.uleb128 0x10
 1349 0385 00       		.byte	0
 1350 0386 03       		.uleb128 0x3
 1351 0387 B4040000 		.4byte	.LASF63
 1352 038b 05       		.byte	0x5
 1353 038c 66       		.byte	0x66
 1354 038d 91030000 		.4byte	0x391
 1355 0391 0A       		.uleb128 0xa
 1356 0392 DB010000 		.4byte	.LASF64
 1357 0396 10       		.byte	0x10
 1358 0397 06       		.byte	0x6
 1359 0398 7B01     		.2byte	0x17b
 1360 039a DB030000 		.4byte	0x3db
 1361 039e 08       		.uleb128 0x8
 1362 039f DE040000 		.4byte	.LASF58
 1363 03a3 06       		.byte	0x6
 1364 03a4 7C01     		.2byte	0x17c
 1365 03a6 44060000 		.4byte	0x644
 1366 03aa 02       		.byte	0x2
 1367 03ab 23       		.byte	0x23
 1368 03ac 00       		.uleb128 0
 1369 03ad 08       		.uleb128 0x8
 1370 03ae 90050000 		.4byte	.LASF59
 1371 03b2 06       		.byte	0x6
 1372 03b3 7E01     		.2byte	0x17e
 1373 03b5 44060000 		.4byte	0x644
 1374 03b9 02       		.byte	0x2
 1375 03ba 23       		.byte	0x23
 1376 03bb 04       		.uleb128 0x4
 1377 03bc 08       		.uleb128 0x8
 1378 03bd 49020000 		.4byte	.LASF60
 1379 03c1 06       		.byte	0x6
 1380 03c2 8001     		.2byte	0x180
 1381 03c4 FE000000 		.4byte	0xfe
 1382 03c8 02       		.byte	0x2
 1383 03c9 23       		.byte	0x23
 1384 03ca 08       		.uleb128 0x8
 1385 03cb 08       		.uleb128 0x8
 1386 03cc 65020000 		.4byte	.LASF65
 1387 03d0 06       		.byte	0x6
 1388 03d1 8801     		.2byte	0x188
 1389 03d3 FE000000 		.4byte	0xfe
ARM GAS  /tmp/cc9zij47.s 			page 50


 1390 03d7 02       		.byte	0x2
 1391 03d8 23       		.byte	0x23
 1392 03d9 0C       		.uleb128 0xc
 1393 03da 00       		.byte	0
 1394 03db 03       		.uleb128 0x3
 1395 03dc C8020000 		.4byte	.LASF66
 1396 03e0 05       		.byte	0x5
 1397 03e1 6B       		.byte	0x6b
 1398 03e2 E6030000 		.4byte	0x3e6
 1399 03e6 0A       		.uleb128 0xa
 1400 03e7 31010000 		.4byte	.LASF67
 1401 03eb 04       		.byte	0x4
 1402 03ec 06       		.byte	0x6
 1403 03ed A201     		.2byte	0x1a2
 1404 03ef 03040000 		.4byte	0x403
 1405 03f3 08       		.uleb128 0x8
 1406 03f4 58030000 		.4byte	.LASF68
 1407 03f8 06       		.byte	0x6
 1408 03f9 AA01     		.2byte	0x1aa
 1409 03fb 4A060000 		.4byte	0x64a
 1410 03ff 02       		.byte	0x2
 1411 0400 23       		.byte	0x23
 1412 0401 00       		.uleb128 0
 1413 0402 00       		.byte	0
 1414 0403 03       		.uleb128 0x3
 1415 0404 3F050000 		.4byte	.LASF69
 1416 0408 05       		.byte	0x5
 1417 0409 70       		.byte	0x70
 1418 040a 0E040000 		.4byte	0x40e
 1419 040e 0E       		.uleb128 0xe
 1420 040f F4030000 		.4byte	.LASF70
 1421 0413 5001     		.2byte	0x150
 1422 0415 06       		.byte	0x6
 1423 0416 C201     		.2byte	0x1c2
 1424 0418 76040000 		.4byte	0x476
 1425 041c 08       		.uleb128 0x8
 1426 041d 30040000 		.4byte	.LASF71
 1427 0421 06       		.byte	0x6
 1428 0422 C601     		.2byte	0x1c6
 1429 0424 90020000 		.4byte	0x290
 1430 0428 02       		.byte	0x2
 1431 0429 23       		.byte	0x23
 1432 042a 00       		.uleb128 0
 1433 042b 08       		.uleb128 0x8
 1434 042c C8000000 		.4byte	.LASF72
 1435 0430 06       		.byte	0x6
 1436 0431 CA01     		.2byte	0x1ca
 1437 0433 86030000 		.4byte	0x386
 1438 0437 02       		.byte	0x2
 1439 0438 23       		.byte	0x23
 1440 0439 1C       		.uleb128 0x1c
 1441 043a 07       		.uleb128 0x7
 1442 043b 64626700 		.ascii	"dbg\000"
 1443 043f 06       		.byte	0x6
 1444 0440 CE01     		.2byte	0x1ce
 1445 0442 DB030000 		.4byte	0x3db
 1446 0446 02       		.byte	0x2
ARM GAS  /tmp/cc9zij47.s 			page 51


 1447 0447 23       		.byte	0x23
 1448 0448 2C       		.uleb128 0x2c
 1449 0449 08       		.uleb128 0x8
 1450 044a 70030000 		.4byte	.LASF73
 1451 044e 06       		.byte	0x6
 1452 044f D201     		.2byte	0x1d2
 1453 0451 09010000 		.4byte	0x109
 1454 0455 02       		.byte	0x2
 1455 0456 23       		.byte	0x23
 1456 0457 30       		.uleb128 0x30
 1457 0458 07       		.uleb128 0x7
 1458 0459 746D00   		.ascii	"tm\000"
 1459 045c 06       		.byte	0x6
 1460 045d D701     		.2byte	0x1d7
 1461 045f 58050000 		.4byte	0x558
 1462 0463 02       		.byte	0x2
 1463 0464 23       		.byte	0x23
 1464 0465 74       		.uleb128 0x74
 1465 0466 08       		.uleb128 0x8
 1466 0467 EA000000 		.4byte	.LASF74
 1467 046b 06       		.byte	0x6
 1468 046c E301     		.2byte	0x1e3
 1469 046e 4F060000 		.4byte	0x64f
 1470 0472 02       		.byte	0x2
 1471 0473 23       		.byte	0x23
 1472 0474 78       		.uleb128 0x78
 1473 0475 00       		.byte	0
 1474 0476 04       		.uleb128 0x4
 1475 0477 04       		.byte	0x4
 1476 0478 07       		.byte	0x7
 1477 0479 59040000 		.4byte	.LASF75
 1478 047d 03       		.uleb128 0x3
 1479 047e 47000000 		.4byte	.LASF76
 1480 0482 07       		.byte	0x7
 1481 0483 65       		.byte	0x65
 1482 0484 20030000 		.4byte	0x320
 1483 0488 03       		.uleb128 0x3
 1484 0489 7D050000 		.4byte	.LASF77
 1485 048d 07       		.byte	0x7
 1486 048e 6D       		.byte	0x6d
 1487 048f 94000000 		.4byte	0x94
 1488 0493 05       		.uleb128 0x5
 1489 0494 14030000 		.4byte	.LASF78
 1490 0498 04       		.byte	0x4
 1491 0499 07       		.byte	0x7
 1492 049a 89       		.byte	0x89
 1493 049b AE040000 		.4byte	0x4ae
 1494 049f 0F       		.uleb128 0xf
 1495 04a0 72313300 		.ascii	"r13\000"
 1496 04a4 07       		.byte	0x7
 1497 04a5 8A       		.byte	0x8a
 1498 04a6 3B050000 		.4byte	0x53b
 1499 04aa 02       		.byte	0x2
 1500 04ab 23       		.byte	0x23
 1501 04ac 00       		.uleb128 0
 1502 04ad 00       		.byte	0
 1503 04ae 05       		.uleb128 0x5
ARM GAS  /tmp/cc9zij47.s 			page 52


 1504 04af DB030000 		.4byte	.LASF79
 1505 04b3 24       		.byte	0x24
 1506 04b4 08       		.byte	0x8
 1507 04b5 FD       		.byte	0xfd
 1508 04b6 3B050000 		.4byte	0x53b
 1509 04ba 07       		.uleb128 0x7
 1510 04bb 723400   		.ascii	"r4\000"
 1511 04be 08       		.byte	0x8
 1512 04bf 1001     		.2byte	0x110
 1513 04c1 7D040000 		.4byte	0x47d
 1514 04c5 02       		.byte	0x2
 1515 04c6 23       		.byte	0x23
 1516 04c7 00       		.uleb128 0
 1517 04c8 07       		.uleb128 0x7
 1518 04c9 723500   		.ascii	"r5\000"
 1519 04cc 08       		.byte	0x8
 1520 04cd 1101     		.2byte	0x111
 1521 04cf 7D040000 		.4byte	0x47d
 1522 04d3 02       		.byte	0x2
 1523 04d4 23       		.byte	0x23
 1524 04d5 04       		.uleb128 0x4
 1525 04d6 07       		.uleb128 0x7
 1526 04d7 723600   		.ascii	"r6\000"
 1527 04da 08       		.byte	0x8
 1528 04db 1201     		.2byte	0x112
 1529 04dd 7D040000 		.4byte	0x47d
 1530 04e1 02       		.byte	0x2
 1531 04e2 23       		.byte	0x23
 1532 04e3 08       		.uleb128 0x8
 1533 04e4 07       		.uleb128 0x7
 1534 04e5 723700   		.ascii	"r7\000"
 1535 04e8 08       		.byte	0x8
 1536 04e9 1301     		.2byte	0x113
 1537 04eb 7D040000 		.4byte	0x47d
 1538 04ef 02       		.byte	0x2
 1539 04f0 23       		.byte	0x23
 1540 04f1 0C       		.uleb128 0xc
 1541 04f2 07       		.uleb128 0x7
 1542 04f3 723800   		.ascii	"r8\000"
 1543 04f6 08       		.byte	0x8
 1544 04f7 1401     		.2byte	0x114
 1545 04f9 7D040000 		.4byte	0x47d
 1546 04fd 02       		.byte	0x2
 1547 04fe 23       		.byte	0x23
 1548 04ff 10       		.uleb128 0x10
 1549 0500 07       		.uleb128 0x7
 1550 0501 723900   		.ascii	"r9\000"
 1551 0504 08       		.byte	0x8
 1552 0505 1501     		.2byte	0x115
 1553 0507 7D040000 		.4byte	0x47d
 1554 050b 02       		.byte	0x2
 1555 050c 23       		.byte	0x23
 1556 050d 14       		.uleb128 0x14
 1557 050e 07       		.uleb128 0x7
 1558 050f 72313000 		.ascii	"r10\000"
 1559 0513 08       		.byte	0x8
 1560 0514 1601     		.2byte	0x116
ARM GAS  /tmp/cc9zij47.s 			page 53


 1561 0516 7D040000 		.4byte	0x47d
 1562 051a 02       		.byte	0x2
 1563 051b 23       		.byte	0x23
 1564 051c 18       		.uleb128 0x18
 1565 051d 07       		.uleb128 0x7
 1566 051e 72313100 		.ascii	"r11\000"
 1567 0522 08       		.byte	0x8
 1568 0523 1701     		.2byte	0x117
 1569 0525 7D040000 		.4byte	0x47d
 1570 0529 02       		.byte	0x2
 1571 052a 23       		.byte	0x23
 1572 052b 1C       		.uleb128 0x1c
 1573 052c 07       		.uleb128 0x7
 1574 052d 6C7200   		.ascii	"lr\000"
 1575 0530 08       		.byte	0x8
 1576 0531 1801     		.2byte	0x118
 1577 0533 7D040000 		.4byte	0x47d
 1578 0537 02       		.byte	0x2
 1579 0538 23       		.byte	0x23
 1580 0539 20       		.uleb128 0x20
 1581 053a 00       		.byte	0
 1582 053b 09       		.uleb128 0x9
 1583 053c 04       		.byte	0x4
 1584 053d AE040000 		.4byte	0x4ae
 1585 0541 10       		.uleb128 0x10
 1586 0542 04       		.byte	0x4
 1587 0543 09       		.byte	0x9
 1588 0544 38       		.byte	0x38
 1589 0545 58050000 		.4byte	0x558
 1590 0549 06       		.uleb128 0x6
 1591 054a 15020000 		.4byte	.LASF80
 1592 054e 09       		.byte	0x9
 1593 054f 3C       		.byte	0x3c
 1594 0550 A6000000 		.4byte	0xa6
 1595 0554 02       		.byte	0x2
 1596 0555 23       		.byte	0x23
 1597 0556 00       		.uleb128 0
 1598 0557 00       		.byte	0
 1599 0558 03       		.uleb128 0x3
 1600 0559 31000000 		.4byte	.LASF81
 1601 055d 09       		.byte	0x9
 1602 055e 3D       		.byte	0x3d
 1603 055f 41050000 		.4byte	0x541
 1604 0563 11       		.uleb128 0x11
 1605 0564 04       		.byte	0x4
 1606 0565 06       		.byte	0x6
 1607 0566 FA       		.byte	0xfa
 1608 0567 C0050000 		.4byte	0x5c0
 1609 056b 12       		.uleb128 0x12
 1610 056c 0E020000 		.4byte	.LASF82
 1611 0570 06       		.byte	0x6
 1612 0571 0101     		.2byte	0x101
 1613 0573 DD000000 		.4byte	0xdd
 1614 0577 12       		.uleb128 0x12
 1615 0578 9E050000 		.4byte	.LASF83
 1616 057c 06       		.byte	0x6
 1617 057d 0801     		.2byte	0x108
ARM GAS  /tmp/cc9zij47.s 			page 54


 1618 057f DD000000 		.4byte	0xdd
 1619 0583 12       		.uleb128 0x12
 1620 0584 C1000000 		.4byte	.LASF84
 1621 0588 06       		.byte	0x6
 1622 0589 0F01     		.2byte	0x10f
 1623 058b 20030000 		.4byte	0x320
 1624 058f 12       		.uleb128 0x12
 1625 0590 4B050000 		.4byte	.LASF85
 1626 0594 06       		.byte	0x6
 1627 0595 1601     		.2byte	0x116
 1628 0597 C0050000 		.4byte	0x5c0
 1629 059b 12       		.uleb128 0x12
 1630 059c 91040000 		.4byte	.LASF86
 1631 05a0 06       		.byte	0x6
 1632 05a1 1E01     		.2byte	0x11e
 1633 05a3 EF050000 		.4byte	0x5ef
 1634 05a7 12       		.uleb128 0x12
 1635 05a8 2A000000 		.4byte	.LASF87
 1636 05ac 06       		.byte	0x6
 1637 05ad 2701     		.2byte	0x127
 1638 05af 2C060000 		.4byte	0x62c
 1639 05b3 12       		.uleb128 0x12
 1640 05b4 F9000000 		.4byte	.LASF88
 1641 05b8 06       		.byte	0x6
 1642 05b9 2F01     		.2byte	0x12f
 1643 05bb E8000000 		.4byte	0xe8
 1644 05bf 00       		.byte	0
 1645 05c0 09       		.uleb128 0x9
 1646 05c1 04       		.byte	0x4
 1647 05c2 25020000 		.4byte	0x225
 1648 05c6 05       		.uleb128 0x5
 1649 05c7 7D010000 		.4byte	.LASF89
 1650 05cb 0C       		.byte	0xc
 1651 05cc 0A       		.byte	0xa
 1652 05cd 34       		.byte	0x34
 1653 05ce EF050000 		.4byte	0x5ef
 1654 05d2 06       		.uleb128 0x6
 1655 05d3 70000000 		.4byte	.LASF90
 1656 05d7 0A       		.byte	0xa
 1657 05d8 35       		.byte	0x35
 1658 05d9 5C020000 		.4byte	0x25c
 1659 05dd 02       		.byte	0x2
 1660 05de 23       		.byte	0x23
 1661 05df 00       		.uleb128 0
 1662 05e0 06       		.uleb128 0x6
 1663 05e1 2B010000 		.4byte	.LASF91
 1664 05e5 0A       		.byte	0xa
 1665 05e6 37       		.byte	0x37
 1666 05e7 F3000000 		.4byte	0xf3
 1667 05eb 02       		.byte	0x2
 1668 05ec 23       		.byte	0x23
 1669 05ed 08       		.uleb128 0x8
 1670 05ee 00       		.byte	0
 1671 05ef 09       		.uleb128 0x9
 1672 05f0 04       		.byte	0x4
 1673 05f1 C6050000 		.4byte	0x5c6
 1674 05f5 05       		.uleb128 0x5
ARM GAS  /tmp/cc9zij47.s 			page 55


 1675 05f6 22020000 		.4byte	.LASF92
 1676 05fa 10       		.byte	0x10
 1677 05fb 0B       		.byte	0xb
 1678 05fc 39       		.byte	0x39
 1679 05fd 2C060000 		.4byte	0x62c
 1680 0601 06       		.uleb128 0x6
 1681 0602 CA030000 		.4byte	.LASF93
 1682 0606 0B       		.byte	0xb
 1683 0607 3A       		.byte	0x3a
 1684 0608 5C020000 		.4byte	0x25c
 1685 060c 02       		.byte	0x2
 1686 060d 23       		.byte	0x23
 1687 060e 00       		.uleb128 0
 1688 060f 06       		.uleb128 0x6
 1689 0610 68000000 		.4byte	.LASF94
 1690 0614 0B       		.byte	0xb
 1691 0615 3C       		.byte	0x3c
 1692 0616 30020000 		.4byte	0x230
 1693 061a 02       		.byte	0x2
 1694 061b 23       		.byte	0x23
 1695 061c 08       		.uleb128 0x8
 1696 061d 06       		.uleb128 0x6
 1697 061e 51050000 		.4byte	.LASF95
 1698 0622 0B       		.byte	0xb
 1699 0623 3E       		.byte	0x3e
 1700 0624 6A060000 		.4byte	0x66a
 1701 0628 02       		.byte	0x2
 1702 0629 23       		.byte	0x23
 1703 062a 0C       		.uleb128 0xc
 1704 062b 00       		.byte	0
 1705 062c 09       		.uleb128 0x9
 1706 062d 04       		.byte	0x4
 1707 062e F5050000 		.4byte	0x5f5
 1708 0632 09       		.uleb128 0x9
 1709 0633 04       		.byte	0x4
 1710 0634 38060000 		.4byte	0x638
 1711 0638 13       		.uleb128 0x13
 1712 0639 3D060000 		.4byte	0x63d
 1713 063d 04       		.uleb128 0x4
 1714 063e 01       		.byte	0x1
 1715 063f 08       		.byte	0x8
 1716 0640 42000000 		.4byte	.LASF96
 1717 0644 09       		.uleb128 0x9
 1718 0645 04       		.byte	0x4
 1719 0646 22030000 		.4byte	0x322
 1720 064a 14       		.uleb128 0x14
 1721 064b 32060000 		.4byte	0x632
 1722 064f 15       		.uleb128 0x15
 1723 0650 88040000 		.4byte	0x488
 1724 0654 5F060000 		.4byte	0x65f
 1725 0658 16       		.uleb128 0x16
 1726 0659 76040000 		.4byte	0x476
 1727 065d 1A       		.byte	0x1a
 1728 065e 00       		.byte	0
 1729 065f 03       		.uleb128 0x3
 1730 0660 98040000 		.4byte	.LASF97
 1731 0664 0B       		.byte	0xb
ARM GAS  /tmp/cc9zij47.s 			page 56


 1732 0665 34       		.byte	0x34
 1733 0666 F5050000 		.4byte	0x5f5
 1734 066a 09       		.uleb128 0x9
 1735 066b 04       		.byte	0x4
 1736 066c 5F060000 		.4byte	0x65f
 1737 0670 03       		.uleb128 0x3
 1738 0671 36040000 		.4byte	.LASF98
 1739 0675 0C       		.byte	0xc
 1740 0676 34       		.byte	0x34
 1741 0677 7B060000 		.4byte	0x67b
 1742 067b 09       		.uleb128 0x9
 1743 067c 04       		.byte	0x4
 1744 067d 81060000 		.4byte	0x681
 1745 0681 17       		.uleb128 0x17
 1746 0682 01       		.byte	0x1
 1747 0683 20030000 		.4byte	0x320
 1748 0687 91060000 		.4byte	0x691
 1749 068b 0C       		.uleb128 0xc
 1750 068c 30000000 		.4byte	0x30
 1751 0690 00       		.byte	0
 1752 0691 03       		.uleb128 0x3
 1753 0692 4A030000 		.4byte	.LASF99
 1754 0696 0D       		.byte	0xd
 1755 0697 3C       		.byte	0x3c
 1756 0698 9C060000 		.4byte	0x69c
 1757 069c 05       		.uleb128 0x5
 1758 069d A9030000 		.4byte	.LASF100
 1759 06a1 20       		.byte	0x20
 1760 06a2 0D       		.byte	0xd
 1761 06a3 4F       		.byte	0x4f
 1762 06a4 D3060000 		.4byte	0x6d3
 1763 06a8 06       		.uleb128 0x6
 1764 06a9 32020000 		.4byte	.LASF101
 1765 06ad 0D       		.byte	0xd
 1766 06ae 50       		.byte	0x50
 1767 06af 70060000 		.4byte	0x670
 1768 06b3 02       		.byte	0x2
 1769 06b4 23       		.byte	0x23
 1770 06b5 00       		.uleb128 0
 1771 06b6 06       		.uleb128 0x6
 1772 06b7 B0000000 		.4byte	.LASF102
 1773 06bb 0D       		.byte	0xd
 1774 06bc 52       		.byte	0x52
 1775 06bd F2060000 		.4byte	0x6f2
 1776 06c1 02       		.byte	0x2
 1777 06c2 23       		.byte	0x23
 1778 06c3 08       		.uleb128 0x8
 1779 06c4 06       		.uleb128 0x6
 1780 06c5 C2020000 		.4byte	.LASF103
 1781 06c9 0D       		.byte	0xd
 1782 06ca 54       		.byte	0x54
 1783 06cb 5F060000 		.4byte	0x65f
 1784 06cf 02       		.byte	0x2
 1785 06d0 23       		.byte	0x23
 1786 06d1 10       		.uleb128 0x10
 1787 06d2 00       		.byte	0
 1788 06d3 11       		.uleb128 0x11
ARM GAS  /tmp/cc9zij47.s 			page 57


 1789 06d4 04       		.byte	0x4
 1790 06d5 0D       		.byte	0xd
 1791 06d6 44       		.byte	0x44
 1792 06d7 F2060000 		.4byte	0x6f2
 1793 06db 18       		.uleb128 0x18
 1794 06dc 9C000000 		.4byte	.LASF104
 1795 06e0 0D       		.byte	0xd
 1796 06e1 45       		.byte	0x45
 1797 06e2 13070000 		.4byte	0x713
 1798 06e6 18       		.uleb128 0x18
 1799 06e7 B7000000 		.4byte	.LASF105
 1800 06eb 0D       		.byte	0xd
 1801 06ec 46       		.byte	0x46
 1802 06ed 19070000 		.4byte	0x719
 1803 06f1 00       		.byte	0
 1804 06f2 19       		.uleb128 0x19
 1805 06f3 FB010000 		.4byte	.LASF113
 1806 06f7 08       		.byte	0x8
 1807 06f8 0D       		.byte	0xd
 1808 06f9 41       		.byte	0x41
 1809 06fa 13070000 		.4byte	0x713
 1810 06fe 18       		.uleb128 0x18
 1811 06ff 98050000 		.4byte	.LASF106
 1812 0703 0D       		.byte	0xd
 1813 0704 42       		.byte	0x42
 1814 0705 88040000 		.4byte	0x488
 1815 0709 1A       		.uleb128 0x1a
 1816 070a 6800     		.ascii	"h\000"
 1817 070c 0D       		.byte	0xd
 1818 070d 49       		.byte	0x49
 1819 070e 1F070000 		.4byte	0x71f
 1820 0712 00       		.byte	0
 1821 0713 09       		.uleb128 0x9
 1822 0714 04       		.byte	0x4
 1823 0715 F2060000 		.4byte	0x6f2
 1824 0719 09       		.uleb128 0x9
 1825 071a 04       		.byte	0x4
 1826 071b 91060000 		.4byte	0x691
 1827 071f 10       		.uleb128 0x10
 1828 0720 08       		.byte	0x8
 1829 0721 0D       		.byte	0xd
 1830 0722 43       		.byte	0x43
 1831 0723 42070000 		.4byte	0x742
 1832 0727 0F       		.uleb128 0xf
 1833 0728 7500     		.ascii	"u\000"
 1834 072a 0D       		.byte	0xd
 1835 072b 47       		.byte	0x47
 1836 072c D3060000 		.4byte	0x6d3
 1837 0730 02       		.byte	0x2
 1838 0731 23       		.byte	0x23
 1839 0732 00       		.uleb128 0
 1840 0733 06       		.uleb128 0x6
 1841 0734 3D030000 		.4byte	.LASF107
 1842 0738 0D       		.byte	0xd
 1843 0739 48       		.byte	0x48
 1844 073a 30000000 		.4byte	0x30
 1845 073e 02       		.byte	0x2
ARM GAS  /tmp/cc9zij47.s 			page 58


 1846 073f 23       		.byte	0x23
 1847 0740 04       		.uleb128 0x4
 1848 0741 00       		.byte	0
 1849 0742 05       		.uleb128 0x5
 1850 0743 CA010000 		.4byte	.LASF108
 1851 0747 10       		.byte	0x10
 1852 0748 0E       		.byte	0xe
 1853 0749 3B       		.byte	0x3b
 1854 074a 87070000 		.4byte	0x787
 1855 074e 06       		.uleb128 0x6
 1856 074f 43040000 		.4byte	.LASF109
 1857 0753 0E       		.byte	0xe
 1858 0754 3C       		.byte	0x3c
 1859 0755 32060000 		.4byte	0x632
 1860 0759 02       		.byte	0x2
 1861 075a 23       		.byte	0x23
 1862 075b 00       		.uleb128 0
 1863 075c 06       		.uleb128 0x6
 1864 075d AE040000 		.4byte	.LASF110
 1865 0761 0E       		.byte	0xe
 1866 0762 3D       		.byte	0x3d
 1867 0763 89070000 		.4byte	0x789
 1868 0767 02       		.byte	0x2
 1869 0768 23       		.byte	0x23
 1870 0769 04       		.uleb128 0x4
 1871 076a 06       		.uleb128 0x6
 1872 076b 1C030000 		.4byte	.LASF111
 1873 076f 0E       		.byte	0xe
 1874 0770 3E       		.byte	0x3e
 1875 0771 89070000 		.4byte	0x789
 1876 0775 02       		.byte	0x2
 1877 0776 23       		.byte	0x23
 1878 0777 08       		.uleb128 0x8
 1879 0778 06       		.uleb128 0x6
 1880 0779 BA020000 		.4byte	.LASF112
 1881 077d 0E       		.byte	0xe
 1882 077e 3F       		.byte	0x3f
 1883 077f 89070000 		.4byte	0x789
 1884 0783 02       		.byte	0x2
 1885 0784 23       		.byte	0x23
 1886 0785 0C       		.uleb128 0xc
 1887 0786 00       		.byte	0
 1888 0787 1B       		.uleb128 0x1b
 1889 0788 01       		.byte	0x1
 1890 0789 09       		.uleb128 0x9
 1891 078a 04       		.byte	0x4
 1892 078b 87070000 		.4byte	0x787
 1893 078f 1C       		.uleb128 0x1c
 1894 0790 6806     		.2byte	0x668
 1895 0792 0E       		.byte	0xe
 1896 0793 44       		.byte	0x44
 1897 0794 DE070000 		.4byte	0x7de
 1898 0798 0F       		.uleb128 0xf
 1899 0799 543000   		.ascii	"T0\000"
 1900 079c 0E       		.byte	0xe
 1901 079d 45       		.byte	0x45
 1902 079e DE070000 		.4byte	0x7de
ARM GAS  /tmp/cc9zij47.s 			page 59


 1903 07a2 02       		.byte	0x2
 1904 07a3 23       		.byte	0x23
 1905 07a4 00       		.uleb128 0
 1906 07a5 0F       		.uleb128 0xf
 1907 07a6 543100   		.ascii	"T1\000"
 1908 07a9 0E       		.byte	0xe
 1909 07aa 46       		.byte	0x46
 1910 07ab DE070000 		.4byte	0x7de
 1911 07af 03       		.byte	0x3
 1912 07b0 23       		.byte	0x23
 1913 07b1 C802     		.uleb128 0x148
 1914 07b3 0F       		.uleb128 0xf
 1915 07b4 543200   		.ascii	"T2\000"
 1916 07b7 0E       		.byte	0xe
 1917 07b8 47       		.byte	0x47
 1918 07b9 DE070000 		.4byte	0x7de
 1919 07bd 03       		.byte	0x3
 1920 07be 23       		.byte	0x23
 1921 07bf 9005     		.uleb128 0x290
 1922 07c1 0F       		.uleb128 0xf
 1923 07c2 543300   		.ascii	"T3\000"
 1924 07c5 0E       		.byte	0xe
 1925 07c6 48       		.byte	0x48
 1926 07c7 DE070000 		.4byte	0x7de
 1927 07cb 03       		.byte	0x3
 1928 07cc 23       		.byte	0x23
 1929 07cd D807     		.uleb128 0x3d8
 1930 07cf 0F       		.uleb128 0xf
 1931 07d0 543400   		.ascii	"T4\000"
 1932 07d3 0E       		.byte	0xe
 1933 07d4 49       		.byte	0x49
 1934 07d5 DE070000 		.4byte	0x7de
 1935 07d9 03       		.byte	0x3
 1936 07da 23       		.byte	0x23
 1937 07db A00A     		.uleb128 0x520
 1938 07dd 00       		.byte	0
 1939 07de 15       		.uleb128 0x15
 1940 07df 88040000 		.4byte	0x488
 1941 07e3 EE070000 		.4byte	0x7ee
 1942 07e7 16       		.uleb128 0x16
 1943 07e8 76040000 		.4byte	0x476
 1944 07ec 28       		.byte	0x28
 1945 07ed 00       		.byte	0
 1946 07ee 1D       		.uleb128 0x1d
 1947 07ef D1040000 		.4byte	.LASF114
 1948 07f3 6806     		.2byte	0x668
 1949 07f5 0E       		.byte	0xe
 1950 07f6 43       		.byte	0x43
 1951 07f7 11080000 		.4byte	0x811
 1952 07fb 1A       		.uleb128 0x1a
 1953 07fc 776100   		.ascii	"wa\000"
 1954 07ff 0E       		.byte	0xe
 1955 0800 4A       		.byte	0x4a
 1956 0801 8F070000 		.4byte	0x78f
 1957 0805 18       		.uleb128 0x18
 1958 0806 61000000 		.4byte	.LASF115
 1959 080a 0E       		.byte	0xe
ARM GAS  /tmp/cc9zij47.s 			page 60


 1960 080b 4B       		.byte	0x4b
 1961 080c 11080000 		.4byte	0x811
 1962 0810 00       		.byte	0
 1963 0811 15       		.uleb128 0x15
 1964 0812 49000000 		.4byte	0x49
 1965 0816 22080000 		.4byte	0x822
 1966 081a 1E       		.uleb128 0x1e
 1967 081b 76040000 		.4byte	0x476
 1968 081f 6706     		.2byte	0x667
 1969 0821 00       		.byte	0
 1970 0822 1F       		.uleb128 0x1f
 1971 0823 06030000 		.4byte	.LASF116
 1972 0827 01       		.byte	0x1
 1973 0828 45       		.byte	0x45
 1974 0829 01       		.byte	0x1
 1975 082a 00000000 		.4byte	.LFB242
 1976 082e 48020000 		.4byte	.LFE242
 1977 0832 00000000 		.4byte	.LLST0
 1978 0836 01       		.byte	0x1
 1979 0837 8C0D0000 		.4byte	0xd8c
 1980 083b 20       		.uleb128 0x20
 1981 083c 703100   		.ascii	"p1\000"
 1982 083f 01       		.byte	0x1
 1983 0840 46       		.byte	0x46
 1984 0841 20030000 		.4byte	0x320
 1985 0845 2C000000 		.4byte	.LLST1
 1986 0849 20       		.uleb128 0x20
 1987 084a 703200   		.ascii	"p2\000"
 1988 084d 01       		.byte	0x1
 1989 084e 46       		.byte	0x46
 1990 084f 20030000 		.4byte	0x320
 1991 0853 E4000000 		.4byte	.LLST2
 1992 0857 20       		.uleb128 0x20
 1993 0858 703300   		.ascii	"p3\000"
 1994 085b 01       		.byte	0x1
 1995 085c 46       		.byte	0x46
 1996 085d 20030000 		.4byte	0x320
 1997 0861 44010000 		.4byte	.LLST3
 1998 0865 20       		.uleb128 0x20
 1999 0866 6E00     		.ascii	"n\000"
 2000 0868 01       		.byte	0x1
 2001 0869 47       		.byte	0x47
 2002 086a 30000000 		.4byte	0x30
 2003 086e 62010000 		.4byte	.LLST4
 2004 0872 20       		.uleb128 0x20
 2005 0873 737A00   		.ascii	"sz\000"
 2006 0876 01       		.byte	0x1
 2007 0877 47       		.byte	0x47
 2008 0878 30000000 		.4byte	0x30
 2009 087c 99010000 		.4byte	.LLST5
 2010 0880 21       		.uleb128 0x21
 2011 0881 08000000 		.4byte	.LVL0
 2012 0885 420E0000 		.4byte	0xe42
 2013 0889 22       		.uleb128 0x22
 2014 088a 10000000 		.4byte	.LVL1
 2015 088e 500E0000 		.4byte	0xe50
 2016 0892 A2080000 		.4byte	0x8a2
ARM GAS  /tmp/cc9zij47.s 			page 61


 2017 0896 23       		.uleb128 0x23
 2018 0897 01       		.byte	0x1
 2019 0898 51       		.byte	0x51
 2020 0899 02       		.byte	0x2
 2021 089a 91       		.byte	0x91
 2022 089b 6C       		.sleb128 -20
 2023 089c 23       		.uleb128 0x23
 2024 089d 01       		.byte	0x1
 2025 089e 50       		.byte	0x50
 2026 089f 01       		.byte	0x1
 2027 08a0 30       		.byte	0x30
 2028 08a1 00       		.byte	0
 2029 08a2 22       		.uleb128 0x22
 2030 08a3 18000000 		.4byte	.LVL2
 2031 08a7 730E0000 		.4byte	0xe73
 2032 08ab BA080000 		.4byte	0x8ba
 2033 08af 23       		.uleb128 0x23
 2034 08b0 01       		.byte	0x1
 2035 08b1 51       		.byte	0x51
 2036 08b2 01       		.byte	0x1
 2037 08b3 40       		.byte	0x40
 2038 08b4 23       		.uleb128 0x23
 2039 08b5 01       		.byte	0x1
 2040 08b6 50       		.byte	0x50
 2041 08b7 01       		.byte	0x1
 2042 08b8 30       		.byte	0x30
 2043 08b9 00       		.byte	0
 2044 08ba 22       		.uleb128 0x22
 2045 08bb 26000000 		.4byte	.LVL4
 2046 08bf 900E0000 		.4byte	0xe90
 2047 08c3 DD080000 		.4byte	0x8dd
 2048 08c7 23       		.uleb128 0x23
 2049 08c8 01       		.byte	0x1
 2050 08c9 51       		.byte	0x51
 2051 08ca 0C       		.byte	0xc
 2052 08cb 31       		.byte	0x31
 2053 08cc 74       		.byte	0x74
 2054 08cd 00       		.sleb128 0
 2055 08ce 74       		.byte	0x74
 2056 08cf 00       		.sleb128 0
 2057 08d0 30       		.byte	0x30
 2058 08d1 2E       		.byte	0x2e
 2059 08d2 28       		.byte	0x28
 2060 08d3 0100     		.2byte	0x1
 2061 08d5 16       		.byte	0x16
 2062 08d6 13       		.byte	0x13
 2063 08d7 23       		.uleb128 0x23
 2064 08d8 01       		.byte	0x1
 2065 08d9 50       		.byte	0x50
 2066 08da 01       		.byte	0x1
 2067 08db 31       		.byte	0x31
 2068 08dc 00       		.byte	0
 2069 08dd 22       		.uleb128 0x22
 2070 08de 34000000 		.4byte	.LVL7
 2071 08e2 B40E0000 		.4byte	0xeb4
 2072 08e6 F1080000 		.4byte	0x8f1
 2073 08ea 23       		.uleb128 0x23
ARM GAS  /tmp/cc9zij47.s 			page 62


 2074 08eb 01       		.byte	0x1
 2075 08ec 50       		.byte	0x50
 2076 08ed 02       		.byte	0x2
 2077 08ee 74       		.byte	0x74
 2078 08ef 00       		.sleb128 0
 2079 08f0 00       		.byte	0
 2080 08f1 22       		.uleb128 0x22
 2081 08f2 3E000000 		.4byte	.LVL8
 2082 08f6 730E0000 		.4byte	0xe73
 2083 08fa 0C090000 		.4byte	0x90c
 2084 08fe 23       		.uleb128 0x23
 2085 08ff 01       		.byte	0x1
 2086 0900 51       		.byte	0x51
 2087 0901 03       		.byte	0x3
 2088 0902 0B       		.byte	0xb
 2089 0903 00FF     		.2byte	0xff00
 2090 0905 23       		.uleb128 0x23
 2091 0906 01       		.byte	0x1
 2092 0907 50       		.byte	0x50
 2093 0908 02       		.byte	0x2
 2094 0909 75       		.byte	0x75
 2095 090a 00       		.sleb128 0
 2096 090b 00       		.byte	0
 2097 090c 22       		.uleb128 0x22
 2098 090d 4C000000 		.4byte	.LVL10
 2099 0911 900E0000 		.4byte	0xe90
 2100 0915 1F090000 		.4byte	0x91f
 2101 0919 23       		.uleb128 0x23
 2102 091a 01       		.byte	0x1
 2103 091b 50       		.byte	0x50
 2104 091c 01       		.byte	0x1
 2105 091d 32       		.byte	0x32
 2106 091e 00       		.byte	0
 2107 091f 22       		.uleb128 0x22
 2108 0920 58000000 		.4byte	.LVL11
 2109 0924 500E0000 		.4byte	0xe50
 2110 0928 3C090000 		.4byte	0x93c
 2111 092c 23       		.uleb128 0x23
 2112 092d 01       		.byte	0x1
 2113 092e 51       		.byte	0x51
 2114 092f 02       		.byte	0x2
 2115 0930 91       		.byte	0x91
 2116 0931 6C       		.sleb128 -20
 2117 0932 23       		.uleb128 0x23
 2118 0933 01       		.byte	0x1
 2119 0934 50       		.byte	0x50
 2120 0935 05       		.byte	0x5
 2121 0936 03       		.byte	0x3
 2122 0937 00000000 		.4byte	.LANCHOR0
 2123 093b 00       		.byte	0
 2124 093c 22       		.uleb128 0x22
 2125 093d 60000000 		.4byte	.LVL12
 2126 0941 730E0000 		.4byte	0xe73
 2127 0945 58090000 		.4byte	0x958
 2128 0949 23       		.uleb128 0x23
 2129 094a 01       		.byte	0x1
 2130 094b 51       		.byte	0x51
ARM GAS  /tmp/cc9zij47.s 			page 63


 2131 094c 01       		.byte	0x1
 2132 094d 40       		.byte	0x40
 2133 094e 23       		.uleb128 0x23
 2134 094f 01       		.byte	0x1
 2135 0950 50       		.byte	0x50
 2136 0951 05       		.byte	0x5
 2137 0952 03       		.byte	0x3
 2138 0953 00000000 		.4byte	.LANCHOR0
 2139 0957 00       		.byte	0
 2140 0958 22       		.uleb128 0x22
 2141 0959 6A000000 		.4byte	.LVL15
 2142 095d 730E0000 		.4byte	0xe73
 2143 0961 74090000 		.4byte	0x974
 2144 0965 23       		.uleb128 0x23
 2145 0966 01       		.byte	0x1
 2146 0967 51       		.byte	0x51
 2147 0968 01       		.byte	0x1
 2148 0969 40       		.byte	0x40
 2149 096a 23       		.uleb128 0x23
 2150 096b 01       		.byte	0x1
 2151 096c 50       		.byte	0x50
 2152 096d 05       		.byte	0x5
 2153 096e 03       		.byte	0x3
 2154 096f 00000000 		.4byte	.LANCHOR0
 2155 0973 00       		.byte	0
 2156 0974 22       		.uleb128 0x22
 2157 0975 74000000 		.4byte	.LVL18
 2158 0979 730E0000 		.4byte	0xe73
 2159 097d 90090000 		.4byte	0x990
 2160 0981 23       		.uleb128 0x23
 2161 0982 01       		.byte	0x1
 2162 0983 51       		.byte	0x51
 2163 0984 01       		.byte	0x1
 2164 0985 40       		.byte	0x40
 2165 0986 23       		.uleb128 0x23
 2166 0987 01       		.byte	0x1
 2167 0988 50       		.byte	0x50
 2168 0989 05       		.byte	0x5
 2169 098a 03       		.byte	0x3
 2170 098b 00000000 		.4byte	.LANCHOR0
 2171 098f 00       		.byte	0
 2172 0990 22       		.uleb128 0x22
 2173 0991 7C000000 		.4byte	.LVL21
 2174 0995 B40E0000 		.4byte	0xeb4
 2175 0999 A4090000 		.4byte	0x9a4
 2176 099d 23       		.uleb128 0x23
 2177 099e 01       		.byte	0x1
 2178 099f 50       		.byte	0x50
 2179 09a0 02       		.byte	0x2
 2180 09a1 75       		.byte	0x75
 2181 09a2 00       		.sleb128 0
 2182 09a3 00       		.byte	0
 2183 09a4 22       		.uleb128 0x22
 2184 09a5 82000000 		.4byte	.LVL22
 2185 09a9 B40E0000 		.4byte	0xeb4
 2186 09ad B8090000 		.4byte	0x9b8
 2187 09b1 23       		.uleb128 0x23
ARM GAS  /tmp/cc9zij47.s 			page 64


 2188 09b2 01       		.byte	0x1
 2189 09b3 50       		.byte	0x50
 2190 09b4 02       		.byte	0x2
 2191 09b5 74       		.byte	0x74
 2192 09b6 00       		.sleb128 0
 2193 09b7 00       		.byte	0
 2194 09b8 22       		.uleb128 0x22
 2195 09b9 88000000 		.4byte	.LVL23
 2196 09bd B40E0000 		.4byte	0xeb4
 2197 09c1 CC090000 		.4byte	0x9cc
 2198 09c5 23       		.uleb128 0x23
 2199 09c6 01       		.byte	0x1
 2200 09c7 50       		.byte	0x50
 2201 09c8 02       		.byte	0x2
 2202 09c9 76       		.byte	0x76
 2203 09ca 00       		.sleb128 0
 2204 09cb 00       		.byte	0
 2205 09cc 22       		.uleb128 0x22
 2206 09cd 90000000 		.4byte	.LVL24
 2207 09d1 500E0000 		.4byte	0xe50
 2208 09d5 E9090000 		.4byte	0x9e9
 2209 09d9 23       		.uleb128 0x23
 2210 09da 01       		.byte	0x1
 2211 09db 51       		.byte	0x51
 2212 09dc 02       		.byte	0x2
 2213 09dd 7D       		.byte	0x7d
 2214 09de 00       		.sleb128 0
 2215 09df 23       		.uleb128 0x23
 2216 09e0 01       		.byte	0x1
 2217 09e1 50       		.byte	0x50
 2218 09e2 05       		.byte	0x5
 2219 09e3 03       		.byte	0x3
 2220 09e4 00000000 		.4byte	.LANCHOR0
 2221 09e8 00       		.byte	0
 2222 09e9 22       		.uleb128 0x22
 2223 09ea A2000000 		.4byte	.LVL25
 2224 09ee 900E0000 		.4byte	0xe90
 2225 09f2 FC090000 		.4byte	0x9fc
 2226 09f6 23       		.uleb128 0x23
 2227 09f7 01       		.byte	0x1
 2228 09f8 50       		.byte	0x50
 2229 09f9 01       		.byte	0x1
 2230 09fa 33       		.byte	0x33
 2231 09fb 00       		.byte	0
 2232 09fc 22       		.uleb128 0x22
 2233 09fd AE000000 		.4byte	.LVL26
 2234 0a01 730E0000 		.4byte	0xe73
 2235 0a05 180A0000 		.4byte	0xa18
 2236 0a09 23       		.uleb128 0x23
 2237 0a0a 01       		.byte	0x1
 2238 0a0b 51       		.byte	0x51
 2239 0a0c 01       		.byte	0x1
 2240 0a0d 40       		.byte	0x40
 2241 0a0e 23       		.uleb128 0x23
 2242 0a0f 01       		.byte	0x1
 2243 0a10 50       		.byte	0x50
 2244 0a11 05       		.byte	0x5
ARM GAS  /tmp/cc9zij47.s 			page 65


 2245 0a12 03       		.byte	0x3
 2246 0a13 00000000 		.4byte	.LANCHOR0
 2247 0a17 00       		.byte	0
 2248 0a18 22       		.uleb128 0x22
 2249 0a19 B8000000 		.4byte	.LVL29
 2250 0a1d 730E0000 		.4byte	0xe73
 2251 0a21 340A0000 		.4byte	0xa34
 2252 0a25 23       		.uleb128 0x23
 2253 0a26 01       		.byte	0x1
 2254 0a27 51       		.byte	0x51
 2255 0a28 01       		.byte	0x1
 2256 0a29 40       		.byte	0x40
 2257 0a2a 23       		.uleb128 0x23
 2258 0a2b 01       		.byte	0x1
 2259 0a2c 50       		.byte	0x50
 2260 0a2d 05       		.byte	0x5
 2261 0a2e 03       		.byte	0x3
 2262 0a2f 00000000 		.4byte	.LANCHOR0
 2263 0a33 00       		.byte	0
 2264 0a34 22       		.uleb128 0x22
 2265 0a35 C2000000 		.4byte	.LVL32
 2266 0a39 730E0000 		.4byte	0xe73
 2267 0a3d 500A0000 		.4byte	0xa50
 2268 0a41 23       		.uleb128 0x23
 2269 0a42 01       		.byte	0x1
 2270 0a43 51       		.byte	0x51
 2271 0a44 01       		.byte	0x1
 2272 0a45 40       		.byte	0x40
 2273 0a46 23       		.uleb128 0x23
 2274 0a47 01       		.byte	0x1
 2275 0a48 50       		.byte	0x50
 2276 0a49 05       		.byte	0x5
 2277 0a4a 03       		.byte	0x3
 2278 0a4b 00000000 		.4byte	.LANCHOR0
 2279 0a4f 00       		.byte	0
 2280 0a50 21       		.uleb128 0x21
 2281 0a51 C6000000 		.4byte	.LVL33
 2282 0a55 B40E0000 		.4byte	0xeb4
 2283 0a59 22       		.uleb128 0x22
 2284 0a5a CC000000 		.4byte	.LVL34
 2285 0a5e B40E0000 		.4byte	0xeb4
 2286 0a62 6D0A0000 		.4byte	0xa6d
 2287 0a66 23       		.uleb128 0x23
 2288 0a67 01       		.byte	0x1
 2289 0a68 50       		.byte	0x50
 2290 0a69 02       		.byte	0x2
 2291 0a6a 75       		.byte	0x75
 2292 0a6b 00       		.sleb128 0
 2293 0a6c 00       		.byte	0
 2294 0a6d 22       		.uleb128 0x22
 2295 0a6e D2000000 		.4byte	.LVL35
 2296 0a72 B40E0000 		.4byte	0xeb4
 2297 0a76 810A0000 		.4byte	0xa81
 2298 0a7a 23       		.uleb128 0x23
 2299 0a7b 01       		.byte	0x1
 2300 0a7c 50       		.byte	0x50
 2301 0a7d 02       		.byte	0x2
ARM GAS  /tmp/cc9zij47.s 			page 66


 2302 0a7e 74       		.byte	0x74
 2303 0a7f 00       		.sleb128 0
 2304 0a80 00       		.byte	0
 2305 0a81 22       		.uleb128 0x22
 2306 0a82 DA000000 		.4byte	.LVL36
 2307 0a86 500E0000 		.4byte	0xe50
 2308 0a8a 9E0A0000 		.4byte	0xa9e
 2309 0a8e 23       		.uleb128 0x23
 2310 0a8f 01       		.byte	0x1
 2311 0a90 51       		.byte	0x51
 2312 0a91 02       		.byte	0x2
 2313 0a92 7D       		.byte	0x7d
 2314 0a93 00       		.sleb128 0
 2315 0a94 23       		.uleb128 0x23
 2316 0a95 01       		.byte	0x1
 2317 0a96 50       		.byte	0x50
 2318 0a97 05       		.byte	0x5
 2319 0a98 03       		.byte	0x3
 2320 0a99 00000000 		.4byte	.LANCHOR0
 2321 0a9d 00       		.byte	0
 2322 0a9e 22       		.uleb128 0x22
 2323 0a9f E6000000 		.4byte	.LVL37
 2324 0aa3 900E0000 		.4byte	0xe90
 2325 0aa7 B10A0000 		.4byte	0xab1
 2326 0aab 23       		.uleb128 0x23
 2327 0aac 01       		.byte	0x1
 2328 0aad 50       		.byte	0x50
 2329 0aae 01       		.byte	0x1
 2330 0aaf 34       		.byte	0x34
 2331 0ab0 00       		.byte	0
 2332 0ab1 22       		.uleb128 0x22
 2333 0ab2 F2000000 		.4byte	.LVL38
 2334 0ab6 730E0000 		.4byte	0xe73
 2335 0aba CD0A0000 		.4byte	0xacd
 2336 0abe 23       		.uleb128 0x23
 2337 0abf 01       		.byte	0x1
 2338 0ac0 51       		.byte	0x51
 2339 0ac1 01       		.byte	0x1
 2340 0ac2 41       		.byte	0x41
 2341 0ac3 23       		.uleb128 0x23
 2342 0ac4 01       		.byte	0x1
 2343 0ac5 50       		.byte	0x50
 2344 0ac6 05       		.byte	0x5
 2345 0ac7 03       		.byte	0x3
 2346 0ac8 00000000 		.4byte	.LANCHOR0
 2347 0acc 00       		.byte	0
 2348 0acd 22       		.uleb128 0x22
 2349 0ace FC000000 		.4byte	.LVL41
 2350 0ad2 730E0000 		.4byte	0xe73
 2351 0ad6 E90A0000 		.4byte	0xae9
 2352 0ada 23       		.uleb128 0x23
 2353 0adb 01       		.byte	0x1
 2354 0adc 51       		.byte	0x51
 2355 0add 01       		.byte	0x1
 2356 0ade 40       		.byte	0x40
 2357 0adf 23       		.uleb128 0x23
 2358 0ae0 01       		.byte	0x1
ARM GAS  /tmp/cc9zij47.s 			page 67


 2359 0ae1 50       		.byte	0x50
 2360 0ae2 05       		.byte	0x5
 2361 0ae3 03       		.byte	0x3
 2362 0ae4 00000000 		.4byte	.LANCHOR0
 2363 0ae8 00       		.byte	0
 2364 0ae9 22       		.uleb128 0x22
 2365 0aea 04010000 		.4byte	.LVL44
 2366 0aee B40E0000 		.4byte	0xeb4
 2367 0af2 FD0A0000 		.4byte	0xafd
 2368 0af6 23       		.uleb128 0x23
 2369 0af7 01       		.byte	0x1
 2370 0af8 50       		.byte	0x50
 2371 0af9 02       		.byte	0x2
 2372 0afa 74       		.byte	0x74
 2373 0afb 00       		.sleb128 0
 2374 0afc 00       		.byte	0
 2375 0afd 22       		.uleb128 0x22
 2376 0afe 0C010000 		.4byte	.LVL45
 2377 0b02 500E0000 		.4byte	0xe50
 2378 0b06 1A0B0000 		.4byte	0xb1a
 2379 0b0a 23       		.uleb128 0x23
 2380 0b0b 01       		.byte	0x1
 2381 0b0c 51       		.byte	0x51
 2382 0b0d 02       		.byte	0x2
 2383 0b0e 7D       		.byte	0x7d
 2384 0b0f 00       		.sleb128 0
 2385 0b10 23       		.uleb128 0x23
 2386 0b11 01       		.byte	0x1
 2387 0b12 50       		.byte	0x50
 2388 0b13 05       		.byte	0x5
 2389 0b14 03       		.byte	0x3
 2390 0b15 00000000 		.4byte	.LANCHOR0
 2391 0b19 00       		.byte	0
 2392 0b1a 22       		.uleb128 0x22
 2393 0b1b 18010000 		.4byte	.LVL46
 2394 0b1f 900E0000 		.4byte	0xe90
 2395 0b23 2D0B0000 		.4byte	0xb2d
 2396 0b27 23       		.uleb128 0x23
 2397 0b28 01       		.byte	0x1
 2398 0b29 50       		.byte	0x50
 2399 0b2a 01       		.byte	0x1
 2400 0b2b 35       		.byte	0x35
 2401 0b2c 00       		.byte	0
 2402 0b2d 22       		.uleb128 0x22
 2403 0b2e 24010000 		.4byte	.LVL47
 2404 0b32 730E0000 		.4byte	0xe73
 2405 0b36 490B0000 		.4byte	0xb49
 2406 0b3a 23       		.uleb128 0x23
 2407 0b3b 01       		.byte	0x1
 2408 0b3c 51       		.byte	0x51
 2409 0b3d 01       		.byte	0x1
 2410 0b3e 40       		.byte	0x40
 2411 0b3f 23       		.uleb128 0x23
 2412 0b40 01       		.byte	0x1
 2413 0b41 50       		.byte	0x50
 2414 0b42 05       		.byte	0x5
 2415 0b43 03       		.byte	0x3
ARM GAS  /tmp/cc9zij47.s 			page 68


 2416 0b44 00000000 		.4byte	.LANCHOR0
 2417 0b48 00       		.byte	0
 2418 0b49 22       		.uleb128 0x22
 2419 0b4a 2E010000 		.4byte	.LVL50
 2420 0b4e 500E0000 		.4byte	0xe50
 2421 0b52 660B0000 		.4byte	0xb66
 2422 0b56 23       		.uleb128 0x23
 2423 0b57 01       		.byte	0x1
 2424 0b58 51       		.byte	0x51
 2425 0b59 02       		.byte	0x2
 2426 0b5a 7D       		.byte	0x7d
 2427 0b5b 00       		.sleb128 0
 2428 0b5c 23       		.uleb128 0x23
 2429 0b5d 01       		.byte	0x1
 2430 0b5e 50       		.byte	0x50
 2431 0b5f 05       		.byte	0x5
 2432 0b60 03       		.byte	0x3
 2433 0b61 00000000 		.4byte	.LANCHOR0
 2434 0b65 00       		.byte	0
 2435 0b66 22       		.uleb128 0x22
 2436 0b67 3E010000 		.4byte	.LVL51
 2437 0b6b 500E0000 		.4byte	0xe50
 2438 0b6f 830B0000 		.4byte	0xb83
 2439 0b73 23       		.uleb128 0x23
 2440 0b74 01       		.byte	0x1
 2441 0b75 51       		.byte	0x51
 2442 0b76 02       		.byte	0x2
 2443 0b77 7D       		.byte	0x7d
 2444 0b78 00       		.sleb128 0
 2445 0b79 23       		.uleb128 0x23
 2446 0b7a 01       		.byte	0x1
 2447 0b7b 50       		.byte	0x50
 2448 0b7c 05       		.byte	0x5
 2449 0b7d 03       		.byte	0x3
 2450 0b7e 00000000 		.4byte	.LANCHOR0
 2451 0b82 00       		.byte	0
 2452 0b83 22       		.uleb128 0x22
 2453 0b84 4A010000 		.4byte	.LVL52
 2454 0b88 900E0000 		.4byte	0xe90
 2455 0b8c 960B0000 		.4byte	0xb96
 2456 0b90 23       		.uleb128 0x23
 2457 0b91 01       		.byte	0x1
 2458 0b92 50       		.byte	0x50
 2459 0b93 01       		.byte	0x1
 2460 0b94 36       		.byte	0x36
 2461 0b95 00       		.byte	0
 2462 0b96 22       		.uleb128 0x22
 2463 0b97 56010000 		.4byte	.LVL53
 2464 0b9b B40E0000 		.4byte	0xeb4
 2465 0b9f AA0B0000 		.4byte	0xbaa
 2466 0ba3 23       		.uleb128 0x23
 2467 0ba4 01       		.byte	0x1
 2468 0ba5 50       		.byte	0x50
 2469 0ba6 02       		.byte	0x2
 2470 0ba7 75       		.byte	0x75
 2471 0ba8 00       		.sleb128 0
 2472 0ba9 00       		.byte	0
ARM GAS  /tmp/cc9zij47.s 			page 69


 2473 0baa 22       		.uleb128 0x22
 2474 0bab 5C010000 		.4byte	.LVL54
 2475 0baf B40E0000 		.4byte	0xeb4
 2476 0bb3 BE0B0000 		.4byte	0xbbe
 2477 0bb7 23       		.uleb128 0x23
 2478 0bb8 01       		.byte	0x1
 2479 0bb9 50       		.byte	0x50
 2480 0bba 02       		.byte	0x2
 2481 0bbb 74       		.byte	0x74
 2482 0bbc 00       		.sleb128 0
 2483 0bbd 00       		.byte	0
 2484 0bbe 22       		.uleb128 0x22
 2485 0bbf 64010000 		.4byte	.LVL55
 2486 0bc3 500E0000 		.4byte	0xe50
 2487 0bc7 DB0B0000 		.4byte	0xbdb
 2488 0bcb 23       		.uleb128 0x23
 2489 0bcc 01       		.byte	0x1
 2490 0bcd 51       		.byte	0x51
 2491 0bce 02       		.byte	0x2
 2492 0bcf 7D       		.byte	0x7d
 2493 0bd0 00       		.sleb128 0
 2494 0bd1 23       		.uleb128 0x23
 2495 0bd2 01       		.byte	0x1
 2496 0bd3 50       		.byte	0x50
 2497 0bd4 05       		.byte	0x5
 2498 0bd5 03       		.byte	0x3
 2499 0bd6 00000000 		.4byte	.LANCHOR0
 2500 0bda 00       		.byte	0
 2501 0bdb 22       		.uleb128 0x22
 2502 0bdc 76010000 		.4byte	.LVL56
 2503 0be0 900E0000 		.4byte	0xe90
 2504 0be4 EE0B0000 		.4byte	0xbee
 2505 0be8 23       		.uleb128 0x23
 2506 0be9 01       		.byte	0x1
 2507 0bea 50       		.byte	0x50
 2508 0beb 01       		.byte	0x1
 2509 0bec 37       		.byte	0x37
 2510 0bed 00       		.byte	0
 2511 0bee 22       		.uleb128 0x22
 2512 0bef 84010000 		.4byte	.LVL57
 2513 0bf3 730E0000 		.4byte	0xe73
 2514 0bf7 0A0C0000 		.4byte	0xc0a
 2515 0bfb 23       		.uleb128 0x23
 2516 0bfc 01       		.byte	0x1
 2517 0bfd 51       		.byte	0x51
 2518 0bfe 01       		.byte	0x1
 2519 0bff 40       		.byte	0x40
 2520 0c00 23       		.uleb128 0x23
 2521 0c01 01       		.byte	0x1
 2522 0c02 50       		.byte	0x50
 2523 0c03 05       		.byte	0x5
 2524 0c04 03       		.byte	0x3
 2525 0c05 00000000 		.4byte	.LANCHOR0
 2526 0c09 00       		.byte	0
 2527 0c0a 22       		.uleb128 0x22
 2528 0c0b 8E010000 		.4byte	.LVL60
 2529 0c0f 730E0000 		.4byte	0xe73
ARM GAS  /tmp/cc9zij47.s 			page 70


 2530 0c13 260C0000 		.4byte	0xc26
 2531 0c17 23       		.uleb128 0x23
 2532 0c18 01       		.byte	0x1
 2533 0c19 51       		.byte	0x51
 2534 0c1a 01       		.byte	0x1
 2535 0c1b 40       		.byte	0x40
 2536 0c1c 23       		.uleb128 0x23
 2537 0c1d 01       		.byte	0x1
 2538 0c1e 50       		.byte	0x50
 2539 0c1f 05       		.byte	0x5
 2540 0c20 03       		.byte	0x3
 2541 0c21 00000000 		.4byte	.LANCHOR0
 2542 0c25 00       		.byte	0
 2543 0c26 22       		.uleb128 0x22
 2544 0c27 96010000 		.4byte	.LVL63
 2545 0c2b B40E0000 		.4byte	0xeb4
 2546 0c2f 3A0C0000 		.4byte	0xc3a
 2547 0c33 23       		.uleb128 0x23
 2548 0c34 01       		.byte	0x1
 2549 0c35 50       		.byte	0x50
 2550 0c36 02       		.byte	0x2
 2551 0c37 75       		.byte	0x75
 2552 0c38 00       		.sleb128 0
 2553 0c39 00       		.byte	0
 2554 0c3a 22       		.uleb128 0x22
 2555 0c3b 9E010000 		.4byte	.LVL64
 2556 0c3f 500E0000 		.4byte	0xe50
 2557 0c43 570C0000 		.4byte	0xc57
 2558 0c47 23       		.uleb128 0x23
 2559 0c48 01       		.byte	0x1
 2560 0c49 51       		.byte	0x51
 2561 0c4a 02       		.byte	0x2
 2562 0c4b 7D       		.byte	0x7d
 2563 0c4c 00       		.sleb128 0
 2564 0c4d 23       		.uleb128 0x23
 2565 0c4e 01       		.byte	0x1
 2566 0c4f 50       		.byte	0x50
 2567 0c50 05       		.byte	0x5
 2568 0c51 03       		.byte	0x3
 2569 0c52 00000000 		.4byte	.LANCHOR0
 2570 0c56 00       		.byte	0
 2571 0c57 22       		.uleb128 0x22
 2572 0c58 B0010000 		.4byte	.LVL65
 2573 0c5c 900E0000 		.4byte	0xe90
 2574 0c60 6A0C0000 		.4byte	0xc6a
 2575 0c64 23       		.uleb128 0x23
 2576 0c65 01       		.byte	0x1
 2577 0c66 50       		.byte	0x50
 2578 0c67 01       		.byte	0x1
 2579 0c68 38       		.byte	0x38
 2580 0c69 00       		.byte	0
 2581 0c6a 22       		.uleb128 0x22
 2582 0c6b BE010000 		.4byte	.LVL66
 2583 0c6f 730E0000 		.4byte	0xe73
 2584 0c73 870C0000 		.4byte	0xc87
 2585 0c77 23       		.uleb128 0x23
 2586 0c78 01       		.byte	0x1
ARM GAS  /tmp/cc9zij47.s 			page 71


 2587 0c79 51       		.byte	0x51
 2588 0c7a 02       		.byte	0x2
 2589 0c7b 08       		.byte	0x8
 2590 0c7c 20       		.byte	0x20
 2591 0c7d 23       		.uleb128 0x23
 2592 0c7e 01       		.byte	0x1
 2593 0c7f 50       		.byte	0x50
 2594 0c80 05       		.byte	0x5
 2595 0c81 03       		.byte	0x3
 2596 0c82 00000000 		.4byte	.LANCHOR0
 2597 0c86 00       		.byte	0
 2598 0c87 21       		.uleb128 0x21
 2599 0c88 C2010000 		.4byte	.LVL67
 2600 0c8c B40E0000 		.4byte	0xeb4
 2601 0c90 22       		.uleb128 0x22
 2602 0c91 C8010000 		.4byte	.LVL68
 2603 0c95 B40E0000 		.4byte	0xeb4
 2604 0c99 A40C0000 		.4byte	0xca4
 2605 0c9d 23       		.uleb128 0x23
 2606 0c9e 01       		.byte	0x1
 2607 0c9f 50       		.byte	0x50
 2608 0ca0 02       		.byte	0x2
 2609 0ca1 74       		.byte	0x74
 2610 0ca2 00       		.sleb128 0
 2611 0ca3 00       		.byte	0
 2612 0ca4 22       		.uleb128 0x22
 2613 0ca5 D0010000 		.4byte	.LVL69
 2614 0ca9 500E0000 		.4byte	0xe50
 2615 0cad C10C0000 		.4byte	0xcc1
 2616 0cb1 23       		.uleb128 0x23
 2617 0cb2 01       		.byte	0x1
 2618 0cb3 51       		.byte	0x51
 2619 0cb4 02       		.byte	0x2
 2620 0cb5 7D       		.byte	0x7d
 2621 0cb6 00       		.sleb128 0
 2622 0cb7 23       		.uleb128 0x23
 2623 0cb8 01       		.byte	0x1
 2624 0cb9 50       		.byte	0x50
 2625 0cba 05       		.byte	0x5
 2626 0cbb 03       		.byte	0x3
 2627 0cbc 00000000 		.4byte	.LANCHOR0
 2628 0cc0 00       		.byte	0
 2629 0cc1 22       		.uleb128 0x22
 2630 0cc2 DC010000 		.4byte	.LVL70
 2631 0cc6 900E0000 		.4byte	0xe90
 2632 0cca D40C0000 		.4byte	0xcd4
 2633 0cce 23       		.uleb128 0x23
 2634 0ccf 01       		.byte	0x1
 2635 0cd0 50       		.byte	0x50
 2636 0cd1 01       		.byte	0x1
 2637 0cd2 39       		.byte	0x39
 2638 0cd3 00       		.byte	0
 2639 0cd4 22       		.uleb128 0x22
 2640 0cd5 EA010000 		.4byte	.LVL71
 2641 0cd9 500E0000 		.4byte	0xe50
 2642 0cdd F10C0000 		.4byte	0xcf1
 2643 0ce1 23       		.uleb128 0x23
ARM GAS  /tmp/cc9zij47.s 			page 72


 2644 0ce2 01       		.byte	0x1
 2645 0ce3 51       		.byte	0x51
 2646 0ce4 02       		.byte	0x2
 2647 0ce5 7D       		.byte	0x7d
 2648 0ce6 00       		.sleb128 0
 2649 0ce7 23       		.uleb128 0x23
 2650 0ce8 01       		.byte	0x1
 2651 0ce9 50       		.byte	0x50
 2652 0cea 05       		.byte	0x5
 2653 0ceb 03       		.byte	0x3
 2654 0cec 00000000 		.4byte	.LANCHOR0
 2655 0cf0 00       		.byte	0
 2656 0cf1 22       		.uleb128 0x22
 2657 0cf2 F2010000 		.4byte	.LVL72
 2658 0cf6 730E0000 		.4byte	0xe73
 2659 0cfa 080D0000 		.4byte	0xd08
 2660 0cfe 23       		.uleb128 0x23
 2661 0cff 01       		.byte	0x1
 2662 0d00 50       		.byte	0x50
 2663 0d01 05       		.byte	0x5
 2664 0d02 03       		.byte	0x3
 2665 0d03 00000000 		.4byte	.LANCHOR0
 2666 0d07 00       		.byte	0
 2667 0d08 22       		.uleb128 0x22
 2668 0d09 FC010000 		.4byte	.LVL75
 2669 0d0d 500E0000 		.4byte	0xe50
 2670 0d11 250D0000 		.4byte	0xd25
 2671 0d15 23       		.uleb128 0x23
 2672 0d16 01       		.byte	0x1
 2673 0d17 51       		.byte	0x51
 2674 0d18 02       		.byte	0x2
 2675 0d19 7D       		.byte	0x7d
 2676 0d1a 00       		.sleb128 0
 2677 0d1b 23       		.uleb128 0x23
 2678 0d1c 01       		.byte	0x1
 2679 0d1d 50       		.byte	0x50
 2680 0d1e 05       		.byte	0x5
 2681 0d1f 03       		.byte	0x3
 2682 0d20 00000000 		.4byte	.LANCHOR0
 2683 0d24 00       		.byte	0
 2684 0d25 22       		.uleb128 0x22
 2685 0d26 0A020000 		.4byte	.LVL76
 2686 0d2a 900E0000 		.4byte	0xe90
 2687 0d2e 380D0000 		.4byte	0xd38
 2688 0d32 23       		.uleb128 0x23
 2689 0d33 01       		.byte	0x1
 2690 0d34 50       		.byte	0x50
 2691 0d35 01       		.byte	0x1
 2692 0d36 3A       		.byte	0x3a
 2693 0d37 00       		.byte	0
 2694 0d38 22       		.uleb128 0x22
 2695 0d39 16020000 		.4byte	.LVL77
 2696 0d3d B40E0000 		.4byte	0xeb4
 2697 0d41 4C0D0000 		.4byte	0xd4c
 2698 0d45 23       		.uleb128 0x23
 2699 0d46 01       		.byte	0x1
 2700 0d47 50       		.byte	0x50
ARM GAS  /tmp/cc9zij47.s 			page 73


 2701 0d48 02       		.byte	0x2
 2702 0d49 74       		.byte	0x74
 2703 0d4a 00       		.sleb128 0
 2704 0d4b 00       		.byte	0
 2705 0d4c 22       		.uleb128 0x22
 2706 0d4d 1E020000 		.4byte	.LVL78
 2707 0d51 500E0000 		.4byte	0xe50
 2708 0d55 690D0000 		.4byte	0xd69
 2709 0d59 23       		.uleb128 0x23
 2710 0d5a 01       		.byte	0x1
 2711 0d5b 51       		.byte	0x51
 2712 0d5c 02       		.byte	0x2
 2713 0d5d 7D       		.byte	0x7d
 2714 0d5e 00       		.sleb128 0
 2715 0d5f 23       		.uleb128 0x23
 2716 0d60 01       		.byte	0x1
 2717 0d61 50       		.byte	0x50
 2718 0d62 05       		.byte	0x5
 2719 0d63 03       		.byte	0x3
 2720 0d64 00000000 		.4byte	.LANCHOR0
 2721 0d68 00       		.byte	0
 2722 0d69 22       		.uleb128 0x22
 2723 0d6a 2A020000 		.4byte	.LVL79
 2724 0d6e 900E0000 		.4byte	0xe90
 2725 0d72 7C0D0000 		.4byte	0xd7c
 2726 0d76 23       		.uleb128 0x23
 2727 0d77 01       		.byte	0x1
 2728 0d78 50       		.byte	0x50
 2729 0d79 01       		.byte	0x1
 2730 0d7a 3B       		.byte	0x3b
 2731 0d7b 00       		.byte	0
 2732 0d7c 24       		.uleb128 0x24
 2733 0d7d 40020000 		.4byte	.LVL83
 2734 0d81 900E0000 		.4byte	0xe90
 2735 0d85 23       		.uleb128 0x23
 2736 0d86 01       		.byte	0x1
 2737 0d87 50       		.byte	0x50
 2738 0d88 01       		.byte	0x1
 2739 0d89 3C       		.byte	0x3c
 2740 0d8a 00       		.byte	0
 2741 0d8b 00       		.byte	0
 2742 0d8c 25       		.uleb128 0x25
 2743 0d8d 90000000 		.4byte	.LASF117
 2744 0d91 01       		.byte	0x1
 2745 0d92 40       		.byte	0x40
 2746 0d93 01       		.byte	0x1
 2747 0d94 00000000 		.4byte	.LFB241
 2748 0d98 18000000 		.4byte	.LFE241
 2749 0d9c 02       		.byte	0x2
 2750 0d9d 7D       		.byte	0x7d
 2751 0d9e 00       		.sleb128 0
 2752 0d9f 01       		.byte	0x1
 2753 0da0 C00D0000 		.4byte	0xdc0
 2754 0da4 26       		.uleb128 0x26
 2755 0da5 18000000 		.4byte	.LVL84
 2756 0da9 01       		.byte	0x1
 2757 0daa C80E0000 		.4byte	0xec8
ARM GAS  /tmp/cc9zij47.s 			page 74


 2758 0dae 23       		.uleb128 0x23
 2759 0daf 01       		.byte	0x1
 2760 0db0 52       		.byte	0x52
 2761 0db1 03       		.byte	0x3
 2762 0db2 0A       		.byte	0xa
 2763 0db3 6806     		.2byte	0x668
 2764 0db5 23       		.uleb128 0x23
 2765 0db6 01       		.byte	0x1
 2766 0db7 50       		.byte	0x50
 2767 0db8 05       		.byte	0x5
 2768 0db9 03       		.byte	0x3
 2769 0dba 00000000 		.4byte	.LANCHOR0
 2770 0dbe 00       		.byte	0
 2771 0dbf 00       		.byte	0
 2772 0dc0 27       		.uleb128 0x27
 2773 0dc1 4F040000 		.4byte	.LASF118
 2774 0dc5 01       		.byte	0x1
 2775 0dc6 33       		.byte	0x33
 2776 0dc7 91060000 		.4byte	0x691
 2777 0dcb 05       		.byte	0x5
 2778 0dcc 03       		.byte	0x3
 2779 0dcd 00000000 		.4byte	test_heap
 2780 0dd1 28       		.uleb128 0x28
 2781 0dd2 E7030000 		.4byte	.LASF119
 2782 0dd6 0F       		.byte	0xf
 2783 0dd7 FA06     		.2byte	0x6fa
 2784 0dd9 DF0D0000 		.4byte	0xddf
 2785 0ddd 01       		.byte	0x1
 2786 0dde 01       		.byte	0x1
 2787 0ddf 14       		.uleb128 0x14
 2788 0de0 69000000 		.4byte	0x69
 2789 0de4 29       		.uleb128 0x29
 2790 0de5 636800   		.ascii	"ch\000"
 2791 0de8 06       		.byte	0x6
 2792 0de9 0902     		.2byte	0x209
 2793 0deb 03040000 		.4byte	0x403
 2794 0def 01       		.byte	0x1
 2795 0df0 01       		.byte	0x1
 2796 0df1 2A       		.uleb128 0x2a
 2797 0df2 BC000000 		.4byte	.LASF120
 2798 0df6 0E       		.byte	0xe
 2799 0df7 A8       		.byte	0xa8
 2800 0df8 EE070000 		.4byte	0x7ee
 2801 0dfc 01       		.byte	0x1
 2802 0dfd 01       		.byte	0x1
 2803 0dfe 2B       		.uleb128 0x2b
 2804 0dff BA010000 		.4byte	.LASF121
 2805 0e03 01       		.byte	0x1
 2806 0e04 8E       		.byte	0x8e
 2807 0e05 100E0000 		.4byte	0xe10
 2808 0e09 01       		.byte	0x1
 2809 0e0a 05       		.byte	0x5
 2810 0e0b 03       		.byte	0x3
 2811 0e0c 00000000 		.4byte	testheap1
 2812 0e10 13       		.uleb128 0x13
 2813 0e11 42070000 		.4byte	0x742
 2814 0e15 15       		.uleb128 0x15
ARM GAS  /tmp/cc9zij47.s 			page 75


 2815 0e16 250E0000 		.4byte	0xe25
 2816 0e1a 250E0000 		.4byte	0xe25
 2817 0e1e 16       		.uleb128 0x16
 2818 0e1f 76040000 		.4byte	0x476
 2819 0e23 01       		.byte	0x1
 2820 0e24 00       		.byte	0
 2821 0e25 09       		.uleb128 0x9
 2822 0e26 04       		.byte	0x4
 2823 0e27 100E0000 		.4byte	0xe10
 2824 0e2b 2B       		.uleb128 0x2b
 2825 0e2c 3D020000 		.4byte	.LASF122
 2826 0e30 01       		.byte	0x1
 2827 0e31 9A       		.byte	0x9a
 2828 0e32 3D0E0000 		.4byte	0xe3d
 2829 0e36 01       		.byte	0x1
 2830 0e37 05       		.byte	0x5
 2831 0e38 03       		.byte	0x3
 2832 0e39 00000000 		.4byte	patternheap
 2833 0e3d 13       		.uleb128 0x13
 2834 0e3e 150E0000 		.4byte	0xe15
 2835 0e42 2C       		.uleb128 0x2c
 2836 0e43 01       		.byte	0x1
 2837 0e44 1A010000 		.4byte	.LASF130
 2838 0e48 0C       		.byte	0xc
 2839 0e49 62       		.byte	0x62
 2840 0e4a 01       		.byte	0x1
 2841 0e4b 30000000 		.4byte	0x30
 2842 0e4f 01       		.byte	0x1
 2843 0e50 2D       		.uleb128 0x2d
 2844 0e51 01       		.byte	0x1
 2845 0e52 4A010000 		.4byte	.LASF123
 2846 0e56 0D       		.byte	0xd
 2847 0e57 69       		.byte	0x69
 2848 0e58 01       		.byte	0x1
 2849 0e59 30000000 		.4byte	0x30
 2850 0e5d 01       		.byte	0x1
 2851 0e5e 6D0E0000 		.4byte	0xe6d
 2852 0e62 0C       		.uleb128 0xc
 2853 0e63 19070000 		.4byte	0x719
 2854 0e67 0C       		.uleb128 0xc
 2855 0e68 6D0E0000 		.4byte	0xe6d
 2856 0e6c 00       		.byte	0
 2857 0e6d 09       		.uleb128 0x9
 2858 0e6e 04       		.byte	0x4
 2859 0e6f 30000000 		.4byte	0x30
 2860 0e73 2D       		.uleb128 0x2d
 2861 0e74 01       		.byte	0x1
 2862 0e75 92020000 		.4byte	.LASF124
 2863 0e79 0D       		.byte	0xd
 2864 0e7a 67       		.byte	0x67
 2865 0e7b 01       		.byte	0x1
 2866 0e7c 20030000 		.4byte	0x320
 2867 0e80 01       		.byte	0x1
 2868 0e81 900E0000 		.4byte	0xe90
 2869 0e85 0C       		.uleb128 0xc
 2870 0e86 19070000 		.4byte	0x719
 2871 0e8a 0C       		.uleb128 0xc
ARM GAS  /tmp/cc9zij47.s 			page 76


 2872 0e8b 30000000 		.4byte	0x30
 2873 0e8f 00       		.byte	0
 2874 0e90 2D       		.uleb128 0x2d
 2875 0e91 01       		.byte	0x1
 2876 0e92 CF000000 		.4byte	.LASF125
 2877 0e96 0E       		.byte	0xe
 2878 0e97 5A       		.byte	0x5a
 2879 0e98 01       		.byte	0x1
 2880 0e99 AD0E0000 		.4byte	0xead
 2881 0e9d 01       		.byte	0x1
 2882 0e9e AD0E0000 		.4byte	0xead
 2883 0ea2 0C       		.uleb128 0xc
 2884 0ea3 3B000000 		.4byte	0x3b
 2885 0ea7 0C       		.uleb128 0xc
 2886 0ea8 AD0E0000 		.4byte	0xead
 2887 0eac 00       		.byte	0
 2888 0ead 04       		.uleb128 0x4
 2889 0eae 01       		.byte	0x1
 2890 0eaf 02       		.byte	0x2
 2891 0eb0 1C020000 		.4byte	.LASF126
 2892 0eb4 2E       		.uleb128 0x2e
 2893 0eb5 01       		.byte	0x1
 2894 0eb6 FB020000 		.4byte	.LASF131
 2895 0eba 0D       		.byte	0xd
 2896 0ebb 68       		.byte	0x68
 2897 0ebc 01       		.byte	0x1
 2898 0ebd 01       		.byte	0x1
 2899 0ebe C80E0000 		.4byte	0xec8
 2900 0ec2 0C       		.uleb128 0xc
 2901 0ec3 20030000 		.4byte	0x320
 2902 0ec7 00       		.byte	0
 2903 0ec8 2F       		.uleb128 0x2f
 2904 0ec9 01       		.byte	0x1
 2905 0eca 7B030000 		.4byte	.LASF132
 2906 0ece 0D       		.byte	0xd
 2907 0ecf 66       		.byte	0x66
 2908 0ed0 01       		.byte	0x1
 2909 0ed1 01       		.byte	0x1
 2910 0ed2 0C       		.uleb128 0xc
 2911 0ed3 19070000 		.4byte	0x719
 2912 0ed7 0C       		.uleb128 0xc
 2913 0ed8 20030000 		.4byte	0x320
 2914 0edc 0C       		.uleb128 0xc
 2915 0edd 30000000 		.4byte	0x30
 2916 0ee1 00       		.byte	0
 2917 0ee2 00       		.byte	0
 2918              		.section	.debug_abbrev,"",%progbits
 2919              	.Ldebug_abbrev0:
 2920 0000 01       		.uleb128 0x1
 2921 0001 11       		.uleb128 0x11
 2922 0002 01       		.byte	0x1
 2923 0003 25       		.uleb128 0x25
 2924 0004 0E       		.uleb128 0xe
 2925 0005 13       		.uleb128 0x13
 2926 0006 0B       		.uleb128 0xb
 2927 0007 03       		.uleb128 0x3
 2928 0008 0E       		.uleb128 0xe
ARM GAS  /tmp/cc9zij47.s 			page 77


 2929 0009 1B       		.uleb128 0x1b
 2930 000a 0E       		.uleb128 0xe
 2931 000b 55       		.uleb128 0x55
 2932 000c 06       		.uleb128 0x6
 2933 000d 11       		.uleb128 0x11
 2934 000e 01       		.uleb128 0x1
 2935 000f 52       		.uleb128 0x52
 2936 0010 01       		.uleb128 0x1
 2937 0011 10       		.uleb128 0x10
 2938 0012 06       		.uleb128 0x6
 2939 0013 00       		.byte	0
 2940 0014 00       		.byte	0
 2941 0015 02       		.uleb128 0x2
 2942 0016 24       		.uleb128 0x24
 2943 0017 00       		.byte	0
 2944 0018 0B       		.uleb128 0xb
 2945 0019 0B       		.uleb128 0xb
 2946 001a 3E       		.uleb128 0x3e
 2947 001b 0B       		.uleb128 0xb
 2948 001c 03       		.uleb128 0x3
 2949 001d 08       		.uleb128 0x8
 2950 001e 00       		.byte	0
 2951 001f 00       		.byte	0
 2952 0020 03       		.uleb128 0x3
 2953 0021 16       		.uleb128 0x16
 2954 0022 00       		.byte	0
 2955 0023 03       		.uleb128 0x3
 2956 0024 0E       		.uleb128 0xe
 2957 0025 3A       		.uleb128 0x3a
 2958 0026 0B       		.uleb128 0xb
 2959 0027 3B       		.uleb128 0x3b
 2960 0028 0B       		.uleb128 0xb
 2961 0029 49       		.uleb128 0x49
 2962 002a 13       		.uleb128 0x13
 2963 002b 00       		.byte	0
 2964 002c 00       		.byte	0
 2965 002d 04       		.uleb128 0x4
 2966 002e 24       		.uleb128 0x24
 2967 002f 00       		.byte	0
 2968 0030 0B       		.uleb128 0xb
 2969 0031 0B       		.uleb128 0xb
 2970 0032 3E       		.uleb128 0x3e
 2971 0033 0B       		.uleb128 0xb
 2972 0034 03       		.uleb128 0x3
 2973 0035 0E       		.uleb128 0xe
 2974 0036 00       		.byte	0
 2975 0037 00       		.byte	0
 2976 0038 05       		.uleb128 0x5
 2977 0039 13       		.uleb128 0x13
 2978 003a 01       		.byte	0x1
 2979 003b 03       		.uleb128 0x3
 2980 003c 0E       		.uleb128 0xe
 2981 003d 0B       		.uleb128 0xb
 2982 003e 0B       		.uleb128 0xb
 2983 003f 3A       		.uleb128 0x3a
 2984 0040 0B       		.uleb128 0xb
 2985 0041 3B       		.uleb128 0x3b
ARM GAS  /tmp/cc9zij47.s 			page 78


 2986 0042 0B       		.uleb128 0xb
 2987 0043 01       		.uleb128 0x1
 2988 0044 13       		.uleb128 0x13
 2989 0045 00       		.byte	0
 2990 0046 00       		.byte	0
 2991 0047 06       		.uleb128 0x6
 2992 0048 0D       		.uleb128 0xd
 2993 0049 00       		.byte	0
 2994 004a 03       		.uleb128 0x3
 2995 004b 0E       		.uleb128 0xe
 2996 004c 3A       		.uleb128 0x3a
 2997 004d 0B       		.uleb128 0xb
 2998 004e 3B       		.uleb128 0x3b
 2999 004f 0B       		.uleb128 0xb
 3000 0050 49       		.uleb128 0x49
 3001 0051 13       		.uleb128 0x13
 3002 0052 38       		.uleb128 0x38
 3003 0053 0A       		.uleb128 0xa
 3004 0054 00       		.byte	0
 3005 0055 00       		.byte	0
 3006 0056 07       		.uleb128 0x7
 3007 0057 0D       		.uleb128 0xd
 3008 0058 00       		.byte	0
 3009 0059 03       		.uleb128 0x3
 3010 005a 08       		.uleb128 0x8
 3011 005b 3A       		.uleb128 0x3a
 3012 005c 0B       		.uleb128 0xb
 3013 005d 3B       		.uleb128 0x3b
 3014 005e 05       		.uleb128 0x5
 3015 005f 49       		.uleb128 0x49
 3016 0060 13       		.uleb128 0x13
 3017 0061 38       		.uleb128 0x38
 3018 0062 0A       		.uleb128 0xa
 3019 0063 00       		.byte	0
 3020 0064 00       		.byte	0
 3021 0065 08       		.uleb128 0x8
 3022 0066 0D       		.uleb128 0xd
 3023 0067 00       		.byte	0
 3024 0068 03       		.uleb128 0x3
 3025 0069 0E       		.uleb128 0xe
 3026 006a 3A       		.uleb128 0x3a
 3027 006b 0B       		.uleb128 0xb
 3028 006c 3B       		.uleb128 0x3b
 3029 006d 05       		.uleb128 0x5
 3030 006e 49       		.uleb128 0x49
 3031 006f 13       		.uleb128 0x13
 3032 0070 38       		.uleb128 0x38
 3033 0071 0A       		.uleb128 0xa
 3034 0072 00       		.byte	0
 3035 0073 00       		.byte	0
 3036 0074 09       		.uleb128 0x9
 3037 0075 0F       		.uleb128 0xf
 3038 0076 00       		.byte	0
 3039 0077 0B       		.uleb128 0xb
 3040 0078 0B       		.uleb128 0xb
 3041 0079 49       		.uleb128 0x49
 3042 007a 13       		.uleb128 0x13
ARM GAS  /tmp/cc9zij47.s 			page 79


 3043 007b 00       		.byte	0
 3044 007c 00       		.byte	0
 3045 007d 0A       		.uleb128 0xa
 3046 007e 13       		.uleb128 0x13
 3047 007f 01       		.byte	0x1
 3048 0080 03       		.uleb128 0x3
 3049 0081 0E       		.uleb128 0xe
 3050 0082 0B       		.uleb128 0xb
 3051 0083 0B       		.uleb128 0xb
 3052 0084 3A       		.uleb128 0x3a
 3053 0085 0B       		.uleb128 0xb
 3054 0086 3B       		.uleb128 0x3b
 3055 0087 05       		.uleb128 0x5
 3056 0088 01       		.uleb128 0x1
 3057 0089 13       		.uleb128 0x13
 3058 008a 00       		.byte	0
 3059 008b 00       		.byte	0
 3060 008c 0B       		.uleb128 0xb
 3061 008d 15       		.uleb128 0x15
 3062 008e 01       		.byte	0x1
 3063 008f 27       		.uleb128 0x27
 3064 0090 0C       		.uleb128 0xc
 3065 0091 01       		.uleb128 0x1
 3066 0092 13       		.uleb128 0x13
 3067 0093 00       		.byte	0
 3068 0094 00       		.byte	0
 3069 0095 0C       		.uleb128 0xc
 3070 0096 05       		.uleb128 0x5
 3071 0097 00       		.byte	0
 3072 0098 49       		.uleb128 0x49
 3073 0099 13       		.uleb128 0x13
 3074 009a 00       		.byte	0
 3075 009b 00       		.byte	0
 3076 009c 0D       		.uleb128 0xd
 3077 009d 0F       		.uleb128 0xf
 3078 009e 00       		.byte	0
 3079 009f 0B       		.uleb128 0xb
 3080 00a0 0B       		.uleb128 0xb
 3081 00a1 00       		.byte	0
 3082 00a2 00       		.byte	0
 3083 00a3 0E       		.uleb128 0xe
 3084 00a4 13       		.uleb128 0x13
 3085 00a5 01       		.byte	0x1
 3086 00a6 03       		.uleb128 0x3
 3087 00a7 0E       		.uleb128 0xe
 3088 00a8 0B       		.uleb128 0xb
 3089 00a9 05       		.uleb128 0x5
 3090 00aa 3A       		.uleb128 0x3a
 3091 00ab 0B       		.uleb128 0xb
 3092 00ac 3B       		.uleb128 0x3b
 3093 00ad 05       		.uleb128 0x5
 3094 00ae 01       		.uleb128 0x1
 3095 00af 13       		.uleb128 0x13
 3096 00b0 00       		.byte	0
 3097 00b1 00       		.byte	0
 3098 00b2 0F       		.uleb128 0xf
 3099 00b3 0D       		.uleb128 0xd
ARM GAS  /tmp/cc9zij47.s 			page 80


 3100 00b4 00       		.byte	0
 3101 00b5 03       		.uleb128 0x3
 3102 00b6 08       		.uleb128 0x8
 3103 00b7 3A       		.uleb128 0x3a
 3104 00b8 0B       		.uleb128 0xb
 3105 00b9 3B       		.uleb128 0x3b
 3106 00ba 0B       		.uleb128 0xb
 3107 00bb 49       		.uleb128 0x49
 3108 00bc 13       		.uleb128 0x13
 3109 00bd 38       		.uleb128 0x38
 3110 00be 0A       		.uleb128 0xa
 3111 00bf 00       		.byte	0
 3112 00c0 00       		.byte	0
 3113 00c1 10       		.uleb128 0x10
 3114 00c2 13       		.uleb128 0x13
 3115 00c3 01       		.byte	0x1
 3116 00c4 0B       		.uleb128 0xb
 3117 00c5 0B       		.uleb128 0xb
 3118 00c6 3A       		.uleb128 0x3a
 3119 00c7 0B       		.uleb128 0xb
 3120 00c8 3B       		.uleb128 0x3b
 3121 00c9 0B       		.uleb128 0xb
 3122 00ca 01       		.uleb128 0x1
 3123 00cb 13       		.uleb128 0x13
 3124 00cc 00       		.byte	0
 3125 00cd 00       		.byte	0
 3126 00ce 11       		.uleb128 0x11
 3127 00cf 17       		.uleb128 0x17
 3128 00d0 01       		.byte	0x1
 3129 00d1 0B       		.uleb128 0xb
 3130 00d2 0B       		.uleb128 0xb
 3131 00d3 3A       		.uleb128 0x3a
 3132 00d4 0B       		.uleb128 0xb
 3133 00d5 3B       		.uleb128 0x3b
 3134 00d6 0B       		.uleb128 0xb
 3135 00d7 01       		.uleb128 0x1
 3136 00d8 13       		.uleb128 0x13
 3137 00d9 00       		.byte	0
 3138 00da 00       		.byte	0
 3139 00db 12       		.uleb128 0x12
 3140 00dc 0D       		.uleb128 0xd
 3141 00dd 00       		.byte	0
 3142 00de 03       		.uleb128 0x3
 3143 00df 0E       		.uleb128 0xe
 3144 00e0 3A       		.uleb128 0x3a
 3145 00e1 0B       		.uleb128 0xb
 3146 00e2 3B       		.uleb128 0x3b
 3147 00e3 05       		.uleb128 0x5
 3148 00e4 49       		.uleb128 0x49
 3149 00e5 13       		.uleb128 0x13
 3150 00e6 00       		.byte	0
 3151 00e7 00       		.byte	0
 3152 00e8 13       		.uleb128 0x13
 3153 00e9 26       		.uleb128 0x26
 3154 00ea 00       		.byte	0
 3155 00eb 49       		.uleb128 0x49
 3156 00ec 13       		.uleb128 0x13
ARM GAS  /tmp/cc9zij47.s 			page 81


 3157 00ed 00       		.byte	0
 3158 00ee 00       		.byte	0
 3159 00ef 14       		.uleb128 0x14
 3160 00f0 35       		.uleb128 0x35
 3161 00f1 00       		.byte	0
 3162 00f2 49       		.uleb128 0x49
 3163 00f3 13       		.uleb128 0x13
 3164 00f4 00       		.byte	0
 3165 00f5 00       		.byte	0
 3166 00f6 15       		.uleb128 0x15
 3167 00f7 01       		.uleb128 0x1
 3168 00f8 01       		.byte	0x1
 3169 00f9 49       		.uleb128 0x49
 3170 00fa 13       		.uleb128 0x13
 3171 00fb 01       		.uleb128 0x1
 3172 00fc 13       		.uleb128 0x13
 3173 00fd 00       		.byte	0
 3174 00fe 00       		.byte	0
 3175 00ff 16       		.uleb128 0x16
 3176 0100 21       		.uleb128 0x21
 3177 0101 00       		.byte	0
 3178 0102 49       		.uleb128 0x49
 3179 0103 13       		.uleb128 0x13
 3180 0104 2F       		.uleb128 0x2f
 3181 0105 0B       		.uleb128 0xb
 3182 0106 00       		.byte	0
 3183 0107 00       		.byte	0
 3184 0108 17       		.uleb128 0x17
 3185 0109 15       		.uleb128 0x15
 3186 010a 01       		.byte	0x1
 3187 010b 27       		.uleb128 0x27
 3188 010c 0C       		.uleb128 0xc
 3189 010d 49       		.uleb128 0x49
 3190 010e 13       		.uleb128 0x13
 3191 010f 01       		.uleb128 0x1
 3192 0110 13       		.uleb128 0x13
 3193 0111 00       		.byte	0
 3194 0112 00       		.byte	0
 3195 0113 18       		.uleb128 0x18
 3196 0114 0D       		.uleb128 0xd
 3197 0115 00       		.byte	0
 3198 0116 03       		.uleb128 0x3
 3199 0117 0E       		.uleb128 0xe
 3200 0118 3A       		.uleb128 0x3a
 3201 0119 0B       		.uleb128 0xb
 3202 011a 3B       		.uleb128 0x3b
 3203 011b 0B       		.uleb128 0xb
 3204 011c 49       		.uleb128 0x49
 3205 011d 13       		.uleb128 0x13
 3206 011e 00       		.byte	0
 3207 011f 00       		.byte	0
 3208 0120 19       		.uleb128 0x19
 3209 0121 17       		.uleb128 0x17
 3210 0122 01       		.byte	0x1
 3211 0123 03       		.uleb128 0x3
 3212 0124 0E       		.uleb128 0xe
 3213 0125 0B       		.uleb128 0xb
ARM GAS  /tmp/cc9zij47.s 			page 82


 3214 0126 0B       		.uleb128 0xb
 3215 0127 3A       		.uleb128 0x3a
 3216 0128 0B       		.uleb128 0xb
 3217 0129 3B       		.uleb128 0x3b
 3218 012a 0B       		.uleb128 0xb
 3219 012b 01       		.uleb128 0x1
 3220 012c 13       		.uleb128 0x13
 3221 012d 00       		.byte	0
 3222 012e 00       		.byte	0
 3223 012f 1A       		.uleb128 0x1a
 3224 0130 0D       		.uleb128 0xd
 3225 0131 00       		.byte	0
 3226 0132 03       		.uleb128 0x3
 3227 0133 08       		.uleb128 0x8
 3228 0134 3A       		.uleb128 0x3a
 3229 0135 0B       		.uleb128 0xb
 3230 0136 3B       		.uleb128 0x3b
 3231 0137 0B       		.uleb128 0xb
 3232 0138 49       		.uleb128 0x49
 3233 0139 13       		.uleb128 0x13
 3234 013a 00       		.byte	0
 3235 013b 00       		.byte	0
 3236 013c 1B       		.uleb128 0x1b
 3237 013d 15       		.uleb128 0x15
 3238 013e 00       		.byte	0
 3239 013f 27       		.uleb128 0x27
 3240 0140 0C       		.uleb128 0xc
 3241 0141 00       		.byte	0
 3242 0142 00       		.byte	0
 3243 0143 1C       		.uleb128 0x1c
 3244 0144 13       		.uleb128 0x13
 3245 0145 01       		.byte	0x1
 3246 0146 0B       		.uleb128 0xb
 3247 0147 05       		.uleb128 0x5
 3248 0148 3A       		.uleb128 0x3a
 3249 0149 0B       		.uleb128 0xb
 3250 014a 3B       		.uleb128 0x3b
 3251 014b 0B       		.uleb128 0xb
 3252 014c 01       		.uleb128 0x1
 3253 014d 13       		.uleb128 0x13
 3254 014e 00       		.byte	0
 3255 014f 00       		.byte	0
 3256 0150 1D       		.uleb128 0x1d
 3257 0151 17       		.uleb128 0x17
 3258 0152 01       		.byte	0x1
 3259 0153 03       		.uleb128 0x3
 3260 0154 0E       		.uleb128 0xe
 3261 0155 0B       		.uleb128 0xb
 3262 0156 05       		.uleb128 0x5
 3263 0157 3A       		.uleb128 0x3a
 3264 0158 0B       		.uleb128 0xb
 3265 0159 3B       		.uleb128 0x3b
 3266 015a 0B       		.uleb128 0xb
 3267 015b 01       		.uleb128 0x1
 3268 015c 13       		.uleb128 0x13
 3269 015d 00       		.byte	0
 3270 015e 00       		.byte	0
ARM GAS  /tmp/cc9zij47.s 			page 83


 3271 015f 1E       		.uleb128 0x1e
 3272 0160 21       		.uleb128 0x21
 3273 0161 00       		.byte	0
 3274 0162 49       		.uleb128 0x49
 3275 0163 13       		.uleb128 0x13
 3276 0164 2F       		.uleb128 0x2f
 3277 0165 05       		.uleb128 0x5
 3278 0166 00       		.byte	0
 3279 0167 00       		.byte	0
 3280 0168 1F       		.uleb128 0x1f
 3281 0169 2E       		.uleb128 0x2e
 3282 016a 01       		.byte	0x1
 3283 016b 03       		.uleb128 0x3
 3284 016c 0E       		.uleb128 0xe
 3285 016d 3A       		.uleb128 0x3a
 3286 016e 0B       		.uleb128 0xb
 3287 016f 3B       		.uleb128 0x3b
 3288 0170 0B       		.uleb128 0xb
 3289 0171 27       		.uleb128 0x27
 3290 0172 0C       		.uleb128 0xc
 3291 0173 11       		.uleb128 0x11
 3292 0174 01       		.uleb128 0x1
 3293 0175 12       		.uleb128 0x12
 3294 0176 01       		.uleb128 0x1
 3295 0177 40       		.uleb128 0x40
 3296 0178 06       		.uleb128 0x6
 3297 0179 9742     		.uleb128 0x2117
 3298 017b 0C       		.uleb128 0xc
 3299 017c 01       		.uleb128 0x1
 3300 017d 13       		.uleb128 0x13
 3301 017e 00       		.byte	0
 3302 017f 00       		.byte	0
 3303 0180 20       		.uleb128 0x20
 3304 0181 34       		.uleb128 0x34
 3305 0182 00       		.byte	0
 3306 0183 03       		.uleb128 0x3
 3307 0184 08       		.uleb128 0x8
 3308 0185 3A       		.uleb128 0x3a
 3309 0186 0B       		.uleb128 0xb
 3310 0187 3B       		.uleb128 0x3b
 3311 0188 0B       		.uleb128 0xb
 3312 0189 49       		.uleb128 0x49
 3313 018a 13       		.uleb128 0x13
 3314 018b 02       		.uleb128 0x2
 3315 018c 06       		.uleb128 0x6
 3316 018d 00       		.byte	0
 3317 018e 00       		.byte	0
 3318 018f 21       		.uleb128 0x21
 3319 0190 898201   		.uleb128 0x4109
 3320 0193 00       		.byte	0
 3321 0194 11       		.uleb128 0x11
 3322 0195 01       		.uleb128 0x1
 3323 0196 31       		.uleb128 0x31
 3324 0197 13       		.uleb128 0x13
 3325 0198 00       		.byte	0
 3326 0199 00       		.byte	0
 3327 019a 22       		.uleb128 0x22
ARM GAS  /tmp/cc9zij47.s 			page 84


 3328 019b 898201   		.uleb128 0x4109
 3329 019e 01       		.byte	0x1
 3330 019f 11       		.uleb128 0x11
 3331 01a0 01       		.uleb128 0x1
 3332 01a1 31       		.uleb128 0x31
 3333 01a2 13       		.uleb128 0x13
 3334 01a3 01       		.uleb128 0x1
 3335 01a4 13       		.uleb128 0x13
 3336 01a5 00       		.byte	0
 3337 01a6 00       		.byte	0
 3338 01a7 23       		.uleb128 0x23
 3339 01a8 8A8201   		.uleb128 0x410a
 3340 01ab 00       		.byte	0
 3341 01ac 02       		.uleb128 0x2
 3342 01ad 0A       		.uleb128 0xa
 3343 01ae 9142     		.uleb128 0x2111
 3344 01b0 0A       		.uleb128 0xa
 3345 01b1 00       		.byte	0
 3346 01b2 00       		.byte	0
 3347 01b3 24       		.uleb128 0x24
 3348 01b4 898201   		.uleb128 0x4109
 3349 01b7 01       		.byte	0x1
 3350 01b8 11       		.uleb128 0x11
 3351 01b9 01       		.uleb128 0x1
 3352 01ba 31       		.uleb128 0x31
 3353 01bb 13       		.uleb128 0x13
 3354 01bc 00       		.byte	0
 3355 01bd 00       		.byte	0
 3356 01be 25       		.uleb128 0x25
 3357 01bf 2E       		.uleb128 0x2e
 3358 01c0 01       		.byte	0x1
 3359 01c1 03       		.uleb128 0x3
 3360 01c2 0E       		.uleb128 0xe
 3361 01c3 3A       		.uleb128 0x3a
 3362 01c4 0B       		.uleb128 0xb
 3363 01c5 3B       		.uleb128 0x3b
 3364 01c6 0B       		.uleb128 0xb
 3365 01c7 27       		.uleb128 0x27
 3366 01c8 0C       		.uleb128 0xc
 3367 01c9 11       		.uleb128 0x11
 3368 01ca 01       		.uleb128 0x1
 3369 01cb 12       		.uleb128 0x12
 3370 01cc 01       		.uleb128 0x1
 3371 01cd 40       		.uleb128 0x40
 3372 01ce 0A       		.uleb128 0xa
 3373 01cf 9742     		.uleb128 0x2117
 3374 01d1 0C       		.uleb128 0xc
 3375 01d2 01       		.uleb128 0x1
 3376 01d3 13       		.uleb128 0x13
 3377 01d4 00       		.byte	0
 3378 01d5 00       		.byte	0
 3379 01d6 26       		.uleb128 0x26
 3380 01d7 898201   		.uleb128 0x4109
 3381 01da 01       		.byte	0x1
 3382 01db 11       		.uleb128 0x11
 3383 01dc 01       		.uleb128 0x1
 3384 01dd 9542     		.uleb128 0x2115
ARM GAS  /tmp/cc9zij47.s 			page 85


 3385 01df 0C       		.uleb128 0xc
 3386 01e0 31       		.uleb128 0x31
 3387 01e1 13       		.uleb128 0x13
 3388 01e2 00       		.byte	0
 3389 01e3 00       		.byte	0
 3390 01e4 27       		.uleb128 0x27
 3391 01e5 34       		.uleb128 0x34
 3392 01e6 00       		.byte	0
 3393 01e7 03       		.uleb128 0x3
 3394 01e8 0E       		.uleb128 0xe
 3395 01e9 3A       		.uleb128 0x3a
 3396 01ea 0B       		.uleb128 0xb
 3397 01eb 3B       		.uleb128 0x3b
 3398 01ec 0B       		.uleb128 0xb
 3399 01ed 49       		.uleb128 0x49
 3400 01ee 13       		.uleb128 0x13
 3401 01ef 02       		.uleb128 0x2
 3402 01f0 0A       		.uleb128 0xa
 3403 01f1 00       		.byte	0
 3404 01f2 00       		.byte	0
 3405 01f3 28       		.uleb128 0x28
 3406 01f4 34       		.uleb128 0x34
 3407 01f5 00       		.byte	0
 3408 01f6 03       		.uleb128 0x3
 3409 01f7 0E       		.uleb128 0xe
 3410 01f8 3A       		.uleb128 0x3a
 3411 01f9 0B       		.uleb128 0xb
 3412 01fa 3B       		.uleb128 0x3b
 3413 01fb 05       		.uleb128 0x5
 3414 01fc 49       		.uleb128 0x49
 3415 01fd 13       		.uleb128 0x13
 3416 01fe 3F       		.uleb128 0x3f
 3417 01ff 0C       		.uleb128 0xc
 3418 0200 3C       		.uleb128 0x3c
 3419 0201 0C       		.uleb128 0xc
 3420 0202 00       		.byte	0
 3421 0203 00       		.byte	0
 3422 0204 29       		.uleb128 0x29
 3423 0205 34       		.uleb128 0x34
 3424 0206 00       		.byte	0
 3425 0207 03       		.uleb128 0x3
 3426 0208 08       		.uleb128 0x8
 3427 0209 3A       		.uleb128 0x3a
 3428 020a 0B       		.uleb128 0xb
 3429 020b 3B       		.uleb128 0x3b
 3430 020c 05       		.uleb128 0x5
 3431 020d 49       		.uleb128 0x49
 3432 020e 13       		.uleb128 0x13
 3433 020f 3F       		.uleb128 0x3f
 3434 0210 0C       		.uleb128 0xc
 3435 0211 3C       		.uleb128 0x3c
 3436 0212 0C       		.uleb128 0xc
 3437 0213 00       		.byte	0
 3438 0214 00       		.byte	0
 3439 0215 2A       		.uleb128 0x2a
 3440 0216 34       		.uleb128 0x34
 3441 0217 00       		.byte	0
ARM GAS  /tmp/cc9zij47.s 			page 86


 3442 0218 03       		.uleb128 0x3
 3443 0219 0E       		.uleb128 0xe
 3444 021a 3A       		.uleb128 0x3a
 3445 021b 0B       		.uleb128 0xb
 3446 021c 3B       		.uleb128 0x3b
 3447 021d 0B       		.uleb128 0xb
 3448 021e 49       		.uleb128 0x49
 3449 021f 13       		.uleb128 0x13
 3450 0220 3F       		.uleb128 0x3f
 3451 0221 0C       		.uleb128 0xc
 3452 0222 3C       		.uleb128 0x3c
 3453 0223 0C       		.uleb128 0xc
 3454 0224 00       		.byte	0
 3455 0225 00       		.byte	0
 3456 0226 2B       		.uleb128 0x2b
 3457 0227 34       		.uleb128 0x34
 3458 0228 00       		.byte	0
 3459 0229 03       		.uleb128 0x3
 3460 022a 0E       		.uleb128 0xe
 3461 022b 3A       		.uleb128 0x3a
 3462 022c 0B       		.uleb128 0xb
 3463 022d 3B       		.uleb128 0x3b
 3464 022e 0B       		.uleb128 0xb
 3465 022f 49       		.uleb128 0x49
 3466 0230 13       		.uleb128 0x13
 3467 0231 3F       		.uleb128 0x3f
 3468 0232 0C       		.uleb128 0xc
 3469 0233 02       		.uleb128 0x2
 3470 0234 0A       		.uleb128 0xa
 3471 0235 00       		.byte	0
 3472 0236 00       		.byte	0
 3473 0237 2C       		.uleb128 0x2c
 3474 0238 2E       		.uleb128 0x2e
 3475 0239 00       		.byte	0
 3476 023a 3F       		.uleb128 0x3f
 3477 023b 0C       		.uleb128 0xc
 3478 023c 03       		.uleb128 0x3
 3479 023d 0E       		.uleb128 0xe
 3480 023e 3A       		.uleb128 0x3a
 3481 023f 0B       		.uleb128 0xb
 3482 0240 3B       		.uleb128 0x3b
 3483 0241 0B       		.uleb128 0xb
 3484 0242 27       		.uleb128 0x27
 3485 0243 0C       		.uleb128 0xc
 3486 0244 49       		.uleb128 0x49
 3487 0245 13       		.uleb128 0x13
 3488 0246 3C       		.uleb128 0x3c
 3489 0247 0C       		.uleb128 0xc
 3490 0248 00       		.byte	0
 3491 0249 00       		.byte	0
 3492 024a 2D       		.uleb128 0x2d
 3493 024b 2E       		.uleb128 0x2e
 3494 024c 01       		.byte	0x1
 3495 024d 3F       		.uleb128 0x3f
 3496 024e 0C       		.uleb128 0xc
 3497 024f 03       		.uleb128 0x3
 3498 0250 0E       		.uleb128 0xe
ARM GAS  /tmp/cc9zij47.s 			page 87


 3499 0251 3A       		.uleb128 0x3a
 3500 0252 0B       		.uleb128 0xb
 3501 0253 3B       		.uleb128 0x3b
 3502 0254 0B       		.uleb128 0xb
 3503 0255 27       		.uleb128 0x27
 3504 0256 0C       		.uleb128 0xc
 3505 0257 49       		.uleb128 0x49
 3506 0258 13       		.uleb128 0x13
 3507 0259 3C       		.uleb128 0x3c
 3508 025a 0C       		.uleb128 0xc
 3509 025b 01       		.uleb128 0x1
 3510 025c 13       		.uleb128 0x13
 3511 025d 00       		.byte	0
 3512 025e 00       		.byte	0
 3513 025f 2E       		.uleb128 0x2e
 3514 0260 2E       		.uleb128 0x2e
 3515 0261 01       		.byte	0x1
 3516 0262 3F       		.uleb128 0x3f
 3517 0263 0C       		.uleb128 0xc
 3518 0264 03       		.uleb128 0x3
 3519 0265 0E       		.uleb128 0xe
 3520 0266 3A       		.uleb128 0x3a
 3521 0267 0B       		.uleb128 0xb
 3522 0268 3B       		.uleb128 0x3b
 3523 0269 0B       		.uleb128 0xb
 3524 026a 27       		.uleb128 0x27
 3525 026b 0C       		.uleb128 0xc
 3526 026c 3C       		.uleb128 0x3c
 3527 026d 0C       		.uleb128 0xc
 3528 026e 01       		.uleb128 0x1
 3529 026f 13       		.uleb128 0x13
 3530 0270 00       		.byte	0
 3531 0271 00       		.byte	0
 3532 0272 2F       		.uleb128 0x2f
 3533 0273 2E       		.uleb128 0x2e
 3534 0274 01       		.byte	0x1
 3535 0275 3F       		.uleb128 0x3f
 3536 0276 0C       		.uleb128 0xc
 3537 0277 03       		.uleb128 0x3
 3538 0278 0E       		.uleb128 0xe
 3539 0279 3A       		.uleb128 0x3a
 3540 027a 0B       		.uleb128 0xb
 3541 027b 3B       		.uleb128 0x3b
 3542 027c 0B       		.uleb128 0xb
 3543 027d 27       		.uleb128 0x27
 3544 027e 0C       		.uleb128 0xc
 3545 027f 3C       		.uleb128 0x3c
 3546 0280 0C       		.uleb128 0xc
 3547 0281 00       		.byte	0
 3548 0282 00       		.byte	0
 3549 0283 00       		.byte	0
 3550              		.section	.debug_loc,"",%progbits
 3551              	.Ldebug_loc0:
 3552              	.LLST0:
 3553 0000 00000000 		.4byte	.LFB242
 3554 0004 02000000 		.4byte	.LCFI0
 3555 0008 0200     		.2byte	0x2
ARM GAS  /tmp/cc9zij47.s 			page 88


 3556 000a 7D       		.byte	0x7d
 3557 000b 00       		.sleb128 0
 3558 000c 02000000 		.4byte	.LCFI0
 3559 0010 04000000 		.4byte	.LCFI1
 3560 0014 0200     		.2byte	0x2
 3561 0016 7D       		.byte	0x7d
 3562 0017 10       		.sleb128 16
 3563 0018 04000000 		.4byte	.LCFI1
 3564 001c 48020000 		.4byte	.LFE242
 3565 0020 0200     		.2byte	0x2
 3566 0022 7D       		.byte	0x7d
 3567 0023 18       		.sleb128 24
 3568 0024 00000000 		.4byte	0
 3569 0028 00000000 		.4byte	0
 3570              	.LLST1:
 3571 002c 18000000 		.4byte	.LVL2
 3572 0030 22000000 		.4byte	.LVL3
 3573 0034 0100     		.2byte	0x1
 3574 0036 50       		.byte	0x50
 3575 0037 22000000 		.4byte	.LVL3
 3576 003b 2A000000 		.4byte	.LVL5
 3577 003f 0100     		.2byte	0x1
 3578 0041 54       		.byte	0x54
 3579 0042 2E000000 		.4byte	.LVL6
 3580 0046 3E000000 		.4byte	.LVL8
 3581 004a 0100     		.2byte	0x1
 3582 004c 54       		.byte	0x54
 3583 004d 3E000000 		.4byte	.LVL8
 3584 0051 48000000 		.4byte	.LVL9
 3585 0055 0100     		.2byte	0x1
 3586 0057 50       		.byte	0x50
 3587 0058 64000000 		.4byte	.LVL13
 3588 005c 66000000 		.4byte	.LVL14
 3589 0060 0100     		.2byte	0x1
 3590 0062 50       		.byte	0x50
 3591 0063 66000000 		.4byte	.LVL14
 3592 0067 B2000000 		.4byte	.LVL27
 3593 006b 0100     		.2byte	0x1
 3594 006d 55       		.byte	0x55
 3595 006e B2000000 		.4byte	.LVL27
 3596 0072 B4000000 		.4byte	.LVL28
 3597 0076 0100     		.2byte	0x1
 3598 0078 50       		.byte	0x50
 3599 0079 B4000000 		.4byte	.LVL28
 3600 007d F6000000 		.4byte	.LVL39
 3601 0081 0100     		.2byte	0x1
 3602 0083 54       		.byte	0x54
 3603 0084 F6000000 		.4byte	.LVL39
 3604 0088 F8000000 		.4byte	.LVL40
 3605 008c 0100     		.2byte	0x1
 3606 008e 50       		.byte	0x50
 3607 008f F8000000 		.4byte	.LVL40
 3608 0093 28010000 		.4byte	.LVL48
 3609 0097 0100     		.2byte	0x1
 3610 0099 54       		.byte	0x54
 3611 009a 28010000 		.4byte	.LVL48
 3612 009e 2A010000 		.4byte	.LVL49
ARM GAS  /tmp/cc9zij47.s 			page 89


 3613 00a2 0100     		.2byte	0x1
 3614 00a4 50       		.byte	0x50
 3615 00a5 2A010000 		.4byte	.LVL49
 3616 00a9 88010000 		.4byte	.LVL58
 3617 00ad 0100     		.2byte	0x1
 3618 00af 54       		.byte	0x54
 3619 00b0 88010000 		.4byte	.LVL58
 3620 00b4 8A010000 		.4byte	.LVL59
 3621 00b8 0100     		.2byte	0x1
 3622 00ba 50       		.byte	0x50
 3623 00bb 8A010000 		.4byte	.LVL59
 3624 00bf BE010000 		.4byte	.LVL66
 3625 00c3 0100     		.2byte	0x1
 3626 00c5 55       		.byte	0x55
 3627 00c6 F6010000 		.4byte	.LVL73
 3628 00ca F8010000 		.4byte	.LVL74
 3629 00ce 0100     		.2byte	0x1
 3630 00d0 50       		.byte	0x50
 3631 00d1 F8010000 		.4byte	.LVL74
 3632 00d5 48020000 		.4byte	.LFE242
 3633 00d9 0100     		.2byte	0x1
 3634 00db 54       		.byte	0x54
 3635 00dc 00000000 		.4byte	0
 3636 00e0 00000000 		.4byte	0
 3637              	.LLST2:
 3638 00e4 6E000000 		.4byte	.LVL16
 3639 00e8 70000000 		.4byte	.LVL17
 3640 00ec 0100     		.2byte	0x1
 3641 00ee 50       		.byte	0x50
 3642 00ef 70000000 		.4byte	.LVL17
 3643 00f3 B2000000 		.4byte	.LVL27
 3644 00f7 0100     		.2byte	0x1
 3645 00f9 54       		.byte	0x54
 3646 00fa BC000000 		.4byte	.LVL30
 3647 00fe BE000000 		.4byte	.LVL31
 3648 0102 0100     		.2byte	0x1
 3649 0104 50       		.byte	0x50
 3650 0105 BE000000 		.4byte	.LVL31
 3651 0109 FE000000 		.4byte	.LVL42
 3652 010d 0100     		.2byte	0x1
 3653 010f 55       		.byte	0x55
 3654 0110 FE000000 		.4byte	.LVL42
 3655 0114 00010000 		.4byte	.LVL43
 3656 0118 0100     		.2byte	0x1
 3657 011a 50       		.byte	0x50
 3658 011b 00010000 		.4byte	.LVL43
 3659 011f 88010000 		.4byte	.LVL58
 3660 0123 0100     		.2byte	0x1
 3661 0125 55       		.byte	0x55
 3662 0126 90010000 		.4byte	.LVL61
 3663 012a 92010000 		.4byte	.LVL62
 3664 012e 0100     		.2byte	0x1
 3665 0130 50       		.byte	0x50
 3666 0131 92010000 		.4byte	.LVL62
 3667 0135 F6010000 		.4byte	.LVL73
 3668 0139 0100     		.2byte	0x1
 3669 013b 54       		.byte	0x54
ARM GAS  /tmp/cc9zij47.s 			page 90


 3670 013c 00000000 		.4byte	0
 3671 0140 00000000 		.4byte	0
 3672              	.LLST3:
 3673 0144 76000000 		.4byte	.LVL19
 3674 0148 78000000 		.4byte	.LVL20
 3675 014c 0100     		.2byte	0x1
 3676 014e 50       		.byte	0x50
 3677 014f 78000000 		.4byte	.LVL20
 3678 0153 C2000000 		.4byte	.LVL32
 3679 0157 0100     		.2byte	0x1
 3680 0159 56       		.byte	0x56
 3681 015a 00000000 		.4byte	0
 3682 015e 00000000 		.4byte	0
 3683              	.LLST4:
 3684 0162 2A000000 		.4byte	.LVL5
 3685 0166 2E000000 		.4byte	.LVL6
 3686 016a 0200     		.2byte	0x2
 3687 016c 91       		.byte	0x91
 3688 016d 68       		.sleb128 -24
 3689 016e EA010000 		.4byte	.LVL71
 3690 0172 38020000 		.4byte	.LVL81
 3691 0176 0200     		.2byte	0x2
 3692 0178 91       		.byte	0x91
 3693 0179 68       		.sleb128 -24
 3694 017a 38020000 		.4byte	.LVL81
 3695 017e 3A020000 		.4byte	.LVL82
 3696 0182 0100     		.2byte	0x1
 3697 0184 51       		.byte	0x51
 3698 0185 3A020000 		.4byte	.LVL82
 3699 0189 48020000 		.4byte	.LFE242
 3700 018d 0200     		.2byte	0x2
 3701 018f 91       		.byte	0x91
 3702 0190 68       		.sleb128 -24
 3703 0191 00000000 		.4byte	0
 3704 0195 00000000 		.4byte	0
 3705              	.LLST5:
 3706 0199 2A000000 		.4byte	.LVL5
 3707 019d 2E000000 		.4byte	.LVL6
 3708 01a1 0200     		.2byte	0x2
 3709 01a3 91       		.byte	0x91
 3710 01a4 6C       		.sleb128 -20
 3711 01a5 30020000 		.4byte	.LVL80
 3712 01a9 48020000 		.4byte	.LFE242
 3713 01ad 0200     		.2byte	0x2
 3714 01af 91       		.byte	0x91
 3715 01b0 6C       		.sleb128 -20
 3716 01b1 00000000 		.4byte	0
 3717 01b5 00000000 		.4byte	0
 3718              		.section	.debug_aranges,"",%progbits
 3719 0000 24000000 		.4byte	0x24
 3720 0004 0200     		.2byte	0x2
 3721 0006 00000000 		.4byte	.Ldebug_info0
 3722 000a 04       		.byte	0x4
 3723 000b 00       		.byte	0
 3724 000c 0000     		.2byte	0
 3725 000e 0000     		.2byte	0
 3726 0010 00000000 		.4byte	.LFB242
ARM GAS  /tmp/cc9zij47.s 			page 91


 3727 0014 48020000 		.4byte	.LFE242-.LFB242
 3728 0018 00000000 		.4byte	.LFB241
 3729 001c 18000000 		.4byte	.LFE241-.LFB241
 3730 0020 00000000 		.4byte	0
 3731 0024 00000000 		.4byte	0
 3732              		.section	.debug_ranges,"",%progbits
 3733              	.Ldebug_ranges0:
 3734 0000 00000000 		.4byte	.LFB242
 3735 0004 48020000 		.4byte	.LFE242
 3736 0008 00000000 		.4byte	.LFB241
 3737 000c 18000000 		.4byte	.LFE241
 3738 0010 00000000 		.4byte	0
 3739 0014 00000000 		.4byte	0
 3740              		.section	.debug_line,"",%progbits
 3741              	.Ldebug_line0:
 3742 0000 59020000 		.section	.debug_str,"MS",%progbits,1
 3742      0200E301 
 3742      00000201 
 3742      FB0E0D00 
 3742      01010101 
 3743              	.LASF44:
 3744 0000 63685F74 		.ascii	"ch_threads_list\000"
 3744      68726561 
 3744      64735F6C 
 3744      69737400 
 3745              	.LASF45:
 3746 0010 74687265 		.ascii	"threads_queue_t\000"
 3746      6164735F 
 3746      71756575 
 3746      655F7400 
 3747              	.LASF34:
 3748 0020 705F7761 		.ascii	"p_waiting\000"
 3748      6974696E 
 3748      6700
 3749              	.LASF87:
 3750 002a 77746D74 		.ascii	"wtmtxp\000"
 3750      787000
 3751              	.LASF81:
 3752 0031 746D5F63 		.ascii	"tm_calibration_t\000"
 3752      616C6962 
 3752      72617469 
 3752      6F6E5F74 
 3752      00
 3753              	.LASF96:
 3754 0042 63686172 		.ascii	"char\000"
 3754      00
 3755              	.LASF76:
 3756 0047 72656761 		.ascii	"regarm_t\000"
 3756      726D5F74 
 3756      00
 3757              	.LASF26:
 3758 0050 705F7072 		.ascii	"p_prio\000"
 3758      696F00
 3759              	.LASF22:
 3760 0057 73797374 		.ascii	"systime_t\000"
 3760      696D655F 
 3760      7400
ARM GAS  /tmp/cc9zij47.s 			page 92


 3761              	.LASF115:
 3762 0061 62756666 		.ascii	"buffer\000"
 3762      657200
 3763              	.LASF94:
 3764 0068 6D5F6F77 		.ascii	"m_owner\000"
 3764      6E657200 
 3765              	.LASF90:
 3766 0070 735F7175 		.ascii	"s_queue\000"
 3766      65756500 
 3767              	.LASF35:
 3768 0078 705F6D73 		.ascii	"p_msgqueue\000"
 3768      67717565 
 3768      756500
 3769              	.LASF0:
 3770 0083 756E7369 		.ascii	"unsigned int\000"
 3770      676E6564 
 3770      20696E74 
 3770      00
 3771              	.LASF117:
 3772 0090 68656170 		.ascii	"heap1_setup\000"
 3772      315F7365 
 3772      74757000 
 3773              	.LASF104:
 3774 009c 6E657874 		.ascii	"next\000"
 3774      00
 3775              	.LASF42:
 3776 00a1 74687265 		.ascii	"threads_list_t\000"
 3776      6164735F 
 3776      6C697374 
 3776      5F7400
 3777              	.LASF102:
 3778 00b0 685F6672 		.ascii	"h_free\000"
 3778      656500
 3779              	.LASF105:
 3780 00b7 68656170 		.ascii	"heap\000"
 3780      00
 3781              	.LASF120:
 3782 00bc 74657374 		.ascii	"test\000"
 3782      00
 3783              	.LASF84:
 3784 00c1 77746F62 		.ascii	"wtobjp\000"
 3784      6A7000
 3785              	.LASF72:
 3786 00c8 76746C69 		.ascii	"vtlist\000"
 3786      737400
 3787              	.LASF125:
 3788 00cf 5F746573 		.ascii	"_test_assert\000"
 3788      745F6173 
 3788      73657274 
 3788      00
 3789              	.LASF48:
 3790 00dc 63685F72 		.ascii	"ch_ready_list\000"
 3790      65616479 
 3790      5F6C6973 
 3790      7400
 3791              	.LASF74:
 3792 00ea 69646C65 		.ascii	"idle_thread_wa\000"
ARM GAS  /tmp/cc9zij47.s 			page 93


 3792      5F746872 
 3792      6561645F 
 3792      776100
 3793              	.LASF88:
 3794 00f9 65776D61 		.ascii	"ewmask\000"
 3794      736B00
 3795              	.LASF46:
 3796 0100 63685F74 		.ascii	"ch_threads_queue\000"
 3796      68726561 
 3796      64735F71 
 3796      75657565 
 3796      00
 3797              	.LASF55:
 3798 0111 76746675 		.ascii	"vtfunc_t\000"
 3798      6E635F74 
 3798      00
 3799              	.LASF130:
 3800 011a 6368436F 		.ascii	"chCoreGetStatusX\000"
 3800      72654765 
 3800      74537461 
 3800      74757358 
 3800      00
 3801              	.LASF91:
 3802 012b 735F636E 		.ascii	"s_cnt\000"
 3802      7400
 3803              	.LASF67:
 3804 0131 63685F73 		.ascii	"ch_system_debug\000"
 3804      79737465 
 3804      6D5F6465 
 3804      62756700 
 3805              	.LASF9:
 3806 0141 75696E74 		.ascii	"uint32_t\000"
 3806      33325F74 
 3806      00
 3807              	.LASF123:
 3808 014a 63684865 		.ascii	"chHeapStatus\000"
 3808      61705374 
 3808      61747573 
 3808      00
 3809              	.LASF20:
 3810 0157 6576656E 		.ascii	"eventmask_t\000"
 3810      746D6173 
 3810      6B5F7400 
 3811              	.LASF50:
 3812 0163 725F7072 		.ascii	"r_prio\000"
 3812      696F00
 3813              	.LASF127:
 3814 016a 474E5520 		.ascii	"GNU C 4.7.2\000"
 3814      4320342E 
 3814      372E3200 
 3815              	.LASF62:
 3816 0176 76745F70 		.ascii	"vt_par\000"
 3816      617200
 3817              	.LASF89:
 3818 017d 63685F73 		.ascii	"ch_semaphore\000"
 3818      656D6170 
 3818      686F7265 
ARM GAS  /tmp/cc9zij47.s 			page 94


 3818      00
 3819              	.LASF18:
 3820 018a 74707269 		.ascii	"tprio_t\000"
 3820      6F5F7400 
 3821              	.LASF57:
 3822 0192 63685F76 		.ascii	"ch_virtual_timer\000"
 3822      69727475 
 3822      616C5F74 
 3822      696D6572 
 3822      00
 3823              	.LASF13:
 3824 01a3 6C6F6E67 		.ascii	"long long unsigned int\000"
 3824      206C6F6E 
 3824      6720756E 
 3824      7369676E 
 3824      65642069 
 3825              	.LASF121:
 3826 01ba 74657374 		.ascii	"testheap1\000"
 3826      68656170 
 3826      3100
 3827              	.LASF21:
 3828 01c4 636E745F 		.ascii	"cnt_t\000"
 3828      7400
 3829              	.LASF108:
 3830 01ca 74657374 		.ascii	"testcase\000"
 3830      63617365 
 3830      00
 3831              	.LASF28:
 3832 01d3 705F6E65 		.ascii	"p_newer\000"
 3832      77657200 
 3833              	.LASF64:
 3834 01db 63685F76 		.ascii	"ch_virtual_timers_list\000"
 3834      69727475 
 3834      616C5F74 
 3834      696D6572 
 3834      735F6C69 
 3835              	.LASF23:
 3836 01f2 74687265 		.ascii	"thread_t\000"
 3836      61645F74 
 3836      00
 3837              	.LASF113:
 3838 01fb 68656170 		.ascii	"heap_header\000"
 3838      5F686561 
 3838      64657200 
 3839              	.LASF2:
 3840 0207 73697A65 		.ascii	"size_t\000"
 3840      5F7400
 3841              	.LASF82:
 3842 020e 7264796D 		.ascii	"rdymsg\000"
 3842      736700
 3843              	.LASF80:
 3844 0215 6F666673 		.ascii	"offset\000"
 3844      657400
 3845              	.LASF126:
 3846 021c 5F426F6F 		.ascii	"_Bool\000"
 3846      6C00
 3847              	.LASF92:
ARM GAS  /tmp/cc9zij47.s 			page 95


 3848 0222 63685F6D 		.ascii	"ch_mutex\000"
 3848      75746578 
 3848      00
 3849              	.LASF30:
 3850 022b 705F6E61 		.ascii	"p_name\000"
 3850      6D6500
 3851              	.LASF101:
 3852 0232 685F7072 		.ascii	"h_provider\000"
 3852      6F766964 
 3852      657200
 3853              	.LASF122:
 3854 023d 70617474 		.ascii	"patternheap\000"
 3854      65726E68 
 3854      65617000 
 3855              	.LASF60:
 3856 0249 76745F64 		.ascii	"vt_delta\000"
 3856      656C7461 
 3856      00
 3857              	.LASF41:
 3858 0252 74687265 		.ascii	"thread_reference_t\000"
 3858      61645F72 
 3858      65666572 
 3858      656E6365 
 3858      5F7400
 3859              	.LASF65:
 3860 0265 76745F6C 		.ascii	"vt_lasttime\000"
 3860      61737474 
 3860      696D6500 
 3861              	.LASF16:
 3862 0271 74737461 		.ascii	"tstate_t\000"
 3862      74655F74 
 3862      00
 3863              	.LASF29:
 3864 027a 705F6F6C 		.ascii	"p_older\000"
 3864      64657200 
 3865              	.LASF31:
 3866 0282 705F7374 		.ascii	"p_state\000"
 3866      61746500 
 3867              	.LASF3:
 3868 028a 75696E74 		.ascii	"uint8_t\000"
 3868      385F7400 
 3869              	.LASF124:
 3870 0292 63684865 		.ascii	"chHeapAlloc\000"
 3870      6170416C 
 3870      6C6F6300 
 3871              	.LASF40:
 3872 029e 705F6D70 		.ascii	"p_mpool\000"
 3872      6F6F6C00 
 3873              	.LASF38:
 3874 02a6 705F6D74 		.ascii	"p_mtxlist\000"
 3874      786C6973 
 3874      7400
 3875              	.LASF43:
 3876 02b0 63685F74 		.ascii	"ch_thread\000"
 3876      68726561 
 3876      6400
 3877              	.LASF112:
ARM GAS  /tmp/cc9zij47.s 			page 96


 3878 02ba 65786563 		.ascii	"execute\000"
 3878      75746500 
 3879              	.LASF103:
 3880 02c2 685F6D74 		.ascii	"h_mtx\000"
 3880      7800
 3881              	.LASF66:
 3882 02c8 73797374 		.ascii	"system_debug_t\000"
 3882      656D5F64 
 3882      65627567 
 3882      5F7400
 3883              	.LASF11:
 3884 02d7 6C6F6E67 		.ascii	"long long int\000"
 3884      206C6F6E 
 3884      6720696E 
 3884      7400
 3885              	.LASF49:
 3886 02e5 725F7175 		.ascii	"r_queue\000"
 3886      65756500 
 3887              	.LASF52:
 3888 02ed 725F6E65 		.ascii	"r_newer\000"
 3888      77657200 
 3889              	.LASF19:
 3890 02f5 6D73675F 		.ascii	"msg_t\000"
 3890      7400
 3891              	.LASF131:
 3892 02fb 63684865 		.ascii	"chHeapFree\000"
 3892      61704672 
 3892      656500
 3893              	.LASF116:
 3894 0306 68656170 		.ascii	"heap1_execute\000"
 3894      315F6578 
 3894      65637574 
 3894      6500
 3895              	.LASF78:
 3896 0314 636F6E74 		.ascii	"context\000"
 3896      65787400 
 3897              	.LASF111:
 3898 031c 74656172 		.ascii	"teardown\000"
 3898      646F776E 
 3898      00
 3899              	.LASF32:
 3900 0325 705F666C 		.ascii	"p_flags\000"
 3900      61677300 
 3901              	.LASF56:
 3902 032d 76697274 		.ascii	"virtual_timer_t\000"
 3902      75616C5F 
 3902      74696D65 
 3902      725F7400 
 3903              	.LASF107:
 3904 033d 73697A65 		.ascii	"size\000"
 3904      00
 3905              	.LASF53:
 3906 0342 725F6F6C 		.ascii	"r_older\000"
 3906      64657200 
 3907              	.LASF99:
 3908 034a 6D656D6F 		.ascii	"memory_heap_t\000"
 3908      72795F68 
ARM GAS  /tmp/cc9zij47.s 			page 97


 3908      6561705F 
 3908      7400
 3909              	.LASF68:
 3910 0358 70616E69 		.ascii	"panic_msg\000"
 3910      635F6D73 
 3910      6700
 3911              	.LASF36:
 3912 0362 705F6D73 		.ascii	"p_msg\000"
 3912      6700
 3913              	.LASF15:
 3914 0368 746D6F64 		.ascii	"tmode_t\000"
 3914      655F7400 
 3915              	.LASF73:
 3916 0370 6D61696E 		.ascii	"mainthread\000"
 3916      74687265 
 3916      616400
 3917              	.LASF132:
 3918 037b 63684865 		.ascii	"chHeapObjectInit\000"
 3918      61704F62 
 3918      6A656374 
 3918      496E6974 
 3918      00
 3919              	.LASF14:
 3920 038c 7274636E 		.ascii	"rtcnt_t\000"
 3920      745F7400 
 3921              	.LASF39:
 3922 0394 705F7265 		.ascii	"p_realprio\000"
 3922      616C7072 
 3922      696F00
 3923              	.LASF5:
 3924 039f 73686F72 		.ascii	"short int\000"
 3924      7420696E 
 3924      7400
 3925              	.LASF100:
 3926 03a9 6D656D6F 		.ascii	"memory_heap\000"
 3926      72795F68 
 3926      65617000 
 3927              	.LASF54:
 3928 03b5 725F6375 		.ascii	"r_current\000"
 3928      7272656E 
 3928      7400
 3929              	.LASF37:
 3930 03bf 705F6570 		.ascii	"p_epending\000"
 3930      656E6469 
 3930      6E6700
 3931              	.LASF93:
 3932 03ca 6D5F7175 		.ascii	"m_queue\000"
 3932      65756500 
 3933              	.LASF8:
 3934 03d2 6C6F6E67 		.ascii	"long int\000"
 3934      20696E74 
 3934      00
 3935              	.LASF79:
 3936 03db 706F7274 		.ascii	"port_intctx\000"
 3936      5F696E74 
 3936      63747800 
 3937              	.LASF119:
ARM GAS  /tmp/cc9zij47.s 			page 98


 3938 03e7 49544D5F 		.ascii	"ITM_RxBuffer\000"
 3938      52784275 
 3938      66666572 
 3938      00
 3939              	.LASF70:
 3940 03f4 63685F73 		.ascii	"ch_system\000"
 3940      79737465 
 3940      6D00
 3941              	.LASF24:
 3942 03fe 705F6E65 		.ascii	"p_next\000"
 3942      787400
 3943              	.LASF12:
 3944 0405 75696E74 		.ascii	"uint64_t\000"
 3944      36345F74 
 3944      00
 3945              	.LASF27:
 3946 040e 705F6374 		.ascii	"p_ctx\000"
 3946      7800
 3947              	.LASF128:
 3948 0414 2E2E2F2E 		.ascii	"../../../test/rt/testheap.c\000"
 3948      2E2F2E2E 
 3948      2F746573 
 3948      742F7274 
 3948      2F746573 
 3949              	.LASF71:
 3950 0430 726C6973 		.ascii	"rlist\000"
 3950      7400
 3951              	.LASF98:
 3952 0436 6D656D67 		.ascii	"memgetfunc_t\000"
 3952      65746675 
 3952      6E635F74 
 3952      00
 3953              	.LASF109:
 3954 0443 6E616D65 		.ascii	"name\000"
 3954      00
 3955              	.LASF25:
 3956 0448 705F7072 		.ascii	"p_prev\000"
 3956      657600
 3957              	.LASF118:
 3958 044f 74657374 		.ascii	"test_heap\000"
 3958      5F686561 
 3958      7000
 3959              	.LASF75:
 3960 0459 73697A65 		.ascii	"sizetype\000"
 3960      74797065 
 3960      00
 3961              	.LASF17:
 3962 0462 74726566 		.ascii	"trefs_t\000"
 3962      735F7400 
 3963              	.LASF10:
 3964 046a 6C6F6E67 		.ascii	"long unsigned int\000"
 3964      20756E73 
 3964      69676E65 
 3964      6420696E 
 3964      7400
 3965              	.LASF47:
 3966 047c 72656164 		.ascii	"ready_list_t\000"
ARM GAS  /tmp/cc9zij47.s 			page 99


 3966      795F6C69 
 3966      73745F74 
 3966      00
 3967              	.LASF7:
 3968 0489 696E7433 		.ascii	"int32_t\000"
 3968      325F7400 
 3969              	.LASF86:
 3970 0491 77747365 		.ascii	"wtsemp\000"
 3970      6D7000
 3971              	.LASF97:
 3972 0498 6D757465 		.ascii	"mutex_t\000"
 3972      785F7400 
 3973              	.LASF4:
 3974 04a0 756E7369 		.ascii	"unsigned char\000"
 3974      676E6564 
 3974      20636861 
 3974      7200
 3975              	.LASF110:
 3976 04ae 73657475 		.ascii	"setup\000"
 3976      7000
 3977              	.LASF63:
 3978 04b4 76697274 		.ascii	"virtual_timers_list_t\000"
 3978      75616C5F 
 3978      74696D65 
 3978      72735F6C 
 3978      6973745F 
 3979              	.LASF33:
 3980 04ca 705F7265 		.ascii	"p_refs\000"
 3980      667300
 3981              	.LASF114:
 3982 04d1 74657374 		.ascii	"test_buffers\000"
 3982      5F627566 
 3982      66657273 
 3982      00
 3983              	.LASF58:
 3984 04de 76745F6E 		.ascii	"vt_next\000"
 3984      65787400 
 3985              	.LASF129:
 3986 04e6 2F686F6D 		.ascii	"/home/sylvain/Documents/TelecomRobotics/ChibiOS_16."
 3986      652F7379 
 3986      6C766169 
 3986      6E2F446F 
 3986      63756D65 
 3987 0519 312E372F 		.ascii	"1.7/demos/STM32/RT-STM32F302R8-NUCLEO\000"
 3987      64656D6F 
 3987      732F5354 
 3987      4D33322F 
 3987      52542D53 
 3988              	.LASF69:
 3989 053f 63685F73 		.ascii	"ch_system_t\000"
 3989      79737465 
 3989      6D5F7400 
 3990              	.LASF85:
 3991 054b 77747472 		.ascii	"wttrp\000"
 3991      7000
 3992              	.LASF95:
 3993 0551 6D5F6E65 		.ascii	"m_next\000"
ARM GAS  /tmp/cc9zij47.s 			page 100


 3993      787400
 3994              	.LASF1:
 3995 0558 7369676E 		.ascii	"signed char\000"
 3995      65642063 
 3995      68617200 
 3996              	.LASF6:
 3997 0564 73686F72 		.ascii	"short unsigned int\000"
 3997      7420756E 
 3997      7369676E 
 3997      65642069 
 3997      6E7400
 3998              	.LASF51:
 3999 0577 725F6374 		.ascii	"r_ctx\000"
 3999      7800
 4000              	.LASF77:
 4001 057d 73746B61 		.ascii	"stkalign_t\000"
 4001      6C69676E 
 4001      5F7400
 4002              	.LASF61:
 4003 0588 76745F66 		.ascii	"vt_func\000"
 4003      756E6300 
 4004              	.LASF59:
 4005 0590 76745F70 		.ascii	"vt_prev\000"
 4005      72657600 
 4006              	.LASF106:
 4007 0598 616C6967 		.ascii	"align\000"
 4007      6E00
 4008              	.LASF83:
 4009 059e 65786974 		.ascii	"exitcode\000"
 4009      636F6465 
 4009      00
 4010              		.comm	__gnu_lto_v1,1,1
 4011              		.ident	"GCC: (GNU) 4.7.2"
ARM GAS  /tmp/cc9zij47.s 			page 101


DEFINED SYMBOLS
                            *ABS*:00000000 testheap.c
     /tmp/cc9zij47.s:421    .text.heap1_execute:00000000 $t
     /tmp/cc9zij47.s:426    .text.heap1_execute:00000000 heap1_execute
     /tmp/cc9zij47.s:810    .text.heap1_execute:00000244 $d
     /tmp/cc9zij47.s:815    .text.heap1_setup:00000000 $t
     /tmp/cc9zij47.s:820    .text.heap1_setup:00000000 heap1_setup
     /tmp/cc9zij47.s:864    .bss.test_heap:00000000 .LANCHOR0
     /tmp/cc9zij47.s:846    .rodata.patternheap:00000000 patternheap
     /tmp/cc9zij47.s:857    .rodata.testheap1:00000000 testheap1
     /tmp/cc9zij47.s:843    .rodata.patternheap:00000000 $d
     /tmp/cc9zij47.s:850    .rodata.str1.4:00000000 $d
     /tmp/cc9zij47.s:854    .rodata.testheap1:00000000 $d
     /tmp/cc9zij47.s:863    .bss.test_heap:00000000 $d
     /tmp/cc9zij47.s:867    .bss.test_heap:00000000 test_heap
                            *COM*:00000001 __gnu_lto_v1
                     .debug_frame:00000010 $d
     /tmp/cc9zij47.s:814    .text.heap1_execute:00000248 $t

UNDEFINED SYMBOLS
chCoreGetStatusX
chHeapStatus
chHeapAlloc
_test_assert
chHeapFree
test
chHeapObjectInit
