ARM GAS  /tmp/ccjN8g1P.s 			page 1


   1              		.syntax unified
   2              		.cpu cortex-m4
   3              		.fpu softvfp
   4              		.eabi_attribute 20, 1
   5              		.eabi_attribute 21, 1
   6              		.eabi_attribute 23, 3
   7              		.eabi_attribute 24, 1
   8              		.eabi_attribute 25, 1
   9              		.eabi_attribute 26, 1
  10              		.eabi_attribute 30, 2
  11              		.eabi_attribute 34, 1
  12              		.eabi_attribute 18, 4
  13              		.thumb
  14              		.file	"testmsg.c"
  15              		.text
  16              	.Ltext0:
  17              		.section	.gnu.lto_.jmpfuncs.ce631cdad89947ba,"",%progbits
  18 0000 789C6362 		.ascii	"x\234cb`d`g\300\016z\201X\021\210\231\200\210I\222!"
  18      60646067 
  18      C00E7A81 
  18      58118899 
  18      80884992 
  19 0015 959101A8 		.ascii	"\225\221\001\250\230\251\212\341g\203D*##\243\034\003"
  19      98A98AE1 
  19      6783442A 
  19      2323A31C 
  19      03
  20 0026 E3DC8619 		.ascii	"\343\334\206\031\016\251\214L\014\267\326?\006J\202"
  20      0EA98C4C 
  20      0CB7D63F 
  20      064A82
  21 0035 64D14856 		.ascii	"d\321HV\006\250\306\023 C@Z9R\031\231\031\343\031\031"
  21      06A8C613 
  21      2043405A 
  21      39521999 
  21      19E31919 
  22 0049 CECC5C06 		.ascii	"\316\314\\\006R\300\300\310\310\304\002\244J\300\352"
  22      52C0C0C8 
  22      C8C402A4 
  22      4AC0EA
  23 0058 58189C19 		.ascii	"X\030\234\031P\270N\250\\G\006\006\026G'g\006i==}\010"
  23      50B84EA8 
  23      5C470606 
  23      16472767 
  23      06693D3D 
  24 006e 2A492D2E 		.ascii	"*I-.\321/*\001\323\271\305\351z\311\014\000\311\337"
  24      D12F2A01 
  24      D3B9C5E9 
  24      7AC90C00 
  24      C9DF
  25 0080 1BB1     		.ascii	"\033\261"
  26              		.text
  27              		.section	.gnu.lto_.inline.ce631cdad89947ba,"",%progbits
  28 0000 789C6362 		.ascii	"x\234cb`d\340e\300\016z\2414\023\003\203V\017##\003"
  28      6064E065 
  28      C00E7AA1 
  28      34130383 
ARM GAS  /tmp/ccjN8g1P.s 			page 2


  28      560F2323 
  29 0015 9340432D 		.ascii	"\223@C-\003\333\002y&\006f\036\260(\0237\003\003\343"
  29      03DB0279 
  29      2606661E 
  29      B0281337 
  29      0303E3
  30 0028 043F306F 		.ascii	"\004?0o\202\337\004?\020\237\004Av\001\006\006\326\011"
  30      82DF043F 
  30      109F0441 
  30      76010606 
  30      D609
  31 003a 7E0C60C4 		.ascii	"~\014`\304\310\300\243\306\0102\024\311\006\240\004"
  31      C8C0A3C6 
  31      083214C9 
  31      06A004
  32 0049 3ACD0000 		.ascii	":\315\000\000.\313\022\021"
  32      2ECB1211 
  33              		.text
  34              		.section	.gnu.lto_.pureconst.ce631cdad89947ba,"",%progbits
  35 0000 789C6362 		.ascii	"x\234cb`d`f```e\200\000&\006IF\011\000\0015\000@"
  35      60646066 
  35      60606065 
  35      80002606 
  35      49460900 
  36              		.text
  37              		.section	.gnu.lto_msg1_execute.ce631cdad89947ba,"",%progbits
  38 0000 789CAD55 		.ascii	"x\234\255U\317k\023A\024~ofw\23341\326\037\325\364W"
  38      CF6B1341 
  38      147E6F66 
  38      779B3431 
  38      D61FD5F4 
  39 0015 9AC61E44 		.ascii	"\232\306\036D!\371\027\374q\321c\005/BZ$]M\301\2524"
  39      21F917FC 
  39      71D16305 
  39      2F425A24 
  39      5D4DC1AA 
  40 002a D18307B3 		.ascii	"\321\203\007\263M=\025\017E\020\222\250`\255\226XD="
  40      4D3D150F 
  40      451092A8 
  40      60AD9658 
  40      443D
  41 003c F5E04145 		.ascii	"\365\340AE\245\226Pz\352\261b\241\"\012=x\360\"\024"
  41      A596507A 
  41      EAB162A1 
  41      220A3D78 
  41      F02214
  42 004f EA9BD9D9 		.ascii	"\352\233\331\3314i\326$B7I\277\231\335\367\275\367\275"
  42      3469D624 
  42      423749BF 
  42      99DDF7BD 
  42      F7BD
  43 0061 6F66A70C 		.ascii	"of\247\014\220>\265W\007\375\346=\000\243\204\310\001"
  43      903EB557 
  43      07FDE63D 
  43      00A384C8 
  43      01
  44 0072 D9D432C0 		.ascii	"\331\3242\300x\230!\212\001Q2\0143\347%\323\023\201"
ARM GAS  /tmp/ccjN8g1P.s 			page 3


  44      7898218A 
  44      0151320C 
  44      33E725D3 
  44      1381
  45 0084 69CBBA37 		.ascii	"i\313\2727\3651{&\273\266\265\325k\212\273C\010\245"
  45      F5317B26 
  45      BBB6B5D5 
  45      6B8ABB43 
  45      08A5
  46 0096 FC7A7F07 		.ascii	"\374z\177\007\230\210\020\006\201\014\264\352\0325<"
  46      98881006 
  46      810CB4EA 
  46      1A353C
  47 00a5 2E79F07F 		.ascii	".y\360\177$\255i\322\257\017\331\240\"\351\222\364;"
  47      24AD69D2 
  47      AF0FD9A0 
  47      22E992F4 
  47      3B
  48 00b6 3F8736CF 		.ascii	"?\2076\317\243x\350Zl\302*\027c\020BA]\315\335l\\q\252"
  48      A378E85A 
  48      6CC22A17 
  48      63104241 
  48      5DCDDD6C 
  49 00cd 826930E8 		.ascii	"\202i0\350\223\314o\271K\215\231\205\212\006[\244\326"
  49      93CC6FB9 
  49      4B8D9985 
  49      8A065BA4 
  49      D6
  50 00de 95660A16 		.ascii	"\225f\012\026j|\231\177\363u\223\325%\226&g\372?=0\336"
  50      6A7C997F 
  50      F37593D5 
  50      25962667 
  50      FA3F3D30 
  51 00f3 B1F76B5B 		.ascii	"\261\367k[\031\200\243\010q|\214\021\340\204\323\204"
  51      1980A308 
  51      717C8C11 
  51      E084D384 
  52 0103 3AE11342 		.ascii	":\341\023B\203\360)\241\207p\206\320\253\346>5\367\253"
  52      83F029A1 
  52      877086D0 
  52      ABE63E35 
  52      F7AB
  53 0115 7940CD7B 		.ascii	"y@\315{\010\237\023\206\010\213\204a\302Y\302>\205\021"
  53      089F1386 
  53      088B8461 
  53      C259C23E 
  53      8511
  54 0127 8574E970 		.ascii	"\205t\351p\307\262\332\230\315\267\357\016\251\225\030"
  54      C7B2DA98 
  54      CDB7EF0E 
  54      A99518
  55 0136 1028B6DC 		.ascii	"\020(\266\3349R.\006\274\004\331\301\245\374,E\317\321"
  55      39522E06 
  55      BC04D9C1 
  55      A5FC2C45 
  55      CFD1
  56 0148 32261063 		.ascii	"2&\020c\360\322j3\321\243\025 ?N\003/\273\005\177\254"
ARM GAS  /tmp/ccjN8g1P.s 			page 4


  56      F0D26A33 
  56      D1A31520 
  56      3F4E032F 
  56      BB057FAC 
  57 015c A089AD38 		.ascii	"\240\211\2558bon\321w\253\334\265\366\330Wm\000d/\314"
  57      626F6ED1 
  57      77ABDCB5 
  57      F6D8576D 
  57      00642FCC 
  58 0170 4F7EE9B6 		.ascii	"O~\351\266U\200+\330\305\334\256\004\366\034\207cd7"
  58      55802BD8 
  58      C5DCAE04 
  58      F61C8763 
  58      6437
  59 0182 97E0E7A4 		.ascii	"\227\340\347\244\002M\334#ExL\014\220\010t\012\007\224"
  59      024DDC23 
  59      45784C0C 
  59      9008740A 
  59      0794
  60 0194 8841F167 		.ascii	"\210A\361g\221\313\021\015\213zY\310\306\253@\034_\313"
  60      91CB110D 
  60      8B7A59C8 
  60      C6AB401C 
  60      5FCB
  61 01a6 C6423261 		.ascii	"\306B2a\213J\270\227Q%\221C+\347 Cr-\2129\221\021\257"
  61      8B4AB897 
  61      51259143 
  61      2BE72043 
  61      722D8A39 
  62 01bd 9BE30927 		.ascii	"\233\343\011'\266\210\3452r\011\202\340<\321\225\254"
  62      B688E532 
  62      720982E0 
  62      3CD195AC 
  63 01cd 361CB265 		.ascii	"6\034\262e\211\016\344K\260\017\026\231\240\252\200"
  63      890EE44B 
  63      B00F1699 
  63      A0AA80
  64 01dc FD14C054 		.ascii	"\375\024\300T\203&\036\220\352\316\376\340v\236\030"
  64      83261E90 
  64      EACEFEE0 
  64      769E18
  65 01eb 44498866 		.ascii	"DI\210f+;\350\264\332N\2552\247\325v\027\277\213\\\346"
  65      2B3BE8B4 
  65      DA4EAD32 
  65      A7D57617 
  65      BF8B5CE6 
  66 01ff D38524BE 		.ascii	"\323\205$\276\232\357tD\031*\301!\252\311mQ&\036\006"
  66      9AEF7444 
  66      192AC121 
  66      AAC96D51 
  66      261E06
  67 0212 5800A684 		.ascii	"X\000\246\204\333[\203\"+o\326\276\235q|F\242\233x["
  67      DB5B8322 
  67      2B6FD6BE 
  67      9D717C46 
  67      A29B785B 
  68 0226 6426E1F7 		.ascii	"d&\341\367\367\273\367?\363\252\265\3068\276\225\333"
ARM GAS  /tmp/ccjN8g1P.s 			page 5


  68      F7BBF73F 
  68      F3AAB5C6 
  68      38BE95DB 
  69 0236 B07AC513 		.ascii	"\260z\305\023\030\226\353aT\254\207Q\275\036\\\255\251"
  69      1896EB61 
  69      54AC8751 
  69      BD1E5CAD 
  69      A9
  70 0247 D4587AB8 		.ascii	"\324Xz\270\316\035\355j\233S\327\372F\376\266\223Y5"
  70      CE1DED6A 
  70      9B53D7FA 
  70      46FEB693 
  70      5935
  71 0259 1DA4A635 		.ascii	"\035\244\2465g%\014*c\322r\010m?\2718\237\034\217<\364"
  71      67250C2A 
  71      63D27208 
  71      6D3FB938 
  71      9F1C8F3C 
  72 026e 4464D060 		.ascii	"Dd\320`\007\277\223\370\272\303\247y\227tws\333]o\323"
  72      07BF93F8 
  72      BAC3A779 
  72      97747773 
  72      DB5D6FD3 
  73 0282 EE7A77CD 		.ascii	"\356zw\315]o\035w\027\\\335\355\253q\327[\317\335\242"
  73      5D6F1D77 
  73      175CDDED 
  73      AB71D75B 
  73      CFDDA2
  74 0295 ABBB4B85 		.ascii	"\253\273K\205\272\356z\251\314\266\273+\205mw}\364\244"
  74      BAEE7AA9 
  74      CCB6BB2B 
  74      856D777D 
  74      F4A4
  75 02a7 B1BB3EC7 		.ascii	"\261\273>\307\335\325B\331]\177\323\356\372w\315]\177"
  75      DDD542D9 
  75      5D7FD3EE 
  75      FA77CD5D 
  75      7F
  76 02b8 1D77975D 		.ascii	"\035w\227]\335\215\324\270\353\257\347\356\013\367\275"
  76      DD8DD4B8 
  76      EBAFE7EE 
  76      0BF7BD
  77 02c7 5BDF5D3F 		.ascii	"[\337]?\225\251\330\273\025\356\006\022\"I#w\003\312"
  77      95A9D8BB 
  77      15EE0612 
  77      22492377 
  77      03CA
  78 02d9 5D7DB310 		.ascii	"]}\263\020\330\021\327Mq\206\035g\037U\010\352\214\357"
  78      D811D74D 
  78      71861D67 
  78      1F5508EA 
  78      8CEF
  79 02eb C1108C3C 		.ascii	"\301\020\214<\262r'L\032\330\346\367\002,\003\3560a"
  79      B272274C 
  79      1AD8E6F7 
  79      022C03EE 
  79      3061
ARM GAS  /tmp/ccjN8g1P.s 			page 6


  80 02fd 401C76F4 		.ascii	"@\034v\364\357C\034i]\321h\314\376\246\315T:6\226\226"
  80      EF431C69 
  80      5DD168CC 
  80      FEA6CD54 
  80      3A369696 
  81 0311 389ABA1C 		.ascii	"8\232\272\034M\000K_\3474:R\016\271\226\022\001#W\023"
  81      4D004B5F 
  81      E7343A52 
  81      0EB99612 
  81      01235713 
  82 0325 576E0C9B 		.ascii	"Wn\014\233\261D2\235\0343/\016\247\242I\350\375g\214"
  82      B144329D 
  82      1C332F0E 
  82      A7A249E8 
  82      FD678C
  83 0338 489504ED 		.ascii	"H\225\004\355\344\251\323\360\027\2676\301\376"
  83      E4A9D3F0 
  83      17B736C1 
  83      FE
  84              		.text
  85              		.section	.gnu.lto_thread.ce631cdad89947ba,"",%progbits
  86 0000 789C6362 		.ascii	"x\234cb`\004BL \011\304\262@\011y \315\310\314\300\310"
  86      6004424C 
  86      2009C4B2 
  86      40097920 
  86      CDC8CCC0 
  87 0015 34E11C03 		.ascii	"4\341\034\003C\243\002\023##\210\001\324R\317\304X\037"
  87      43A30213 
  87      23238801 
  87      D452CFC4 
  87      581F
  88 0027 0AD179EA 		.ascii	"\012\321y\352\367\"\246#3\330\3663\035x\360\277^\205"
  88      F722A623 
  88      33D8F633 
  88      1D78F0BF 
  88      5E85
  89 0039 617143C3 		.ascii	"aqC\303\244\011\315\015\036\251\214\014L\014r\214\014"
  89      A409CD0D 
  89      1EA98C0C 
  89      4C0C728C 
  89      0C
  90 004a F18C0C77 		.ascii	"\361\214\014w\246\263I2\244222(0\200h&\006\026\220>"
  90      A6B34932 
  90      A4323232 
  90      28308068 
  90      26061690 
  91 005f A0020636 		.ascii	"\240\002\0066F\306X\306\005\214* >+CKC\203\000H=\030"
  91      46C658C6 
  91      058C2A20 
  91      3E2B434B 
  91      43830048 
  92 0075 04826890 		.ascii	"\004\202h\220mA@\015 \006\363\031\006\3267\323\331c"
  92      6D41400D 
  92      2006F319 
  92      06D637D3 
  92      D963
  93 0087 191731B2 		.ascii	"\031\0271\262\002\245\252\030~6p\244223\30632B\264$"
ARM GAS  /tmp/ccjN8g1P.s 			page 7


  93      02A5AA18 
  93      7E3670A4 
  93      323233C6 
  93      333242B4 
  94 009c 3332828C 		.ascii	"32\202\214gap\004\222@%@\365_\210Q\356\004W\376\207"
  94      67617004 
  94      92402540 
  94      F55F8851 
  94      EE0457FE 
  95 00b1 18E5CE10 		.ascii	"\030\345\316\020\345\347\030\030\201\276\206\251\207"
  95      E5E71818 
  95      81BE86A9 
  95      87
  96 00be B99911EC 		.ascii	"\271\231\021\354T\240\203\031\244\365\364\364!\250$"
  96      54A08319 
  96      A4F5F4F4 
  96      21A824
  97 00cd B5B844BF 		.ascii	"\265\270D\277\250\004L\347\026\247\353%30\026\000\000"
  97      A8044CE7 
  97      16A7EB25 
  97      33301600 
  97      00
  98 00de 09373F42 		.ascii	"\0117?B"
  99              		.text
 100              		.section	.gnu.lto_.cgraph.ce631cdad89947ba,"",%progbits
 101 0000 789C3D8E 		.ascii	"x\234=\216;\012\002A\020\005\337\233\331\3171<\233'"
 101      3B0A0241 
 101      1005DF9B 
 101      D9CF313C 
 101      9B27
 102 0012 E9850545 		.ascii	"\351\205\005E\027\324\003\230\355Q&\367\004\006\212"
 102      17D40398 
 102      ED5126F7 
 102      04068A
 103 0021 A9891B88 		.ascii	"\251\211\033\210\037\024{\206\266;)\252\202G\007\020"
 103      1F147B86 
 103      B63B29AA 
 103      82470710 
 104 0031 11C01176 		.ascii	"\021\300\021va\242\020\273\003D\366\253y\270Q\340\306"
 104      61A210BB 
 104      0344F6AB 
 104      79B851E0 
 104      C6
 105 0042 372514EB 		.ascii	"7%\024\353:\362E\211.OJ\345\362\240\324.wJ\343\362\241"
 105      3AF24589 
 105      2E4F4AE5 
 105      F2A0D42E 
 105      774AE3F2 
 106 0057 B47F8968 		.ascii	"\264\177\211h\320\237\277\312\032\251\260\302eq\235"
 106      D09FBFCA 
 106      1AA9B0C2 
 106      65719D
 107 0066 457D685C 		.ascii	"E}h\\fj/\324\276\266>X\037\254o\254o3\003R&[\364'\335"
 107      666A2FD4 
 107      BEB63E58 
 107      1FAC6FAC 
 107      6F330352 
ARM GAS  /tmp/ccjN8g1P.s 			page 8


 108 007f 538EC6A4 		.ascii	"S\216\306\244\304\017R\216G\325"
 108      C40F528E 
 108      47D5
 109              		.text
 110              		.section	.gnu.lto_.vars.ce631cdad89947ba,"",%progbits
 111 0000 789C25C4 		.ascii	"x\234%\304\261\015\000 \010E\301\367A\346pT\206Vcc!"
 111      B10D0020 
 111      0845C1F7 
 111      41E67054 
 111      86566363 
 112 0015 09579C21 		.ascii	"\011W\234!\034\230\2648\202\344I\365\225\325[\036\311"
 112      1C98B438 
 112      82E449F5 
 112      95D55B1E 
 112      C9
 113 0026 D2A83F81 		.ascii	"\322\250?\201\024\007\216"
 113      14078E
 114              		.text
 115              		.section	.gnu.lto_.refs.ce631cdad89947ba,"",%progbits
 116 0000 789C25C7 		.ascii	"x\234%\307\301\015\0000\014\302@\023\350\036\335\177"
 116      C10D0030 
 116      0CC24013 
 116      E81EDD7F 
 117 0010 CA44C2F7 		.ascii	"\312D\302\367\362 \014|Z\356\245\310C\374R\027\305\002"
 117      F2200C7C 
 117      5AEEA5C8 
 117      43FC5217 
 117      C502
 118 0022 0B82007B 		.ascii	"\013\202\000{"
 119              		.text
 120              		.section	.gnu.lto_.statics.ce631cdad89947ba,"",%progbits
 121 0000 789C6362 		.ascii	"x\234cb`d`b\300\016@\342\214\020&\000\000\375\000\011"
 121      60646062 
 121      C00E40E2 
 121      8C102600 
 121      00FD0009 
 122              		.text
 123              		.section	.gnu.lto_.decls.ce631cdad89947ba,"",%progbits
 124 0000 789CB55B 		.ascii	"x\234\265[\013p\034\305\231\356\231\331\207V\222\345"
 124      0B701CC5 
 124      99EE99D9 
 124      875692E5 
 125 0010 0707252E 		.ascii	"\007\007%.\211\255\344\360\025\241\202\027\002\027L"
 125      89ADE4F0 
 125      15A18217 
 125      02174C
 126 001f 2A214E9C 		.ascii	"*!N\234\252@R\316U\345Q\227\253\253\255\315z5\226\026"
 126      AA4052CE 
 126      55E55197 
 126      ABABADCD 
 126      7A359616 
 127 0033 EF8BD991 		.ascii	"\357\213\331\221-Su\271\3653\262\023\203\254\020l \216"
 127      2D5375B9 
 127      F533B213 
 127      83AC106C 
 127      208E
 128 0045 25032216 		.ascii	"%\003\"\026\261\261Ll\007\203\261\010\262\204A\261-"
ARM GAS  /tmp/ccjN8g1P.s 			page 9


 128      B1B14C6C 
 128      0783B108 
 128      B28441B1 
 128      2D
 129 0056 23C78025 		.ascii	"#\307\200%d@(F\021\016\004Q\306\207\210\362w\317LO\367"
 129      64402846 
 129      110E0451 
 129      C68788F2 
 129      77CF4C4F 
 130 006b EECCCECE 		.ascii	"\356\314\316\316\312\231R\367\314\366v\177\377\373\357"
 130      CA9952F7 
 130      CCF6767F 
 130      FFFBEF
 131 007a C7AC4424 		.ascii	"\307\254D$ |\255\203\333\024\\\261\257 \324\351CH\202"
 131      207CAD83 
 131      DB145CB1 
 131      AF20D4E9 
 131      434882
 132 008d B6AF42F1 		.ascii	"\266\257B\361\352\245\025J\033\224v(\035H\273\312\240"
 132      EAA5154A 
 132      1B947628 
 132      1D48BBCA 
 132      A0
 133 009e EC85B21F 		.ascii	"\354\205\262\037\312SP\376\000\245\007J\035`\335\011"
 133      CA5350FE 
 133      00A5074A 
 133      1D60DD09 
 134 00ae A551D0C6 		.ascii	"\245Q\320\306\376/\334\327@y\033\312;\230\216\200\270"
 134      FE2FDCD7 
 134      40791BCA 
 134      3B988E80 
 134      B8
 135 00bf 0B8FAF81 		.ascii	"\013\217\257\201r\033\224*(\225P\374P\216A\331\251\323"
 135      721B942A 
 135      289550FC 
 135      508E41D9 
 135      A9D3
 136 00d1 3B0DE5FF 		.ascii	";\015\345\377`\334O\240\004D\204<\360y\023<\257\205"
 136      60DC4FA0 
 136      0444843C 
 136      F079133C 
 136      AF85
 137 00e3 520E9F5F 		.ascii	"R\016\237_\204\317\025\242F\017\363\270\034\332G\241"
 137      84CF15A2 
 137      460FF3B8 
 137      1CDA47A1 
 138 00f3 5442DB0C 		.ascii	"TB\333\014(\365\360\\\005\367^\370n&\334\237\207\373"
 138      28F5F05C 
 138      05F75EF8 
 138      6E26DC9F 
 138      87FB
 139 0105 2CD194EB 		.ascii	",\321\224\353\020\32207B\277\007\241\014\300\363\377"
 139      10D23037 
 139      42BF07A1 
 139      0CC0F3FF 
 140 0115 081A1F98 		.ascii	"\010\032\037\230?,\317^]\266\036]V,\263\224#\037{\341"
 140      3F2CCF5E 
ARM GAS  /tmp/ccjN8g1P.s 			page 10


 140      5DB61E5D 
 140      562CB394 
 140      231F7BE1 
 141 0129 FEBE1CB9 		.ascii	"\376\276\034\271f\213\232<\253\364\276\242\336\2571"
 141      668B9A3C 
 141      ABF4BEA2 
 141      DEAF31
 142 0138 672CBE2A 		.ascii	"g,\276*\320\246lvM\266uC\366\366\027\252f\243\346,\\"
 142      D0A66C76 
 142      4DB67543 
 142      F6F617AA 
 142      66A3E62C 
 143 014d AD5DD9AC 		.ascii	"\255]\331\254pW\0005\341o\316=\232\255\256F\350j\024"
 143      70570035 
 143      E16FCE3D 
 143      9AADAE46 
 143      E86A14
 144 0160 12AA02D8 		.ascii	"\022\252\002\330\036\370\251\022\2360\330|\364H\226"
 144      1EF8A912 
 144      9E30D87C 
 144      F44896
 145 016f 5C4248D8 		.ascii	"\\BH\330)\004\200\222\210\233-\350 \255\003\276\256"
 145      29048092 
 145      889B2DE8 
 145      20AD03BE 
 145      AE
 146 0180 369FE923 		.ascii	"6\237\351#6\227A\242\206\222\360\350#\333\204\331\344"
 146      369741A2 
 146      8692F0E8 
 146      23DB84D9 
 146      E4
 147 0191 89B094D5 		.ascii	"\211\260\224\325\231%]\354\307<\312P\253\014\260O\222"
 147      99255DEC 
 147      C73CCA50 
 147      AB0CB04F 
 147      92
 148 01a2 CE91FDD8 		.ascii	"\316\221\375\330V\241\302R?W\241_\352\364\263\202\032"
 148      56A1C252 
 148      3F57A15F 
 148      EAF4B382 
 148      1A
 149 01b3 12BE7A65 		.ascii	"\022\276ze\001\214\307\204\253\310\223D\324\017\015"
 149      018CC784 
 149      ABC89344 
 149      D40F0D
 150 01c2 B75520D0 		.ascii	"\267U \320\322\017\234\251\267\003\365\353\320.]\261"
 150      D20F9CA9 
 150      B703F5EB 
 150      D02E5DB1 
 151 01d2 5A6FFDE6 		.ascii	"Zo\375\346G\371z\260\203\"\266i\326l\323AlS%\300\327"
 151      47F97AB0 
 151      8322B669 
 151      D66CD341 
 151      6C5325C0 
 152 01e7 BB84EBD0 		.ascii	"\273\204\353\320\276\007:\307\245\022\241v\023\250;"
 152      BE073AC7 
 152      A512A176 
ARM GAS  /tmp/ccjN8g1P.s 			page 11


 152      13A83B
 153 01f6 0CA8F6CD 		.ascii	"\014\250\366\315Gz\2567,\354\013\360\026\207\317Z/\015"
 153      477AAE37 
 153      2CEC0BF0 
 153      1687CF5A 
 153      2F0D
 154 0208 187F8D89 		.ascii	"\030\177\215\211}\204\223\2000e\\\202\361\035\376\340"
 154      7D849380 
 154      30655C82 
 154      F11DFEE0 
 155 0218 47970362 		.ascii	"G\227\003b\036\372u\266\353\275\346\265\331\333\241"
 155      1EFA75B6 
 155      EBBDE6B5 
 155      D9DBA1
 156 0227 A35F3386 		.ascii	"\243_3\206\210\036\027\014\256;\266^<\252\253\364\032"
 156      881E170C 
 156      AE3BB65E 
 156      3CAAABF4 
 156      1A
 157 0238 F47036DB 		.ascii	"\364p6\333\202\273\022\023\211\3508\351\265W\230gk#"
 157      82BB1213 
 157      89E838E9 
 157      B5579867 
 157      6B23
 158 024a D211FD3B 		.ascii	"\322\021\375;z\024s\322\265\246\232x\0022\006q\354w"
 158      7A1473D2 
 158      B5A69A78 
 158      02320671 
 158      EC77
 159 025c 0A22DBC0 		.ascii	"\012\"\333\300\363\345\306\235\016\350\356dz\220\210"
 159      F3E5C69D 
 159      0EE8EE64 
 159      7A9088
 160 026b 4E527906 		.ascii	"NRy\006\266\2550HX\260\265?\217\255\203\371l\235kn^"
 160      B6AD3048 
 160      58B0B53F 
 160      8FAD83F9 
 160      6C9D6B6E 
 161 0280 DB9ACF56 		.ascii	"\333\232\317V\031\372)\311\002\353\263\253\205\273\212"
 161      19FA29C9 
 161      02EBB3AB 
 161      85BB8A
 162 028f 49034F0B 		.ascii	"I\003O\013e\300\332\220`\237\007p\017\244\333S\177\246"
 162      65C0DA90 
 162      609F0770 
 162      0FA4DB53 
 162      7FA6
 163 02a1 8F05D3C0 		.ascii	"\217\005\323\300\241\334\220\362\202+\352\037\2708\325"
 163      A1DC90F2 
 163      822BEA1F 
 163      B838D5
 164 02b0 928A3D50 		.ascii	"\222\212=P\227\031\337\254F\001\351-\252\322\321\035"
 164      9719DFAC 
 164      4601E92D 
 164      AAD2D11D 
 165 02c0 177BAA79 		.ascii	"\027{\252y\306\237+Zk\016\306|>W\020\314\256\3001\322"
 165      C69F2B5A 
ARM GAS  /tmp/ccjN8g1P.s 			page 12


 165      6B0EC67C 
 165      3E5710CC 
 165      AEC031D2 
 166 02d4 221A8C74 		.ascii	"\"\032\214t\177\212\347\342\350\345\342\242\227\347"
 166      7F8AE7E2 
 166      E8E5E2A2 
 166      97E7
 167 02e2 82D3E01C 		.ascii	"\202\323\340\034\264\005\343\324\2609\241\325C!\276"
 167      B405E3D4 
 167      B039A1D5 
 167      4321BE
 168 02f1 89F8A4F0 		.ascii	"\211\370\244\360\2420\007@vR\236/\264O\235\326e)\002"
 168      A2300740 
 168      76529E2F 
 168      B44F9DD6 
 168      652902
 169 0304 093C998C 		.ascii	"\011<\231\214\374#\240h\343Y\207\302\255Ho\037\333\375"
 169      FC23A068 
 169      E35987C2 
 169      AD486F1F 
 169      DBFD
 170 0316 CBE39C51 		.ascii	"\313\343\234Q\364k\316gQ+0\217\003\313\027\022\216\011"
 170      F46BCE67 
 170      512B308F 
 170      03CB1712 
 170      8E09
 171 0328 388E3FA6 		.ascii	"8\216?\246\230\203\277\037\023\254\325`N\016\206\027"
 171      9883BF1F 
 171      13ACD560 
 171      4E0E8617 
 172 0338 569929CC 		.ascii	"V\231)\314\002s\215d`\216/t\203X\223\207\250\317\256"
 172      02738D64 
 172      608E2F74 
 172      83589387 
 172      A8CFAE
 173 034b C5E7DDD3 		.ascii	"\305\347\335\323$\357n\224h\016\337\310\347p7X\257\020"
 173      24EF6E94 
 173      680EDFC8 
 173      E7703758 
 173      AF10
 174 035d AC2D9299 		.ascii	"\254-\222\231\304\373{\202\206\177\371s\222\270\237"
 174      C4FB7B82 
 174      867FF973 
 174      92B89F
 175 036c CFC07E3A 		.ascii	"\317\300~:\227\372\365|;\023\271\037 \242\007\251*\307"
 175      97FAF57C 
 175      3B13B91F 
 175      20A207A9 
 175      2AC7
 176 037e 76EF387E 		.ascii	"v\3578~kam\232\011#\327>Y\242M\335\311Z}\366\362\213"
 176      6B616D9A 
 176      0923D73E 
 176      59A24DDD 
 176      C95A7DF6 
 177 0394 A88D501C 		.ascii	"\250\215P\034\262t\262!\306\311F\017<\371\242\225\223"
 177      B274B221 
 177      C6C9460F 
ARM GAS  /tmp/ccjN8g1P.s 			page 13


 177      3CF9A295 
 177      93
 178 03a5 098CF99C 		.ascii	"\011\214\371\234\203E\244\324\257!\324O\020\352oZR\177"
 178      8345A4D4 
 178      AF21D44F 
 178      10EA6F5A 
 178      527F
 179 03b7 93A17EE1 		.ascii	"\223\241~\341\360\3073-\210\007\354\210\027\010r\326"
 179      F0C7332D 
 179      8807EC88 
 179      170872D6 
 180 03c7 E4A3C47F 		.ascii	"\344\243\304\177\327{hz;\360P\357<\303b\267U\260\244"
 180      D77B687A 
 180      3BF050EF 
 180      3CC362B7 
 180      55B0A4
 181 03da C867C382 		.ascii	"\310g\303\202\204\367{<\006\357\027\016\367\237\372"
 181      84F77B3C 
 181      06EF170E 
 181      F79FFA
 182 03e9 FC746349 		.ascii	"\374tcI\343e\013\005\355\373\366\364b\311@\274\217\""
 182      E3650B05 
 182      EDFBF6F4 
 182      62C940BC 
 182      8F22
 183 03fb 0E3820DA 		.ascii	"\0168 \332\373\023\217\270\225\"\016\272B\264\347\361"
 183      FB138FB8 
 183      95220EBA 
 183      42B4E7F1 
 184 040b 418A38E2 		.ascii	"A\2128\342\2008\253H\036\267S\304qW\210\366<\266R\304"
 184      8038AB48 
 184      1EB753C4 
 184      715788F6 
 184      3CB652C4 
 185 041f 0907C4EA 		.ascii	"\011\007\304\352\"y|\204\"N\272B\264\347\3617\024\261"
 185      22797C84 
 185      224EBA42 
 185      B4E7F137 
 185      14B1
 186 0431 FB3B8511 		.ascii	"\373;\205\021k\254x\314\363\251\334\311\361\015s\211"
 186      6BAC78CC 
 186      F3A9DCC9 
 186      F10D7389 
 187 0441 000B478F 		.ascii	"\000\013G\217\2219F\017\354\1771X\202\377S\250'<f\332"
 187      9139460F 
 187      EC7F3158 
 187      82FF53A8 
 187      273C66DA 
 188 0455 EB7497F6 		.ascii	"\353t\227\366\254\224\241MK\373)\350\300SNS\235\263"
 188      AC94A14D 
 188      4BFB29E8 
 188      C0534E53 
 188      9DB3
 189 0467 5B699887 		.ascii	"[i\230\207)\346\240\003\227Nn\305\245+\272\253\354\252"
 189      29E6A003 
 189      974E6EC5 
 189      A52BBAAB 
ARM GAS  /tmp/ccjN8g1P.s 			page 14


 189      ECAA
 190 0479 DEC6A44B 		.ascii	"\336\306\244K~=\031\022\036\026\346\243\351\354\030"
 190      7E3D1912 
 190      1E16E6A3 
 190      E9EC18
 191 0488 578B8CF9 		.ascii	"W\213\214\371\216\232\352\371r\311\376\374\336\232l"
 191      8E9AEAF9 
 191      72C9FEFC 
 191      DE9A6C
 192 0497 B58FD913 		.ascii	"\265\217\331\023\333s\317\246\335\365\"\236i\373h\332"
 192      DB73CFA6 
 192      DDF5229E 
 192      69FB68DA 
 193 04a7 DDF7EA5F 		.ascii	"\335\367\352_\347j\250\256\241\232\010\324i\2179i\357"
 193      E76AA8AE 
 193      A19A08D4 
 193      698F3969 
 193      EF
 194 04b8 FF445F09 		.ascii	"\377D_\011\206\004!g\322\026\3709\330\324\235\241:w"
 194      86042167 
 194      D216F839 
 194      D8D49DA1 
 194      3A77
 195 04ca BD6141CF 		.ascii	"\275aA\317\370\355\307\246\337\362\354\026\021\304\245"
 195      F8EDC7A6 
 195      DFF2EC16 
 195      11C4A5
 196 04d9 A9713391 		.ascii	"\251q3\221\375mS\215\307\0145jzq+\315\273\2144\2778"
 196      FD6D538D 
 196      C70C356A 
 196      7A712BCD 
 196      BB8C34BF 
 197 04ee E14A9A6B 		.ascii	"\341J\232k\247/M\013\221\346CS\232w\246'\315'\2144\333"
 197      A72F4D0B 
 197      91E64353 
 197      9A77A627 
 197      CD278C34 
 198 0503 DD497303 		.ascii	"\335Is\003#\215\266\224\272\002\2658-\2450[[\305+P\376"
 198      238DB694 
 198      BA02B538 
 198      2DA5305B 
 198      5BC52B50 
 199 0518 4206B71A 		.ascii	"B\006\267\032\013\231\201#U(\377\3623\244\214s\211u"
 199      0B998123 
 199      5528FFF2 
 199      33A48C73 
 199      8975
 200 052a 5E4147EC 		.ascii	"^AG\354{a\264\344\225:\217\3713\212\331}\307t\327+\344"
 200      7B61B4E4 
 200      953A8FF9 
 200      338AD97D 
 200      C774D72B 
 201 053f 58E03E0A 		.ascii	"X\340>\0128yl\272\333\011.#\346\254\346\360V\312y9\327"
 201      38796CBA 
 201      DB092E23 
 201      E6ACE6F0 
 201      56CA7939 
ARM GAS  /tmp/ccjN8g1P.s 			page 15


 202 0554 26629E1E 		.ascii	"&b\236\036\362\232\033\256\007z\276`\270\3141!g=\207"
 202      F29A1BAE 
 202      077ABE60 
 202      B8CC3121 
 202      673D87
 203 0567 1B98059D 		.ascii	"\033\230\005\235\275U[\331\264\271\207J<\266{\350\224"
 203      BD555BD9 
 203      B4B9874A 
 203      3CB67BE8 
 203      94
 204 0578 43E67425 		.ascii	"C\346t%\262\325\202\371\307\024\252\222P\377\035\241"
 204      B2D582F9 
 204      C714AA92 
 204      50FF1DA1 
 205 0588 FE9868B5 		.ascii	"\376\230h\265^\306\255\206\233\265\017n9{\255\205\243"
 205      5EC6AD86 
 205      9BB50F6E 
 205      397BAD85 
 205      A3
 206 0599 89BA5364 		.ascii	"\211\272Sd\315\355\001Go\0217\313\262\272}\\\304\233"
 206      CDED0147 
 206      6F1137CB 
 206      B2BA7D5C 
 206      C49B
 207 05ab D93718DD 		.ascii	"\3317\030\335\366\367\334\241\201\032\373\214E\366H"
 207      F6F7DCA1 
 207      811AFB8C 
 207      45F648
 208 05ba 227A9F8C 		.ascii	"\"z\237\214\334c\311\371\036\221\335\314\016\277d\265"
 208      DC63C9F9 
 208      1E91DDCC 
 208      0EBF64B5 
 209 05ca CF10F366 		.ascii	"\317\020\363f\343\220\320\017\233~mt\367\023\227g3\033"
 209      E390D00F 
 209      9B7E6D74 
 209      F7139767 
 209      331B
 210 05dc 125EA698 		.ascii	"\022^\246\230}\256\22645\026<\353\376c\012\035\022\366"
 210      7DAE9634 
 210      35163CEB 
 210      FE630A1D 
 210      12F6
 211 05ee 8AF39118 		.ascii	"\212\363\221\030\022:A\234\220\260\017j\352Xk|\206i"
 211      123A419C 
 211      90B00F6A 
 211      EA586B7C 
 211      8669
 212 0600 DB073BCF 		.ascii	"\333\007;\317\336j\255\307b\003\336\365\001\346~\222"
 212      DE6AADC7 
 212      6203DEF5 
 212      01E67E92 
 213 0610 7D37F9CC 		.ascii	"}7\371\314)\231n\244\265\323MN\242\322\316\037E\324"
 213      29996EA4 
 213      B5D34D4E 
 213      A2D2CE1F 
 213      45D4
 214 0622 CCC8F8FE 		.ascii	"\314\310\370\376\331R\266\267yZ\317\015\326v6X\357\367"
ARM GAS  /tmp/ccjN8g1P.s 			page 16


 214      D952B6B7 
 214      795ACF0D 
 214      D6763658 
 214      EFF7
 215 0634 99C1FAC9 		.ascii	"\231\301\372\311?=X\263\002\267\372\203M\010!\377\214"
 215      3F3D58B3 
 215      02B7FA83 
 215      4D0821FF 
 215      8C
 216 0645 A5CF3FC3 		.ascii	"\245\317?\303\370\374\241\321\316\327\255|^b\242\325"
 216      F8FCA1D1 
 216      CED7AD7C 
 216      5E62A2D5 
 217 0655 88C01E8A 		.ascii	"\210\300\036\2129p\260\252T'\341\027\265\307)\344\310"
 217      3970B0AA 
 217      5427E117 
 217      B5C729E4 
 217      C8
 218 0666 99AA126C 		.ascii	"\231\252\022l2\015\035\261.x\224\310\367'\352\202#\007"
 218      320D1DB1 
 218      2E7894C8 
 218      F727EA82 
 218      2307
 219 0678 AA0C7FD3 		.ascii	"\252\014\177\323\224\3058\3403LH=\013!%\205\204#$\244"
 219      94C538E0 
 219      334C483D 
 219      0B212585 
 219      842324A4 
 220 068c 9E23F5F3 		.ascii	"\236#\365\363f`\331{J7\353)\257S\035L\270\323AM\221"
 220      6660D97B 
 220      4A37EB29 
 220      AF531D4C 
 220      B8D3414D 
 221 06a1 7EF9344B 		.ascii	"~\3714K\355m\306/w\\1=\267t}\316\365\022\011\365q3\324"
 221      ED6DC62F 
 221      775C313D 
 221      B7747DCE 
 221      F51209F5 
 222 06b8 9F6242FD 		.ascii	"\237bB\375\225\334P/\356\334\352#F\240#/;\004\266\245"
 222      95DC502F 
 222      EEDCEA23 
 222      46A0232F 
 222      3B04B6A5 
 223 06cc 44543753 		.ascii	"DT7S>c\335\326\367\335\30285\266\232)\372\374\213\325"
 223      3E63DDD6 
 223      F7DDC238 
 223      35B69A29 
 223      FAFC8BD5 
 224 06e0 4B3FF1BF 		.ascii	"K?\361\277\265~s\206{\262\347v\015\264\250\223\264\026"
 224      B57E7386 
 224      7BB2E776 
 224      0DB4A893 
 224      B416
 225 06f2 3272C032 		.ascii	"2r\3002\332\007\270\031\256\337r\206\023lg8<\272oOI"
 225      DA07B819 
 225      AEDF7286 
 225      136C6738 
ARM GAS  /tmp/ccjN8g1P.s 			page 17


 225      3CBA6F4F 
 226 0707 335CFEC5 		.ascii	"3\\\376\305\262\030\022\376\004\301\003\374\235ag\242"
 226      B21812FE 
 226      04C103FC 
 226      9D6167A2 
 227 0717 9D7EC302 		.ascii	"\235~\303\002\023\307\235V\236\274\015j8\033\260i\353"
 227      13C79D56 
 227      9EBC0D6A 
 227      381BB069 
 227      EB
 228 0728 B71473E4 		.ascii	"\267\024s\344?\013g\255k\035\254j\254e\017R\304\356"
 228      3F0B67AD 
 228      6B1DAC6A 
 228      AC650F52 
 228      C4EE
 229 073a 1F15E6F1 		.ascii	"\037\025\346\361\006[DC\331ZH\0346\345v\205Xc\201\370"
 229      065B4443 
 229      D95A481C 
 229      36E57685 
 229      586381F8 
 230 074e 34598ABE 		.ascii	"4Y\212\276@\021\307_u2\337BG.\265\303\356S\024\263\357"
 230      4011C75F 
 230      7532DF42 
 230      472EB5C3 
 230      EE5314B3 
 231 0763 3527EB2C 		.ascii	"5'\353,t\344\223\254\342\207LU\236ubsQ\261^f\276\267"
 231      74E493AC 
 231      E2874C55 
 231      9E756273 
 231      51B15E66 
 232 0779 08092784 		.ascii	"\010\011'\204\371hNH8)\340\344|\212\324\003\244\036"
 232      F9684E48 
 232      3829E0E4 
 232      7C8AD403 
 232      A41E
 233 078b 24F524A9 		.ascii	"$\365$\251\377N\352,I\340\353H\375sRo!\365\375\244>"
 233      FF4EEA2C 
 233      49E0EB48 
 233      FD73526F 
 233      21F5FDA4 
 234 07a0 49EA5749 		.ascii	"I\352WI}\226\324C\244\036&\365\033\244~\253\230\344"
 234      7D96D443 
 234      A41E26F5 
 234      1BA47EAB 
 234      98E4
 235 07b2 9FB3F817 		.ascii	"\237\263\370\027\351K\247\016\222\000\271\267No\323"
 235      E94BA70E 
 235      9200B9B7 
 235      4E6FD3
 236 07c1 94D031D5 		.ascii	"\224\3201\325?\234\363\372kT,\376\305\023&"
 236      3F9CF3FA 
 236      6B542CFE 
 236      C51326
 237 07d0 6ACFD279 		.ascii	"j\317\322y1\377efK\231Az\374\214\237'\374\316e#\374"
 237      31FF6566 
 237      4B99417A 
 237      FC8C9F27 
ARM GAS  /tmp/ccjN8g1P.s 			page 18


 237      FCCE6523 
 238 07e5 1731FFA5 		.ascii	"\0271\377\245\274W\377\340zv\271@B\351W\224\357==\373"
 238      BC57FFE0 
 238      7A76B940 
 238      42E95794 
 238      EF3D3DFB 
 239 07f9 FE72C96B 		.ascii	"\376r\311k0\355\315\231]\274\374\354\342\245\263\213"
 239      30EDCD99 
 239      5DBCFCEC 
 239      E2A5B38B 
 240 0809 37C0BC46 		.ascii	"7\300\274F\241\214\235&\306\261~\271\211\337f;\263\367"
 240      A18C9D26 
 240      C6B17EB9 
 240      89DF663B 
 240      B3F7
 241 081b 0189CBB7 		.ascii	"\001\211\313\267({\027\216\267\030\033%\3557\006\034"
 241      287B178E 
 241      B7181B25 
 241      ED37061C 
 242 082b 7BEDBC97 		.ascii	"{\355\274\227\360*\312\361\222{\003\006f\337\256\025"
 242      F02ACAF1 
 242      927B0306 
 242      66DFAE15 
 243 083b 3CCC4517 		.ascii	"<\314E\027\246\352(\370\216\366R\256\251\310\012\256"
 243      A6EA28F8 
 243      8EF652AE 
 243      A9C80AAE 
 244 084b 90F3B605 		.ascii	"\220\363\266\005L\347\3352|5\317\330$\317\330\347P["
 244      4CE7DD32 
 244      7C35CFD8 
 244      24CFD8E7 
 244      505B
 245 085d 766F7373 		.ascii	"voss\266\365\366\354\271\251\251y\306\017_\260\346T"
 245      B6F5F6EC 
 245      B9A9A979 
 245      C60F5FB0 
 245      E654
 246 086f AAEDAEC2 		.ascii	"\252\355\256\302\257W\362\337\224\030\027\007\307\275"
 246      AF57F2DF 
 246      94181707 
 246      C7BD
 247 087d 5E81A897 		.ascii	"^\201\250\227f#\353KD\217S\011Fw<\371\322Bs\320j\211"
 247      6623EB4B 
 247      448F5309 
 247      46773CF9 
 247      D24273D0 
 248 0893 728F393F 		.ascii	"r\2179?\2079o\222\262\331\311\251)\311X{6\275\305\234"
 248      87396F92 
 248      B2D9C9A9 
 248      29C9587B 
 248      36BDC59C 
 249 08a7 8866AFA4 		.ascii	"\210f\257\244\254\236\304CY\307X+\341ij\017\245\005"
 249      AC9EC443 
 249      59C7582B 
 249      E1696A0F 
 249      A505
 250 08b9 FBDBDE2F 		.ascii	"\373\333\336/k\340Ea\211\350\020\031\273A\262\232\377"
ARM GAS  /tmp/ccjN8g1P.s 			page 19


 250      6BE04561 
 250      89E81019 
 250      BB41B29A 
 250      FF
 251 08ca 712BF3BA 		.ascii	"q+\363\272\326r\265\357s\330\233\2373\227\316\237\316"
 251      D672B5EF 
 251      73D89B9F 
 251      3397CE9F 
 251      CE
 252 08db 617E1361 		.ascii	"a~\023a\276\233a~\270\3476\236\371\002H\"\352'#7[\262"
 252      BE9B617E 
 252      B8E7369E 
 252      F9024822 
 252      EA272337 
 253 08f1 BE9963BD 		.ascii	"\276\231c\275\3775'\326\215\031\177\230b\366\215\231"
 253      FF3527D6 
 253      8D197F98 
 253      62F68D99 
 254 0901 F354A93B 		.ascii	"\363T\251;\025m\356\3733\305\034\270\263\324\215\212"
 254      156DEEFB 
 254      33C51CB8 
 254      B3D48D8A 
 255 0911 B18A1822 		.ascii	"\261\212\030\"o\347/P\304\021W\2105\026<j\273\251\011"
 255      6FE72F50 
 255      C4115788 
 255      35163C6A 
 255      BBA909
 256 0924 8A383976 		.ascii	"\21289v\271^;LR\314\356\345n\020\355\271\\Wn \016: "
 256      B95E3B4C 
 256      52CCEEE5 
 256      6E10EDB9 
 256      5C576E20 
 257 093b 5A9EFEE7 		.ascii	"Z\236\376\347_\254\373\204\204{\245\371\010h5KxBn!\365"
 257      5FACFB84 
 257      847BA5F9 
 257      0868354B 
 257      78426E21 
 258 0950 7DA4BE9F 		.ascii	"}\244\276\237\324\333H\375\240\304,:\357)7\242g\342"
 258      D4DB48FD 
 258      A0C42C3A 
 258      EF2937A2 
 258      67E2
 259 0962 23D35D72 		.ascii	"#\323]r<\325\331_\354\303\247\300\316\363\327$|\356"
 259      3CD5D95F 
 259      ECC3A7C0 
 259      CEF3D724 
 259      7CEE
 260 0974 2B37C367 		.ascii	"+7\303g{\357\217\354\303'o\237\337AF\266Y\206O\033\027"
 260      7BEF8FEC 
 260      C3276F9F 
 260      DF4146B6 
 260      59864F1B 
 261 0989 3E17CF58 		.ascii	">\027\317X\205\217\307\325;t\223\372\277\344\310\321"
 261      858FC7D5 
 261      3B7493FA 
 261      BFE4C8D1 
 262 0999 4EE4788E 		.ascii	"N\344x\216\221\343\027\275w\330\313\221\203\004i@\033"
ARM GAS  /tmp/ccjN8g1P.s 			page 20


 262      91E317BD 
 262      77D8CB91 
 262      83046940 
 262      1B
 263 09aa 6929C72E 		.ascii	"i)\307.N\216\203\226rx9G{T\302\216\366&\305\034\031"
 263      4E8E8396 
 263      72783947 
 263      7B54C28E 
 263      F626C51C 
 264 09bf 9AFE199D 		.ascii	"\232\376\031\235\2069F1\307Cn\020\363\303\301\365\362"
 264      86394631 
 264      C7436E10 
 264      F3C3C1F5 
 264      F2
 265 09d0 A653C279 		.ascii	"\246S\302y\350o\214\212\317\234\246\357\233J\334<OR"
 265      E86F8C8A 
 265      CF9CA6EF 
 265      9B4ADC3C 
 265      4F52
 266 09e2 71C6761F 		.ascii	"q\306v\037>S\362\217>,\177\006Q\334\252\350\000Q\353"
 266      3E53F28F 
 266      3E2C7F06 
 266      51DCAAE8 
 266      0051EB
 267 09f5 FA0A53AA 		.ascii	"\372\012S\252K=E\257\212 v+L\001\216\270\023 \337$\372"
 267      4B3D45AF 
 267      8A20762B 
 267      4C018EB8 
 267      1320DF24 
 268 0a0a 9EE47E8A 		.ascii	"\236\344~\212\331\367zIi4\377b]\033f)HQ\336\220\360"
 268      D9F77A49 
 268      6934FF62 
 268      5D1B6629 
 268      4851DE90 
 269 0a1f 5B928AF6 		.ascii	"[\222\212\366\220z/\251\367\223\372\220T\304.\002\273"
 269      907A2FA9 
 269      F793FA90 
 269      54C42E02 
 269      BB
 270 0a30 2305DF2D 		.ascii	"#\005\337-\211z\026\030\011_\016?\017\011OP\304\011"
 270      897A1618 
 270      095F0E3F 
 270      0F094F50 
 270      C409
 271 0a42 5788564A 		.ascii	"W\210VJ\305\216\033\022~G\021\273\317;m\036\235\177"
 271      C58E1B12 
 271      7E4711BB 
 271      CF3B6D1E 
 271      9D7F
 272 0a54 0EA205C3 		.ascii	"\016\242\005\303\366\012#\373u\307J0\275\225\235\332"
 272      F60A23FB 
 272      75C74A30 
 272      BD959DDA 
 273 0a64 183B3D0C 		.ascii	"\030;=\014v\362\204\204G\210U\236!\365aR?\313N\037\273"
 273      76F28484 
 273      4788559E 
 273      21F56152 
ARM GAS  /tmp/ccjN8g1P.s 			page 21


 273      3FCB4E1F 
 274 0a79 2A8CE963 		.ascii	"*\214\351c`\225M\236\266\236\320X]\225tl\364\007\222"
 274      60954D9E 
 274      B69ED058 
 274      5D95746C 
 274      F40792
 275 0a8c 74F732B1 		.ascii	"t\3672\261s\260\327\315\261\321\0212\362\250e\322=\312"
 275      73B0D7CD 
 275      B1D11132 
 275      F2A865D2 
 275      3DCA
 276 0a9e 2F1BCFDA 		.ascii	"/\033\317\332\036\033\255[k\006\377Z\032\374k\304B{"
 276      1E1BAD5B 
 276      6B06FF5A 
 276      1AFC6BC4 
 276      427B
 277 0ab0 09EED700 		.ascii	"\011\356\327\000'(\027\003\357\356\023Kp_+3\036e\314"
 277      27281703 
 277      EFEE134B 
 277      705F2B33 
 277      1E65CC
 278 0ac3 D82B9183 		.ascii	"\330+\221\203\246\027X\243\275J\2156q\311\311\033\371"
 278      A61758A3 
 278      BD4A8D36 
 278      71C9C91B 
 278      F9
 279 0ad4 6321DE6A 		.ascii	"c!\336j\332\262S\373\271\345\220\351\010w\323\211\216"
 279      DAB253FB 
 279      B9E590E9 
 279      0877D389 
 279      8E
 280 0ae5 FF65A5F1 		.ascii	"\377e\245\361l\177.T\222#\234 \216p\236:\302\350\324"
 280      6C7F2E54 
 280      92239C20 
 280      8E709E3A 
 280      C2E8D4
 281 0af8 BE61FEE7 		.ascii	"\276a\376\347\236N\257\217OY:\301)\306\011\272\017\372"
 281      9E4EAF8F 
 281      4F593AC1 
 281      29C609BA 
 281      0FFA
 282 0b0a EC5CA0E4 		.ascii	"\354\\\240\344\237P\222 \336VI\217\203\0370\337\273"
 282      9F509220 
 282      DE56498F 
 282      831F30DF 
 282      BB
 283 0b1b 9738A1B5 		.ascii	"\2278\241\265\0220\314\367\350T\313\3604N\2039\332\247"
 283      1230CCF7 
 283      E854CBF0 
 283      344E8339 
 283      DAA7
 284 0b2d 186F7A59 		.ascii	"\030ozY\363\246\001\326\233\036\2534,?\266{xna\242\351"
 284      F3A601D6 
 284      9B1EAB34 
 284      2C3FB67B 
 284      786E61A2 
 285 0b42 82DED424 		.ascii	"\202\336\324$\371\330\315\352\266*]\251]\033\262M\302"
ARM GAS  /tmp/ccjN8g1P.s 			page 22


 285      F9D8CDEA 
 285      B62A5DA9 
 285      5D1BB24D 
 285      C2
 286 0b53 EACE4F9B 		.ascii	"\352\316O\233#\371\355\014\253\326A\242\326\016\252"
 286      23F9ED0C 
 286      ABD641A2 
 286      D60EAA
 287 0b62 D6D1034F 		.ascii	"\326\321\003O\367\352\023f\011h\303\004m?Ek\337\374"
 287      F7EA1366 
 287      0968C304 
 287      6D3F456B 
 287      DFFC
 288 0b74 7EEF570C 		.ascii	"~\357W\014\305\004r\214\024\340\215\024\240F\012\350"
 288      C504728C 
 288      14E08D14 
 288      A0460AE8 
 289 0b84 46D2DECE 		.ascii	"F\322\336\316\241\022G\031\334v\315\240\354\276\"\350"
 289      A1124719 
 289      DC76CDA0 
 289      ECBE22E8 
 290 0b94 206725F7 		.ascii	" g%\367\377\223\362\246\024\240\326\250\014\260O\377"
 290      FF93F2A6 
 290      14A0D6A8 
 290      0CB04FFF 
 291 0ba4 4A6DFB2C 		.ascii	"Jm\373,c\333\255\303\222\035\013\306\207\306b}j\003"
 291      63DBADC3 
 291      921D0BC6 
 291      87C6627D 
 291      6A03
 292 0bb6 E3534DDA 		.ascii	"\343SM\332\236e#\231\\\266\223\3729R\367\221\3728\251"
 292      9E652399 
 292      5CB693FA 
 292      3952F791 
 292      FA38A9
 293 0bc9 5F633DEE 		.ascii	"_c=\356\217\324\036}\033\037\276\212N;9'\003\230\316"
 293      8FD41E7D 
 293      1B1FBE8A 
 293      4E3B3927 
 293      0398CE
 294 0bdc 087F54D1 		.ascii	"\010\177T\321js\310\302\237\324\345\254\317\311ic\011"
 294      6A73C8C2 
 294      9FD4E5AC 
 294      CFC96963 
 294      09
 295 0bed FAFDB3AD 		.ascii	"\372\375\263\255~=T\222\223\246\237\356\330\361\322"
 295      7E3D5492 
 295      93A69FEE 
 295      D8F1D2
 296 0bfc 75053838 		.ascii	"u\00588\317K\262\267\013g_N\222\256\274\343\"#\375\301"
 296      CF4BB2B7 
 296      0B675F4E 
 296      92AEBCE3 
 296      2223FDC1 
 297 0c10 1705F751 		.ascii	"\027\005\367Q\257\000\027El\270B\302\273d\031s\3012"
 297      AF001745 
 297      6CB842C2 
ARM GAS  /tmp/ccjN8g1P.s 			page 23


 297      BB641973 
 297      C132
 298 0c22 5D5E60D2 		.ascii	"]^`\322\345\340V\253t\351\341\0261\253\311\211\340\033"
 298      E5E056AB 
 298      74E9E116 
 298      31ABC989 
 298      E01B
 299 0c34 440178EC 		.ascii	"D\001x\354\310E\377\364Vo9+\360\003\266+p\314\345\007"
 299      C845FFF4 
 299      566F392B 
 299      F003B62B 
 299      70CCE507 
 300 0c48 1233098F 		.ascii	"\0223\011\217R&\306\317\370\246\273\340\373\200\254"
 300      5226C6CF 
 300      F8A6BBE0 
 300      FB80AC
 301 0c57 E9C729E4 		.ascii	"\351\307)\344\204\203X\316\313=\015\361C\2128\351\012"
 301      848358CE 
 301      CB3D0DF1 
 301      438A38E9 
 301      0A
 302 0c68 B12627F4 		.ascii	"\261&'\364\264T\003+\273\367H`\375\215\324\037\222\372"
 302      B454032B 
 302      BBF74860 
 302      FD8DD41F 
 302      92FA
 303 0c7a A2F3DA3B 		.ascii	"\242\363\332;G\311\343\222\335\357\203\310\251\251\304"
 303      47C9E392 
 303      DDEF83C8 
 303      A9A9C4
 304 0c89 ED6018D8 		.ascii	"\355`\030\330E9\314r>\254\015\264\353\032\022\376\277"
 304      4539CC72 
 304      3EAC0DB4 
 304      EB1A12FE 
 304      BF
 305 0c9a 8460FCD8 		.ascii	"\204`\374\3306\030\331|l\366\303?d\243\261\331\261u"
 305      3618D97C 
 305      6CF6C33F 
 305      64A3B1D9 
 305      B175
 306 0cac 7BEF127B 		.ascii	"{\357\022{~&\365\320\274\011\355\3136-\012\011c\300"
 306      7E26F5D0 
 306      BC09EDCB 
 306      362D0A09 
 306      63C0
 307 0cbe 9F681AF4 		.ascii	"\237h\032\364nt)[\255\311$\340\320}\357$\015]M\201\""
 307      6E74295B 
 307      ADC924E0 
 307      D07DEF24 
 307      0D5D4D81 
 308 0cd3 6A9A6190 		.ascii	"j\232a\220\032x\310\334t\345\204\0379\257\365\210h."
 308      1A78C8DC 
 308      74E5841F 
 308      39AFF588 
 308      682E
 309 0ce5 DA32637B 		.ascii	"\3322c{\266\214#\211at\223\022r\226\377H\211\343\364"
 309      B68C2389 
ARM GAS  /tmp/ccjN8g1P.s 			page 24


 309      61749312 
 309      7296FF48 
 309      89E3F4
 310 0cf8 2EFEBF91 		.ascii	".\376\277\221\032)\205\231:\205\365\036\367\312\335"
 310      1A298599 
 310      3A85F51E 
 310      F7CADD
 311 0d07 E0B153AE 		.ascii	"\340\261S\256\361\243;\373\261\353<\324G\204\271h'H"
 311      F1A33BFB 
 311      B1EB3CD4 
 311      4784B968 
 311      2748
 312 0d19 B66D91CE 		.ascii	"\266m\221\316\305\340CU\244\013v\321\253\315\230\325"
 312      C5E04355 
 312      A40B76D1 
 312      ABCD98D5 
 313 0d29 BC956BB8 		.ascii	"\274\225k\270\250\313]\246\265\011\332\177\231Mh\377"
 313      A8CB5DA6 
 313      B509DA7F 
 313      994D68FF 
 314 0d39 ABD4FD19 		.ascii	"\253\324\375\031\206\001M\245\3241s\334\371\357\342"
 314      86014DA5 
 314      D43173DC 
 314      F9EFE2
 315 0d48 EC02AC6E 		.ascii	"\354\002\254n\364X\377#\246v\210m?n\223\3558\374\006"
 315      F458FF23 
 315      A676886D 
 315      3F6E93ED 
 315      38FC06
 316 0d5b C87EDCCF 		.ascii	"\310~\334\317l\307\341\351\310~\334\317m\307\235/Ho"
 316      6CC7E1E9 
 316      C87EDCCF 
 316      6DC79D2F 
 316      486F
 317 0d6d B3EDB8DE 		.ascii	"\263\355\270\336\202\271\364\036\333q\317\027\034w\257"
 317      82B9F41E 
 317      DB71CF17 
 317      1C77AF
 318 0d7c EDB84305 		.ascii	"\355\270C\005\3075\333\216\273TP\276-\3468\344\211\326"
 318      C735DB8E 
 318      BB5450BE 
 318      2DE638E4 
 318      89D6
 319 0d8e 4714DFB7 		.ascii	"G\024\337\267\276\373\303\232\305\310\233\310\324\205"
 319      BEFBC39A 
 319      C5C89BC8 
 319      D485
 320 0d9c D59B172C 		.ascii	"\325\233\027,\010j\177\251LPQ\203\351\224\242f\202_"
 320      086A7FA9 
 320      4C505183 
 320      E994A266 
 320      825F
 321 0dae FFDE92C5 		.ascii	"\377\336\222\305K\032\203\321T\"\035\213\313J&\370\255"
 321      4B1A83D1 
 321      54221D8B 
 321      CB4A26F8 
 321      AD
ARM GAS  /tmp/ccjN8g1P.s 			page 25


 322 0dbf C58B83D1 		.ascii	"\305\213\203\321zuUZ\316,\250G\376XR\275\351\213a\365"
 322      7A75555A 
 322      CE2CA847 
 322      FE5852BD 
 322      E98B61F5 
 323 0dd3 BF830D19 		.ascii	"\277\203\015\031%\030OE#\361\340\322X\022\243\304cK"
 323      25184F45 
 323      23F1E0D2 
 323      5812A3C4 
 323      634B
 324 0de5 8375D168 		.ascii	"\203u\321h0\242$\256O\246\222\362\365rdi,x\363\202["
 324      30A224AE 
 324      4FA692F2 
 324      F5726469 
 324      2C78F382 
 325 0dfa 167C3148 		.ascii	"\026|1HI\301\037\377},\031\2157\324\312\301\214Z\013"
 325      49C11FFF 
 325      7D2C198D 
 325      37D4CAC1 
 325      8C5A0B
 326 0e0d D040C1A7 		.ascii	"\320@\301\247\326+r\244\366S\264\277*gT\314\037\276"
 326      D62B72A4 
 326      F653B4BF 
 326      2A6754CC 
 326      1FBE
 327 0e1f 03E30BA2 		.ascii	"\003\343\013\242HHW\302\303\215a\271Q\2166\250\2627"
 327      484857C2 
 327      C38D61B9 
 327      518E36A8 
 327      B237
 328 0e31 FC8D542A 		.ascii	"\374\215T*~e\030w\010G2\031YQ\303\031\371\256\0069\031"
 328      7E651877 
 328      08473219 
 328      5951C319 
 328      F9AE0639 
 329 0e46 95AB2D61 		.ascii	"\225\253-a\200\314L\322[N\304\324\260\232Z.'\3134\262"
 329      80CC4CD2 
 329      5B4EC4D4 
 329      B09A5A2E 
 329      27CB34B2 
 330 0e5a 61F59A1C 		.ascii	"a\365\232\034\265\030\014F\3533\2532\206\032\002\321"
 330      B5180C46 
 330      EB33AB32 
 330      861A02D1 
 331 0e6a FAB036A0 		.ascii	"\372\2606\240\306\276{\264\276\026\313\223\016'\345"
 331      C6BE7BB4 
 331      BE16CB93 
 331      0E27E5
 332 0e79 46156E69 		.ascii	"F\025niE^\341W\323J,\025V\313\032tE\222\366X\312\037"
 332      455EE157 
 332      D34A2C15 
 332      56CB1A74 
 332      4592F658 
 333 0e8f 4D2555E8 		.ascii	"M%U\3506\277\240Q\352\243)E\006\314\012\334\034\006"
 333      36BFA051 
 333      EAA32945 
 333      06CC0ADC 
ARM GAS  /tmp/ccjN8g1P.s 			page 26


 333      1C06
 334 0ea1 84A8DAF8 		.ascii	"\204\250\332\370y\347\021\341\025\267$`T\231\"\327\201"
 334      79E711E1 
 334      15B72460 
 334      549922D7 
 334      81
 335 0eb2 F2C3AAA8 		.ascii	"\362\303\252\250\334,*\377!*_\022\225[De\241\250\334"
 335      DC2C2AFF 
 335      212A5F12 
 335      955B4465 
 335      A1A8DC
 336 0ec5 2A2937DE 		.ascii	"*)7\336\000\345F1\256\300\355&o:\014\310~\314\371JY"
 336      00E54631 
 336      AEC0ED26 
 336      6F3A0CC8 
 336      7ECCF94A 
 337 0eda 817B2A5E 		.ascii	"\201{*^++X\222HB.S3jD\225\303\252\037\313\260\020\356"
 337      2B2B5892 
 337      48422E53 
 337      336A4495 
 337      C3AA1FCB 
 338 0ef1 E93069F1 		.ascii	"\3510i\361\253\211T\255L>/\213G\3522~U\221\227e\210"
 338      AB8954AD 
 338      4C3E2F8B 
 338      47EA327E 
 338      55919765 
 339 0f06 88F8C1A7 		.ascii	"\210\370\301\247\324\256\002\263\225\311\21515\012\035"
 339      D4AE02B3 
 339      95C98D31 
 339      350A1D
 340 0f15 7D2BD5D4 		.ascii	"}+\325\324\322;\323st\305C\027Y\301&\013\253\336\225"
 340      D23BD373 
 340      74C54317 
 340      59C1260B 
 340      ABDE95
 341 0f28 AAAAA42B 		.ascii	"\252\252\244+A\307\0319\021I\327\203\010\363\354\325"
 341      41C71939 
 341      1149D783 
 341      08F3ECD5 
 342 0f38 2C278839 		.ascii	",'\2109\011J&\014fo\000\210Y\324@z\223_\277{\243I\260"
 342      094A260C 
 342      666F0088 
 342      59D4407A 
 342      935FBF7B 
 343 0f4f B8371386 		.ascii	"\2707\023\206;p\000\243\323e\3207\001~\324hO$\2416b"
 343      3B7000A3 
 343      D365D037 
 343      017ED468 
 343      4F24A136 
 344 0f64 E74FE858 		.ascii	"\347O\350X\211pje\022\024CF\201\200\011\315\304+U\350"
 344      89706A65 
 344      12144346 
 344      818009CD 
 344      C42B55E8 
 345 0f78 97AE9057 		.ascii	"\227\256\220W\310I5\021\311,\207o\344\225\370AJ\207"
 345      C8493511 
 345      C92C876F 
ARM GAS  /tmp/ccjN8g1P.s 			page 27


 345      E495F841 
 345      4A87
 346 0f8a 1BAA0C76 		.ascii	"\033\252\014v\3421p<u&\303 n\011\244\303+#15\226\254"
 346      E231703C 
 346      7526C320 
 346      6E09A4C3 
 346      2B233135 
 347 0fa0 2B4F8741 		.ascii	"+O\207AM\032\263\344\021\032\344\264\234\204\370\250"
 347      4D1AB3E4 
 347      111AE4B4 
 347      9C84F8A8 
 348 0fb0 835E4002 		.ascii	"\203^@\002\367/\307J\215\304\211\357@c\032\"\000\024"
 348      F72FC74A 
 348      8DC489EF 
 348      40631A22 
 348      0014
 349 0fc2 B62453F7 		.ascii	"\266$S\367=9.G2\005\024\206c\210x0t\376/ \351\313\304"
 349      3D392E47 
 349      32051486 
 349      63887830 
 349      74FE2F20 
 350 0fd9 EE068D7D 		.ascii	"\356\006\215}\315]D3q[+/\303\312Q\2275$\243a\365\337"
 350      CD5D4433 
 350      715B2B2F 
 350      C3CA5197 
 350      3524A361 
 351 0fef 6C09EBE2 		.ascii	"l\011\353\342B\337\331\321\372\037\324\327.\206\217"
 351      42DFD9D1 
 351      FA1FD4D7 
 351      2E868F
 352 0ffe AAFC     		.ascii	"\252\374"
 353 1000 7D709D58 		.ascii	"}p\235XTc\347\373 \245\2702R\201-\017\301&\203\257\006"
 353      5463E7FB 
 353      20A5B832 
 353      52812D0F 
 353      C12683AF 
 354 1015 E873251E 		.ascii	"\350s%\036\275JW\337\014h6?\373\025\3150>\205\004\223"
 354      BD4A57DF 
 354      0C68363F 
 354      FB15CD30 
 354      3E850493 
 355 1029 5721EEAB 		.ascii	"W!\356\253\350\356\253h\356\033\200\326\006\005\\L\365"
 355      E8EEAB68 
 355      EE1B80D6 
 355      06055C4C 
 355      F5
 356 103a 2A78D095 		.ascii	"*x\320\225+b\212\332\020\211\207\325X\002\022\235\016"
 356      2B628ADA 
 356      108987D5 
 356      5802129D 
 356      0E
 357 104b 7C15005B 		.ascii	"|\025\000[|1\223k\323\374\213k\362\257P\211\023\340"
 357      7C31936B 
 357      D3FC8B6B 
 357      F2AF5089 
 357      13E0
 358 105d 3B0EF400 		.ascii	";\016\364\000f\032\276\200P\207\226Z9\256F\340AS\021"
ARM GAS  /tmp/ccjN8g1P.s 			page 28


 358      661ABE80 
 358      5087965A 
 358      39AE46E0 
 358      415311
 359 1070 EE839F7C 		.ascii	"\356\203\237|\270oD\251\200[<\222Qqwh\302\344\252t\361"
 359      B86F44A9 
 359      805B3C92 
 359      51717768 
 359      C2E4AA74 
 360 1085 6BE5A50D 		.ascii	"k\345\245\015u\232\263\260-\201t$\031\213b\337\220j"
 360      759AB3B0 
 360      2D817424 
 360      198B62DF 
 360      906A
 361 1097 97D69527 		.ascii	"\227\326\225'\"\020\210D\271\263\324D\030\014\030[\252"
 361      22108844 
 361      B9B3D444 
 361      180C185B 
 361      AA
 362 10a8 805253C9 		.ascii	"\200RS\311\260:\327\336\0328l\374\212J\342\301\227Z"
 362      B03AD7DE 
 362      1A386CFC 
 362      8A4AE2C1 
 362      975A
 363 10ba B62C23AB 		.ascii	"\266,#\253\242\232(\317\250\313\001\240.\251\347\250"
 363      A29A28CF 
 363      A8CB01A0 
 363      2EA9E7A8 
 364 10ca 2FDD1C56 		.ascii	"/\335\034V\253b\265qY\367V\360R1Z\357\327mY\206\263"
 364      AB62B571 
 364      59F756F0 
 364      52315AEF 
 364      D76D5986 
 365 10df 6814DCCD 		.ascii	"h\024\334\315\2033\203\027 \032\322\320\026Qj!@\374"
 365      83338317 
 365      201AD2D0 
 365      16516A21 
 365      40FC
 366 10f1 7A7E2E4F 		.ascii	"z~.OGTUV\2228\370\365$~\343\254\005J\2526\242F\026\030"
 366      47545556 
 366      9238F8F5 
 366      247EE3AC 
 366      054AAA36 
 367 1109 0D3397C8 		.ascii	"\0153\227\310\231L\244N\316|\241&\236J\245\321?\000"
 367      994CA44E 
 367      CE7CA126 
 367      9E4AA5D1 
 367      3F00
 368 111b 066F5E7D 		.ascii	"\006o^}"
 369              		.text
 370              		.section	.gnu.lto_.symtab.ce631cdad89947ba,"",%progbits
 371 0000 5F746573 		.ascii	"_test_assert_sequence\000\000\002\000\000\000\000\000"
 371      745F6173 
 371      73657274 
 371      5F736571 
 371      75656E63 
 372 001d 00000000 		.ascii	"\000\000\000\000\271\000\000\000test_emit_token\000"
ARM GAS  /tmp/ccjN8g1P.s 			page 29


 372      B9000000 
 372      74657374 
 372      5F656D69 
 372      745F746F 
 373 0035 00020000 		.ascii	"\000\002\000\000\000\000\000\000\000\000\000\302\000"
 373      00000000 
 373      000000C2 
 373      00
 374 0042 00006368 		.ascii	"\000\000chMsgRelease\000\000\002\000\000\000\000\000"
 374      4D736752 
 374      656C6561 
 374      73650000 
 374      02000000 
 375 0058 00000000 		.ascii	"\000\000\000\000\306\000\000\000chMsgWait\000\000\002"
 375      C6000000 
 375      63684D73 
 375      67576169 
 375      74000002 
 376 006c 00000000 		.ascii	"\000\000\000\000\000\000\000\000\000g\001\000\000ch"
 376      00000000 
 376      00670100 
 376      006368
 377 007b 54686443 		.ascii	"ThdCreateStatic\000\000\002\000\000\000\000\000\000"
 377      72656174 
 377      65537461 
 377      74696300 
 377      00020000 
 378 0093 0000006A 		.ascii	"\000\000\000j\001\000\000chMsgSend\000\000\002\000\000"
 378      01000063 
 378      684D7367 
 378      53656E64 
 378      00000200 
 379 00a8 00000000 		.ascii	"\000\000\000\000\000\000\000x\001\000\000patternmsg"
 379      00000078 
 379      01000070 
 379      61747465 
 379      726E6D73 
 380 00bd 00000000 		.ascii	"\000\000\000\000\000\000\000\000\000\000\000\000\351"
 380      00000000 
 380      00000000 
 380      E9
 381 00ca 01000074 		.ascii	"\001\000\000testmsg1\000\000\000\000\000\000\000\000"
 381      6573746D 
 381      73673100 
 381      00000000 
 381      000000
 382 00dd 00000000 		.ascii	"\000\000\000\000\377\001\000\000wa\000\000\002\000\000"
 382      FF010000 
 382      77610000 
 382      020000
 383 00ec 00000000 		.ascii	"\000\000\000\000\000\000\000}\001\000\000ch\000\000"
 383      0000007D 
 383      01000063 
 383      680000
 384 00fb 02000000 		.ascii	"\002\000\000\000\000\000\000\000\000\000\202\001\000"
 384      00000000 
 384      00008201 
ARM GAS  /tmp/ccjN8g1P.s 			page 30


 384      00
 385 0108 00746872 		.ascii	"\000threads\000\000\002\000\000\000\000\000\000\000"
 385      65616473 
 385      00000200 
 385      00000000 
 385      0000
 386 011a 0000E501 		.ascii	"\000\000\345\001\000\000"
 386      0000
 387              		.text
 388              		.section	.gnu.lto_.opts,"",%progbits
 389 0000 272D6D63 		.ascii	"'-mcpu=cortex-m4''-mno-thumb-interwork''-mthumb''-g"
 389      70753D63 
 389      6F727465 
 389      782D6D34 
 389      27272D6D 
 390 0033 67646227 		.ascii	"gdb''-O2''-fomit-frame-pointer''-falign-functions=1"
 390      272D4F32 
 390      27272D66 
 390      6F6D6974 
 390      2D667261 
 391 0066 3627272D 		.ascii	"6''-ffunction-sections''-fdata-sections''-fno-commo"
 391      6666756E 
 391      6374696F 
 391      6E2D7365 
 391      6374696F 
 392 0099 6E27272D 		.ascii	"n''-flto'\000"
 392      666C746F 
 392      2700
 393              		.text
 394              		.cfi_sections	.debug_frame
 395              		.section	.text.msg1_execute,"ax",%progbits
 396              		.align	2
 397              		.p2align 4,,15
 398              		.thumb
 399              		.thumb_func
 400              		.type	msg1_execute, %function
 401              	msg1_execute:
 402              	.LFB242:
 403              		.file 1 "../../../test/rt/testmsg.c"
 404              		.loc 1 66 0
 405              		.cfi_startproc
 406              		@ args = 0, pretend = 0, frame = 0
 407              		@ frame_needed = 0, uses_anonymous_args = 0
 408 0000 10B5     		push	{r4, lr}
 409              	.LCFI0:
 410              		.cfi_def_cfa_offset 8
 411              		.cfi_offset 4, -8
 412              		.cfi_offset 14, -4
 413              	.LBB16:
 414              	.LBB17:
 415              	.LBB18:
 416              	.LBB19:
 417              		.file 2 "../../../os/rt/include/chthreads.h"
 418              		.loc 2 176 0
 419 0002 40F20002 		movw	r2, #:lower16:ch
 420 0006 C0F20002 		movt	r2, #:upper16:ch
 421              	.LBE19:
ARM GAS  /tmp/ccjN8g1P.s 			page 31


 422              	.LBE18:
 423              	.LBE17:
 424              	.LBE16:
 425              		.loc 1 73 0
 426 000a 40F20003 		movw	r3, #:lower16:wa
 427              	.LBB23:
 428              	.LBB22:
 429              	.LBB21:
 430              	.LBB20:
 431              		.loc 2 176 0
 432 000e 9169     		ldr	r1, [r2, #24]
 433              	.LBE20:
 434              	.LBE21:
 435              	.LBE22:
 436              	.LBE23:
 437              		.loc 1 73 0
 438 0010 C0F20003 		movt	r3, #:upper16:wa
 439              		.loc 1 66 0
 440 0014 82B0     		sub	sp, sp, #8
 441              	.LCFI1:
 442              		.cfi_def_cfa_offset 16
 443              		.loc 1 73 0
 444 0016 8A68     		ldr	r2, [r1, #8]
 445 0018 1868     		ldr	r0, [r3, #0]
 446 001a 0091     		str	r1, [sp, #0]
 447 001c 40F20003 		movw	r3, #:lower16:thread
 448 0020 0132     		adds	r2, r2, #1
 449 0022 4FF4A471 		mov	r1, #328
 450 0026 C0F20003 		movt	r3, #:upper16:thread
 451 002a FFF7FEFF 		bl	chThdCreateStatic
 452              	.LVL0:
 453 002e 40F20003 		movw	r3, #:lower16:threads
 454 0032 C0F20003 		movt	r3, #:upper16:threads
 455 0036 1860     		str	r0, [r3, #0]
 456              		.loc 1 75 0
 457 0038 FFF7FEFF 		bl	chMsgWait
 458              	.LVL1:
 459              	.LBB24:
 460              	.LBB25:
 461              		.file 3 "../../../os/rt/include/chmsg.h"
 462              		.loc 3 98 0
 463 003c 046B     		ldr	r4, [r0, #48]
 464              	.LBE25:
 465              	.LBE24:
 466              		.loc 1 77 0
 467 003e 2146     		mov	r1, r4
 468 0040 FFF7FEFF 		bl	chMsgRelease
 469              	.LVL2:
 470              		.loc 1 78 0
 471 0044 E0B2     		uxtb	r0, r4
 472 0046 FFF7FEFF 		bl	test_emit_token
 473              	.LVL3:
 474              		.loc 1 79 0
 475 004a FFF7FEFF 		bl	chMsgWait
 476              	.LVL4:
 477              	.LBB26:
 478              	.LBB27:
ARM GAS  /tmp/ccjN8g1P.s 			page 32


 479              		.loc 3 98 0
 480 004e 046B     		ldr	r4, [r0, #48]
 481              	.LBE27:
 482              	.LBE26:
 483              		.loc 1 81 0
 484 0050 2146     		mov	r1, r4
 485 0052 FFF7FEFF 		bl	chMsgRelease
 486              	.LVL5:
 487              		.loc 1 82 0
 488 0056 E0B2     		uxtb	r0, r4
 489 0058 FFF7FEFF 		bl	test_emit_token
 490              	.LVL6:
 491              		.loc 1 83 0
 492 005c FFF7FEFF 		bl	chMsgWait
 493              	.LVL7:
 494              	.LBB28:
 495              	.LBB29:
 496              		.loc 3 98 0
 497 0060 046B     		ldr	r4, [r0, #48]
 498              	.LBE29:
 499              	.LBE28:
 500              		.loc 1 85 0
 501 0062 2146     		mov	r1, r4
 502 0064 FFF7FEFF 		bl	chMsgRelease
 503              	.LVL8:
 504              		.loc 1 86 0
 505 0068 E0B2     		uxtb	r0, r4
 506 006a FFF7FEFF 		bl	test_emit_token
 507              	.LVL9:
 508              		.loc 1 87 0
 509 006e 40F20001 		movw	r1, #:lower16:.LC0
 510 0072 0120     		movs	r0, #1
 511 0074 C0F20001 		movt	r1, #:upper16:.LC0
 512              		.loc 1 88 0
 513 0078 02B0     		add	sp, sp, #8
 514 007a BDE81040 		pop	{r4, lr}
 515              		.loc 1 87 0
 516 007e FFF7FEBF 		b	_test_assert_sequence
 517              	.LVL10:
 518              		.cfi_endproc
 519              	.LFE242:
 520              		.size	msg1_execute, .-msg1_execute
 521 0082 00BFAFF3 		.section	.text.thread,"ax",%progbits
 521      0080AFF3 
 521      0080AFF3 
 521      0080
 522              		.align	2
 523              		.p2align 4,,15
 524              		.thumb
 525              		.thumb_func
 526              		.type	thread, %function
 527              	thread:
 528              	.LFB241:
 529              		.loc 1 59 0
 530              		.cfi_startproc
 531              		@ args = 0, pretend = 0, frame = 0
 532              		@ frame_needed = 0, uses_anonymous_args = 0
ARM GAS  /tmp/ccjN8g1P.s 			page 33


 533              	.LVL11:
 534 0000 10B5     		push	{r4, lr}
 535              	.LCFI2:
 536              		.cfi_def_cfa_offset 8
 537              		.cfi_offset 4, -8
 538              		.cfi_offset 14, -4
 539              		.loc 1 61 0
 540 0002 4121     		movs	r1, #65
 541              		.loc 1 59 0
 542 0004 0446     		mov	r4, r0
 543              		.loc 1 61 0
 544 0006 FFF7FEFF 		bl	chMsgSend
 545              	.LVL12:
 546              		.loc 1 62 0
 547 000a 4221     		movs	r1, #66
 548 000c 2046     		mov	r0, r4
 549 000e FFF7FEFF 		bl	chMsgSend
 550              	.LVL13:
 551              		.loc 1 63 0
 552 0012 2046     		mov	r0, r4
 553 0014 4321     		movs	r1, #67
 554              		.loc 1 64 0
 555 0016 BDE81040 		pop	{r4, lr}
 556              		.loc 1 63 0
 557 001a FFF7FEBF 		b	chMsgSend
 558              	.LVL14:
 559              		.cfi_endproc
 560              	.LFE241:
 561              		.size	thread, .-thread
 562              		.global	patternmsg
 563              		.global	testmsg1
 564 001e 00BF     		.section	.rodata.testmsg1,"a",%progbits
 565              		.align	2
 566              		.type	testmsg1, %object
 567              		.size	testmsg1, 16
 568              	testmsg1:
 569 0000 04000000 		.word	.LC1
 570 0004 00000000 		.word	0
 571 0008 00000000 		.word	0
 572 000c 00000000 		.word	msg1_execute
 573              		.section	.rodata.str1.4,"aMS",%progbits,1
 574              		.align	2
 575              	.LC0:
 576 0000 41424300 		.ascii	"ABC\000"
 577              	.LC1:
 578 0004 4D657373 		.ascii	"Messages, loop\000"
 578      61676573 
 578      2C206C6F 
 578      6F7000
 579 0013 00       		.section	.rodata.patternmsg,"a",%progbits
 580              		.align	2
 581              		.type	patternmsg, %object
 582              		.size	patternmsg, 8
 583              	patternmsg:
 584 0000 00000000 		.word	testmsg1
 585 0004 00000000 		.word	0
 586              		.text
ARM GAS  /tmp/ccjN8g1P.s 			page 34


 587              	.Letext0:
 588              		.file 4 "/usr/local/bin/../lib/gcc/arm-none-eabi/4.7.2/include/stddef.h"
 589              		.file 5 "/usr/local/bin/../lib/gcc/arm-none-eabi/4.7.2/../../../../arm-none-eabi/include/stdint.h"
 590              		.file 6 "../../../os/rt/ports/ARMCMx/compilers/GCC/chtypes.h"
 591              		.file 7 "../../../os/rt/include/chsystypes.h"
 592              		.file 8 "../../../os/rt/include/chschd.h"
 593              		.file 9 "../../../os/rt/ports/ARMCMx/chcore.h"
 594              		.file 10 "../../../os/rt/ports/ARMCMx/chcore_v7m.h"
 595              		.file 11 "../../../os/rt/include/chtm.h"
 596              		.file 12 "../../../os/rt/include/chsem.h"
 597              		.file 13 "../../../os/rt/include/chmtx.h"
 598              		.file 14 "../../../test/rt/test.h"
 599              		.file 15 "../../../os/ext/CMSIS/include/core_cm4.h"