ARM GAS  /tmp/ccjN8g1P.s 			page 1


   1              		.syntax unified
   2              		.cpu cortex-m4
   3              		.fpu softvfp
   4              		.eabi_attribute 20, 1
   5              		.eabi_attribute 21, 1
   6              		.eabi_attribute 23, 3
   7              		.eabi_attribute 24, 1
   8              		.eabi_attribute 25, 1
   9              		.eabi_attribute 26, 1
  10              		.eabi_attribute 30, 2
  11              		.eabi_attribute 34, 1
  12              		.eabi_attribute 18, 4
  13              		.thumb
  14              		.file	"testmsg.c"
  15              		.text
  16              	.Ltext0:
  17              		.section	.gnu.lto_.jmpfuncs.ce631cdad89947ba,"",%progbits
  18 0000 789C6362 		.ascii	"x\234cb`d`g\300\016z\201X\021\210\231\200\210I\222!"
  18      60646067 
  18      C00E7A81 
  18      58118899 
  18      80884992 
  19 0015 959101A8 		.ascii	"\225\221\001\250\230\251\212\341g\203D*##\243\034\003"
  19      98A98AE1 
  19      6783442A 
  19      2323A31C 
  19      03
  20 0026 E3DC8619 		.ascii	"\343\334\206\031\016\251\214L\014\267\326?\006J\202"
  20      0EA98C4C 
  20      0CB7D63F 
  20      064A82
  21 0035 64D14856 		.ascii	"d\321HV\006\250\306\023 C@Z9R\031\231\031\343\031\031"
  21      06A8C613 
  21      2043405A 
  21      39521999 
  21      19E31919 
  22 0049 CECC5C06 		.ascii	"\316\314\\\006R\300\300\310\310\304\002\244J\300\352"
  22      52C0C0C8 
  22      C8C402A4 
  22      4AC0EA
  23 0058 58189C19 		.ascii	"X\030\234\031P\270N\250\\G\006\006\026G'g\006i==}\010"
  23      50B84EA8 
  23      5C470606 
  23      16472767 
  23      06693D3D 
  24 006e 2A492D2E 		.ascii	"*I-.\321/*\001\323\271\305\351z\311\014\000\311\337"
  24      D12F2A01 
  24      D3B9C5E9 
  24      7AC90C00 
  24      C9DF
  25 0080 1BB1     		.ascii	"\033\261"
  26              		.text
  27              		.section	.gnu.lto_.inline.ce631cdad89947ba,"",%progbits
  28 0000 789C6362 		.ascii	"x\234cb`d\340e\300\016z\2414\023\003\203V\017##\003"
  28      6064E065 
  28      C00E7AA1 
  28      34130383 
ARM GAS  /tmp/ccjN8g1P.s 			page 2


  28      560F2323 
  29 0015 9340432D 		.ascii	"\223@C-\003\333\002y&\006f\036\260(\0237\003\003\343"
  29      03DB0279 
  29      2606661E 
  29      B0281337 
  29      0303E3
  30 0028 043F306F 		.ascii	"\004?0o\202\337\004?\020\237\004Av\001\006\006\326\011"
  30      82DF043F 
  30      109F0441 
  30      76010606 
  30      D609
  31 003a 7E0C60C4 		.ascii	"~\014`\304\310\300\243\306\0102\024\311\006\240\004"
  31      C8C0A3C6 
  31      083214C9 
  31      06A004
  32 0049 3ACD0000 		.ascii	":\315\000\000.\313\022\021"
  32      2ECB1211 
  33              		.text
  34              		.section	.gnu.lto_.pureconst.ce631cdad89947ba,"",%progbits
  35 0000 789C6362 		.ascii	"x\234cb`d`f```e\200\000&\006IF\011\000\0015\000@"
  35      60646066 
  35      60606065 
  35      80002606 
  35      49460900 
  36              		.text
  37              		.section	.gnu.lto_msg1_execute.ce631cdad89947ba,"",%progbits
  38 0000 789CAD55 		.ascii	"x\234\255U\317k\023A\024~ofw\23341\326\037\325\364W"
  38      CF6B1341 
  38      147E6F66 
  38      779B3431 
  38      D61FD5F4 
  39 0015 9AC61E44 		.ascii	"\232\306\036D!\371\027\374q\321c\005/BZ$]M\301\2524"
  39      21F917FC 
  39      71D16305 
  39      2F425A24 
  39      5D4DC1AA 
  40 002a D18307B3 		.ascii	"\321\203\007\263M=\025\017E\020\222\250`\255\226XD="
  40      4D3D150F 
  40      451092A8 
  40      60AD9658 
  40      443D
  41 003c F5E04145 		.ascii	"\365\340AE\245\226Pz\352\261b\241\"\012=x\360\"\024"
  41      A596507A 
  41      EAB162A1 
  41      220A3D78 
  41      F02214
  42 004f EA9BD9D9 		.ascii	"\352\233\331\3314i\326$B7I\277\231\335\367\275\367\275"
  42      3469D624 
  42      423749BF 
  42      99DDF7BD 
  42      F7BD
  43 0061 6F66A70C 		.ascii	"of\247\014\220>\265W\007\375\346=\000\243\204\310\001"
  43      903EB557 
  43      07FDE63D 
  43      00A384C8 
  43      01
  44 0072 D9D432C0 		.ascii	"\331\3242\300x\230!\212\001Q2\0143\347%\323\023\201"
ARM GAS  /tmp/ccjN8g1P.s 			page 3


  44      7898218A 
  44      0151320C 
  44      33E725D3 
  44      1381
  45 0084 69CBBA37 		.ascii	"i\313\2727\3651{&\273\266\265\325k\212\273C\010\245"
  45      F5317B26 
  45      BBB6B5D5 
  45      6B8ABB43 
  45      08A5
  46 0096 FC7A7F07 		.ascii	"\374z\177\007\230\210\020\006\201\014\264\352\0325<"
  46      98881006 
  46      810CB4EA 
  46      1A353C
  47 00a5 2E79F07F 		.ascii	".y\360\177$\255i\322\257\017\331\240\"\351\222\364;"
  47      24AD69D2 
  47      AF0FD9A0 
  47      22E992F4 
  47      3B
  48 00b6 3F8736CF 		.ascii	"?\2076\317\243x\350Zl\302*\027c\020BA]\315\335l\\q\252"
  48      A378E85A 
  48      6CC22A17 
  48      63104241 
  48      5DCDDD6C 
  49 00cd 826930E8 		.ascii	"\202i0\350\223\314o\271K\215\231\205\212\006[\244\326"
  49      93CC6FB9 
  49      4B8D9985 
  49      8A065BA4 
  49      D6
  50 00de 95660A16 		.ascii	"\225f\012\026j|\231\177\363u\223\325%\226&g\372?=0\336"
  50      6A7C997F 
  50      F37593D5 
  50      25962667 
  50      FA3F3D30 
  51 00f3 B1F76B5B 		.ascii	"\261\367k[\031\200\243\010q|\214\021\340\204\323\204"
  51      1980A308 
  51      717C8C11 
  51      E084D384 
  52 0103 3AE11342 		.ascii	":\341\023B\203\360)\241\207p\206\320\253\346>5\367\253"
  52      83F029A1 
  52      877086D0 
  52      ABE63E35 
  52      F7AB
  53 0115 7940CD7B 		.ascii	"y@\315{\010\237\023\206\010\213\204a\302Y\302>\205\021"
  53      089F1386 
  53      088B8461 
  53      C259C23E 
  53      8511
  54 0127 8574E970 		.ascii	"\205t\351p\307\262\332\230\315\267\357\016\251\225\030"
  54      C7B2DA98 
  54      CDB7EF0E 
  54      A99518
  55 0136 1028B6DC 		.ascii	"\020(\266\3349R.\006\274\004\331\301\245\374,E\317\321"
  55      39522E06 
  55      BC04D9C1 
  55      A5FC2C45 
  55      CFD1
  56 0148 32261063 		.ascii	"2&\020c\360\322j3\321\243\025 ?N\003/\273\005\177\254"
ARM GAS  /tmp/ccjN8g1P.s 			page 4


  56      F0D26A33 
  56      D1A31520 
  56      3F4E032F 
  56      BB057FAC 
  57 015c A089AD38 		.ascii	"\240\211\2558bon\321w\253\334\265\366\330Wm\000d/\314"
  57      626F6ED1 
  57      77ABDCB5 
  57      F6D8576D 
  57      00642FCC 
  58 0170 4F7EE9B6 		.ascii	"O~\351\266U\200+\330\305\334\256\004\366\034\207cd7"
  58      55802BD8 
  58      C5DCAE04 
  58      F61C8763 
  58      6437
  59 0182 97E0E7A4 		.ascii	"\227\340\347\244\002M\334#ExL\014\220\010t\012\007\224"
  59      024DDC23 
  59      45784C0C 
  59      9008740A 
  59      0794
  60 0194 8841F167 		.ascii	"\210A\361g\221\313\021\015\213zY\310\306\253@\034_\313"
  60      91CB110D 
  60      8B7A59C8 
  60      C6AB401C 
  60      5FCB
  61 01a6 C6423261 		.ascii	"\306B2a\213J\270\227Q%\221C+\347 Cr-\2129\221\021\257"
  61      8B4AB897 
  61      51259143 
  61      2BE72043 
  61      722D8A39 
  62 01bd 9BE30927 		.ascii	"\233\343\011'\266\210\3452r\011\202\340<\321\225\254"
  62      B688E532 
  62      720982E0 
  62      3CD195AC 
  63 01cd 361CB265 		.ascii	"6\034\262e\211\016\344K\260\017\026\231\240\252\200"
  63      890EE44B 
  63      B00F1699 
  63      A0AA80
  64 01dc FD14C054 		.ascii	"\375\024\300T\203&\036\220\352\316\376\340v\236\030"
  64      83261E90 
  64      EACEFEE0 
  64      769E18
  65 01eb 44498866 		.ascii	"DI\210f+;\350\264\332N\2552\247\325v\027\277\213\\\346"
  65      2B3BE8B4 
  65      DA4EAD32 
  65      A7D57617 
  65      BF8B5CE6 
  66 01ff D38524BE 		.ascii	"\323\205$\276\232\357tD\031*\301!\252\311mQ&\036\006"
  66      9AEF7444 
  66      192AC121 
  66      AAC96D51 
  66      261E06
  67 0212 5800A684 		.ascii	"X\000\246\204\333[\203\"+o\326\276\235q|F\242\233x["
  67      DB5B8322 
  67      2B6FD6BE 
  67      9D717C46 
  67      A29B785B 
  68 0226 6426E1F7 		.ascii	"d&\341\367\367\273\367?\363\252\265\3068\276\225\333"
ARM GAS  /tmp/ccjN8g1P.s 			page 5


  68      F7BBF73F 
  68      F3AAB5C6 
  68      38BE95DB 
  69 0236 B07AC513 		.ascii	"\260z\305\023\030\226\353aT\254\207Q\275\036\\\255\251"
  69      1896EB61 
  69      54AC8751 
  69      BD1E5CAD 
  69      A9
  70 0247 D4587AB8 		.ascii	"\324Xz\270\316\035\355j\233S\327\372F\376\266\223Y5"
  70      CE1DED6A 
  70      9B53D7FA 
  70      46FEB693 
  70      5935
  71 0259 1DA4A635 		.ascii	"\035\244\2465g%\014*c\322r\010m?\2718\237\034\217<\364"
  71      67250C2A 
  71      63D27208 
  71      6D3FB938 
  71      9F1C8F3C 
  72 026e 4464D060 		.ascii	"Dd\320`\007\277\223\370\272\303\247y\227tws\333]o\323"
  72      07BF93F8 
  72      BAC3A779 
  72      97747773 
  72      DB5D6FD3 
  73 0282 EE7A77CD 		.ascii	"\356zw\315]o\035w\027\\\335\355\253q\327[\317\335\242"
  73      5D6F1D77 
  73      175CDDED 
  73      AB71D75B 
  73      CFDDA2
  74 0295 ABBB4B85 		.ascii	"\253\273K\205\272\356z\251\314\266\273+\205mw}\364\244"
  74      BAEE7AA9 
  74      CCB6BB2B 
  74      856D777D 
  74      F4A4
  75 02a7 B1BB3EC7 		.ascii	"\261\273>\307\335\325B\331]\177\323\356\372w\315]\177"
  75      DDD542D9 
  75      5D7FD3EE 
  75      FA77CD5D 
  75      7F
  76 02b8 1D77975D 		.ascii	"\035w\227]\335\215\324\270\353\257\347\356\013\367\275"
  76      DD8DD4B8 
  76      EBAFE7EE 
  76      0BF7BD
  77 02c7 5BDF5D3F 		.ascii	"[\337]?\225\251\330\273\025\356\006\022\"I#w\003\312"
  77      95A9D8BB 
  77      15EE0612 
  77      22492377 
  77      03CA
  78 02d9 5D7DB310 		.ascii	"]}\263\020\330\021\327Mq\206\035g\037U\010\352\214\357"
  78      D811D74D 
  78      71861D67 
  78      1F5508EA 
  78      8CEF
  79 02eb C1108C3C 		.ascii	"\301\020\214<\262r'L\032\330\346\367\002,\003\3560a"
  79      B272274C 
  79      1AD8E6F7 
  79      022C03EE 
  79      3061
ARM GAS  /tmp/ccjN8g1P.s 			page 6


  80 02fd 401C76F4 		.ascii	"@\034v\364\357C\034i]\321h\314\376\246\315T:6\226\226"
  80      EF431C69 
  80      5DD168CC 
  80      FEA6CD54 
  80      3A369696 
  81 0311 389ABA1C 		.ascii	"8\232\272\034M\000K_\3474:R\016\271\226\022\001#W\023"
  81      4D004B5F 
  81      E7343A52 
  81      0EB99612 
  81      01235713 
  82 0325 576E0C9B 		.ascii	"Wn\014\233\261D2\235\0343/\016\247\242I\350\375g\214"
  82      B144329D 
  82      1C332F0E 
  82      A7A249E8 
  82      FD678C
  83 0338 489504ED 		.ascii	"H\225\004\355\344\251\323\360\027\2676\301\376"
  83      E4A9D3F0 
  83      17B736C1 
  83      FE
  84              		.text
  85              		.section	.gnu.lto_thread.ce631cdad89947ba,"",%progbits
  86 0000 789C6362 		.ascii	"x\234cb`\004BL \011\304\262@\011y \315\310\314\300\310"
  86      6004424C 
  86      2009C4B2 
  86      40097920 
  86      CDC8CCC0 
  87 0015 34E11C03 		.ascii	"4\341\034\003C\243\002\023##\210\001\324R\317\304X\037"
  87      43A30213 
  87      23238801 
  87      D452CFC4 
  87      581F
  88 0027 0AD179EA 		.ascii	"\012\321y\352\367\"\246#3\330\3663\035x\360\277^\205"
  88      F722A623 
  88      33D8F633 
  88      1D78F0BF 
  88      5E85
  89 0039 617143C3 		.ascii	"aqC\303\244\011\315\015\036\251\214\014L\014r\214\014"
  89      A409CD0D 
  89      1EA98C0C 
  89      4C0C728C 
  89      0C
  90 004a F18C0C77 		.ascii	"\361\214\014w\246\263I2\244222(0\200h&\006\026\220>"
  90      A6B34932 
  90      A4323232 
  90      28308068 
  90      26061690 
  91 005f A0020636 		.ascii	"\240\002\0066F\306X\306\005\214* >+CKC\203\000H=\030"
  91      46C658C6 
  91      058C2A20 
  91      3E2B434B 
  91      43830048 
  92 0075 04826890 		.ascii	"\004\202h\220mA@\015 \006\363\031\006\3267\323\331c"
  92      6D41400D 
  92      2006F319 
  92      06D637D3 
  92      D963
  93 0087 191731B2 		.ascii	"\031\0271\262\002\245\252\030~6p\244223\30632B\264$"
ARM GAS  /tmp/ccjN8g1P.s 			page 7


  93      02A5AA18 
  93      7E3670A4 
  93      323233C6 
  93      333242B4 
  94 009c 3332828C 		.ascii	"32\202\214gap\004\222@%@\365_\210Q\356\004W\376\207"
  94      67617004 
  94      92402540 
  94      F55F8851 
  94      EE0457FE 
  95 00b1 18E5CE10 		.ascii	"\030\345\316\020\345\347\030\030\201\276\206\251\207"
  95      E5E71818 
  95      81BE86A9 
  95      87
  96 00be B99911EC 		.ascii	"\271\231\021\354T\240\203\031\244\365\364\364!\250$"
  96      54A08319 
  96      A4F5F4F4 
  96      21A824
  97 00cd B5B844BF 		.ascii	"\265\270D\277\250\004L\347\026\247\353%30\026\000\000"
  97      A8044CE7 
  97      16A7EB25 
  97      33301600 
  97      00
  98 00de 09373F42 		.ascii	"\0117?B"
  99              		.text
 100              		.section	.gnu.lto_.cgraph.ce631cdad89947ba,"",%progbits
 101 0000 789C3D8E 		.ascii	"x\234=\216;\012\002A\020\005\337\233\331\3171<\233'"
 101      3B0A0241 
 101      1005DF9B 
 101      D9CF313C 
 101      9B27
 102 0012 E9850545 		.ascii	"\351\205\005E\027\324\003\230\355Q&\367\004\006\212"
 102      17D40398 
 102      ED5126F7 
 102      04068A
 103 0021 A9891B88 		.ascii	"\251\211\033\210\037\024{\206\266;)\252\202G\007\020"
 103      1F147B86 
 103      B63B29AA 
 103      82470710 
 104 0031 11C01176 		.ascii	"\021\300\021va\242\020\273\003D\366\253y\270Q\340\306"
 104      61A210BB 
 104      0344F6AB 
 104      79B851E0 
 104      C6
 105 0042 372514EB 		.ascii	"7%\024\353:\362E\211.OJ\345\362\240\324.wJ\343\362\241"
 105      3AF24589 
 105      2E4F4AE5 
 105      F2A0D42E 
 105      774AE3F2 
 106 0057 B47F8968 		.ascii	"\264\177\211h\320\237\277\312\032\251\260\302eq\235"
 106      D09FBFCA 
 106      1AA9B0C2 
 106      65719D
 107 0066 457D685C 		.ascii	"E}h\\fj/\324\276\266>X\037\254o\254o3\003R&[\364'\335"
 107      666A2FD4 
 107      BEB63E58 
 107      1FAC6FAC 
 107      6F330352 
ARM GAS  /tmp/ccjN8g1P.s 			page 8


 108 007f 538EC6A4 		.ascii	"S\216\306\244\304\017R\216G\325"
 108      C40F528E 
 108      47D5
 109              		.text
 110              		.section	.gnu.lto_.vars.ce631cdad89947ba,"",%progbits
 111 0000 789C25C4 		.ascii	"x\234%\304\261\015\000 \010E\301\367A\346pT\206Vcc!"
 111      B10D0020 
 111      0845C1F7 
 111      41E67054 
 111      86566363 
 112 0015 09579C21 		.ascii	"\011W\234!\034\230\2648\202\344I\365\225\325[\036\311"
 112      1C98B438 
 112      82E449F5 
 112      95D55B1E 
 112      C9
 113 0026 D2A83F81 		.ascii	"\322\250?\201\024\007\216"
 113      14078E
 114              		.text
 115              		.section	.gnu.lto_.refs.ce631cdad89947ba,"",%progbits
 116 0000 789C25C7 		.ascii	"x\234%\307\301\015\0000\014\302@\023\350\036\335\177"
 116      C10D0030 
 116      0CC24013 
 116      E81EDD7F 
 117 0010 CA44C2F7 		.ascii	"\312D\302\367\362 \014|Z\356\245\310C\374R\027\305\002"
 117      F2200C7C 
 117      5AEEA5C8 
 117      43FC5217 
 117      C502
 118 0022 0B82007B 		.ascii	"\013\202\000{"
 119              		.text
 120              		.section	.gnu.lto_.statics.ce631cdad89947ba,"",%progbits
 121 0000 789C6362 		.ascii	"x\234cb`d`b\300\016@\342\214\020&\000\000\375\000\011"
 121      60646062 
 121      C00E40E2 
 121      8C102600 
 121      00FD0009 
 122              		.text
 123              		.section	.gnu.lto_.decls.ce631cdad89947ba,"",%progbits
 124 0000 789CB55B 		.ascii	"x\234\265[\013p\034\305\231\356\231\331\207V\222\345"
 124      0B701CC5 
 124      99EE99D9 
 124      875692E5 
 125 0010 0707252E 		.ascii	"\007\007%.\211\255\344\360\025\241\202\027\002\027L"
 125      89ADE4F0 
 125      15A18217 
 125      02174C
 126 001f 2A214E9C 		.ascii	"*!N\234\252@R\316U\345Q\227\253\253\255\315z5\226\026"
 126      AA4052CE 
 126      55E55197 
 126      ABABADCD 
 126      7A359616 
 127 0033 EF8BD991 		.ascii	"\357\213\331\221-Su\271\3653\262\023\203\254\020l \216"
 127      2D5375B9 
 127      F533B213 
 127      83AC106C 
 127      208E
 128 0045 25032216 		.ascii	"%\003\"\026\261\261Ll\007\203\261\010\262\204A\261-"
ARM GAS  /tmp/ccjN8g1P.s 			page 9


 128      B1B14C6C 
 128      0783B108 
 128      B28441B1 
 128      2D
 129 0056 23C78025 		.ascii	"#\307\200%d@(F\021\016\004Q\306\207\210\362w\317LO\367"
 129      64402846 
 129      110E0451 
 129      C68788F2 
 129      77CF4C4F 
 130 006b EECCCECE 		.ascii	"\356\314\316\316\312\231R\367\314\366v\177\377\373\357"
 130      CA9952F7 
 130      CCF6767F 
 130      FFFBEF
 131 007a C7AC4424 		.ascii	"\307\254D$ |\255\203\333\024\\\261\257 \324\351CH\202"
 131      207CAD83 
 131      DB145CB1 
 131      AF20D4E9 
 131      434882
 132 008d B6AF42F1 		.ascii	"\266\257B\361\352\245\025J\033\224v(\035H\273\312\240"
 132      EAA5154A 
 132      1B947628 
 132      1D48BBCA 
 132      A0
 133 009e EC85B21F 		.ascii	"\354\205\262\037\312SP\376\000\245\007J\035`\335\011"
 133      CA5350FE 
 133      00A5074A 
 133      1D60DD09 
 134 00ae A551D0C6 		.ascii	"\245Q\320\306\376/\334\327@y\033\312;\230\216\200\270"
 134      FE2FDCD7 
 134      40791BCA 
 134      3B988E80 
 134      B8
 135 00bf 0B8FAF81 		.ascii	"\013\217\257\201r\033\224*(\225P\374P\216A\331\251\323"
 135      721B942A 
 135      289550FC 
 135      508E41D9 
 135      A9D3
 136 00d1 3B0DE5FF 		.ascii	";\015\345\377`\334O\240\004D\204<\360y\023<\257\205"
 136      60DC4FA0 
 136      0444843C 
 136      F079133C 
 136      AF85
 137 00e3 520E9F5F 		.ascii	"R\016\237_\204\317\025\242F\017\363\270\034\332G\241"
 137      84CF15A2 
 137      460FF3B8 
 137      1CDA47A1 
 138 00f3 5442DB0C 		.ascii	"TB\333\014(\365\360\\\005\367^\370n&\334\237\207\373"
 138      28F5F05C 
 138      05F75EF8 
 138      6E26DC9F 
 138      87FB
 139 0105 2CD194EB 		.ascii	",\321\224\353\020\32207B\277\007\241\014\300\363\377"
 139      10D23037 
 139      42BF07A1 
 139      0CC0F3FF 
 140 0115 081A1F98 		.ascii	"\010\032\037\230?,\317^]\266\036]V,\263\224#\037{\341"
 140      3F2CCF5E 
ARM GAS  /tmp/ccjN8g1P.s 			page 10


 140      5DB61E5D 
 140      562CB394 
 140      231F7BE1 
 141 0129 FEBE1CB9 		.ascii	"\376\276\034\271f\213\232<\253\364\276\242\336\2571"
 141      668B9A3C 
 141      ABF4BEA2 
 141      DEAF31
 142 0138 672CBE2A 		.ascii	"g,\276*\320\246lvM\266uC\366\366\027\252f\243\346,\\"
 142      D0A66C76 
 142      4DB67543 
 142      F6F617AA 
 142      66A3E62C 
 143 014d AD5DD9AC 		.ascii	"\255]\331\254pW\0005\341o\316=\232\255\256F\350j\024"
 143      70570035 
 143      E16FCE3D 
 143      9AADAE46 
 143      E86A14
 144 0160 12AA02D8 		.ascii	"\022\252\002\330\036\370\251\022\2360\330|\364H\226"
 144      1EF8A912 
 144      9E30D87C 
 144      F44896
 145 016f 5C4248D8 		.ascii	"\\BH\330)\004\200\222\210\233-\350 \255\003\276\256"
 145      29048092 
 145      889B2DE8 
 145      20AD03BE 
 145      AE
 146 0180 369FE923 		.ascii	"6\237\351#6\227A\242\206\222\360\350#\333\204\331\344"
 146      369741A2 
 146      8692F0E8 
 146      23DB84D9 
 146      E4
 147 0191 89B094D5 		.ascii	"\211\260\224\325\231%]\354\307<\312P\253\014\260O\222"
 147      99255DEC 
 147      C73CCA50 
 147      AB0CB04F 
 147      92
 148 01a2 CE91FDD8 		.ascii	"\316\221\375\330V\241\302R?W\241_\352\364\263\202\032"
 148      56A1C252 
 148      3F57A15F 
 148      EAF4B382 
 148      1A
 149 01b3 12BE7A65 		.ascii	"\022\276ze\001\214\307\204\253\310\223D\324\017\015"
 149      018CC784 
 149      ABC89344 
 149      D40F0D
 150 01c2 B75520D0 		.ascii	"\267U \320\322\017\234\251\267\003\365\353\320.]\261"
 150      D20F9CA9 
 150      B703F5EB 
 150      D02E5DB1 
 151 01d2 5A6FFDE6 		.ascii	"Zo\375\346G\371z\260\203\"\266i\326l\323AlS%\300\327"
 151      47F97AB0 
 151      8322B669 
 151      D66CD341 
 151      6C5325C0 
 152 01e7 BB84EBD0 		.ascii	"\273\204\353\320\276\007:\307\245\022\241v\023\250;"
 152      BE073AC7 
 152      A512A176 
ARM GAS  /tmp/ccjN8g1P.s 			page 11


 152      13A83B
 153 01f6 0CA8F6CD 		.ascii	"\014\250\366\315Gz\2567,\354\013\360\026\207\317Z/\015"
 153      477AAE37 
 153      2CEC0BF0 
 153      1687CF5A 
 153      2F0D
 154 0208 187F8D89 		.ascii	"\030\177\215\211}\204\223\2000e\\\202\361\035\376\340"
 154      7D849380 
 154      30655C82 
 154      F11DFEE0 
 155 0218 47970362 		.ascii	"G\227\003b\036\372u\266\353\275\346\265\331\333\241"
 155      1EFA75B6 
 155      EBBDE6B5 
 155      D9DBA1
 156 0227 A35F3386 		.ascii	"\243_3\206\210\036\027\014\256;\266^<\252\253\364\032"
 156      881E170C 
 156      AE3BB65E 
 156      3CAAABF4 
 156      1A
 157 0238 F47036DB 		.ascii	"\364p6\333\202\273\022\023\211\3508\351\265W\230gk#"
 157      82BB1213 
 157      89E838E9 
 157      B5579867 
 157      6B23
 158 024a D211FD3B 		.ascii	"\322\021\375;z\024s\322\265\246\232x\0022\006q\354w"
 158      7A1473D2 
 158      B5A69A78 
 158      02320671 
 158      EC77
 159 025c 0A22DBC0 		.ascii	"\012\"\333\300\363\345\306\235\016\350\356dz\220\210"
 159      F3E5C69D 
 159      0EE8EE64 
 159      7A9088
 160 026b 4E527906 		.ascii	"NRy\006\266\2550HX\260\265?\217\255\203\371l\235kn^"
 160      B6AD3048 
 160      58B0B53F 
 160      8FAD83F9 
 160      6C9D6B6E 
 161 0280 DB9ACF56 		.ascii	"\333\232\317V\031\372)\311\002\353\263\253\205\273\212"
 161      19FA29C9 
 161      02EBB3AB 
 161      85BB8A
 162 028f 49034F0B 		.ascii	"I\003O\013e\300\332\220`\237\007p\017\244\333S\177\246"
 162      65C0DA90 
 162      609F0770 
 162      0FA4DB53 
 162      7FA6
 163 02a1 8F05D3C0 		.ascii	"\217\005\323\300\241\334\220\362\202+\352\037\2708\325"
 163      A1DC90F2 
 163      822BEA1F 
 163      B838D5
 164 02b0 928A3D50 		.ascii	"\222\212=P\227\031\337\254F\001\351-\252\322\321\035"
 164      9719DFAC 
 164      4601E92D 
 164      AAD2D11D 
 165 02c0 177BAA79 		.ascii	"\027{\252y\306\237+Zk\016\306|>W\020\314\256\3001\322"
 165      C69F2B5A 
ARM GAS  /tmp/ccjN8g1P.s 			page 12


 165      6B0EC67C 
 165      3E5710CC 
 165      AEC031D2 
 166 02d4 221A8C74 		.ascii	"\"\032\214t\177\212\347\342\350\345\342\242\227\347"
 166      7F8AE7E2 
 166      E8E5E2A2 
 166      97E7
 167 02e2 82D3E01C 		.ascii	"\202\323\340\034\264\005\343\324\2609\241\325C!\276"
 167      B405E3D4 
 167      B039A1D5 
 167      4321BE
 168 02f1 89F8A4F0 		.ascii	"\211\370\244\360\2420\007@vR\236/\264O\235\326e)\002"
 168      A2300740 
 168      76529E2F 
 168      B44F9DD6 
 168      652902
 169 0304 093C998C 		.ascii	"\011<\231\214\374#\240h\343Y\207\302\255Ho\037\333\375"
 169      FC23A068 
 169      E35987C2 
 169      AD486F1F 
 169      DBFD
 170 0316 CBE39C51 		.ascii	"\313\343\234Q\364k\316gQ+0\217\003\313\027\022\216\011"
 170      F46BCE67 
 170      512B308F 
 170      03CB1712 
 170      8E09
 171 0328 388E3FA6 		.ascii	"8\216?\246\230\203\277\037\023\254\325`N\016\206\027"
 171      9883BF1F 
 171      13ACD560 
 171      4E0E8617 
 172 0338 569929CC 		.ascii	"V\231)\314\002s\215d`\216/t\203X\223\207\250\317\256"
 172      02738D64 
 172      608E2F74 
 172      83589387 
 172      A8CFAE
 173 034b C5E7DDD3 		.ascii	"\305\347\335\323$\357n\224h\016\337\310\347p7X\257\020"
 173      24EF6E94 
 173      680EDFC8 
 173      E7703758 
 173      AF10
 174 035d AC2D9299 		.ascii	"\254-\222\231\304\373{\202\206\177\371s\222\270\237"
 174      C4FB7B82 
 174      867FF973 
 174      92B89F
 175 036c CFC07E3A 		.ascii	"\317\300~:\227\372\365|;\023\271\037 \242\007\251*\307"
 175      97FAF57C 
 175      3B13B91F 
 175      20A207A9 
 175      2AC7
 176 037e 76EF387E 		.ascii	"v\3578~kam\232\011#\327>Y\242M\335\311Z}\366\362\213"
 176      6B616D9A 
 176      0923D73E 
 176      59A24DDD 
 176      C95A7DF6 
 177 0394 A88D501C 		.ascii	"\250\215P\034\262t\262!\306\311F\017<\371\242\225\223"
 177      B274B221 
 177      C6C9460F 
ARM GAS  /tmp/ccjN8g1P.s 			page 13


 177      3CF9A295 
 177      93
 178 03a5 098CF99C 		.ascii	"\011\214\371\234\203E\244\324\257!\324O\020\352oZR\177"
 178      8345A4D4 
 178      AF21D44F 
 178      10EA6F5A 
 178      527F
 179 03b7 93A17EE1 		.ascii	"\223\241~\341\360\3073-\210\007\354\210\027\010r\326"
 179      F0C7332D 
 179      8807EC88 
 179      170872D6 
 180 03c7 E4A3C47F 		.ascii	"\344\243\304\177\327{hz;\360P\357<\303b\267U\260\244"
 180      D77B687A 
 180      3BF050EF 
 180      3CC362B7 
 180      55B0A4
 181 03da C867C382 		.ascii	"\310g\303\202\204\367{<\006\357\027\016\367\237\372"
 181      84F77B3C 
 181      06EF170E 
 181      F79FFA
 182 03e9 FC746349 		.ascii	"\374tcI\343e\013\005\355\373\366\364b\311@\274\217\""
 182      E3650B05 
 182      EDFBF6F4 
 182      62C940BC 
 182      8F22
 183 03fb 0E3820DA 		.ascii	"\0168 \332\373\023\217\270\225\"\016\272B\264\347\361"
 183      FB138FB8 
 183      95220EBA 
 183      42B4E7F1 
 184 040b 418A38E2 		.ascii	"A\2128\342\2008\253H\036\267S\304qW\210\366<\266R\304"
 184      8038AB48 
 184      1EB753C4 
 184      715788F6 
 184      3CB652C4 
 185 041f 0907C4EA 		.ascii	"\011\007\304\352\"y|\204\"N\272B\264\347\3617\024\261"
 185      22797C84 
 185      224EBA42 
 185      B4E7F137 
 185      14B1
 186 0431 FB3B8511 		.ascii	"\373;\205\021k\254x\314\363\251\334\311\361\015s\211"
 186      6BAC78CC 
 186      F3A9DCC9 
 186      F10D7389 
 187 0441 000B478F 		.ascii	"\000\013G\217\2219F\017\354\1771X\202\377S\250'<f\332"
 187      9139460F 
 187      EC7F3158 
 187      82FF53A8 
 187      273C66DA 
 188 0455 EB7497F6 		.ascii	"\353t\227\366\254\224\241MK\373)\350\300SNS\235\263"
 188      AC94A14D 
 188      4BFB29E8 
 188      C0534E53 
 188      9DB3
 189 0467 5B699887 		.ascii	"[i\230\207)\346\240\003\227Nn\305\245+\272\253\354\252"
 189      29E6A003 
 189      974E6EC5 
 189      A52BBAAB 
ARM GAS  /tmp/ccjN8g1P.s 			page 14


 189      ECAA
 190 0479 DEC6A44B 		.ascii	"\336\306\244K~=\031\022\036\026\346\243\351\354\030"
 190      7E3D1912 
 190      1E16E6A3 
 190      E9EC18
 191 0488 578B8CF9 		.ascii	"W\213\214\371\216\232\352\371r\311\376\374\336\232l"
 191      8E9AEAF9 
 191      72C9FEFC 
 191      DE9A6C
 192 0497 B58FD913 		.ascii	"\265\217\331\023\333s\317\246\335\365\"\236i\373h\332"
 192      DB73CFA6 
 192      DDF5229E 
 192      69FB68DA 
 193 04a7 DDF7EA5F 		.ascii	"\335\367\352_\347j\250\256\241\232\010\324i\2179i\357"
 193      E76AA8AE 
 193      A19A08D4 
 193      698F3969 
 193      EF
 194 04b8 FF445F09 		.ascii	"\377D_\011\206\004!g\322\026\3709\330\324\235\241:w"
 194      86042167 
 194      D216F839 
 194      D8D49DA1 
 194      3A77
 195 04ca BD6141CF 		.ascii	"\275aA\317\370\355\307\246\337\362\354\026\021\304\245"
 195      F8EDC7A6 
 195      DFF2EC16 
 195      11C4A5
 196 04d9 A9713391 		.ascii	"\251q3\221\375mS\215\307\0145jzq+\315\273\2144\2778"
 196      FD6D538D 
 196      C70C356A 
 196      7A712BCD 
 196      BB8C34BF 
 197 04ee E14A9A6B 		.ascii	"\341J\232k\247/M\013\221\346CS\232w\246'\315'\2144\333"
 197      A72F4D0B 
 197      91E64353 
 197      9A77A627 
 197      CD278C34 
 198 0503 DD497303 		.ascii	"\335Is\003#\215\266\224\272\002\2658-\2450[[\305+P\376"
 198      238DB694 
 198      BA02B538 
 198      2DA5305B 
 198      5BC52B50 
 199 0518 4206B71A 		.ascii	"B\006\267\032\013\231\201#U(\377\3623\244\214s\211u"
 199      0B998123 
 199      5528FFF2 
 199      33A48C73 
 199      8975
 200 052a 5E4147EC 		.ascii	"^AG\354{a\264\344\225:\217\3713\212\331}\307t\327+\344"
 200      7B61B4E4 
 200      953A8FF9 
 200      338AD97D 
 200      C774D72B 
 201 053f 58E03E0A 		.ascii	"X\340>\0128yl\272\333\011.#\346\254\346\360V\312y9\327"
 201      38796CBA 
 201      DB092E23 
 201      E6ACE6F0 
 201      56CA7939 
ARM GAS  /tmp/ccjN8g1P.s 			page 15


 202 0554 26629E1E 		.ascii	"&b\236\036\362\232\033\256\007z\276`\270\3141!g=\207"
 202      F29A1BAE 
 202      077ABE60 
 202      B8CC3121 
 202      673D87
 203 0567 1B98059D 		.ascii	"\033\230\005\235\275U[\331\264\271\207J<\266{\350\224"
 203      BD555BD9 
 203      B4B9874A 
 203      3CB67BE8 
 203      94
 204 0578 43E67425 		.ascii	"C\346t%\262\325\202\371\307\024\252\222P\377\035\241"
 204      B2D582F9 
 204      C714AA92 
 204      50FF1DA1 
 205 0588 FE9868B5 		.ascii	"\376\230h\265^\306\255\206\233\265\017n9{\255\205\243"
 205      5EC6AD86 
 205      9BB50F6E 
 205      397BAD85 
 205      A3
 206 0599 89BA5364 		.ascii	"\211\272Sd\315\355\001Go\0217\313\262\272}\\\304\233"
 206      CDED0147 
 206      6F1137CB 
 206      B2BA7D5C 
 206      C49B
 207 05ab D93718DD 		.ascii	"\3317\030\335\366\367\334\241\201\032\373\214E\366H"
 207      F6F7DCA1 
 207      811AFB8C 
 207      45F648
 208 05ba 227A9F8C 		.ascii	"\"z\237\214\334c\311\371\036\221\335\314\016\277d\265"
 208      DC63C9F9 
 208      1E91DDCC 
 208      0EBF64B5 
 209 05ca CF10F366 		.ascii	"\317\020\363f\343\220\320\017\233~mt\367\023\227g3\033"
 209      E390D00F 
 209      9B7E6D74 
 209      F7139767 
 209      331B
 210 05dc 125EA698 		.ascii	"\022^\246\230}\256\22645\026<\353\376c\012\035\022\366"
 210      7DAE9634 
 210      35163CEB 
 210      FE630A1D 
 210      12F6
 211 05ee 8AF39118 		.ascii	"\212\363\221\030\022:A\234\220\260\017j\352Xk|\206i"
 211      123A419C 
 211      90B00F6A 
 211      EA586B7C 
 211      8669
 212 0600 DB073BCF 		.ascii	"\333\007;\317\336j\255\307b\003\336\365\001\346~\222"
 212      DE6AADC7 
 212      6203DEF5 
 212      01E67E92 
 213 0610 7D37F9CC 		.ascii	"}7\371\314)\231n\244\265\323MN\242\322\316\037E\324"
 213      29996EA4 
 213      B5D34D4E 
 213      A2D2CE1F 
 213      45D4
 214 0622 CCC8F8FE 		.ascii	"\314\310\370\376\331R\266\267yZ\317\015\326v6X\357\367"
ARM GAS  /tmp/ccjN8g1P.s 			page 16


 214      D952B6B7 
 214      795ACF0D 
 214      D6763658 
 214      EFF7
 215 0634 99C1FAC9 		.ascii	"\231\301\372\311?=X\263\002\267\372\203M\010!\377\214"
 215      3F3D58B3 
 215      02B7FA83 
 215      4D0821FF 
 215      8C
 216 0645 A5CF3FC3 		.ascii	"\245\317?\303\370\374\241\321\316\327\255|^b\242\325"
 216      F8FCA1D1 
 216      CED7AD7C 
 216      5E62A2D5 
 217 0655 88C01E8A 		.ascii	"\210\300\036\2129p\260\252T'\341\027\265\307)\344\310"
 217      3970B0AA 
 217      5427E117 
 217      B5C729E4 
 217      C8
 218 0666 99AA126C 		.ascii	"\231\252\022l2\015\035\261.x\224\310\367'\352\202#\007"
 218      320D1DB1 
 218      2E7894C8 
 218      F727EA82 
 218      2307
 219 0678 AA0C7FD3 		.ascii	"\252\014\177\323\224\3058\3403LH=\013!%\205\204#$\244"
 219      94C538E0 
 219      334C483D 
 219      0B212585 
 219      842324A4 
 220 068c 9E23F5F3 		.ascii	"\236#\365\363f`\331{J7\353)\257S\035L\270\323AM\221"
 220      6660D97B 
 220      4A37EB29 
 220      AF531D4C 
 220      B8D3414D 
 221 06a1 7EF9344B 		.ascii	"~\3714K\355m\306/w\\1=\267t}\316\365\022\011\365q3\324"
 221      ED6DC62F 
 221      775C313D 
 221      B7747DCE 
 221      F51209F5 
 222 06b8 9F6242FD 		.ascii	"\237bB\375\225\334P/\356\334\352#F\240#/;\004\266\245"
 222      95DC502F 
 222      EEDCEA23 
 222      46A0232F 
 222      3B04B6A5 
 223 06cc 44543753 		.ascii	"DT7S>c\335\326\367\335\30285\266\232)\372\374\213\325"
 223      3E63DDD6 
 223      F7DDC238 
 223      35B69A29 
 223      FAFC8BD5 
 224 06e0 4B3FF1BF 		.ascii	"K?\361\277\265~s\206{\262\347v\015\264\250\223\264\026"
 224      B57E7386 
 224      7BB2E776 
 224      0DB4A893 
 224      B416
 225 06f2 3272C032 		.ascii	"2r\3002\332\007\270\031\256\337r\206\023lg8<\272oOI"
 225      DA07B819 
 225      AEDF7286 
 225      136C6738 
ARM GAS  /tmp/ccjN8g1P.s 			page 17


 225      3CBA6F4F 
 226 0707 335CFEC5 		.ascii	"3\\\376\305\262\030\022\376\004\301\003\374\235ag\242"
 226      B21812FE 
 226      04C103FC 
 226      9D6167A2 
 227 0717 9D7EC302 		.ascii	"\235~\303\002\023\307\235V\236\274\015j8\033\260i\353"
 227      13C79D56 
 227      9EBC0D6A 
 227      381BB069 
 227      EB
 228 0728 B71473E4 		.ascii	"\267\024s\344?\013g\255k\035\254j\254e\017R\304\356"
 228      3F0B67AD 
 228      6B1DAC6A 
 228      AC650F52 
 228      C4EE
 229 073a 1F15E6F1 		.ascii	"\037\025\346\361\006[DC\331ZH\0346\345v\205Xc\201\370"
 229      065B4443 
 229      D95A481C 
 229      36E57685 
 229      586381F8 
 230 074e 34598ABE 		.ascii	"4Y\212\276@\021\307_u2\337BG.\265\303\356S\024\263\357"
 230      4011C75F 
 230      7532DF42 
 230      472EB5C3 
 230      EE5314B3 
 231 0763 3527EB2C 		.ascii	"5'\353,t\344\223\254\342\207LU\236ubsQ\261^f\276\267"
 231      74E493AC 
 231      E2874C55 
 231      9E756273 
 231      51B15E66 
 232 0779 08092784 		.ascii	"\010\011'\204\371hNH8)\340\344|\212\324\003\244\036"
 232      F9684E48 
 232      3829E0E4 
 232      7C8AD403 
 232      A41E
 233 078b 24F524A9 		.ascii	"$\365$\251\377N\352,I\340\353H\375sRo!\365\375\244>"
 233      FF4EEA2C 
 233      49E0EB48 
 233      FD73526F 
 233      21F5FDA4 
 234 07a0 49EA5749 		.ascii	"I\352WI}\226\324C\244\036&\365\033\244~\253\230\344"
 234      7D96D443 
 234      A41E26F5 
 234      1BA47EAB 
 234      98E4
 235 07b2 9FB3F817 		.ascii	"\237\263\370\027\351K\247\016\222\000\271\267No\323"
 235      E94BA70E 
 235      9200B9B7 
 235      4E6FD3
 236 07c1 94D031D5 		.ascii	"\224\3201\325?\234\363\372kT,\376\305\023&"
 236      3F9CF3FA 
 236      6B542CFE 
 236      C51326
 237 07d0 6ACFD279 		.ascii	"j\317\322y1\377efK\231Az\374\214\237'\374\316e#\374"
 237      31FF6566 
 237      4B99417A 
 237      FC8C9F27 
ARM GAS  /tmp/ccjN8g1P.s 			page 18


 237      FCCE6523 
 238 07e5 1731FFA5 		.ascii	"\0271\377\245\274W\377\340zv\271@B\351W\224\357==\373"
 238      BC57FFE0 
 238      7A76B940 
 238      42E95794 
 238      EF3D3DFB 
 239 07f9 FE72C96B 		.ascii	"\376r\311k0\355\315\231]\274\374\354\342\245\263\213"
 239      30EDCD99 
 239      5DBCFCEC 
 239      E2A5B38B 
 240 0809 37C0BC46 		.ascii	"7\300\274F\241\214\235&\306\261~\271\211\337f;\263\367"
 240      A18C9D26 
 240      C6B17EB9 
 240      89DF663B 
 240      B3F7
 241 081b 0189CBB7 		.ascii	"\001\211\313\267({\027\216\267\030\033%\3557\006\034"
 241      287B178E 
 241      B7181B25 
 241      ED37061C 
 242 082b 7BEDBC97 		.ascii	"{\355\274\227\360*\312\361\222{\003\006f\337\256\025"
 242      F02ACAF1 
 242      927B0306 
 242      66DFAE15 
 243 083b 3CCC4517 		.ascii	"<\314E\027\246\352(\370\216\366R\256\251\310\012\256"
 243      A6EA28F8 
 243      8EF652AE 
 243      A9C80AAE 
 244 084b 90F3B605 		.ascii	"\220\363\266\005L\347\3352|5\317\330$\317\330\347P["
 244      4CE7DD32 
 244      7C35CFD8 
 244      24CFD8E7 
 244      505B
 245 085d 766F7373 		.ascii	"voss\266\365\366\354\271\251\251y\306\017_\260\346T"
 245      B6F5F6EC 
 245      B9A9A979 
 245      C60F5FB0 
 245      E654
 246 086f AAEDAEC2 		.ascii	"\252\355\256\302\257W\362\337\224\030\027\007\307\275"
 246      AF57F2DF 
 246      94181707 
 246      C7BD
 247 087d 5E81A897 		.ascii	"^\201\250\227f#\353KD\217S\011Fw<\371\322Bs\320j\211"
 247      6623EB4B 
 247      448F5309 
 247      46773CF9 
 247      D24273D0 
 248 0893 728F393F 		.ascii	"r\2179?\2079o\222\262\331\311\251)\311X{6\275\305\234"
 248      87396F92 
 248      B2D9C9A9 
 248      29C9587B 
 248      36BDC59C 
 249 08a7 8866AFA4 		.ascii	"\210f\257\244\254\236\304CY\307X+\341ij\017\245\005"
 249      AC9EC443 
 249      59C7582B 
 249      E1696A0F 
 249      A505
 250 08b9 FBDBDE2F 		.ascii	"\373\333\336/k\340Ea\211\350\020\031\273A\262\232\377"
ARM GAS  /tmp/ccjN8g1P.s 			page 19


 250      6BE04561 
 250      89E81019 
 250      BB41B29A 
 250      FF
 251 08ca 712BF3BA 		.ascii	"q+\363\272\326r\265\357s\330\233\2373\227\316\237\316"
 251      D672B5EF 
 251      73D89B9F 
 251      3397CE9F 
 251      CE
 252 08db 617E1361 		.ascii	"a~\023a\276\233a~\270\3476\236\371\002H\"\352'#7[\262"
 252      BE9B617E 
 252      B8E7369E 
 252      F9024822 
 252      EA272337 
 253 08f1 BE9963BD 		.ascii	"\276\231c\275\3775'\326\215\031\177\230b\366\215\231"
 253      FF3527D6 
 253      8D197F98 
 253      62F68D99 
 254 0901 F354A93B 		.ascii	"\363T\251;\025m\356\3733\305\034\270\263\324\215\212"
 254      156DEEFB 
 254      33C51CB8 
 254      B3D48D8A 
 255 0911 B18A1822 		.ascii	"\261\212\030\"o\347/P\304\021W\2105\026<j\273\251\011"
 255      6FE72F50 
 255      C4115788 
 255      35163C6A 
 255      BBA909
 256 0924 8A383976 		.ascii	"\21289v\271^;LR\314\356\345n\020\355\271\\Wn \016: "
 256      B95E3B4C 
 256      52CCEEE5 
 256      6E10EDB9 
 256      5C576E20 
 257 093b 5A9EFEE7 		.ascii	"Z\236\376\347_\254\373\204\204{\245\371\010h5KxBn!\365"
 257      5FACFB84 
 257      847BA5F9 
 257      0868354B 
 257      78426E21 
 258 0950 7DA4BE9F 		.ascii	"}\244\276\237\324\333H\375\240\304,:\357)7\242g\342"
 258      D4DB48FD 
 258      A0C42C3A 
 258      EF2937A2 
 258      67E2
 259 0962 23D35D72 		.ascii	"#\323]r<\325\331_\354\303\247\300\316\363\327$|\356"
 259      3CD5D95F 
 259      ECC3A7C0 
 259      CEF3D724 
 259      7CEE
 260 0974 2B37C367 		.ascii	"+7\303g{\357\217\354\303'o\237\337AF\266Y\206O\033\027"
 260      7BEF8FEC 
 260      C3276F9F 
 260      DF4146B6 
 260      59864F1B 
 261 0989 3E17CF58 		.ascii	">\027\317X\205\217\307\325;t\223\372\277\344\310\321"
 261      858FC7D5 
 261      3B7493FA 
 261      BFE4C8D1 
 262 0999 4EE4788E 		.ascii	"N\344x\216\221\343\027\275w\330\313\221\203\004i@\033"
ARM GAS  /tmp/ccjN8g1P.s 			page 20


 262      91E317BD 
 262      77D8CB91 
 262      83046940 
 262      1B
 263 09aa 6929C72E 		.ascii	"i)\307.N\216\203\226rx9G{T\302\216\366&\305\034\031"
 263      4E8E8396 
 263      72783947 
 263      7B54C28E 
 263      F626C51C 
 264 09bf 9AFE199D 		.ascii	"\232\376\031\235\2069F1\307Cn\020\363\303\301\365\362"
 264      86394631 
 264      C7436E10 
 264      F3C3C1F5 
 264      F2
 265 09d0 A653C279 		.ascii	"\246S\302y\350o\214\212\317\234\246\357\233J\334<OR"
 265      E86F8C8A 
 265      CF9CA6EF 
 265      9B4ADC3C 
 265      4F52
 266 09e2 71C6761F 		.ascii	"q\306v\037>S\362\217>,\177\006Q\334\252\350\000Q\353"
 266      3E53F28F 
 266      3E2C7F06 
 266      51DCAAE8 
 266      0051EB
 267 09f5 FA0A53AA 		.ascii	"\372\012S\252K=E\257\212 v+L\001\216\270\023 \337$\372"
 267      4B3D45AF 
 267      8A20762B 
 267      4C018EB8 
 267      1320DF24 
 268 0a0a 9EE47E8A 		.ascii	"\236\344~\212\331\367zIi4\377b]\033f)HQ\336\220\360"
 268      D9F77A49 
 268      6934FF62 
 268      5D1B6629 
 268      4851DE90 
 269 0a1f 5B928AF6 		.ascii	"[\222\212\366\220z/\251\367\223\372\220T\304.\002\273"
 269      907A2FA9 
 269      F793FA90 
 269      54C42E02 
 269      BB
 270 0a30 2305DF2D 		.ascii	"#\005\337-\211z\026\030\011_\016?\017\011OP\304\011"
 270      897A1618 
 270      095F0E3F 
 270      0F094F50 
 270      C409
 271 0a42 5788564A 		.ascii	"W\210VJ\305\216\033\022~G\021\273\317;m\036\235\177"
 271      C58E1B12 
 271      7E4711BB 
 271      CF3B6D1E 
 271      9D7F
 272 0a54 0EA205C3 		.ascii	"\016\242\005\303\366\012#\373u\307J0\275\225\235\332"
 272      F60A23FB 
 272      75C74A30 
 272      BD959DDA 
 273 0a64 183B3D0C 		.ascii	"\030;=\014v\362\204\204G\210U\236!\365aR?\313N\037\273"
 273      76F28484 
 273      4788559E 
 273      21F56152 
ARM GAS  /tmp/ccjN8g1P.s 			page 21


 273      3FCB4E1F 
 274 0a79 2A8CE963 		.ascii	"*\214\351c`\225M\236\266\236\320X]\225tl\364\007\222"
 274      60954D9E 
 274      B69ED058 
 274      5D95746C 
 274      F40792
 275 0a8c 74F732B1 		.ascii	"t\3672\261s\260\327\315\261\321\0212\362\250e\322=\312"
 275      73B0D7CD 
 275      B1D11132 
 275      F2A865D2 
 275      3DCA
 276 0a9e 2F1BCFDA 		.ascii	"/\033\317\332\036\033\255[k\006\377Z\032\374k\304B{"
 276      1E1BAD5B 
 276      6B06FF5A 
 276      1AFC6BC4 
 276      427B
 277 0ab0 09EED700 		.ascii	"\011\356\327\000'(\027\003\357\356\023Kp_+3\036e\314"
 277      27281703 
 277      EFEE134B 
 277      705F2B33 
 277      1E65CC
 278 0ac3 D82B9183 		.ascii	"\330+\221\203\246\027X\243\275J\2156q\311\311\033\371"
 278      A61758A3 
 278      BD4A8D36 
 278      71C9C91B 
 278      F9
 279 0ad4 6321DE6A 		.ascii	"c!\336j\332\262S\373\271\345\220\351\010w\323\211\216"
 279      DAB253FB 
 279      B9E590E9 
 279      0877D389 
 279      8E
 280 0ae5 FF65A5F1 		.ascii	"\377e\245\361l\177.T\222#\234 \216p\236:\302\350\324"
 280      6C7F2E54 
 280      92239C20 
 280      8E709E3A 
 280      C2E8D4
 281 0af8 BE61FEE7 		.ascii	"\276a\376\347\236N\257\217OY:\301)\306\011\272\017\372"
 281      9E4EAF8F 
 281      4F593AC1 
 281      29C609BA 
 281      0FFA
 282 0b0a EC5CA0E4 		.ascii	"\354\\\240\344\237P\222 \336VI\217\203\0370\337\273"
 282      9F509220 
 282      DE56498F 
 282      831F30DF 
 282      BB
 283 0b1b 9738A1B5 		.ascii	"\2278\241\265\0220\314\367\350T\313\3604N\2039\332\247"
 283      1230CCF7 
 283      E854CBF0 
 283      344E8339 
 283      DAA7
 284 0b2d 186F7A59 		.ascii	"\030ozY\363\246\001\326\233\036\2534,?\266{xna\242\351"
 284      F3A601D6 
 284      9B1EAB34 
 284      2C3FB67B 
 284      786E61A2 
 285 0b42 82DED424 		.ascii	"\202\336\324$\371\330\315\352\266*]\251]\033\262M\302"
ARM GAS  /tmp/ccjN8g1P.s 			page 22


 285      F9D8CDEA 
 285      B62A5DA9 
 285      5D1BB24D 
 285      C2
 286 0b53 EACE4F9B 		.ascii	"\352\316O\233#\371\355\014\253\326A\242\326\016\252"
 286      23F9ED0C 
 286      ABD641A2 
 286      D60EAA
 287 0b62 D6D1034F 		.ascii	"\326\321\003O\367\352\023f\011h\303\004m?Ek\337\374"
 287      F7EA1366 
 287      0968C304 
 287      6D3F456B 
 287      DFFC
 288 0b74 7EEF570C 		.ascii	"~\357W\014\305\004r\214\024\340\215\024\240F\012\350"
 288      C504728C 
 288      14E08D14 
 288      A0460AE8 
 289 0b84 46D2DECE 		.ascii	"F\322\336\316\241\022G\031\334v\315\240\354\276\"\350"
 289      A1124719 
 289      DC76CDA0 
 289      ECBE22E8 
 290 0b94 206725F7 		.ascii	" g%\367\377\223\362\246\024\240\326\250\014\260O\377"
 290      FF93F2A6 
 290      14A0D6A8 
 290      0CB04FFF 
 291 0ba4 4A6DFB2C 		.ascii	"Jm\373,c\333\255\303\222\035\013\306\207\306b}j\003"
 291      63DBADC3 
 291      921D0BC6 
 291      87C6627D 
 291      6A03
 292 0bb6 E3534DDA 		.ascii	"\343SM\332\236e#\231\\\266\223\3729R\367\221\3728\251"
 292      9E652399 
 292      5CB693FA 
 292      3952F791 
 292      FA38A9
 293 0bc9 5F633DEE 		.ascii	"_c=\356\217\324\036}\033\037\276\212N;9'\003\230\316"
 293      8FD41E7D 
 293      1B1FBE8A 
 293      4E3B3927 
 293      0398CE
 294 0bdc 087F54D1 		.ascii	"\010\177T\321js\310\302\237\324\345\254\317\311ic\011"
 294      6A73C8C2 
 294      9FD4E5AC 
 294      CFC96963 
 294      09
 295 0bed FAFDB3AD 		.ascii	"\372\375\263\255~=T\222\223\246\237\356\330\361\322"
 295      7E3D5492 
 295      93A69FEE 
 295      D8F1D2
 296 0bfc 75053838 		.ascii	"u\00588\317K\262\267\013g_N\222\256\274\343\"#\375\301"
 296      CF4BB2B7 
 296      0B675F4E 
 296      92AEBCE3 
 296      2223FDC1 
 297 0c10 1705F751 		.ascii	"\027\005\367Q\257\000\027El\270B\302\273d\031s\3012"
 297      AF001745 
 297      6CB842C2 
ARM GAS  /tmp/ccjN8g1P.s 			page 23


 297      BB641973 
 297      C132
 298 0c22 5D5E60D2 		.ascii	"]^`\322\345\340V\253t\351\341\0261\253\311\211\340\033"
 298      E5E056AB 
 298      74E9E116 
 298      31ABC989 
 298      E01B
 299 0c34 440178EC 		.ascii	"D\001x\354\310E\377\364Vo9+\360\003\266+p\314\345\007"
 299      C845FFF4 
 299      566F392B 
 299      F003B62B 
 299      70CCE507 
 300 0c48 1233098F 		.ascii	"\0223\011\217R&\306\317\370\246\273\340\373\200\254"
 300      5226C6CF 
 300      F8A6BBE0 
 300      FB80AC
 301 0c57 E9C729E4 		.ascii	"\351\307)\344\204\203X\316\313=\015\361C\2128\351\012"
 301      848358CE 
 301      CB3D0DF1 
 301      438A38E9 
 301      0A
 302 0c68 B12627F4 		.ascii	"\261&'\364\264T\003+\273\367H`\375\215\324\037\222\372"
 302      B454032B 
 302      BBF74860 
 302      FD8DD41F 
 302      92FA
 303 0c7a A2F3DA3B 		.ascii	"\242\363\332;G\311\343\222\335\357\203\310\251\251\304"
 303      47C9E392 
 303      DDEF83C8 
 303      A9A9C4
 304 0c89 ED6018D8 		.ascii	"\355`\030\330E9\314r>\254\015\264\353\032\022\376\277"
 304      4539CC72 
 304      3EAC0DB4 
 304      EB1A12FE 
 304      BF
 305 0c9a 8460FCD8 		.ascii	"\204`\374\3306\030\331|l\366\303?d\243\261\331\261u"
 305      3618D97C 
 305      6CF6C33F 
 305      64A3B1D9 
 305      B175
 306 0cac 7BEF127B 		.ascii	"{\357\022{~&\365\320\274\011\355\3136-\012\011c\300"
 306      7E26F5D0 
 306      BC09EDCB 
 306      362D0A09 
 306      63C0
 307 0cbe 9F681AF4 		.ascii	"\237h\032\364nt)[\255\311$\340\320}\357$\015]M\201\""
 307      6E74295B 
 307      ADC924E0 
 307      D07DEF24 
 307      0D5D4D81 
 308 0cd3 6A9A6190 		.ascii	"j\232a\220\032x\310\334t\345\204\0379\257\365\210h."
 308      1A78C8DC 
 308      74E5841F 
 308      39AFF588 
 308      682E
 309 0ce5 DA32637B 		.ascii	"\3322c{\266\214#\211at\223\022r\226\377H\211\343\364"
 309      B68C2389 
ARM GAS  /tmp/ccjN8g1P.s 			page 24


 309      61749312 
 309      7296FF48 
 309      89E3F4
 310 0cf8 2EFEBF91 		.ascii	".\376\277\221\032)\205\231:\205\365\036\367\312\335"
 310      1A298599 
 310      3A85F51E 
 310      F7CADD
 311 0d07 E0B153AE 		.ascii	"\340\261S\256\361\243;\373\261\353<\324G\204\271h'H"
 311      F1A33BFB 
 311      B1EB3CD4 
 311      4784B968 
 311      2748
 312 0d19 B66D91CE 		.ascii	"\266m\221\316\305\340CU\244\013v\321\253\315\230\325"
 312      C5E04355 
 312      A40B76D1 
 312      ABCD98D5 
 313 0d29 BC956BB8 		.ascii	"\274\225k\270\250\313]\246\265\011\332\177\231Mh\377"
 313      A8CB5DA6 
 313      B509DA7F 
 313      994D68FF 
 314 0d39 ABD4FD19 		.ascii	"\253\324\375\031\206\001M\245\3241s\334\371\357\342"
 314      86014DA5 
 314      D43173DC 
 314      F9EFE2
 315 0d48 EC02AC6E 		.ascii	"\354\002\254n\364X\377#\246v\210m?n\223\3558\374\006"
 315      F458FF23 
 315      A676886D 
 315      3F6E93ED 
 315      38FC06
 316 0d5b C87EDCCF 		.ascii	"\310~\334\317l\307\341\351\310~\334\317m\307\235/Ho"
 316      6CC7E1E9 
 316      C87EDCCF 
 316      6DC79D2F 
 316      486F
 317 0d6d B3EDB8DE 		.ascii	"\263\355\270\336\202\271\364\036\333q\317\027\034w\257"
 317      82B9F41E 
 317      DB71CF17 
 317      1C77AF
 318 0d7c EDB84305 		.ascii	"\355\270C\005\3075\333\216\273TP\276-\3468\344\211\326"
 318      C735DB8E 
 318      BB5450BE 
 318      2DE638E4 
 318      89D6
 319 0d8e 4714DFB7 		.ascii	"G\024\337\267\276\373\303\232\305\310\233\310\324\205"
 319      BEFBC39A 
 319      C5C89BC8 
 319      D485
 320 0d9c D59B172C 		.ascii	"\325\233\027,\010j\177\251LPQ\203\351\224\242f\202_"
 320      086A7FA9 
 320      4C505183 
 320      E994A266 
 320      825F
 321 0dae FFDE92C5 		.ascii	"\377\336\222\305K\032\203\321T\"\035\213\313J&\370\255"
 321      4B1A83D1 
 321      54221D8B 
 321      CB4A26F8 
 321      AD
ARM GAS  /tmp/ccjN8g1P.s 			page 25


 322 0dbf C58B83D1 		.ascii	"\305\213\203\321zuUZ\316,\250G\376XR\275\351\213a\365"
 322      7A75555A 
 322      CE2CA847 
 322      FE5852BD 
 322      E98B61F5 
 323 0dd3 BF830D19 		.ascii	"\277\203\015\031%\030OE#\361\340\322X\022\243\304cK"
 323      25184F45 
 323      23F1E0D2 
 323      5812A3C4 
 323      634B
 324 0de5 8375D168 		.ascii	"\203u\321h0\242$\256O\246\222\362\365rdi,x\363\202["
 324      30A224AE 
 324      4FA692F2 
 324      F5726469 
 324      2C78F382 
 325 0dfa 167C3148 		.ascii	"\026|1HI\301\037\377},\031\2157\324\312\301\214Z\013"
 325      49C11FFF 
 325      7D2C198D 
 325      37D4CAC1 
 325      8C5A0B
 326 0e0d D040C1A7 		.ascii	"\320@\301\247\326+r\244\366S\264\277*gT\314\037\276"
 326      D62B72A4 
 326      F653B4BF 
 326      2A6754CC 
 326      1FBE
 327 0e1f 03E30BA2 		.ascii	"\003\343\013\242HHW\302\303\215a\271Q\2166\250\2627"
 327      484857C2 
 327      C38D61B9 
 327      518E36A8 
 327      B237
 328 0e31 FC8D542A 		.ascii	"\374\215T*~e\030w\010G2\031YQ\303\031\371\256\0069\031"
 328      7E651877 
 328      08473219 
 328      5951C319 
 328      F9AE0639 
 329 0e46 95AB2D61 		.ascii	"\225\253-a\200\314L\322[N\304\324\260\232Z.'\3134\262"
 329      80CC4CD2 
 329      5B4EC4D4 
 329      B09A5A2E 
 329      27CB34B2 
 330 0e5a 61F59A1C 		.ascii	"a\365\232\034\265\030\014F\3533\2532\206\032\002\321"
 330      B5180C46 
 330      EB33AB32 
 330      861A02D1 
 331 0e6a FAB036A0 		.ascii	"\372\2606\240\306\276{\264\276\026\313\223\016'\345"
 331      C6BE7BB4 
 331      BE16CB93 
 331      0E27E5
 332 0e79 46156E69 		.ascii	"F\025niE^\341W\323J,\025V\313\032tE\222\366X\312\037"
 332      455EE157 
 332      D34A2C15 
 332      56CB1A74 
 332      4592F658 
 333 0e8f 4D2555E8 		.ascii	"M%U\3506\277\240Q\352\243)E\006\314\012\334\034\006"
 333      36BFA051 
 333      EAA32945 
 333      06CC0ADC 
ARM GAS  /tmp/ccjN8g1P.s 			page 26


 333      1C06
 334 0ea1 84A8DAF8 		.ascii	"\204\250\332\370y\347\021\341\025\267$`T\231\"\327\201"
 334      79E711E1 
 334      15B72460 
 334      549922D7 
 334      81
 335 0eb2 F2C3AAA8 		.ascii	"\362\303\252\250\334,*\377!*_\022\225[De\241\250\334"
 335      DC2C2AFF 
 335      212A5F12 
 335      955B4465 
 335      A1A8DC
 336 0ec5 2A2937DE 		.ascii	"*)7\336\000\345F1\256\300\355&o:\014\310~\314\371JY"
 336      00E54631 
 336      AEC0ED26 
 336      6F3A0CC8 
 336      7ECCF94A 
 337 0eda 817B2A5E 		.ascii	"\201{*^++X\222HB.S3jD\225\303\252\037\313\260\020\356"
 337      2B2B5892 
 337      48422E53 
 337      336A4495 
 337      C3AA1FCB 
 338 0ef1 E93069F1 		.ascii	"\3510i\361\253\211T\255L>/\213G\3522~U\221\227e\210"
 338      AB8954AD 
 338      4C3E2F8B 
 338      47EA327E 
 338      55919765 
 339 0f06 88F8C1A7 		.ascii	"\210\370\301\247\324\256\002\263\225\311\21515\012\035"
 339      D4AE02B3 
 339      95C98D31 
 339      350A1D
 340 0f15 7D2BD5D4 		.ascii	"}+\325\324\322;\323st\305C\027Y\301&\013\253\336\225"
 340      D23BD373 
 340      74C54317 
 340      59C1260B 
 340      ABDE95
 341 0f28 AAAAA42B 		.ascii	"\252\252\244+A\307\0319\021I\327\203\010\363\354\325"
 341      41C71939 
 341      1149D783 
 341      08F3ECD5 
 342 0f38 2C278839 		.ascii	",'\2109\011J&\014fo\000\210Y\324@z\223_\277{\243I\260"
 342      094A260C 
 342      666F0088 
 342      59D4407A 
 342      935FBF7B 
 343 0f4f B8371386 		.ascii	"\2707\023\206;p\000\243\323e\3207\001~\324hO$\2416b"
 343      3B7000A3 
 343      D365D037 
 343      017ED468 
 343      4F24A136 
 344 0f64 E74FE858 		.ascii	"\347O\350X\211pje\022\024CF\201\200\011\315\304+U\350"
 344      89706A65 
 344      12144346 
 344      818009CD 
 344      C42B55E8 
 345 0f78 97AE9057 		.ascii	"\227\256\220W\310I5\021\311,\207o\344\225\370AJ\207"
 345      C8493511 
 345      C92C876F 
ARM GAS  /tmp/ccjN8g1P.s 			page 27


 345      E495F841 
 345      4A87
 346 0f8a 1BAA0C76 		.ascii	"\033\252\014v\3421p<u&\303 n\011\244\303+#15\226\254"
 346      E231703C 
 346      7526C320 
 346      6E09A4C3 
 346      2B233135 
 347 0fa0 2B4F8741 		.ascii	"+O\207AM\032\263\344\021\032\344\264\234\204\370\250"
 347      4D1AB3E4 
 347      111AE4B4 
 347      9C84F8A8 
 348 0fb0 835E4002 		.ascii	"\203^@\002\367/\307J\215\304\211\357@c\032\"\000\024"
 348      F72FC74A 
 348      8DC489EF 
 348      40631A22 
 348      0014
 349 0fc2 B62453F7 		.ascii	"\266$S\367=9.G2\005\024\206c\210x0t\376/ \351\313\304"
 349      3D392E47 
 349      32051486 
 349      63887830 
 349      74FE2F20 
 350 0fd9 EE068D7D 		.ascii	"\356\006\215}\315]D3q[+/\303\312Q\2275$\243a\365\337"
 350      CD5D4433 
 350      715B2B2F 
 350      C3CA5197 
 350      3524A361 
 351 0fef 6C09EBE2 		.ascii	"l\011\353\342B\337\331\321\372\037\324\327.\206\217"
 351      42DFD9D1 
 351      FA1FD4D7 
 351      2E868F
 352 0ffe AAFC     		.ascii	"\252\374"
 353 1000 7D709D58 		.ascii	"}p\235XTc\347\373 \245\2702R\201-\017\301&\203\257\006"
 353      5463E7FB 
 353      20A5B832 
 353      52812D0F 
 353      C12683AF 
 354 1015 E873251E 		.ascii	"\350s%\036\275JW\337\014h6?\373\025\3150>\205\004\223"
 354      BD4A57DF 
 354      0C68363F 
 354      FB15CD30 
 354      3E850493 
 355 1029 5721EEAB 		.ascii	"W!\356\253\350\356\253h\356\033\200\326\006\005\\L\365"
 355      E8EEAB68 
 355      EE1B80D6 
 355      06055C4C 
 355      F5
 356 103a 2A78D095 		.ascii	"*x\320\225+b\212\332\020\211\207\325X\002\022\235\016"
 356      2B628ADA 
 356      108987D5 
 356      5802129D 
 356      0E
 357 104b 7C15005B 		.ascii	"|\025\000[|1\223k\323\374\213k\362\257P\211\023\340"
 357      7C31936B 
 357      D3FC8B6B 
 357      F2AF5089 
 357      13E0
 358 105d 3B0EF400 		.ascii	";\016\364\000f\032\276\200P\207\226Z9\256F\340AS\021"
ARM GAS  /tmp/ccjN8g1P.s 			page 28


 358      661ABE80 
 358      5087965A 
 358      39AE46E0 
 358      415311
 359 1070 EE839F7C 		.ascii	"\356\203\237|\270oD\251\200[<\222Qqwh\302\344\252t\361"
 359      B86F44A9 
 359      805B3C92 
 359      51717768 
 359      C2E4AA74 
 360 1085 6BE5A50D 		.ascii	"k\345\245\015u\232\263\260-\201t$\031\213b\337\220j"
 360      759AB3B0 
 360      2D817424 
 360      198B62DF 
 360      906A
 361 1097 97D69527 		.ascii	"\227\326\225'\"\020\210D\271\263\324D\030\014\030[\252"
 361      22108844 
 361      B9B3D444 
 361      180C185B 
 361      AA
 362 10a8 805253C9 		.ascii	"\200RS\311\260:\327\336\0328l\374\212J\342\301\227Z"
 362      B03AD7DE 
 362      1A386CFC 
 362      8A4AE2C1 
 362      975A
 363 10ba B62C23AB 		.ascii	"\266,#\253\242\232(\317\250\313\001\240.\251\347\250"
 363      A29A28CF 
 363      A8CB01A0 
 363      2EA9E7A8 
 364 10ca 2FDD1C56 		.ascii	"/\335\034V\253b\265qY\367V\360R1Z\357\327mY\206\263"
 364      AB62B571 
 364      59F756F0 
 364      52315AEF 
 364      D76D5986 
 365 10df 6814DCCD 		.ascii	"h\024\334\315\2033\203\027 \032\322\320\026Qj!@\374"
 365      83338317 
 365      201AD2D0 
 365      16516A21 
 365      40FC
 366 10f1 7A7E2E4F 		.ascii	"z~.OGTUV\2228\370\365$~\343\254\005J\2526\242F\026\030"
 366      47545556 
 366      9238F8F5 
 366      247EE3AC 
 366      054AAA36 
 367 1109 0D3397C8 		.ascii	"\0153\227\310\231L\244N\316|\241&\236J\245\321?\000"
 367      994CA44E 
 367      CE7CA126 
 367      9E4AA5D1 
 367      3F00
 368 111b 066F5E7D 		.ascii	"\006o^}"
 369              		.text
 370              		.section	.gnu.lto_.symtab.ce631cdad89947ba,"",%progbits
 371 0000 5F746573 		.ascii	"_test_assert_sequence\000\000\002\000\000\000\000\000"
 371      745F6173 
 371      73657274 
 371      5F736571 
 371      75656E63 
 372 001d 00000000 		.ascii	"\000\000\000\000\271\000\000\000test_emit_token\000"
ARM GAS  /tmp/ccjN8g1P.s 			page 29


 372      B9000000 
 372      74657374 
 372      5F656D69 
 372      745F746F 
 373 0035 00020000 		.ascii	"\000\002\000\000\000\000\000\000\000\000\000\302\000"
 373      00000000 
 373      000000C2 
 373      00
 374 0042 00006368 		.ascii	"\000\000chMsgRelease\000\000\002\000\000\000\000\000"
 374      4D736752 
 374      656C6561 
 374      73650000 
 374      02000000 
 375 0058 00000000 		.ascii	"\000\000\000\000\306\000\000\000chMsgWait\000\000\002"
 375      C6000000 
 375      63684D73 
 375      67576169 
 375      74000002 
 376 006c 00000000 		.ascii	"\000\000\000\000\000\000\000\000\000g\001\000\000ch"
 376      00000000 
 376      00670100 
 376      006368
 377 007b 54686443 		.ascii	"ThdCreateStatic\000\000\002\000\000\000\000\000\000"
 377      72656174 
 377      65537461 
 377      74696300 
 377      00020000 
 378 0093 0000006A 		.ascii	"\000\000\000j\001\000\000chMsgSend\000\000\002\000\000"
 378      01000063 
 378      684D7367 
 378      53656E64 
 378      00000200 
 379 00a8 00000000 		.ascii	"\000\000\000\000\000\000\000x\001\000\000patternmsg"
 379      00000078 
 379      01000070 
 379      61747465 
 379      726E6D73 
 380 00bd 00000000 		.ascii	"\000\000\000\000\000\000\000\000\000\000\000\000\351"
 380      00000000 
 380      00000000 
 380      E9
 381 00ca 01000074 		.ascii	"\001\000\000testmsg1\000\000\000\000\000\000\000\000"
 381      6573746D 
 381      73673100 
 381      00000000 
 381      000000
 382 00dd 00000000 		.ascii	"\000\000\000\000\377\001\000\000wa\000\000\002\000\000"
 382      FF010000 
 382      77610000 
 382      020000
 383 00ec 00000000 		.ascii	"\000\000\000\000\000\000\000}\001\000\000ch\000\000"
 383      0000007D 
 383      01000063 
 383      680000
 384 00fb 02000000 		.ascii	"\002\000\000\000\000\000\000\000\000\000\202\001\000"
 384      00000000 
 384      00008201 
ARM GAS  /tmp/ccjN8g1P.s 			page 30


 384      00
 385 0108 00746872 		.ascii	"\000threads\000\000\002\000\000\000\000\000\000\000"
 385      65616473 
 385      00000200 
 385      00000000 
 385      0000
 386 011a 0000E501 		.ascii	"\000\000\345\001\000\000"
 386      0000
 387              		.text
 388              		.section	.gnu.lto_.opts,"",%progbits
 389 0000 272D6D63 		.ascii	"'-mcpu=cortex-m4''-mno-thumb-interwork''-mthumb''-g"
 389      70753D63 
 389      6F727465 
 389      782D6D34 
 389      27272D6D 
 390 0033 67646227 		.ascii	"gdb''-O2''-fomit-frame-pointer''-falign-functions=1"
 390      272D4F32 
 390      27272D66 
 390      6F6D6974 
 390      2D667261 
 391 0066 3627272D 		.ascii	"6''-ffunction-sections''-fdata-sections''-fno-commo"
 391      6666756E 
 391      6374696F 
 391      6E2D7365 
 391      6374696F 
 392 0099 6E27272D 		.ascii	"n''-flto'\000"
 392      666C746F 
 392      2700
 393              		.text
 394              		.cfi_sections	.debug_frame
 395              		.section	.text.msg1_execute,"ax",%progbits
 396              		.align	2
 397              		.p2align 4,,15
 398              		.thumb
 399              		.thumb_func
 400              		.type	msg1_execute, %function
 401              	msg1_execute:
 402              	.LFB242:
 403              		.file 1 "../../../test/rt/testmsg.c"
 404              		.loc 1 66 0
 405              		.cfi_startproc
 406              		@ args = 0, pretend = 0, frame = 0
 407              		@ frame_needed = 0, uses_anonymous_args = 0
 408 0000 10B5     		push	{r4, lr}
 409              	.LCFI0:
 410              		.cfi_def_cfa_offset 8
 411              		.cfi_offset 4, -8
 412              		.cfi_offset 14, -4
 413              	.LBB16:
 414              	.LBB17:
 415              	.LBB18:
 416              	.LBB19:
 417              		.file 2 "../../../os/rt/include/chthreads.h"
 418              		.loc 2 176 0
 419 0002 40F20002 		movw	r2, #:lower16:ch
 420 0006 C0F20002 		movt	r2, #:upper16:ch
 421              	.LBE19:
ARM GAS  /tmp/ccjN8g1P.s 			page 31


 422              	.LBE18:
 423              	.LBE17:
 424              	.LBE16:
 425              		.loc 1 73 0
 426 000a 40F20003 		movw	r3, #:lower16:wa
 427              	.LBB23:
 428              	.LBB22:
 429              	.LBB21:
 430              	.LBB20:
 431              		.loc 2 176 0
 432 000e 9169     		ldr	r1, [r2, #24]
 433              	.LBE20:
 434              	.LBE21:
 435              	.LBE22:
 436              	.LBE23:
 437              		.loc 1 73 0
 438 0010 C0F20003 		movt	r3, #:upper16:wa
 439              		.loc 1 66 0
 440 0014 82B0     		sub	sp, sp, #8
 441              	.LCFI1:
 442              		.cfi_def_cfa_offset 16
 443              		.loc 1 73 0
 444 0016 8A68     		ldr	r2, [r1, #8]
 445 0018 1868     		ldr	r0, [r3, #0]
 446 001a 0091     		str	r1, [sp, #0]
 447 001c 40F20003 		movw	r3, #:lower16:thread
 448 0020 0132     		adds	r2, r2, #1
 449 0022 4FF4A471 		mov	r1, #328
 450 0026 C0F20003 		movt	r3, #:upper16:thread
 451 002a FFF7FEFF 		bl	chThdCreateStatic
 452              	.LVL0:
 453 002e 40F20003 		movw	r3, #:lower16:threads
 454 0032 C0F20003 		movt	r3, #:upper16:threads
 455 0036 1860     		str	r0, [r3, #0]
 456              		.loc 1 75 0
 457 0038 FFF7FEFF 		bl	chMsgWait
 458              	.LVL1:
 459              	.LBB24:
 460              	.LBB25:
 461              		.file 3 "../../../os/rt/include/chmsg.h"
 462              		.loc 3 98 0
 463 003c 046B     		ldr	r4, [r0, #48]
 464              	.LBE25:
 465              	.LBE24:
 466              		.loc 1 77 0
 467 003e 2146     		mov	r1, r4
 468 0040 FFF7FEFF 		bl	chMsgRelease
 469              	.LVL2:
 470              		.loc 1 78 0
 471 0044 E0B2     		uxtb	r0, r4
 472 0046 FFF7FEFF 		bl	test_emit_token
 473              	.LVL3:
 474              		.loc 1 79 0
 475 004a FFF7FEFF 		bl	chMsgWait
 476              	.LVL4:
 477              	.LBB26:
 478              	.LBB27:
ARM GAS  /tmp/ccjN8g1P.s 			page 32


 479              		.loc 3 98 0
 480 004e 046B     		ldr	r4, [r0, #48]
 481              	.LBE27:
 482              	.LBE26:
 483              		.loc 1 81 0
 484 0050 2146     		mov	r1, r4
 485 0052 FFF7FEFF 		bl	chMsgRelease
 486              	.LVL5:
 487              		.loc 1 82 0
 488 0056 E0B2     		uxtb	r0, r4
 489 0058 FFF7FEFF 		bl	test_emit_token
 490              	.LVL6:
 491              		.loc 1 83 0
 492 005c FFF7FEFF 		bl	chMsgWait
 493              	.LVL7:
 494              	.LBB28:
 495              	.LBB29:
 496              		.loc 3 98 0
 497 0060 046B     		ldr	r4, [r0, #48]
 498              	.LBE29:
 499              	.LBE28:
 500              		.loc 1 85 0
 501 0062 2146     		mov	r1, r4
 502 0064 FFF7FEFF 		bl	chMsgRelease
 503              	.LVL8:
 504              		.loc 1 86 0
 505 0068 E0B2     		uxtb	r0, r4
 506 006a FFF7FEFF 		bl	test_emit_token
 507              	.LVL9:
 508              		.loc 1 87 0
 509 006e 40F20001 		movw	r1, #:lower16:.LC0
 510 0072 0120     		movs	r0, #1
 511 0074 C0F20001 		movt	r1, #:upper16:.LC0
 512              		.loc 1 88 0
 513 0078 02B0     		add	sp, sp, #8
 514 007a BDE81040 		pop	{r4, lr}
 515              		.loc 1 87 0
 516 007e FFF7FEBF 		b	_test_assert_sequence
 517              	.LVL10:
 518              		.cfi_endproc
 519              	.LFE242:
 520              		.size	msg1_execute, .-msg1_execute
 521 0082 00BFAFF3 		.section	.text.thread,"ax",%progbits
 521      0080AFF3 
 521      0080AFF3 
 521      0080
 522              		.align	2
 523              		.p2align 4,,15
 524              		.thumb
 525              		.thumb_func
 526              		.type	thread, %function
 527              	thread:
 528              	.LFB241:
 529              		.loc 1 59 0
 530              		.cfi_startproc
 531              		@ args = 0, pretend = 0, frame = 0
 532              		@ frame_needed = 0, uses_anonymous_args = 0
ARM GAS  /tmp/ccjN8g1P.s 			page 33


 533              	.LVL11:
 534 0000 10B5     		push	{r4, lr}
 535              	.LCFI2:
 536              		.cfi_def_cfa_offset 8
 537              		.cfi_offset 4, -8
 538              		.cfi_offset 14, -4
 539              		.loc 1 61 0
 540 0002 4121     		movs	r1, #65
 541              		.loc 1 59 0
 542 0004 0446     		mov	r4, r0
 543              		.loc 1 61 0
 544 0006 FFF7FEFF 		bl	chMsgSend
 545              	.LVL12:
 546              		.loc 1 62 0
 547 000a 4221     		movs	r1, #66
 548 000c 2046     		mov	r0, r4
 549 000e FFF7FEFF 		bl	chMsgSend
 550              	.LVL13:
 551              		.loc 1 63 0
 552 0012 2046     		mov	r0, r4
 553 0014 4321     		movs	r1, #67
 554              		.loc 1 64 0
 555 0016 BDE81040 		pop	{r4, lr}
 556              		.loc 1 63 0
 557 001a FFF7FEBF 		b	chMsgSend
 558              	.LVL14:
 559              		.cfi_endproc
 560              	.LFE241:
 561              		.size	thread, .-thread
 562              		.global	patternmsg
 563              		.global	testmsg1
 564 001e 00BF     		.section	.rodata.testmsg1,"a",%progbits
 565              		.align	2
 566              		.type	testmsg1, %object
 567              		.size	testmsg1, 16
 568              	testmsg1:
 569 0000 04000000 		.word	.LC1
 570 0004 00000000 		.word	0
 571 0008 00000000 		.word	0
 572 000c 00000000 		.word	msg1_execute
 573              		.section	.rodata.str1.4,"aMS",%progbits,1
 574              		.align	2
 575              	.LC0:
 576 0000 41424300 		.ascii	"ABC\000"
 577              	.LC1:
 578 0004 4D657373 		.ascii	"Messages, loop\000"
 578      61676573 
 578      2C206C6F 
 578      6F7000
 579 0013 00       		.section	.rodata.patternmsg,"a",%progbits
 580              		.align	2
 581              		.type	patternmsg, %object
 582              		.size	patternmsg, 8
 583              	patternmsg:
 584 0000 00000000 		.word	testmsg1
 585 0004 00000000 		.word	0
 586              		.text
ARM GAS  /tmp/ccjN8g1P.s 			page 34


 587              	.Letext0:
 588              		.file 4 "/usr/local/bin/../lib/gcc/arm-none-eabi/4.7.2/include/stddef.h"
 589              		.file 5 "/usr/local/bin/../lib/gcc/arm-none-eabi/4.7.2/../../../../arm-none-eabi/include/stdint.h"
 590              		.file 6 "../../../os/rt/ports/ARMCMx/compilers/GCC/chtypes.h"
 591              		.file 7 "../../../os/rt/include/chsystypes.h"
 592              		.file 8 "../../../os/rt/include/chschd.h"
 593              		.file 9 "../../../os/rt/ports/ARMCMx/chcore.h"
 594              		.file 10 "../../../os/rt/ports/ARMCMx/chcore_v7m.h"
 595              		.file 11 "../../../os/rt/include/chtm.h"
 596              		.file 12 "../../../os/rt/include/chsem.h"
 597              		.file 13 "../../../os/rt/include/chmtx.h"
 598              		.file 14 "../../../test/rt/test.h"
 599              		.file 15 "../../../os/ext/CMSIS/include/core_cm4.h"
 600              		.section	.debug_info,"",%progbits
 601              	.Ldebug_info0:
 602 0000 2B0A0000 		.4byte	0xa2b
 603 0004 0200     		.2byte	0x2
 604 0006 00000000 		.4byte	.Ldebug_abbrev0
 605 000a 04       		.byte	0x4
 606 000b 01       		.uleb128 0x1
 607 000c 3D010000 		.4byte	.LASF118
 608 0010 01       		.byte	0x1
 609 0011 89010000 		.4byte	.LASF119
 610 0015 91040000 		.4byte	.LASF120
 611 0019 30000000 		.4byte	.Ldebug_ranges0+0x30
 612 001d 00000000 		.4byte	0
 613 0021 00000000 		.4byte	0
 614 0025 00000000 		.4byte	.Ldebug_line0
 615 0029 02       		.uleb128 0x2
 616 002a 04       		.byte	0x4
 617 002b 05       		.byte	0x5
 618 002c 696E7400 		.ascii	"int\000"
 619 0030 03       		.uleb128 0x3
 620 0031 FB010000 		.4byte	.LASF2
 621 0035 04       		.byte	0x4
 622 0036 D5       		.byte	0xd5
 623 0037 3B000000 		.4byte	0x3b
 624 003b 04       		.uleb128 0x4
 625 003c 04       		.byte	0x4
 626 003d 07       		.byte	0x7
 627 003e 7C000000 		.4byte	.LASF0
 628 0042 04       		.uleb128 0x4
 629 0043 01       		.byte	0x1
 630 0044 06       		.byte	0x6
 631 0045 03050000 		.4byte	.LASF1
 632 0049 03       		.uleb128 0x3
 633 004a 70020000 		.4byte	.LASF3
 634 004e 05       		.byte	0x5
 635 004f 2A       		.byte	0x2a
 636 0050 54000000 		.4byte	0x54
 637 0054 04       		.uleb128 0x4
 638 0055 01       		.byte	0x1
 639 0056 08       		.byte	0x8
 640 0057 58040000 		.4byte	.LASF4
 641 005b 04       		.uleb128 0x4
 642 005c 02       		.byte	0x2
 643 005d 05       		.byte	0x5
ARM GAS  /tmp/ccjN8g1P.s 			page 35


 644 005e 5F030000 		.4byte	.LASF5
 645 0062 04       		.uleb128 0x4
 646 0063 02       		.byte	0x2
 647 0064 07       		.byte	0x7
 648 0065 0F050000 		.4byte	.LASF6
 649 0069 03       		.uleb128 0x3
 650 006a 3A040000 		.4byte	.LASF7
 651 006e 05       		.byte	0x5
 652 006f 4F       		.byte	0x4f
 653 0070 74000000 		.4byte	0x74
 654 0074 04       		.uleb128 0x4
 655 0075 04       		.byte	0x4
 656 0076 05       		.byte	0x5
 657 0077 86030000 		.4byte	.LASF8
 658 007b 03       		.uleb128 0x3
 659 007c 21010000 		.4byte	.LASF9
 660 0080 05       		.byte	0x5
 661 0081 50       		.byte	0x50
 662 0082 86000000 		.4byte	0x86
 663 0086 04       		.uleb128 0x4
 664 0087 04       		.byte	0x4
 665 0088 07       		.byte	0x7
 666 0089 FD030000 		.4byte	.LASF10
 667 008d 04       		.uleb128 0x4
 668 008e 08       		.byte	0x8
 669 008f 05       		.byte	0x5
 670 0090 B8020000 		.4byte	.LASF11
 671 0094 03       		.uleb128 0x3
 672 0095 CB030000 		.4byte	.LASF12
 673 0099 05       		.byte	0x5
 674 009a 78       		.byte	0x78
 675 009b 9F000000 		.4byte	0x9f
 676 009f 04       		.uleb128 0x4
 677 00a0 08       		.byte	0x8
 678 00a1 07       		.byte	0x7
 679 00a2 A4010000 		.4byte	.LASF13
 680 00a6 03       		.uleb128 0x3
 681 00a7 4C030000 		.4byte	.LASF14
 682 00ab 06       		.byte	0x6
 683 00ac 39       		.byte	0x39
 684 00ad 7B000000 		.4byte	0x7b
 685 00b1 03       		.uleb128 0x3
 686 00b2 39030000 		.4byte	.LASF15
 687 00b6 06       		.byte	0x6
 688 00b7 3C       		.byte	0x3c
 689 00b8 49000000 		.4byte	0x49
 690 00bc 03       		.uleb128 0x3
 691 00bd 57020000 		.4byte	.LASF16
 692 00c1 06       		.byte	0x6
 693 00c2 3D       		.byte	0x3d
 694 00c3 49000000 		.4byte	0x49
 695 00c7 03       		.uleb128 0x3
 696 00c8 F5030000 		.4byte	.LASF17
 697 00cc 06       		.byte	0x6
 698 00cd 3E       		.byte	0x3e
 699 00ce 49000000 		.4byte	0x49
 700 00d2 03       		.uleb128 0x3
ARM GAS  /tmp/ccjN8g1P.s 			page 36


 701 00d3 68010000 		.4byte	.LASF18
 702 00d7 06       		.byte	0x6
 703 00d8 40       		.byte	0x40
 704 00d9 7B000000 		.4byte	0x7b
 705 00dd 03       		.uleb128 0x3
 706 00de D6020000 		.4byte	.LASF19
 707 00e2 06       		.byte	0x6
 708 00e3 41       		.byte	0x41
 709 00e4 69000000 		.4byte	0x69
 710 00e8 03       		.uleb128 0x3
 711 00e9 2A010000 		.4byte	.LASF20
 712 00ed 06       		.byte	0x6
 713 00ee 43       		.byte	0x43
 714 00ef 7B000000 		.4byte	0x7b
 715 00f3 03       		.uleb128 0x3
 716 00f4 C4010000 		.4byte	.LASF21
 717 00f8 06       		.byte	0x6
 718 00f9 45       		.byte	0x45
 719 00fa 69000000 		.4byte	0x69
 720 00fe 03       		.uleb128 0x3
 721 00ff 57000000 		.4byte	.LASF22
 722 0103 07       		.byte	0x7
 723 0104 33       		.byte	0x33
 724 0105 7B000000 		.4byte	0x7b
 725 0109 03       		.uleb128 0x3
 726 010a F2010000 		.4byte	.LASF23
 727 010e 07       		.byte	0x7
 728 010f 3F       		.byte	0x3f
 729 0110 14010000 		.4byte	0x114
 730 0114 05       		.uleb128 0x5
 731 0115 8A020000 		.4byte	.LASF43
 732 0119 44       		.byte	0x44
 733 011a 08       		.byte	0x8
 734 011b C2       		.byte	0xc2
 735 011c 25020000 		.4byte	0x225
 736 0120 06       		.uleb128 0x6
 737 0121 C4030000 		.4byte	.LASF24
 738 0125 08       		.byte	0x8
 739 0126 C3       		.byte	0xc3
 740 0127 30020000 		.4byte	0x230
 741 012b 02       		.byte	0x2
 742 012c 23       		.byte	0x23
 743 012d 00       		.uleb128 0
 744 012e 06       		.uleb128 0x6
 745 012f E5030000 		.4byte	.LASF25
 746 0133 08       		.byte	0x8
 747 0134 C5       		.byte	0xc5
 748 0135 30020000 		.4byte	0x230
 749 0139 02       		.byte	0x2
 750 013a 23       		.byte	0x23
 751 013b 04       		.uleb128 0x4
 752 013c 06       		.uleb128 0x6
 753 013d 50000000 		.4byte	.LASF26
 754 0141 08       		.byte	0x8
 755 0142 C7       		.byte	0xc7
 756 0143 D2000000 		.4byte	0xd2
 757 0147 02       		.byte	0x2
ARM GAS  /tmp/ccjN8g1P.s 			page 37


 758 0148 23       		.byte	0x23
 759 0149 08       		.uleb128 0x8
 760 014a 06       		.uleb128 0x6
 761 014b D4030000 		.4byte	.LASF27
 762 014f 08       		.byte	0x8
 763 0150 C8       		.byte	0xc8
 764 0151 93040000 		.4byte	0x493
 765 0155 02       		.byte	0x2
 766 0156 23       		.byte	0x23
 767 0157 0C       		.uleb128 0xc
 768 0158 06       		.uleb128 0x6
 769 0159 D3010000 		.4byte	.LASF28
 770 015d 08       		.byte	0x8
 771 015e CA       		.byte	0xca
 772 015f 30020000 		.4byte	0x230
 773 0163 02       		.byte	0x2
 774 0164 23       		.byte	0x23
 775 0165 10       		.uleb128 0x10
 776 0166 06       		.uleb128 0x6
 777 0167 60020000 		.4byte	.LASF29
 778 016b 08       		.byte	0x8
 779 016c CB       		.byte	0xcb
 780 016d 30020000 		.4byte	0x230
 781 0171 02       		.byte	0x2
 782 0172 23       		.byte	0x23
 783 0173 14       		.uleb128 0x14
 784 0174 06       		.uleb128 0x6
 785 0175 28020000 		.4byte	.LASF30
 786 0179 08       		.byte	0x8
 787 017a D2       		.byte	0xd2
 788 017b 32060000 		.4byte	0x632
 789 017f 02       		.byte	0x2
 790 0180 23       		.byte	0x23
 791 0181 18       		.uleb128 0x18
 792 0182 06       		.uleb128 0x6
 793 0183 68020000 		.4byte	.LASF31
 794 0187 08       		.byte	0x8
 795 0188 DD       		.byte	0xdd
 796 0189 BC000000 		.4byte	0xbc
 797 018d 02       		.byte	0x2
 798 018e 23       		.byte	0x23
 799 018f 1C       		.uleb128 0x1c
 800 0190 06       		.uleb128 0x6
 801 0191 F7020000 		.4byte	.LASF32
 802 0195 08       		.byte	0x8
 803 0196 E1       		.byte	0xe1
 804 0197 B1000000 		.4byte	0xb1
 805 019b 02       		.byte	0x2
 806 019c 23       		.byte	0x23
 807 019d 1D       		.uleb128 0x1d
 808 019e 06       		.uleb128 0x6
 809 019f 82040000 		.4byte	.LASF33
 810 01a3 08       		.byte	0x8
 811 01a4 E6       		.byte	0xe6
 812 01a5 C7000000 		.4byte	0xc7
 813 01a9 02       		.byte	0x2
 814 01aa 23       		.byte	0x23
ARM GAS  /tmp/ccjN8g1P.s 			page 38


 815 01ab 1E       		.uleb128 0x1e
 816 01ac 07       		.uleb128 0x7
 817 01ad 705F7500 		.ascii	"p_u\000"
 818 01b1 08       		.byte	0x8
 819 01b2 3101     		.2byte	0x131
 820 01b4 63050000 		.4byte	0x563
 821 01b8 02       		.byte	0x2
 822 01b9 23       		.byte	0x23
 823 01ba 20       		.uleb128 0x20
 824 01bb 08       		.uleb128 0x8
 825 01bc 20000000 		.4byte	.LASF34
 826 01c0 08       		.byte	0x8
 827 01c1 3601     		.2byte	0x136
 828 01c3 36020000 		.4byte	0x236
 829 01c7 02       		.byte	0x2
 830 01c8 23       		.byte	0x23
 831 01c9 24       		.uleb128 0x24
 832 01ca 08       		.uleb128 0x8
 833 01cb 71000000 		.4byte	.LASF35
 834 01cf 08       		.byte	0x8
 835 01d0 3C01     		.2byte	0x13c
 836 01d2 5C020000 		.4byte	0x25c
 837 01d6 02       		.byte	0x2
 838 01d7 23       		.byte	0x23
 839 01d8 28       		.uleb128 0x28
 840 01d9 08       		.uleb128 0x8
 841 01da 33030000 		.4byte	.LASF36
 842 01de 08       		.byte	0x8
 843 01df 4001     		.2byte	0x140
 844 01e1 DD000000 		.4byte	0xdd
 845 01e5 02       		.byte	0x2
 846 01e6 23       		.byte	0x23
 847 01e7 30       		.uleb128 0x30
 848 01e8 08       		.uleb128 0x8
 849 01e9 73030000 		.4byte	.LASF37
 850 01ed 08       		.byte	0x8
 851 01ee 4601     		.2byte	0x146
 852 01f0 E8000000 		.4byte	0xe8
 853 01f4 02       		.byte	0x2
 854 01f5 23       		.byte	0x23
 855 01f6 34       		.uleb128 0x34
 856 01f7 08       		.uleb128 0x8
 857 01f8 80020000 		.4byte	.LASF38
 858 01fc 08       		.byte	0x8
 859 01fd 4D01     		.2byte	0x14d
 860 01ff 2C060000 		.4byte	0x62c
 861 0203 02       		.byte	0x2
 862 0204 23       		.byte	0x23
 863 0205 38       		.uleb128 0x38
 864 0206 08       		.uleb128 0x8
 865 0207 54030000 		.4byte	.LASF39
 866 020b 08       		.byte	0x8
 867 020c 5101     		.2byte	0x151
 868 020e D2000000 		.4byte	0xd2
 869 0212 02       		.byte	0x2
 870 0213 23       		.byte	0x23
 871 0214 3C       		.uleb128 0x3c
ARM GAS  /tmp/ccjN8g1P.s 			page 39


 872 0215 08       		.uleb128 0x8
 873 0216 78020000 		.4byte	.LASF40
 874 021a 08       		.byte	0x8
 875 021b 5801     		.2byte	0x158
 876 021d 20030000 		.4byte	0x320
 877 0221 02       		.byte	0x2
 878 0222 23       		.byte	0x23
 879 0223 40       		.uleb128 0x40
 880 0224 00       		.byte	0
 881 0225 03       		.uleb128 0x3
 882 0226 38020000 		.4byte	.LASF41
 883 022a 07       		.byte	0x7
 884 022b 44       		.byte	0x44
 885 022c 30020000 		.4byte	0x230
 886 0230 09       		.uleb128 0x9
 887 0231 04       		.byte	0x4
 888 0232 09010000 		.4byte	0x109
 889 0236 03       		.uleb128 0x3
 890 0237 99000000 		.4byte	.LASF42
 891 023b 07       		.byte	0x7
 892 023c 49       		.byte	0x49
 893 023d 41020000 		.4byte	0x241
 894 0241 05       		.uleb128 0x5
 895 0242 00000000 		.4byte	.LASF44
 896 0246 04       		.byte	0x4
 897 0247 08       		.byte	0x8
 898 0248 B0       		.byte	0xb0
 899 0249 5C020000 		.4byte	0x25c
 900 024d 06       		.uleb128 0x6
 901 024e C4030000 		.4byte	.LASF24
 902 0252 08       		.byte	0x8
 903 0253 B1       		.byte	0xb1
 904 0254 30020000 		.4byte	0x230
 905 0258 02       		.byte	0x2
 906 0259 23       		.byte	0x23
 907 025a 00       		.uleb128 0
 908 025b 00       		.byte	0
 909 025c 03       		.uleb128 0x3
 910 025d 10000000 		.4byte	.LASF45
 911 0261 07       		.byte	0x7
 912 0262 50       		.byte	0x50
 913 0263 67020000 		.4byte	0x267
 914 0267 05       		.uleb128 0x5
 915 0268 E4000000 		.4byte	.LASF46
 916 026c 08       		.byte	0x8
 917 026d 08       		.byte	0x8
 918 026e B7       		.byte	0xb7
 919 026f 90020000 		.4byte	0x290
 920 0273 06       		.uleb128 0x6
 921 0274 C4030000 		.4byte	.LASF24
 922 0278 08       		.byte	0x8
 923 0279 B8       		.byte	0xb8
 924 027a 30020000 		.4byte	0x230
 925 027e 02       		.byte	0x2
 926 027f 23       		.byte	0x23
 927 0280 00       		.uleb128 0
 928 0281 06       		.uleb128 0x6
ARM GAS  /tmp/ccjN8g1P.s 			page 40


 929 0282 E5030000 		.4byte	.LASF25
 930 0286 08       		.byte	0x8
 931 0287 B9       		.byte	0xb9
 932 0288 30020000 		.4byte	0x230
 933 028c 02       		.byte	0x2
 934 028d 23       		.byte	0x23
 935 028e 04       		.uleb128 0x4
 936 028f 00       		.byte	0
 937 0290 03       		.uleb128 0x3
 938 0291 0F040000 		.4byte	.LASF47
 939 0295 07       		.byte	0x7
 940 0296 57       		.byte	0x57
 941 0297 9B020000 		.4byte	0x29b
 942 029b 0A       		.uleb128 0xa
 943 029c C0000000 		.4byte	.LASF48
 944 02a0 1C       		.byte	0x1c
 945 02a1 08       		.byte	0x8
 946 02a2 9001     		.2byte	0x190
 947 02a4 03030000 		.4byte	0x303
 948 02a8 08       		.uleb128 0x8
 949 02a9 C6020000 		.4byte	.LASF49
 950 02ad 08       		.byte	0x8
 951 02ae 9101     		.2byte	0x191
 952 02b0 5C020000 		.4byte	0x25c
 953 02b4 02       		.byte	0x2
 954 02b5 23       		.byte	0x23
 955 02b6 00       		.uleb128 0
 956 02b7 08       		.uleb128 0x8
 957 02b8 36010000 		.4byte	.LASF50
 958 02bc 08       		.byte	0x8
 959 02bd 9201     		.2byte	0x192
 960 02bf D2000000 		.4byte	0xd2
 961 02c3 02       		.byte	0x2
 962 02c4 23       		.byte	0x23
 963 02c5 08       		.uleb128 0x8
 964 02c6 08       		.uleb128 0x8
 965 02c7 22050000 		.4byte	.LASF51
 966 02cb 08       		.byte	0x8
 967 02cc 9401     		.2byte	0x194
 968 02ce 93040000 		.4byte	0x493
 969 02d2 02       		.byte	0x2
 970 02d3 23       		.byte	0x23
 971 02d4 0C       		.uleb128 0xc
 972 02d5 08       		.uleb128 0x8
 973 02d6 CE020000 		.4byte	.LASF52
 974 02da 08       		.byte	0x8
 975 02db 9701     		.2byte	0x197
 976 02dd 30020000 		.4byte	0x230
 977 02e1 02       		.byte	0x2
 978 02e2 23       		.byte	0x23
 979 02e3 10       		.uleb128 0x10
 980 02e4 08       		.uleb128 0x8
 981 02e5 0F030000 		.4byte	.LASF53
 982 02e9 08       		.byte	0x8
 983 02ea 9801     		.2byte	0x198
 984 02ec 30020000 		.4byte	0x230
 985 02f0 02       		.byte	0x2
ARM GAS  /tmp/ccjN8g1P.s 			page 41


 986 02f1 23       		.byte	0x23
 987 02f2 14       		.uleb128 0x14
 988 02f3 08       		.uleb128 0x8
 989 02f4 69030000 		.4byte	.LASF54
 990 02f8 08       		.byte	0x8
 991 02f9 9B01     		.2byte	0x19b
 992 02fb 30020000 		.4byte	0x230
 993 02ff 02       		.byte	0x2
 994 0300 23       		.byte	0x23
 995 0301 18       		.uleb128 0x18
 996 0302 00       		.byte	0
 997 0303 03       		.uleb128 0x3
 998 0304 F5000000 		.4byte	.LASF55
 999 0308 07       		.byte	0x7
 1000 0309 5C       		.byte	0x5c
 1001 030a 0E030000 		.4byte	0x30e
 1002 030e 09       		.uleb128 0x9
 1003 030f 04       		.byte	0x4
 1004 0310 14030000 		.4byte	0x314
 1005 0314 0B       		.uleb128 0xb
 1006 0315 01       		.byte	0x1
 1007 0316 20030000 		.4byte	0x320
 1008 031a 0C       		.uleb128 0xc
 1009 031b 20030000 		.4byte	0x320
 1010 031f 00       		.byte	0
 1011 0320 0D       		.uleb128 0xd
 1012 0321 04       		.byte	0x4
 1013 0322 03       		.uleb128 0x3
 1014 0323 FF020000 		.4byte	.LASF56
 1015 0327 07       		.byte	0x7
 1016 0328 61       		.byte	0x61
 1017 0329 2D030000 		.4byte	0x32d
 1018 032d 0A       		.uleb128 0xa
 1019 032e 70010000 		.4byte	.LASF57
 1020 0332 14       		.byte	0x14
 1021 0333 08       		.byte	0x8
 1022 0334 6B01     		.2byte	0x16b
 1023 0336 86030000 		.4byte	0x386
 1024 033a 08       		.uleb128 0x8
 1025 033b 89040000 		.4byte	.LASF58
 1026 033f 08       		.byte	0x8
 1027 0340 6C01     		.2byte	0x16c
 1028 0342 44060000 		.4byte	0x644
 1029 0346 02       		.byte	0x2
 1030 0347 23       		.byte	0x23
 1031 0348 00       		.uleb128 0
 1032 0349 08       		.uleb128 0x8
 1033 034a 49050000 		.4byte	.LASF59
 1034 034e 08       		.byte	0x8
 1035 034f 6D01     		.2byte	0x16d
 1036 0351 44060000 		.4byte	0x644
 1037 0355 02       		.byte	0x2
 1038 0356 23       		.byte	0x23
 1039 0357 04       		.uleb128 0x4
 1040 0358 08       		.uleb128 0x8
 1041 0359 2F020000 		.4byte	.LASF60
 1042 035d 08       		.byte	0x8
ARM GAS  /tmp/ccjN8g1P.s 			page 42


 1043 035e 6E01     		.2byte	0x16e
 1044 0360 FE000000 		.4byte	0xfe
 1045 0364 02       		.byte	0x2
 1046 0365 23       		.byte	0x23
 1047 0366 08       		.uleb128 0x8
 1048 0367 08       		.uleb128 0x8
 1049 0368 41050000 		.4byte	.LASF61
 1050 036c 08       		.byte	0x8
 1051 036d 6F01     		.2byte	0x16f
 1052 036f 03030000 		.4byte	0x303
 1053 0373 02       		.byte	0x2
 1054 0374 23       		.byte	0x23
 1055 0375 0C       		.uleb128 0xc
 1056 0376 08       		.uleb128 0x8
 1057 0377 49010000 		.4byte	.LASF62
 1058 037b 08       		.byte	0x8
 1059 037c 7101     		.2byte	0x171
 1060 037e 20030000 		.4byte	0x320
 1061 0382 02       		.byte	0x2
 1062 0383 23       		.byte	0x23
 1063 0384 10       		.uleb128 0x10
 1064 0385 00       		.byte	0
 1065 0386 03       		.uleb128 0x3
 1066 0387 6C040000 		.4byte	.LASF63
 1067 038b 07       		.byte	0x7
 1068 038c 66       		.byte	0x66
 1069 038d 91030000 		.4byte	0x391
 1070 0391 0A       		.uleb128 0xa
 1071 0392 DB010000 		.4byte	.LASF64
 1072 0396 10       		.byte	0x10
 1073 0397 08       		.byte	0x8
 1074 0398 7B01     		.2byte	0x17b
 1075 039a DB030000 		.4byte	0x3db
 1076 039e 08       		.uleb128 0x8
 1077 039f 89040000 		.4byte	.LASF58
 1078 03a3 08       		.byte	0x8
 1079 03a4 7C01     		.2byte	0x17c
 1080 03a6 44060000 		.4byte	0x644
 1081 03aa 02       		.byte	0x2
 1082 03ab 23       		.byte	0x23
 1083 03ac 00       		.uleb128 0
 1084 03ad 08       		.uleb128 0x8
 1085 03ae 49050000 		.4byte	.LASF59
 1086 03b2 08       		.byte	0x8
 1087 03b3 7E01     		.2byte	0x17e
 1088 03b5 44060000 		.4byte	0x644
 1089 03b9 02       		.byte	0x2
 1090 03ba 23       		.byte	0x23
 1091 03bb 04       		.uleb128 0x4
 1092 03bc 08       		.uleb128 0x8
 1093 03bd 2F020000 		.4byte	.LASF60
 1094 03c1 08       		.byte	0x8
 1095 03c2 8001     		.2byte	0x180
 1096 03c4 FE000000 		.4byte	0xfe
 1097 03c8 02       		.byte	0x2
 1098 03c9 23       		.byte	0x23
 1099 03ca 08       		.uleb128 0x8
ARM GAS  /tmp/ccjN8g1P.s 			page 43


 1100 03cb 08       		.uleb128 0x8
 1101 03cc 4B020000 		.4byte	.LASF65
 1102 03d0 08       		.byte	0x8
 1103 03d1 8801     		.2byte	0x188
 1104 03d3 FE000000 		.4byte	0xfe
 1105 03d7 02       		.byte	0x2
 1106 03d8 23       		.byte	0x23
 1107 03d9 0C       		.uleb128 0xc
 1108 03da 00       		.byte	0
 1109 03db 03       		.uleb128 0x3
 1110 03dc A9020000 		.4byte	.LASF66
 1111 03e0 07       		.byte	0x7
 1112 03e1 6B       		.byte	0x6b
 1113 03e2 E6030000 		.4byte	0x3e6
 1114 03e6 0A       		.uleb128 0xa
 1115 03e7 11010000 		.4byte	.LASF67
 1116 03eb 04       		.byte	0x4
 1117 03ec 08       		.byte	0x8
 1118 03ed A201     		.2byte	0x1a2
 1119 03ef 03040000 		.4byte	0x403
 1120 03f3 08       		.uleb128 0x8
 1121 03f4 17030000 		.4byte	.LASF68
 1122 03f8 08       		.byte	0x8
 1123 03f9 AA01     		.2byte	0x1aa
 1124 03fb 4A060000 		.4byte	0x64a
 1125 03ff 02       		.byte	0x2
 1126 0400 23       		.byte	0x23
 1127 0401 00       		.uleb128 0
 1128 0402 00       		.byte	0
 1129 0403 03       		.uleb128 0x3
 1130 0404 EA040000 		.4byte	.LASF69
 1131 0408 07       		.byte	0x7
 1132 0409 70       		.byte	0x70
 1133 040a 0E040000 		.4byte	0x40e
 1134 040e 0E       		.uleb128 0xe
 1135 040f BA030000 		.4byte	.LASF70
 1136 0413 5001     		.2byte	0x150
 1137 0415 08       		.byte	0x8
 1138 0416 C201     		.2byte	0x1c2
 1139 0418 76040000 		.4byte	0x476
 1140 041c 08       		.uleb128 0x8
 1141 041d DA030000 		.4byte	.LASF71
 1142 0421 08       		.byte	0x8
 1143 0422 C601     		.2byte	0x1c6
 1144 0424 90020000 		.4byte	0x290
 1145 0428 02       		.byte	0x2
 1146 0429 23       		.byte	0x23
 1147 042a 00       		.uleb128 0
 1148 042b 08       		.uleb128 0x8
 1149 042c B9000000 		.4byte	.LASF72
 1150 0430 08       		.byte	0x8
 1151 0431 CA01     		.2byte	0x1ca
 1152 0433 86030000 		.4byte	0x386
 1153 0437 02       		.byte	0x2
 1154 0438 23       		.byte	0x23
 1155 0439 1C       		.uleb128 0x1c
 1156 043a 07       		.uleb128 0x7
ARM GAS  /tmp/ccjN8g1P.s 			page 44


 1157 043b 64626700 		.ascii	"dbg\000"
 1158 043f 08       		.byte	0x8
 1159 0440 CE01     		.2byte	0x1ce
 1160 0442 DB030000 		.4byte	0x3db
 1161 0446 02       		.byte	0x2
 1162 0447 23       		.byte	0x23
 1163 0448 2C       		.uleb128 0x2c
 1164 0449 08       		.uleb128 0x8
 1165 044a 41030000 		.4byte	.LASF73
 1166 044e 08       		.byte	0x8
 1167 044f D201     		.2byte	0x1d2
 1168 0451 09010000 		.4byte	0x109
 1169 0455 02       		.byte	0x2
 1170 0456 23       		.byte	0x23
 1171 0457 30       		.uleb128 0x30
 1172 0458 07       		.uleb128 0x7
 1173 0459 746D00   		.ascii	"tm\000"
 1174 045c 08       		.byte	0x8
 1175 045d D701     		.2byte	0x1d7
 1176 045f 58050000 		.4byte	0x558
 1177 0463 02       		.byte	0x2
 1178 0464 23       		.byte	0x23
 1179 0465 74       		.uleb128 0x74
 1180 0466 08       		.uleb128 0x8
 1181 0467 CE000000 		.4byte	.LASF74
 1182 046b 08       		.byte	0x8
 1183 046c E301     		.2byte	0x1e3
 1184 046e 4F060000 		.4byte	0x64f
 1185 0472 02       		.byte	0x2
 1186 0473 23       		.byte	0x23
 1187 0474 78       		.uleb128 0x78
 1188 0475 00       		.byte	0
 1189 0476 04       		.uleb128 0x4
 1190 0477 04       		.byte	0x4
 1191 0478 07       		.byte	0x7
 1192 0479 EC030000 		.4byte	.LASF75
 1193 047d 03       		.uleb128 0x3
 1194 047e 47000000 		.4byte	.LASF76
 1195 0482 09       		.byte	0x9
 1196 0483 65       		.byte	0x65
 1197 0484 20030000 		.4byte	0x320
 1198 0488 03       		.uleb128 0x3
 1199 0489 28050000 		.4byte	.LASF77
 1200 048d 09       		.byte	0x9
 1201 048e 6D       		.byte	0x6d
 1202 048f 94000000 		.4byte	0x94
 1203 0493 05       		.uleb128 0x5
 1204 0494 E6020000 		.4byte	.LASF78
 1205 0498 04       		.byte	0x4
 1206 0499 09       		.byte	0x9
 1207 049a 89       		.byte	0x89
 1208 049b AE040000 		.4byte	0x4ae
 1209 049f 0F       		.uleb128 0xf
 1210 04a0 72313300 		.ascii	"r13\000"
 1211 04a4 09       		.byte	0x9
 1212 04a5 8A       		.byte	0x8a
 1213 04a6 3B050000 		.4byte	0x53b
ARM GAS  /tmp/ccjN8g1P.s 			page 45


 1214 04aa 02       		.byte	0x2
 1215 04ab 23       		.byte	0x23
 1216 04ac 00       		.uleb128 0
 1217 04ad 00       		.byte	0
 1218 04ae 05       		.uleb128 0x5
 1219 04af 8F030000 		.4byte	.LASF79
 1220 04b3 24       		.byte	0x24
 1221 04b4 0A       		.byte	0xa
 1222 04b5 FD       		.byte	0xfd
 1223 04b6 3B050000 		.4byte	0x53b
 1224 04ba 07       		.uleb128 0x7
 1225 04bb 723400   		.ascii	"r4\000"
 1226 04be 0A       		.byte	0xa
 1227 04bf 1001     		.2byte	0x110
 1228 04c1 7D040000 		.4byte	0x47d
 1229 04c5 02       		.byte	0x2
 1230 04c6 23       		.byte	0x23
 1231 04c7 00       		.uleb128 0
 1232 04c8 07       		.uleb128 0x7
 1233 04c9 723500   		.ascii	"r5\000"
 1234 04cc 0A       		.byte	0xa
 1235 04cd 1101     		.2byte	0x111
 1236 04cf 7D040000 		.4byte	0x47d
 1237 04d3 02       		.byte	0x2
 1238 04d4 23       		.byte	0x23
 1239 04d5 04       		.uleb128 0x4
 1240 04d6 07       		.uleb128 0x7
 1241 04d7 723600   		.ascii	"r6\000"
 1242 04da 0A       		.byte	0xa
 1243 04db 1201     		.2byte	0x112
 1244 04dd 7D040000 		.4byte	0x47d
 1245 04e1 02       		.byte	0x2
 1246 04e2 23       		.byte	0x23
 1247 04e3 08       		.uleb128 0x8
 1248 04e4 07       		.uleb128 0x7
 1249 04e5 723700   		.ascii	"r7\000"
 1250 04e8 0A       		.byte	0xa
 1251 04e9 1301     		.2byte	0x113
 1252 04eb 7D040000 		.4byte	0x47d
 1253 04ef 02       		.byte	0x2
 1254 04f0 23       		.byte	0x23
 1255 04f1 0C       		.uleb128 0xc
 1256 04f2 07       		.uleb128 0x7
 1257 04f3 723800   		.ascii	"r8\000"
 1258 04f6 0A       		.byte	0xa
 1259 04f7 1401     		.2byte	0x114
 1260 04f9 7D040000 		.4byte	0x47d
 1261 04fd 02       		.byte	0x2
 1262 04fe 23       		.byte	0x23
 1263 04ff 10       		.uleb128 0x10
 1264 0500 07       		.uleb128 0x7
 1265 0501 723900   		.ascii	"r9\000"
 1266 0504 0A       		.byte	0xa
 1267 0505 1501     		.2byte	0x115
 1268 0507 7D040000 		.4byte	0x47d
 1269 050b 02       		.byte	0x2
 1270 050c 23       		.byte	0x23
ARM GAS  /tmp/ccjN8g1P.s 			page 46


 1271 050d 14       		.uleb128 0x14
 1272 050e 07       		.uleb128 0x7
 1273 050f 72313000 		.ascii	"r10\000"
 1274 0513 0A       		.byte	0xa
 1275 0514 1601     		.2byte	0x116
 1276 0516 7D040000 		.4byte	0x47d
 1277 051a 02       		.byte	0x2
 1278 051b 23       		.byte	0x23
 1279 051c 18       		.uleb128 0x18
 1280 051d 07       		.uleb128 0x7
 1281 051e 72313100 		.ascii	"r11\000"
 1282 0522 0A       		.byte	0xa
 1283 0523 1701     		.2byte	0x117
 1284 0525 7D040000 		.4byte	0x47d
 1285 0529 02       		.byte	0x2
 1286 052a 23       		.byte	0x23
 1287 052b 1C       		.uleb128 0x1c
 1288 052c 07       		.uleb128 0x7
 1289 052d 6C7200   		.ascii	"lr\000"
 1290 0530 0A       		.byte	0xa
 1291 0531 1801     		.2byte	0x118
 1292 0533 7D040000 		.4byte	0x47d
 1293 0537 02       		.byte	0x2
 1294 0538 23       		.byte	0x23
 1295 0539 20       		.uleb128 0x20
 1296 053a 00       		.byte	0
 1297 053b 09       		.uleb128 0x9
 1298 053c 04       		.byte	0x4
 1299 053d AE040000 		.4byte	0x4ae
 1300 0541 10       		.uleb128 0x10
 1301 0542 04       		.byte	0x4
 1302 0543 0B       		.byte	0xb
 1303 0544 38       		.byte	0x38
 1304 0545 58050000 		.4byte	0x558
 1305 0549 06       		.uleb128 0x6
 1306 054a 09020000 		.4byte	.LASF80
 1307 054e 0B       		.byte	0xb
 1308 054f 3C       		.byte	0x3c
 1309 0550 A6000000 		.4byte	0xa6
 1310 0554 02       		.byte	0x2
 1311 0555 23       		.byte	0x23
 1312 0556 00       		.uleb128 0
 1313 0557 00       		.byte	0
 1314 0558 03       		.uleb128 0x3
 1315 0559 31000000 		.4byte	.LASF81
 1316 055d 0B       		.byte	0xb
 1317 055e 3D       		.byte	0x3d
 1318 055f 41050000 		.4byte	0x541
 1319 0563 11       		.uleb128 0x11
 1320 0564 04       		.byte	0x4
 1321 0565 08       		.byte	0x8
 1322 0566 FA       		.byte	0xfa
 1323 0567 C0050000 		.4byte	0x5c0
 1324 056b 12       		.uleb128 0x12
 1325 056c 02020000 		.4byte	.LASF82
 1326 0570 08       		.byte	0x8
 1327 0571 0101     		.2byte	0x101
ARM GAS  /tmp/ccjN8g1P.s 			page 47


 1328 0573 DD000000 		.4byte	0xdd
 1329 0577 12       		.uleb128 0x12
 1330 0578 51050000 		.4byte	.LASF83
 1331 057c 08       		.byte	0x8
 1332 057d 0801     		.2byte	0x108
 1333 057f DD000000 		.4byte	0xdd
 1334 0583 12       		.uleb128 0x12
 1335 0584 B2000000 		.4byte	.LASF84
 1336 0588 08       		.byte	0x8
 1337 0589 0F01     		.2byte	0x10f
 1338 058b 20030000 		.4byte	0x320
 1339 058f 12       		.uleb128 0x12
 1340 0590 F6040000 		.4byte	.LASF85
 1341 0594 08       		.byte	0x8
 1342 0595 1601     		.2byte	0x116
 1343 0597 C0050000 		.4byte	0x5c0
 1344 059b 12       		.uleb128 0x12
 1345 059c 49040000 		.4byte	.LASF86
 1346 05a0 08       		.byte	0x8
 1347 05a1 1E01     		.2byte	0x11e
 1348 05a3 EF050000 		.4byte	0x5ef
 1349 05a7 12       		.uleb128 0x12
 1350 05a8 2A000000 		.4byte	.LASF87
 1351 05ac 08       		.byte	0x8
 1352 05ad 2701     		.2byte	0x127
 1353 05af 2C060000 		.4byte	0x62c
 1354 05b3 12       		.uleb128 0x12
 1355 05b4 DD000000 		.4byte	.LASF88
 1356 05b8 08       		.byte	0x8
 1357 05b9 2F01     		.2byte	0x12f
 1358 05bb E8000000 		.4byte	0xe8
 1359 05bf 00       		.byte	0
 1360 05c0 09       		.uleb128 0x9
 1361 05c1 04       		.byte	0x4
 1362 05c2 25020000 		.4byte	0x225
 1363 05c6 05       		.uleb128 0x5
 1364 05c7 5B010000 		.4byte	.LASF89
 1365 05cb 0C       		.byte	0xc
 1366 05cc 0C       		.byte	0xc
 1367 05cd 34       		.byte	0x34
 1368 05ce EF050000 		.4byte	0x5ef
 1369 05d2 06       		.uleb128 0x6
 1370 05d3 69000000 		.4byte	.LASF90
 1371 05d7 0C       		.byte	0xc
 1372 05d8 35       		.byte	0x35
 1373 05d9 5C020000 		.4byte	0x25c
 1374 05dd 02       		.byte	0x2
 1375 05de 23       		.byte	0x23
 1376 05df 00       		.uleb128 0
 1377 05e0 06       		.uleb128 0x6
 1378 05e1 0B010000 		.4byte	.LASF91
 1379 05e5 0C       		.byte	0xc
 1380 05e6 37       		.byte	0x37
 1381 05e7 F3000000 		.4byte	0xf3
 1382 05eb 02       		.byte	0x2
 1383 05ec 23       		.byte	0x23
 1384 05ed 08       		.uleb128 0x8
ARM GAS  /tmp/ccjN8g1P.s 			page 48


 1385 05ee 00       		.byte	0
 1386 05ef 09       		.uleb128 0x9
 1387 05f0 04       		.byte	0x4
 1388 05f1 C6050000 		.4byte	0x5c6
 1389 05f5 05       		.uleb128 0x5
 1390 05f6 1F020000 		.4byte	.LASF92
 1391 05fa 10       		.byte	0x10
 1392 05fb 0D       		.byte	0xd
 1393 05fc 39       		.byte	0x39
 1394 05fd 2C060000 		.4byte	0x62c
 1395 0601 06       		.uleb128 0x6
 1396 0602 7E030000 		.4byte	.LASF93
 1397 0606 0D       		.byte	0xd
 1398 0607 3A       		.byte	0x3a
 1399 0608 5C020000 		.4byte	0x25c
 1400 060c 02       		.byte	0x2
 1401 060d 23       		.byte	0x23
 1402 060e 00       		.uleb128 0
 1403 060f 06       		.uleb128 0x6
 1404 0610 61000000 		.4byte	.LASF94
 1405 0614 0D       		.byte	0xd
 1406 0615 3C       		.byte	0x3c
 1407 0616 30020000 		.4byte	0x230
 1408 061a 02       		.byte	0x2
 1409 061b 23       		.byte	0x23
 1410 061c 08       		.uleb128 0x8
 1411 061d 06       		.uleb128 0x6
 1412 061e FC040000 		.4byte	.LASF95
 1413 0622 0D       		.byte	0xd
 1414 0623 3E       		.byte	0x3e
 1415 0624 75060000 		.4byte	0x675
 1416 0628 02       		.byte	0x2
 1417 0629 23       		.byte	0x23
 1418 062a 0C       		.uleb128 0xc
 1419 062b 00       		.byte	0
 1420 062c 09       		.uleb128 0x9
 1421 062d 04       		.byte	0x4
 1422 062e F5050000 		.4byte	0x5f5
 1423 0632 09       		.uleb128 0x9
 1424 0633 04       		.byte	0x4
 1425 0634 38060000 		.4byte	0x638
 1426 0638 13       		.uleb128 0x13
 1427 0639 3D060000 		.4byte	0x63d
 1428 063d 04       		.uleb128 0x4
 1429 063e 01       		.byte	0x1
 1430 063f 08       		.byte	0x8
 1431 0640 42000000 		.4byte	.LASF96
 1432 0644 09       		.uleb128 0x9
 1433 0645 04       		.byte	0x4
 1434 0646 22030000 		.4byte	0x322
 1435 064a 14       		.uleb128 0x14
 1436 064b 32060000 		.4byte	0x632
 1437 064f 15       		.uleb128 0x15
 1438 0650 88040000 		.4byte	0x488
 1439 0654 5F060000 		.4byte	0x65f
 1440 0658 16       		.uleb128 0x16
 1441 0659 76040000 		.4byte	0x476
ARM GAS  /tmp/ccjN8g1P.s 			page 49


 1442 065d 1A       		.byte	0x1a
 1443 065e 00       		.byte	0
 1444 065f 03       		.uleb128 0x3
 1445 0660 81010000 		.4byte	.LASF97
 1446 0664 02       		.byte	0x2
 1447 0665 34       		.byte	0x34
 1448 0666 0E030000 		.4byte	0x30e
 1449 066a 03       		.uleb128 0x3
 1450 066b 50040000 		.4byte	.LASF98
 1451 066f 0D       		.byte	0xd
 1452 0670 34       		.byte	0x34
 1453 0671 F5050000 		.4byte	0x5f5
 1454 0675 09       		.uleb128 0x9
 1455 0676 04       		.byte	0x4
 1456 0677 6A060000 		.4byte	0x66a
 1457 067b 05       		.uleb128 0x5
 1458 067c CA010000 		.4byte	.LASF99
 1459 0680 10       		.byte	0x10
 1460 0681 0E       		.byte	0xe
 1461 0682 3B       		.byte	0x3b
 1462 0683 C0060000 		.4byte	0x6c0
 1463 0687 06       		.uleb128 0x6
 1464 0688 E0030000 		.4byte	.LASF100
 1465 068c 0E       		.byte	0xe
 1466 068d 3C       		.byte	0x3c
 1467 068e 32060000 		.4byte	0x632
 1468 0692 02       		.byte	0x2
 1469 0693 23       		.byte	0x23
 1470 0694 00       		.uleb128 0
 1471 0695 06       		.uleb128 0x6
 1472 0696 66040000 		.4byte	.LASF101
 1473 069a 0E       		.byte	0xe
 1474 069b 3D       		.byte	0x3d
 1475 069c C2060000 		.4byte	0x6c2
 1476 06a0 02       		.byte	0x2
 1477 06a1 23       		.byte	0x23
 1478 06a2 04       		.uleb128 0x4
 1479 06a3 06       		.uleb128 0x6
 1480 06a4 EE020000 		.4byte	.LASF102
 1481 06a8 0E       		.byte	0xe
 1482 06a9 3E       		.byte	0x3e
 1483 06aa C2060000 		.4byte	0x6c2
 1484 06ae 02       		.byte	0x2
 1485 06af 23       		.byte	0x23
 1486 06b0 08       		.uleb128 0x8
 1487 06b1 06       		.uleb128 0x6
 1488 06b2 94020000 		.4byte	.LASF103
 1489 06b6 0E       		.byte	0xe
 1490 06b7 3F       		.byte	0x3f
 1491 06b8 C2060000 		.4byte	0x6c2
 1492 06bc 02       		.byte	0x2
 1493 06bd 23       		.byte	0x23
 1494 06be 0C       		.uleb128 0xc
 1495 06bf 00       		.byte	0
 1496 06c0 17       		.uleb128 0x17
 1497 06c1 01       		.byte	0x1
 1498 06c2 09       		.uleb128 0x9
ARM GAS  /tmp/ccjN8g1P.s 			page 50


 1499 06c3 04       		.byte	0x4
 1500 06c4 C0060000 		.4byte	0x6c0
 1501 06c8 18       		.uleb128 0x18
 1502 06c9 33050000 		.4byte	.LASF104
 1503 06cd 02       		.byte	0x2
 1504 06ce AE       		.byte	0xae
 1505 06cf 01       		.byte	0x1
 1506 06d0 30020000 		.4byte	0x230
 1507 06d4 03       		.byte	0x3
 1508 06d5 18       		.uleb128 0x18
 1509 06d6 A8030000 		.4byte	.LASF105
 1510 06da 02       		.byte	0x2
 1511 06db BB       		.byte	0xbb
 1512 06dc 01       		.byte	0x1
 1513 06dd D2000000 		.4byte	0xd2
 1514 06e1 03       		.byte	0x3
 1515 06e2 19       		.uleb128 0x19
 1516 06e3 BB010000 		.4byte	.LASF121
 1517 06e7 03       		.byte	0x3
 1518 06e8 60       		.byte	0x60
 1519 06e9 01       		.byte	0x1
 1520 06ea DD000000 		.4byte	0xdd
 1521 06ee 03       		.byte	0x3
 1522 06ef FE060000 		.4byte	0x6fe
 1523 06f3 1A       		.uleb128 0x1a
 1524 06f4 747000   		.ascii	"tp\000"
 1525 06f7 03       		.byte	0x3
 1526 06f8 60       		.byte	0x60
 1527 06f9 30020000 		.4byte	0x230
 1528 06fd 00       		.byte	0
 1529 06fe 1B       		.uleb128 0x1b
 1530 06ff 9C020000 		.4byte	.LASF106
 1531 0703 01       		.byte	0x1
 1532 0704 42       		.byte	0x42
 1533 0705 01       		.byte	0x1
 1534 0706 00000000 		.4byte	.LFB242
 1535 070a 82000000 		.4byte	.LFE242
 1536 070e 00000000 		.4byte	.LLST0
 1537 0712 01       		.byte	0x1
 1538 0713 75080000 		.4byte	0x875
 1539 0717 1C       		.uleb128 0x1c
 1540 0718 747000   		.ascii	"tp\000"
 1541 071b 01       		.byte	0x1
 1542 071c 43       		.byte	0x43
 1543 071d 30020000 		.4byte	0x230
 1544 0721 2C000000 		.4byte	.LLST1
 1545 0725 1D       		.uleb128 0x1d
 1546 0726 6D736700 		.ascii	"msg\000"
 1547 072a 01       		.byte	0x1
 1548 072b 44       		.byte	0x44
 1549 072c DD000000 		.4byte	0xdd
 1550 0730 1E       		.uleb128 0x1e
 1551 0731 D5060000 		.4byte	0x6d5
 1552 0735 02000000 		.4byte	.LBB16
 1553 0739 00000000 		.4byte	.Ldebug_ranges0+0
 1554 073d 01       		.byte	0x1
 1555 073e 49       		.byte	0x49
ARM GAS  /tmp/ccjN8g1P.s 			page 51


 1556 073f 53070000 		.4byte	0x753
 1557 0743 1F       		.uleb128 0x1f
 1558 0744 C8060000 		.4byte	0x6c8
 1559 0748 02000000 		.4byte	.LBB18
 1560 074c 18000000 		.4byte	.Ldebug_ranges0+0x18
 1561 0750 02       		.byte	0x2
 1562 0751 BD       		.byte	0xbd
 1563 0752 00       		.byte	0
 1564 0753 20       		.uleb128 0x20
 1565 0754 E2060000 		.4byte	0x6e2
 1566 0758 3C000000 		.4byte	.LBB24
 1567 075c 3E000000 		.4byte	.LBE24
 1568 0760 01       		.byte	0x1
 1569 0761 4C       		.byte	0x4c
 1570 0762 70070000 		.4byte	0x770
 1571 0766 21       		.uleb128 0x21
 1572 0767 F3060000 		.4byte	0x6f3
 1573 076b 55000000 		.4byte	.LLST2
 1574 076f 00       		.byte	0
 1575 0770 20       		.uleb128 0x20
 1576 0771 E2060000 		.4byte	0x6e2
 1577 0775 4E000000 		.4byte	.LBB26
 1578 0779 50000000 		.4byte	.LBE26
 1579 077d 01       		.byte	0x1
 1580 077e 50       		.byte	0x50
 1581 077f 8D070000 		.4byte	0x78d
 1582 0783 21       		.uleb128 0x21
 1583 0784 F3060000 		.4byte	0x6f3
 1584 0788 68000000 		.4byte	.LLST3
 1585 078c 00       		.byte	0
 1586 078d 20       		.uleb128 0x20
 1587 078e E2060000 		.4byte	0x6e2
 1588 0792 60000000 		.4byte	.LBB28
 1589 0796 62000000 		.4byte	.LBE28
 1590 079a 01       		.byte	0x1
 1591 079b 54       		.byte	0x54
 1592 079c AA070000 		.4byte	0x7aa
 1593 07a0 21       		.uleb128 0x21
 1594 07a1 F3060000 		.4byte	0x6f3
 1595 07a5 7B000000 		.4byte	.LLST4
 1596 07a9 00       		.byte	0
 1597 07aa 22       		.uleb128 0x22
 1598 07ab 2E000000 		.4byte	.LVL0
 1599 07af 84090000 		.4byte	0x984
 1600 07b3 C8070000 		.4byte	0x7c8
 1601 07b7 23       		.uleb128 0x23
 1602 07b8 01       		.byte	0x1
 1603 07b9 53       		.byte	0x53
 1604 07ba 05       		.byte	0x5
 1605 07bb 03       		.byte	0x3
 1606 07bc 00000000 		.4byte	thread
 1607 07c0 23       		.uleb128 0x23
 1608 07c1 01       		.byte	0x1
 1609 07c2 51       		.byte	0x51
 1610 07c3 03       		.byte	0x3
 1611 07c4 0A       		.byte	0xa
 1612 07c5 4801     		.2byte	0x148
ARM GAS  /tmp/ccjN8g1P.s 			page 52


 1613 07c7 00       		.byte	0
 1614 07c8 24       		.uleb128 0x24
 1615 07c9 3C000000 		.4byte	.LVL1
 1616 07cd B0090000 		.4byte	0x9b0
 1617 07d1 22       		.uleb128 0x22
 1618 07d2 44000000 		.4byte	.LVL2
 1619 07d6 BE090000 		.4byte	0x9be
 1620 07da E5070000 		.4byte	0x7e5
 1621 07de 23       		.uleb128 0x23
 1622 07df 01       		.byte	0x1
 1623 07e0 51       		.byte	0x51
 1624 07e1 02       		.byte	0x2
 1625 07e2 74       		.byte	0x74
 1626 07e3 00       		.sleb128 0
 1627 07e4 00       		.byte	0
 1628 07e5 22       		.uleb128 0x22
 1629 07e6 4A000000 		.4byte	.LVL3
 1630 07ea D7090000 		.4byte	0x9d7
 1631 07ee F9070000 		.4byte	0x7f9
 1632 07f2 23       		.uleb128 0x23
 1633 07f3 01       		.byte	0x1
 1634 07f4 50       		.byte	0x50
 1635 07f5 02       		.byte	0x2
 1636 07f6 74       		.byte	0x74
 1637 07f7 00       		.sleb128 0
 1638 07f8 00       		.byte	0
 1639 07f9 24       		.uleb128 0x24
 1640 07fa 4E000000 		.4byte	.LVL4
 1641 07fe B0090000 		.4byte	0x9b0
 1642 0802 22       		.uleb128 0x22
 1643 0803 56000000 		.4byte	.LVL5
 1644 0807 BE090000 		.4byte	0x9be
 1645 080b 16080000 		.4byte	0x816
 1646 080f 23       		.uleb128 0x23
 1647 0810 01       		.byte	0x1
 1648 0811 51       		.byte	0x51
 1649 0812 02       		.byte	0x2
 1650 0813 74       		.byte	0x74
 1651 0814 00       		.sleb128 0
 1652 0815 00       		.byte	0
 1653 0816 22       		.uleb128 0x22
 1654 0817 5C000000 		.4byte	.LVL6
 1655 081b D7090000 		.4byte	0x9d7
 1656 081f 2A080000 		.4byte	0x82a
 1657 0823 23       		.uleb128 0x23
 1658 0824 01       		.byte	0x1
 1659 0825 50       		.byte	0x50
 1660 0826 02       		.byte	0x2
 1661 0827 74       		.byte	0x74
 1662 0828 00       		.sleb128 0
 1663 0829 00       		.byte	0
 1664 082a 24       		.uleb128 0x24
 1665 082b 60000000 		.4byte	.LVL7
 1666 082f B0090000 		.4byte	0x9b0
 1667 0833 22       		.uleb128 0x22
 1668 0834 68000000 		.4byte	.LVL8
 1669 0838 BE090000 		.4byte	0x9be
ARM GAS  /tmp/ccjN8g1P.s 			page 53


 1670 083c 47080000 		.4byte	0x847
 1671 0840 23       		.uleb128 0x23
 1672 0841 01       		.byte	0x1
 1673 0842 51       		.byte	0x51
 1674 0843 02       		.byte	0x2
 1675 0844 74       		.byte	0x74
 1676 0845 00       		.sleb128 0
 1677 0846 00       		.byte	0
 1678 0847 22       		.uleb128 0x22
 1679 0848 6E000000 		.4byte	.LVL9
 1680 084c D7090000 		.4byte	0x9d7
 1681 0850 5B080000 		.4byte	0x85b
 1682 0854 23       		.uleb128 0x23
 1683 0855 01       		.byte	0x1
 1684 0856 50       		.byte	0x50
 1685 0857 02       		.byte	0x2
 1686 0858 74       		.byte	0x74
 1687 0859 00       		.sleb128 0
 1688 085a 00       		.byte	0
 1689 085b 25       		.uleb128 0x25
 1690 085c 82000000 		.4byte	.LVL10
 1691 0860 01       		.byte	0x1
 1692 0861 EB090000 		.4byte	0x9eb
 1693 0865 23       		.uleb128 0x23
 1694 0866 01       		.byte	0x1
 1695 0867 51       		.byte	0x51
 1696 0868 05       		.byte	0x5
 1697 0869 03       		.byte	0x3
 1698 086a 00000000 		.4byte	.LC0
 1699 086e 23       		.uleb128 0x23
 1700 086f 01       		.byte	0x1
 1701 0870 50       		.byte	0x50
 1702 0871 01       		.byte	0x1
 1703 0872 31       		.byte	0x31
 1704 0873 00       		.byte	0
 1705 0874 00       		.byte	0
 1706 0875 1B       		.uleb128 0x1b
 1707 0876 42040000 		.4byte	.LASF107
 1708 087a 01       		.byte	0x1
 1709 087b 3B       		.byte	0x3b
 1710 087c 01       		.byte	0x1
 1711 087d 00000000 		.4byte	.LFB241
 1712 0881 1E000000 		.4byte	.LFE241
 1713 0885 8E000000 		.4byte	.LLST5
 1714 0889 01       		.byte	0x1
 1715 088a E7080000 		.4byte	0x8e7
 1716 088e 26       		.uleb128 0x26
 1717 088f 7000     		.ascii	"p\000"
 1718 0891 01       		.byte	0x1
 1719 0892 3B       		.byte	0x3b
 1720 0893 20030000 		.4byte	0x320
 1721 0897 AE000000 		.4byte	.LLST6
 1722 089b 22       		.uleb128 0x22
 1723 089c 0A000000 		.4byte	.LVL12
 1724 08a0 150A0000 		.4byte	0xa15
 1725 08a4 B5080000 		.4byte	0x8b5
 1726 08a8 23       		.uleb128 0x23
ARM GAS  /tmp/ccjN8g1P.s 			page 54


 1727 08a9 01       		.byte	0x1
 1728 08aa 51       		.byte	0x51
 1729 08ab 02       		.byte	0x2
 1730 08ac 08       		.byte	0x8
 1731 08ad 41       		.byte	0x41
 1732 08ae 23       		.uleb128 0x23
 1733 08af 01       		.byte	0x1
 1734 08b0 50       		.byte	0x50
 1735 08b1 02       		.byte	0x2
 1736 08b2 74       		.byte	0x74
 1737 08b3 00       		.sleb128 0
 1738 08b4 00       		.byte	0
 1739 08b5 22       		.uleb128 0x22
 1740 08b6 12000000 		.4byte	.LVL13
 1741 08ba 150A0000 		.4byte	0xa15
 1742 08be CF080000 		.4byte	0x8cf
 1743 08c2 23       		.uleb128 0x23
 1744 08c3 01       		.byte	0x1
 1745 08c4 51       		.byte	0x51
 1746 08c5 02       		.byte	0x2
 1747 08c6 08       		.byte	0x8
 1748 08c7 42       		.byte	0x42
 1749 08c8 23       		.uleb128 0x23
 1750 08c9 01       		.byte	0x1
 1751 08ca 50       		.byte	0x50
 1752 08cb 02       		.byte	0x2
 1753 08cc 74       		.byte	0x74
 1754 08cd 00       		.sleb128 0
 1755 08ce 00       		.byte	0
 1756 08cf 25       		.uleb128 0x25
 1757 08d0 1E000000 		.4byte	.LVL14
 1758 08d4 01       		.byte	0x1
 1759 08d5 150A0000 		.4byte	0xa15
 1760 08d9 23       		.uleb128 0x23
 1761 08da 01       		.byte	0x1
 1762 08db 51       		.byte	0x51
 1763 08dc 02       		.byte	0x2
 1764 08dd 08       		.byte	0x8
 1765 08de 43       		.byte	0x43
 1766 08df 23       		.uleb128 0x23
 1767 08e0 01       		.byte	0x1
 1768 08e1 50       		.byte	0x50
 1769 08e2 02       		.byte	0x2
 1770 08e3 74       		.byte	0x74
 1771 08e4 00       		.sleb128 0
 1772 08e5 00       		.byte	0
 1773 08e6 00       		.byte	0
 1774 08e7 27       		.uleb128 0x27
 1775 08e8 9B030000 		.4byte	.LASF108
 1776 08ec 0F       		.byte	0xf
 1777 08ed FA06     		.2byte	0x6fa
 1778 08ef F5080000 		.4byte	0x8f5
 1779 08f3 01       		.byte	0x1
 1780 08f4 01       		.byte	0x1
 1781 08f5 14       		.uleb128 0x14
 1782 08f6 69000000 		.4byte	0x69
 1783 08fa 28       		.uleb128 0x28
ARM GAS  /tmp/ccjN8g1P.s 			page 55


 1784 08fb 636800   		.ascii	"ch\000"
 1785 08fe 08       		.byte	0x8
 1786 08ff 0902     		.2byte	0x209
 1787 0901 03040000 		.4byte	0x403
 1788 0905 01       		.byte	0x1
 1789 0906 01       		.byte	0x1
 1790 0907 15       		.uleb128 0x15
 1791 0908 30020000 		.4byte	0x230
 1792 090c 17090000 		.4byte	0x917
 1793 0910 16       		.uleb128 0x16
 1794 0911 76040000 		.4byte	0x476
 1795 0915 04       		.byte	0x4
 1796 0916 00       		.byte	0
 1797 0917 29       		.uleb128 0x29
 1798 0918 1C040000 		.4byte	.LASF109
 1799 091c 0E       		.byte	0xe
 1800 091d A7       		.byte	0xa7
 1801 091e 07090000 		.4byte	0x907
 1802 0922 01       		.byte	0x1
 1803 0923 01       		.byte	0x1
 1804 0924 15       		.uleb128 0x15
 1805 0925 20030000 		.4byte	0x320
 1806 0929 2F090000 		.4byte	0x92f
 1807 092d 2A       		.uleb128 0x2a
 1808 092e 00       		.byte	0
 1809 092f 2B       		.uleb128 0x2b
 1810 0930 776100   		.ascii	"wa\000"
 1811 0933 0E       		.byte	0xe
 1812 0934 A9       		.byte	0xa9
 1813 0935 3B090000 		.4byte	0x93b
 1814 0939 01       		.byte	0x1
 1815 093a 01       		.byte	0x1
 1816 093b 13       		.uleb128 0x13
 1817 093c 24090000 		.4byte	0x924
 1818 0940 2C       		.uleb128 0x2c
 1819 0941 16020000 		.4byte	.LASF110
 1820 0945 01       		.byte	0x1
 1821 0946 5A       		.byte	0x5a
 1822 0947 52090000 		.4byte	0x952
 1823 094b 01       		.byte	0x1
 1824 094c 05       		.byte	0x5
 1825 094d 03       		.byte	0x3
 1826 094e 00000000 		.4byte	testmsg1
 1827 0952 13       		.uleb128 0x13
 1828 0953 7B060000 		.4byte	0x67b
 1829 0957 15       		.uleb128 0x15
 1830 0958 67090000 		.4byte	0x967
 1831 095c 67090000 		.4byte	0x967
 1832 0960 16       		.uleb128 0x16
 1833 0961 76040000 		.4byte	0x476
 1834 0965 01       		.byte	0x1
 1835 0966 00       		.byte	0
 1836 0967 09       		.uleb128 0x9
 1837 0968 04       		.byte	0x4
 1838 0969 52090000 		.4byte	0x952
 1839 096d 2C       		.uleb128 0x2c
 1840 096e 50010000 		.4byte	.LASF111
ARM GAS  /tmp/ccjN8g1P.s 			page 56


 1841 0972 01       		.byte	0x1
 1842 0973 66       		.byte	0x66
 1843 0974 7F090000 		.4byte	0x97f
 1844 0978 01       		.byte	0x1
 1845 0979 05       		.byte	0x5
 1846 097a 03       		.byte	0x3
 1847 097b 00000000 		.4byte	patternmsg
 1848 097f 13       		.uleb128 0x13
 1849 0980 57090000 		.4byte	0x957
 1850 0984 2D       		.uleb128 0x2d
 1851 0985 01       		.byte	0x1
 1852 0986 21030000 		.4byte	.LASF114
 1853 098a 02       		.byte	0x2
 1854 098b 89       		.byte	0x89
 1855 098c 01       		.byte	0x1
 1856 098d 30020000 		.4byte	0x230
 1857 0991 01       		.byte	0x1
 1858 0992 B0090000 		.4byte	0x9b0
 1859 0996 0C       		.uleb128 0xc
 1860 0997 20030000 		.4byte	0x320
 1861 099b 0C       		.uleb128 0xc
 1862 099c 30000000 		.4byte	0x30
 1863 09a0 0C       		.uleb128 0xc
 1864 09a1 D2000000 		.4byte	0xd2
 1865 09a5 0C       		.uleb128 0xc
 1866 09a6 5F060000 		.4byte	0x65f
 1867 09aa 0C       		.uleb128 0xc
 1868 09ab 20030000 		.4byte	0x320
 1869 09af 00       		.byte	0
 1870 09b0 2E       		.uleb128 0x2e
 1871 09b1 01       		.byte	0x1
 1872 09b2 DC020000 		.4byte	.LASF122
 1873 09b6 03       		.byte	0x3
 1874 09b7 3D       		.byte	0x3d
 1875 09b8 01       		.byte	0x1
 1876 09b9 30020000 		.4byte	0x230
 1877 09bd 01       		.byte	0x1
 1878 09be 2F       		.uleb128 0x2f
 1879 09bf 01       		.byte	0x1
 1880 09c0 FE000000 		.4byte	.LASF112
 1881 09c4 03       		.byte	0x3
 1882 09c5 3E       		.byte	0x3e
 1883 09c6 01       		.byte	0x1
 1884 09c7 01       		.byte	0x1
 1885 09c8 D7090000 		.4byte	0x9d7
 1886 09cc 0C       		.uleb128 0xc
 1887 09cd 30020000 		.4byte	0x230
 1888 09d1 0C       		.uleb128 0xc
 1889 09d2 DD000000 		.4byte	0xdd
 1890 09d6 00       		.byte	0
 1891 09d7 2F       		.uleb128 0x2f
 1892 09d8 01       		.byte	0x1
 1893 09d9 89000000 		.4byte	.LASF113
 1894 09dd 0E       		.byte	0xe
 1895 09de 58       		.byte	0x58
 1896 09df 01       		.byte	0x1
 1897 09e0 01       		.byte	0x1
ARM GAS  /tmp/ccjN8g1P.s 			page 57


 1898 09e1 EB090000 		.4byte	0x9eb
 1899 09e5 0C       		.uleb128 0xc
 1900 09e6 3D060000 		.4byte	0x63d
 1901 09ea 00       		.byte	0
 1902 09eb 2D       		.uleb128 0x2d
 1903 09ec 01       		.byte	0x1
 1904 09ed 24040000 		.4byte	.LASF115
 1905 09f1 0E       		.byte	0xe
 1906 09f2 5B       		.byte	0x5b
 1907 09f3 01       		.byte	0x1
 1908 09f4 080A0000 		.4byte	0xa08
 1909 09f8 01       		.byte	0x1
 1910 09f9 080A0000 		.4byte	0xa08
 1911 09fd 0C       		.uleb128 0xc
 1912 09fe 3B000000 		.4byte	0x3b
 1913 0a02 0C       		.uleb128 0xc
 1914 0a03 0F0A0000 		.4byte	0xa0f
 1915 0a07 00       		.byte	0
 1916 0a08 04       		.uleb128 0x4
 1917 0a09 01       		.byte	0x1
 1918 0a0a 02       		.byte	0x2
 1919 0a0b 10020000 		.4byte	.LASF116
 1920 0a0f 09       		.uleb128 0x9
 1921 0a10 04       		.byte	0x4
 1922 0a11 3D060000 		.4byte	0x63d
 1923 0a15 30       		.uleb128 0x30
 1924 0a16 01       		.byte	0x1
 1925 0a17 A8000000 		.4byte	.LASF117
 1926 0a1b 03       		.byte	0x3
 1927 0a1c 3C       		.byte	0x3c
 1928 0a1d 01       		.byte	0x1
 1929 0a1e DD000000 		.4byte	0xdd
 1930 0a22 01       		.byte	0x1
 1931 0a23 0C       		.uleb128 0xc
 1932 0a24 30020000 		.4byte	0x230
 1933 0a28 0C       		.uleb128 0xc
 1934 0a29 DD000000 		.4byte	0xdd
 1935 0a2d 00       		.byte	0
 1936 0a2e 00       		.byte	0
 1937              		.section	.debug_abbrev,"",%progbits
 1938              	.Ldebug_abbrev0:
 1939 0000 01       		.uleb128 0x1
 1940 0001 11       		.uleb128 0x11
 1941 0002 01       		.byte	0x1
 1942 0003 25       		.uleb128 0x25
 1943 0004 0E       		.uleb128 0xe
 1944 0005 13       		.uleb128 0x13
 1945 0006 0B       		.uleb128 0xb
 1946 0007 03       		.uleb128 0x3
 1947 0008 0E       		.uleb128 0xe
 1948 0009 1B       		.uleb128 0x1b
 1949 000a 0E       		.uleb128 0xe
 1950 000b 55       		.uleb128 0x55
 1951 000c 06       		.uleb128 0x6
 1952 000d 11       		.uleb128 0x11
 1953 000e 01       		.uleb128 0x1
 1954 000f 52       		.uleb128 0x52
ARM GAS  /tmp/ccjN8g1P.s 			page 58


 1955 0010 01       		.uleb128 0x1
 1956 0011 10       		.uleb128 0x10
 1957 0012 06       		.uleb128 0x6
 1958 0013 00       		.byte	0
 1959 0014 00       		.byte	0
 1960 0015 02       		.uleb128 0x2
 1961 0016 24       		.uleb128 0x24
 1962 0017 00       		.byte	0
 1963 0018 0B       		.uleb128 0xb
 1964 0019 0B       		.uleb128 0xb
 1965 001a 3E       		.uleb128 0x3e
 1966 001b 0B       		.uleb128 0xb
 1967 001c 03       		.uleb128 0x3
 1968 001d 08       		.uleb128 0x8
 1969 001e 00       		.byte	0
 1970 001f 00       		.byte	0
 1971 0020 03       		.uleb128 0x3
 1972 0021 16       		.uleb128 0x16
 1973 0022 00       		.byte	0
 1974 0023 03       		.uleb128 0x3
 1975 0024 0E       		.uleb128 0xe
 1976 0025 3A       		.uleb128 0x3a
 1977 0026 0B       		.uleb128 0xb
 1978 0027 3B       		.uleb128 0x3b
 1979 0028 0B       		.uleb128 0xb
 1980 0029 49       		.uleb128 0x49
 1981 002a 13       		.uleb128 0x13
 1982 002b 00       		.byte	0
 1983 002c 00       		.byte	0
 1984 002d 04       		.uleb128 0x4
 1985 002e 24       		.uleb128 0x24
 1986 002f 00       		.byte	0
 1987 0030 0B       		.uleb128 0xb
 1988 0031 0B       		.uleb128 0xb
 1989 0032 3E       		.uleb128 0x3e
 1990 0033 0B       		.uleb128 0xb
 1991 0034 03       		.uleb128 0x3
 1992 0035 0E       		.uleb128 0xe
 1993 0036 00       		.byte	0
 1994 0037 00       		.byte	0
 1995 0038 05       		.uleb128 0x5
 1996 0039 13       		.uleb128 0x13
 1997 003a 01       		.byte	0x1
 1998 003b 03       		.uleb128 0x3
 1999 003c 0E       		.uleb128 0xe
 2000 003d 0B       		.uleb128 0xb
 2001 003e 0B       		.uleb128 0xb
 2002 003f 3A       		.uleb128 0x3a
 2003 0040 0B       		.uleb128 0xb
 2004 0041 3B       		.uleb128 0x3b
 2005 0042 0B       		.uleb128 0xb
 2006 0043 01       		.uleb128 0x1
 2007 0044 13       		.uleb128 0x13
 2008 0045 00       		.byte	0
 2009 0046 00       		.byte	0
 2010 0047 06       		.uleb128 0x6
 2011 0048 0D       		.uleb128 0xd
ARM GAS  /tmp/ccjN8g1P.s 			page 59


 2012 0049 00       		.byte	0
 2013 004a 03       		.uleb128 0x3
 2014 004b 0E       		.uleb128 0xe
 2015 004c 3A       		.uleb128 0x3a
 2016 004d 0B       		.uleb128 0xb
 2017 004e 3B       		.uleb128 0x3b
 2018 004f 0B       		.uleb128 0xb
 2019 0050 49       		.uleb128 0x49
 2020 0051 13       		.uleb128 0x13
 2021 0052 38       		.uleb128 0x38
 2022 0053 0A       		.uleb128 0xa
 2023 0054 00       		.byte	0
 2024 0055 00       		.byte	0
 2025 0056 07       		.uleb128 0x7
 2026 0057 0D       		.uleb128 0xd
 2027 0058 00       		.byte	0
 2028 0059 03       		.uleb128 0x3
 2029 005a 08       		.uleb128 0x8
 2030 005b 3A       		.uleb128 0x3a
 2031 005c 0B       		.uleb128 0xb
 2032 005d 3B       		.uleb128 0x3b
 2033 005e 05       		.uleb128 0x5
 2034 005f 49       		.uleb128 0x49
 2035 0060 13       		.uleb128 0x13
 2036 0061 38       		.uleb128 0x38
 2037 0062 0A       		.uleb128 0xa
 2038 0063 00       		.byte	0
 2039 0064 00       		.byte	0
 2040 0065 08       		.uleb128 0x8
 2041 0066 0D       		.uleb128 0xd
 2042 0067 00       		.byte	0
 2043 0068 03       		.uleb128 0x3
 2044 0069 0E       		.uleb128 0xe
 2045 006a 3A       		.uleb128 0x3a
 2046 006b 0B       		.uleb128 0xb
 2047 006c 3B       		.uleb128 0x3b
 2048 006d 05       		.uleb128 0x5
 2049 006e 49       		.uleb128 0x49
 2050 006f 13       		.uleb128 0x13
 2051 0070 38       		.uleb128 0x38
 2052 0071 0A       		.uleb128 0xa
 2053 0072 00       		.byte	0
 2054 0073 00       		.byte	0
 2055 0074 09       		.uleb128 0x9
 2056 0075 0F       		.uleb128 0xf
 2057 0076 00       		.byte	0
 2058 0077 0B       		.uleb128 0xb
 2059 0078 0B       		.uleb128 0xb
 2060 0079 49       		.uleb128 0x49
 2061 007a 13       		.uleb128 0x13
 2062 007b 00       		.byte	0
 2063 007c 00       		.byte	0
 2064 007d 0A       		.uleb128 0xa
 2065 007e 13       		.uleb128 0x13
 2066 007f 01       		.byte	0x1
 2067 0080 03       		.uleb128 0x3
 2068 0081 0E       		.uleb128 0xe
ARM GAS  /tmp/ccjN8g1P.s 			page 60


 2069 0082 0B       		.uleb128 0xb
 2070 0083 0B       		.uleb128 0xb
 2071 0084 3A       		.uleb128 0x3a
 2072 0085 0B       		.uleb128 0xb
 2073 0086 3B       		.uleb128 0x3b
 2074 0087 05       		.uleb128 0x5
 2075 0088 01       		.uleb128 0x1
 2076 0089 13       		.uleb128 0x13
 2077 008a 00       		.byte	0
 2078 008b 00       		.byte	0
 2079 008c 0B       		.uleb128 0xb
 2080 008d 15       		.uleb128 0x15
 2081 008e 01       		.byte	0x1
 2082 008f 27       		.uleb128 0x27
 2083 0090 0C       		.uleb128 0xc
 2084 0091 01       		.uleb128 0x1
 2085 0092 13       		.uleb128 0x13
 2086 0093 00       		.byte	0
 2087 0094 00       		.byte	0
 2088 0095 0C       		.uleb128 0xc
 2089 0096 05       		.uleb128 0x5
 2090 0097 00       		.byte	0
 2091 0098 49       		.uleb128 0x49
 2092 0099 13       		.uleb128 0x13
 2093 009a 00       		.byte	0
 2094 009b 00       		.byte	0
 2095 009c 0D       		.uleb128 0xd
 2096 009d 0F       		.uleb128 0xf
 2097 009e 00       		.byte	0
 2098 009f 0B       		.uleb128 0xb
 2099 00a0 0B       		.uleb128 0xb
 2100 00a1 00       		.byte	0
 2101 00a2 00       		.byte	0
 2102 00a3 0E       		.uleb128 0xe
 2103 00a4 13       		.uleb128 0x13
 2104 00a5 01       		.byte	0x1
 2105 00a6 03       		.uleb128 0x3
 2106 00a7 0E       		.uleb128 0xe
 2107 00a8 0B       		.uleb128 0xb
 2108 00a9 05       		.uleb128 0x5
 2109 00aa 3A       		.uleb128 0x3a
 2110 00ab 0B       		.uleb128 0xb
 2111 00ac 3B       		.uleb128 0x3b
 2112 00ad 05       		.uleb128 0x5
 2113 00ae 01       		.uleb128 0x1
 2114 00af 13       		.uleb128 0x13
 2115 00b0 00       		.byte	0
 2116 00b1 00       		.byte	0
 2117 00b2 0F       		.uleb128 0xf
 2118 00b3 0D       		.uleb128 0xd
 2119 00b4 00       		.byte	0
 2120 00b5 03       		.uleb128 0x3
 2121 00b6 08       		.uleb128 0x8
 2122 00b7 3A       		.uleb128 0x3a
 2123 00b8 0B       		.uleb128 0xb
 2124 00b9 3B       		.uleb128 0x3b
 2125 00ba 0B       		.uleb128 0xb
ARM GAS  /tmp/ccjN8g1P.s 			page 61


 2126 00bb 49       		.uleb128 0x49
 2127 00bc 13       		.uleb128 0x13
 2128 00bd 38       		.uleb128 0x38
 2129 00be 0A       		.uleb128 0xa
 2130 00bf 00       		.byte	0
 2131 00c0 00       		.byte	0
 2132 00c1 10       		.uleb128 0x10
 2133 00c2 13       		.uleb128 0x13
 2134 00c3 01       		.byte	0x1
 2135 00c4 0B       		.uleb128 0xb
 2136 00c5 0B       		.uleb128 0xb
 2137 00c6 3A       		.uleb128 0x3a
 2138 00c7 0B       		.uleb128 0xb
 2139 00c8 3B       		.uleb128 0x3b
 2140 00c9 0B       		.uleb128 0xb
 2141 00ca 01       		.uleb128 0x1
 2142 00cb 13       		.uleb128 0x13
 2143 00cc 00       		.byte	0
 2144 00cd 00       		.byte	0
 2145 00ce 11       		.uleb128 0x11
 2146 00cf 17       		.uleb128 0x17
 2147 00d0 01       		.byte	0x1
 2148 00d1 0B       		.uleb128 0xb
 2149 00d2 0B       		.uleb128 0xb
 2150 00d3 3A       		.uleb128 0x3a
 2151 00d4 0B       		.uleb128 0xb
 2152 00d5 3B       		.uleb128 0x3b
 2153 00d6 0B       		.uleb128 0xb
 2154 00d7 01       		.uleb128 0x1
 2155 00d8 13       		.uleb128 0x13
 2156 00d9 00       		.byte	0
 2157 00da 00       		.byte	0
 2158 00db 12       		.uleb128 0x12
 2159 00dc 0D       		.uleb128 0xd
 2160 00dd 00       		.byte	0
 2161 00de 03       		.uleb128 0x3
 2162 00df 0E       		.uleb128 0xe
 2163 00e0 3A       		.uleb128 0x3a
 2164 00e1 0B       		.uleb128 0xb
 2165 00e2 3B       		.uleb128 0x3b
 2166 00e3 05       		.uleb128 0x5
 2167 00e4 49       		.uleb128 0x49
 2168 00e5 13       		.uleb128 0x13
 2169 00e6 00       		.byte	0
 2170 00e7 00       		.byte	0
 2171 00e8 13       		.uleb128 0x13
 2172 00e9 26       		.uleb128 0x26
 2173 00ea 00       		.byte	0
 2174 00eb 49       		.uleb128 0x49
 2175 00ec 13       		.uleb128 0x13
 2176 00ed 00       		.byte	0
 2177 00ee 00       		.byte	0
 2178 00ef 14       		.uleb128 0x14
 2179 00f0 35       		.uleb128 0x35
 2180 00f1 00       		.byte	0
 2181 00f2 49       		.uleb128 0x49
 2182 00f3 13       		.uleb128 0x13
ARM GAS  /tmp/ccjN8g1P.s 			page 62


 2183 00f4 00       		.byte	0
 2184 00f5 00       		.byte	0
 2185 00f6 15       		.uleb128 0x15
 2186 00f7 01       		.uleb128 0x1
 2187 00f8 01       		.byte	0x1
 2188 00f9 49       		.uleb128 0x49
 2189 00fa 13       		.uleb128 0x13
 2190 00fb 01       		.uleb128 0x1
 2191 00fc 13       		.uleb128 0x13
 2192 00fd 00       		.byte	0
 2193 00fe 00       		.byte	0
 2194 00ff 16       		.uleb128 0x16
 2195 0100 21       		.uleb128 0x21
 2196 0101 00       		.byte	0
 2197 0102 49       		.uleb128 0x49
 2198 0103 13       		.uleb128 0x13
 2199 0104 2F       		.uleb128 0x2f
 2200 0105 0B       		.uleb128 0xb
 2201 0106 00       		.byte	0
 2202 0107 00       		.byte	0
 2203 0108 17       		.uleb128 0x17
 2204 0109 15       		.uleb128 0x15
 2205 010a 00       		.byte	0
 2206 010b 27       		.uleb128 0x27
 2207 010c 0C       		.uleb128 0xc
 2208 010d 00       		.byte	0
 2209 010e 00       		.byte	0
 2210 010f 18       		.uleb128 0x18
 2211 0110 2E       		.uleb128 0x2e
 2212 0111 00       		.byte	0
 2213 0112 03       		.uleb128 0x3
 2214 0113 0E       		.uleb128 0xe
 2215 0114 3A       		.uleb128 0x3a
 2216 0115 0B       		.uleb128 0xb
 2217 0116 3B       		.uleb128 0x3b
 2218 0117 0B       		.uleb128 0xb
 2219 0118 27       		.uleb128 0x27
 2220 0119 0C       		.uleb128 0xc
 2221 011a 49       		.uleb128 0x49
 2222 011b 13       		.uleb128 0x13
 2223 011c 20       		.uleb128 0x20
 2224 011d 0B       		.uleb128 0xb
 2225 011e 00       		.byte	0
 2226 011f 00       		.byte	0
 2227 0120 19       		.uleb128 0x19
 2228 0121 2E       		.uleb128 0x2e
 2229 0122 01       		.byte	0x1
 2230 0123 03       		.uleb128 0x3
 2231 0124 0E       		.uleb128 0xe
 2232 0125 3A       		.uleb128 0x3a
 2233 0126 0B       		.uleb128 0xb
 2234 0127 3B       		.uleb128 0x3b
 2235 0128 0B       		.uleb128 0xb
 2236 0129 27       		.uleb128 0x27
 2237 012a 0C       		.uleb128 0xc
 2238 012b 49       		.uleb128 0x49
 2239 012c 13       		.uleb128 0x13
ARM GAS  /tmp/ccjN8g1P.s 			page 63


 2240 012d 20       		.uleb128 0x20
 2241 012e 0B       		.uleb128 0xb
 2242 012f 01       		.uleb128 0x1
 2243 0130 13       		.uleb128 0x13
 2244 0131 00       		.byte	0
 2245 0132 00       		.byte	0
 2246 0133 1A       		.uleb128 0x1a
 2247 0134 05       		.uleb128 0x5
 2248 0135 00       		.byte	0
 2249 0136 03       		.uleb128 0x3
 2250 0137 08       		.uleb128 0x8
 2251 0138 3A       		.uleb128 0x3a
 2252 0139 0B       		.uleb128 0xb
 2253 013a 3B       		.uleb128 0x3b
 2254 013b 0B       		.uleb128 0xb
 2255 013c 49       		.uleb128 0x49
 2256 013d 13       		.uleb128 0x13
 2257 013e 00       		.byte	0
 2258 013f 00       		.byte	0
 2259 0140 1B       		.uleb128 0x1b
 2260 0141 2E       		.uleb128 0x2e
 2261 0142 01       		.byte	0x1
 2262 0143 03       		.uleb128 0x3
 2263 0144 0E       		.uleb128 0xe
 2264 0145 3A       		.uleb128 0x3a
 2265 0146 0B       		.uleb128 0xb
 2266 0147 3B       		.uleb128 0x3b
 2267 0148 0B       		.uleb128 0xb
 2268 0149 27       		.uleb128 0x27
 2269 014a 0C       		.uleb128 0xc
 2270 014b 11       		.uleb128 0x11
 2271 014c 01       		.uleb128 0x1
 2272 014d 12       		.uleb128 0x12
 2273 014e 01       		.uleb128 0x1
 2274 014f 40       		.uleb128 0x40
 2275 0150 06       		.uleb128 0x6
 2276 0151 9742     		.uleb128 0x2117
 2277 0153 0C       		.uleb128 0xc
 2278 0154 01       		.uleb128 0x1
 2279 0155 13       		.uleb128 0x13
 2280 0156 00       		.byte	0
 2281 0157 00       		.byte	0
 2282 0158 1C       		.uleb128 0x1c
 2283 0159 34       		.uleb128 0x34
 2284 015a 00       		.byte	0
 2285 015b 03       		.uleb128 0x3
 2286 015c 08       		.uleb128 0x8
 2287 015d 3A       		.uleb128 0x3a
 2288 015e 0B       		.uleb128 0xb
 2289 015f 3B       		.uleb128 0x3b
 2290 0160 0B       		.uleb128 0xb
 2291 0161 49       		.uleb128 0x49
 2292 0162 13       		.uleb128 0x13
 2293 0163 02       		.uleb128 0x2
 2294 0164 06       		.uleb128 0x6
 2295 0165 00       		.byte	0
 2296 0166 00       		.byte	0
ARM GAS  /tmp/ccjN8g1P.s 			page 64


 2297 0167 1D       		.uleb128 0x1d
 2298 0168 34       		.uleb128 0x34
 2299 0169 00       		.byte	0
 2300 016a 03       		.uleb128 0x3
 2301 016b 08       		.uleb128 0x8
 2302 016c 3A       		.uleb128 0x3a
 2303 016d 0B       		.uleb128 0xb
 2304 016e 3B       		.uleb128 0x3b
 2305 016f 0B       		.uleb128 0xb
 2306 0170 49       		.uleb128 0x49
 2307 0171 13       		.uleb128 0x13
 2308 0172 00       		.byte	0
 2309 0173 00       		.byte	0
 2310 0174 1E       		.uleb128 0x1e
 2311 0175 1D       		.uleb128 0x1d
 2312 0176 01       		.byte	0x1
 2313 0177 31       		.uleb128 0x31
 2314 0178 13       		.uleb128 0x13
 2315 0179 52       		.uleb128 0x52
 2316 017a 01       		.uleb128 0x1
 2317 017b 55       		.uleb128 0x55
 2318 017c 06       		.uleb128 0x6
 2319 017d 58       		.uleb128 0x58
 2320 017e 0B       		.uleb128 0xb
 2321 017f 59       		.uleb128 0x59
 2322 0180 0B       		.uleb128 0xb
 2323 0181 01       		.uleb128 0x1
 2324 0182 13       		.uleb128 0x13
 2325 0183 00       		.byte	0
 2326 0184 00       		.byte	0
 2327 0185 1F       		.uleb128 0x1f
 2328 0186 1D       		.uleb128 0x1d
 2329 0187 00       		.byte	0
 2330 0188 31       		.uleb128 0x31
 2331 0189 13       		.uleb128 0x13
 2332 018a 52       		.uleb128 0x52
 2333 018b 01       		.uleb128 0x1
 2334 018c 55       		.uleb128 0x55
 2335 018d 06       		.uleb128 0x6
 2336 018e 58       		.uleb128 0x58
 2337 018f 0B       		.uleb128 0xb
 2338 0190 59       		.uleb128 0x59
 2339 0191 0B       		.uleb128 0xb
 2340 0192 00       		.byte	0
 2341 0193 00       		.byte	0
 2342 0194 20       		.uleb128 0x20
 2343 0195 1D       		.uleb128 0x1d
 2344 0196 01       		.byte	0x1
 2345 0197 31       		.uleb128 0x31
 2346 0198 13       		.uleb128 0x13
 2347 0199 11       		.uleb128 0x11
 2348 019a 01       		.uleb128 0x1
 2349 019b 12       		.uleb128 0x12
 2350 019c 01       		.uleb128 0x1
 2351 019d 58       		.uleb128 0x58
 2352 019e 0B       		.uleb128 0xb
 2353 019f 59       		.uleb128 0x59
ARM GAS  /tmp/ccjN8g1P.s 			page 65


 2354 01a0 0B       		.uleb128 0xb
 2355 01a1 01       		.uleb128 0x1
 2356 01a2 13       		.uleb128 0x13
 2357 01a3 00       		.byte	0
 2358 01a4 00       		.byte	0
 2359 01a5 21       		.uleb128 0x21
 2360 01a6 05       		.uleb128 0x5
 2361 01a7 00       		.byte	0
 2362 01a8 31       		.uleb128 0x31
 2363 01a9 13       		.uleb128 0x13
 2364 01aa 02       		.uleb128 0x2
 2365 01ab 06       		.uleb128 0x6
 2366 01ac 00       		.byte	0
 2367 01ad 00       		.byte	0
 2368 01ae 22       		.uleb128 0x22
 2369 01af 898201   		.uleb128 0x4109
 2370 01b2 01       		.byte	0x1
 2371 01b3 11       		.uleb128 0x11
 2372 01b4 01       		.uleb128 0x1
 2373 01b5 31       		.uleb128 0x31
 2374 01b6 13       		.uleb128 0x13
 2375 01b7 01       		.uleb128 0x1
 2376 01b8 13       		.uleb128 0x13
 2377 01b9 00       		.byte	0
 2378 01ba 00       		.byte	0
 2379 01bb 23       		.uleb128 0x23
 2380 01bc 8A8201   		.uleb128 0x410a
 2381 01bf 00       		.byte	0
 2382 01c0 02       		.uleb128 0x2
 2383 01c1 0A       		.uleb128 0xa
 2384 01c2 9142     		.uleb128 0x2111
 2385 01c4 0A       		.uleb128 0xa
 2386 01c5 00       		.byte	0
 2387 01c6 00       		.byte	0
 2388 01c7 24       		.uleb128 0x24
 2389 01c8 898201   		.uleb128 0x4109
 2390 01cb 00       		.byte	0
 2391 01cc 11       		.uleb128 0x11
 2392 01cd 01       		.uleb128 0x1
 2393 01ce 31       		.uleb128 0x31
 2394 01cf 13       		.uleb128 0x13
 2395 01d0 00       		.byte	0
 2396 01d1 00       		.byte	0
 2397 01d2 25       		.uleb128 0x25
 2398 01d3 898201   		.uleb128 0x4109
 2399 01d6 01       		.byte	0x1
 2400 01d7 11       		.uleb128 0x11
 2401 01d8 01       		.uleb128 0x1
 2402 01d9 9542     		.uleb128 0x2115
 2403 01db 0C       		.uleb128 0xc
 2404 01dc 31       		.uleb128 0x31
 2405 01dd 13       		.uleb128 0x13
 2406 01de 00       		.byte	0
 2407 01df 00       		.byte	0
 2408 01e0 26       		.uleb128 0x26
 2409 01e1 05       		.uleb128 0x5
 2410 01e2 00       		.byte	0
ARM GAS  /tmp/ccjN8g1P.s 			page 66


 2411 01e3 03       		.uleb128 0x3
 2412 01e4 08       		.uleb128 0x8
 2413 01e5 3A       		.uleb128 0x3a
 2414 01e6 0B       		.uleb128 0xb
 2415 01e7 3B       		.uleb128 0x3b
 2416 01e8 0B       		.uleb128 0xb
 2417 01e9 49       		.uleb128 0x49
 2418 01ea 13       		.uleb128 0x13
 2419 01eb 02       		.uleb128 0x2
 2420 01ec 06       		.uleb128 0x6
 2421 01ed 00       		.byte	0
 2422 01ee 00       		.byte	0
 2423 01ef 27       		.uleb128 0x27
 2424 01f0 34       		.uleb128 0x34
 2425 01f1 00       		.byte	0
 2426 01f2 03       		.uleb128 0x3
 2427 01f3 0E       		.uleb128 0xe
 2428 01f4 3A       		.uleb128 0x3a
 2429 01f5 0B       		.uleb128 0xb
 2430 01f6 3B       		.uleb128 0x3b
 2431 01f7 05       		.uleb128 0x5
 2432 01f8 49       		.uleb128 0x49
 2433 01f9 13       		.uleb128 0x13
 2434 01fa 3F       		.uleb128 0x3f
 2435 01fb 0C       		.uleb128 0xc
 2436 01fc 3C       		.uleb128 0x3c
 2437 01fd 0C       		.uleb128 0xc
 2438 01fe 00       		.byte	0
 2439 01ff 00       		.byte	0
 2440 0200 28       		.uleb128 0x28
 2441 0201 34       		.uleb128 0x34
 2442 0202 00       		.byte	0
 2443 0203 03       		.uleb128 0x3
 2444 0204 08       		.uleb128 0x8
 2445 0205 3A       		.uleb128 0x3a
 2446 0206 0B       		.uleb128 0xb
 2447 0207 3B       		.uleb128 0x3b
 2448 0208 05       		.uleb128 0x5
 2449 0209 49       		.uleb128 0x49
 2450 020a 13       		.uleb128 0x13
 2451 020b 3F       		.uleb128 0x3f
 2452 020c 0C       		.uleb128 0xc
 2453 020d 3C       		.uleb128 0x3c
 2454 020e 0C       		.uleb128 0xc
 2455 020f 00       		.byte	0
 2456 0210 00       		.byte	0
 2457 0211 29       		.uleb128 0x29
 2458 0212 34       		.uleb128 0x34
 2459 0213 00       		.byte	0
 2460 0214 03       		.uleb128 0x3
 2461 0215 0E       		.uleb128 0xe
 2462 0216 3A       		.uleb128 0x3a
 2463 0217 0B       		.uleb128 0xb
 2464 0218 3B       		.uleb128 0x3b
 2465 0219 0B       		.uleb128 0xb
 2466 021a 49       		.uleb128 0x49
 2467 021b 13       		.uleb128 0x13
ARM GAS  /tmp/ccjN8g1P.s 			page 67


 2468 021c 3F       		.uleb128 0x3f
 2469 021d 0C       		.uleb128 0xc
 2470 021e 3C       		.uleb128 0x3c
 2471 021f 0C       		.uleb128 0xc
 2472 0220 00       		.byte	0
 2473 0221 00       		.byte	0
 2474 0222 2A       		.uleb128 0x2a
 2475 0223 21       		.uleb128 0x21
 2476 0224 00       		.byte	0
 2477 0225 00       		.byte	0
 2478 0226 00       		.byte	0
 2479 0227 2B       		.uleb128 0x2b
 2480 0228 34       		.uleb128 0x34
 2481 0229 00       		.byte	0
 2482 022a 03       		.uleb128 0x3
 2483 022b 08       		.uleb128 0x8
 2484 022c 3A       		.uleb128 0x3a
 2485 022d 0B       		.uleb128 0xb
 2486 022e 3B       		.uleb128 0x3b
 2487 022f 0B       		.uleb128 0xb
 2488 0230 49       		.uleb128 0x49
 2489 0231 13       		.uleb128 0x13
 2490 0232 3F       		.uleb128 0x3f
 2491 0233 0C       		.uleb128 0xc
 2492 0234 3C       		.uleb128 0x3c
 2493 0235 0C       		.uleb128 0xc
 2494 0236 00       		.byte	0
 2495 0237 00       		.byte	0
 2496 0238 2C       		.uleb128 0x2c
 2497 0239 34       		.uleb128 0x34
 2498 023a 00       		.byte	0
 2499 023b 03       		.uleb128 0x3
 2500 023c 0E       		.uleb128 0xe
 2501 023d 3A       		.uleb128 0x3a
 2502 023e 0B       		.uleb128 0xb
 2503 023f 3B       		.uleb128 0x3b
 2504 0240 0B       		.uleb128 0xb
 2505 0241 49       		.uleb128 0x49
 2506 0242 13       		.uleb128 0x13
 2507 0243 3F       		.uleb128 0x3f
 2508 0244 0C       		.uleb128 0xc
 2509 0245 02       		.uleb128 0x2
 2510 0246 0A       		.uleb128 0xa
 2511 0247 00       		.byte	0
 2512 0248 00       		.byte	0
 2513 0249 2D       		.uleb128 0x2d
 2514 024a 2E       		.uleb128 0x2e
 2515 024b 01       		.byte	0x1
 2516 024c 3F       		.uleb128 0x3f
 2517 024d 0C       		.uleb128 0xc
 2518 024e 03       		.uleb128 0x3
 2519 024f 0E       		.uleb128 0xe
 2520 0250 3A       		.uleb128 0x3a
 2521 0251 0B       		.uleb128 0xb
 2522 0252 3B       		.uleb128 0x3b
 2523 0253 0B       		.uleb128 0xb
 2524 0254 27       		.uleb128 0x27
ARM GAS  /tmp/ccjN8g1P.s 			page 68


 2525 0255 0C       		.uleb128 0xc
 2526 0256 49       		.uleb128 0x49
 2527 0257 13       		.uleb128 0x13
 2528 0258 3C       		.uleb128 0x3c
 2529 0259 0C       		.uleb128 0xc
 2530 025a 01       		.uleb128 0x1
 2531 025b 13       		.uleb128 0x13
 2532 025c 00       		.byte	0
 2533 025d 00       		.byte	0
 2534 025e 2E       		.uleb128 0x2e
 2535 025f 2E       		.uleb128 0x2e
 2536 0260 00       		.byte	0
 2537 0261 3F       		.uleb128 0x3f
 2538 0262 0C       		.uleb128 0xc
 2539 0263 03       		.uleb128 0x3
 2540 0264 0E       		.uleb128 0xe
 2541 0265 3A       		.uleb128 0x3a
 2542 0266 0B       		.uleb128 0xb
 2543 0267 3B       		.uleb128 0x3b
 2544 0268 0B       		.uleb128 0xb
 2545 0269 27       		.uleb128 0x27
 2546 026a 0C       		.uleb128 0xc
 2547 026b 49       		.uleb128 0x49
 2548 026c 13       		.uleb128 0x13
 2549 026d 3C       		.uleb128 0x3c
 2550 026e 0C       		.uleb128 0xc
 2551 026f 00       		.byte	0
 2552 0270 00       		.byte	0
 2553 0271 2F       		.uleb128 0x2f
 2554 0272 2E       		.uleb128 0x2e
 2555 0273 01       		.byte	0x1
 2556 0274 3F       		.uleb128 0x3f
 2557 0275 0C       		.uleb128 0xc
 2558 0276 03       		.uleb128 0x3
 2559 0277 0E       		.uleb128 0xe
 2560 0278 3A       		.uleb128 0x3a
 2561 0279 0B       		.uleb128 0xb
 2562 027a 3B       		.uleb128 0x3b
 2563 027b 0B       		.uleb128 0xb
 2564 027c 27       		.uleb128 0x27
 2565 027d 0C       		.uleb128 0xc
 2566 027e 3C       		.uleb128 0x3c
 2567 027f 0C       		.uleb128 0xc
 2568 0280 01       		.uleb128 0x1
 2569 0281 13       		.uleb128 0x13
 2570 0282 00       		.byte	0
 2571 0283 00       		.byte	0
 2572 0284 30       		.uleb128 0x30
 2573 0285 2E       		.uleb128 0x2e
 2574 0286 01       		.byte	0x1
 2575 0287 3F       		.uleb128 0x3f
 2576 0288 0C       		.uleb128 0xc
 2577 0289 03       		.uleb128 0x3
 2578 028a 0E       		.uleb128 0xe
 2579 028b 3A       		.uleb128 0x3a
 2580 028c 0B       		.uleb128 0xb
 2581 028d 3B       		.uleb128 0x3b
ARM GAS  /tmp/ccjN8g1P.s 			page 69


 2582 028e 0B       		.uleb128 0xb
 2583 028f 27       		.uleb128 0x27
 2584 0290 0C       		.uleb128 0xc
 2585 0291 49       		.uleb128 0x49
 2586 0292 13       		.uleb128 0x13
 2587 0293 3C       		.uleb128 0x3c
 2588 0294 0C       		.uleb128 0xc
 2589 0295 00       		.byte	0
 2590 0296 00       		.byte	0
 2591 0297 00       		.byte	0
 2592              		.section	.debug_loc,"",%progbits
 2593              	.Ldebug_loc0:
 2594              	.LLST0:
 2595 0000 00000000 		.4byte	.LFB242
 2596 0004 02000000 		.4byte	.LCFI0
 2597 0008 0200     		.2byte	0x2
 2598 000a 7D       		.byte	0x7d
 2599 000b 00       		.sleb128 0
 2600 000c 02000000 		.4byte	.LCFI0
 2601 0010 16000000 		.4byte	.LCFI1
 2602 0014 0200     		.2byte	0x2
 2603 0016 7D       		.byte	0x7d
 2604 0017 08       		.sleb128 8
 2605 0018 16000000 		.4byte	.LCFI1
 2606 001c 82000000 		.4byte	.LFE242
 2607 0020 0200     		.2byte	0x2
 2608 0022 7D       		.byte	0x7d
 2609 0023 10       		.sleb128 16
 2610 0024 00000000 		.4byte	0
 2611 0028 00000000 		.4byte	0
 2612              	.LLST1:
 2613 002c 3C000000 		.4byte	.LVL1
 2614 0030 43000000 		.4byte	.LVL2-1
 2615 0034 0100     		.2byte	0x1
 2616 0036 50       		.byte	0x50
 2617 0037 4E000000 		.4byte	.LVL4
 2618 003b 55000000 		.4byte	.LVL5-1
 2619 003f 0100     		.2byte	0x1
 2620 0041 50       		.byte	0x50
 2621 0042 60000000 		.4byte	.LVL7
 2622 0046 67000000 		.4byte	.LVL8-1
 2623 004a 0100     		.2byte	0x1
 2624 004c 50       		.byte	0x50
 2625 004d 00000000 		.4byte	0
 2626 0051 00000000 		.4byte	0
 2627              	.LLST2:
 2628 0055 3C000000 		.4byte	.LVL1
 2629 0059 43000000 		.4byte	.LVL2-1
 2630 005d 0100     		.2byte	0x1
 2631 005f 50       		.byte	0x50
 2632 0060 00000000 		.4byte	0
 2633 0064 00000000 		.4byte	0
 2634              	.LLST3:
 2635 0068 4E000000 		.4byte	.LVL4
 2636 006c 55000000 		.4byte	.LVL5-1
 2637 0070 0100     		.2byte	0x1
 2638 0072 50       		.byte	0x50
ARM GAS  /tmp/ccjN8g1P.s 			page 70


 2639 0073 00000000 		.4byte	0
 2640 0077 00000000 		.4byte	0
 2641              	.LLST4:
 2642 007b 60000000 		.4byte	.LVL7
 2643 007f 67000000 		.4byte	.LVL8-1
 2644 0083 0100     		.2byte	0x1
 2645 0085 50       		.byte	0x50
 2646 0086 00000000 		.4byte	0
 2647 008a 00000000 		.4byte	0
 2648              	.LLST5:
 2649 008e 00000000 		.4byte	.LFB241
 2650 0092 02000000 		.4byte	.LCFI2
 2651 0096 0200     		.2byte	0x2
 2652 0098 7D       		.byte	0x7d
 2653 0099 00       		.sleb128 0
 2654 009a 02000000 		.4byte	.LCFI2
 2655 009e 1E000000 		.4byte	.LFE241
 2656 00a2 0200     		.2byte	0x2
 2657 00a4 7D       		.byte	0x7d
 2658 00a5 08       		.sleb128 8
 2659 00a6 00000000 		.4byte	0
 2660 00aa 00000000 		.4byte	0
 2661              	.LLST6:
 2662 00ae 00000000 		.4byte	.LVL11
 2663 00b2 09000000 		.4byte	.LVL12-1
 2664 00b6 0100     		.2byte	0x1
 2665 00b8 50       		.byte	0x50
 2666 00b9 09000000 		.4byte	.LVL12-1
 2667 00bd 1E000000 		.4byte	.LFE241
 2668 00c1 0100     		.2byte	0x1
 2669 00c3 54       		.byte	0x54
 2670 00c4 00000000 		.4byte	0
 2671 00c8 00000000 		.4byte	0
 2672              		.section	.debug_aranges,"",%progbits
 2673 0000 24000000 		.4byte	0x24
 2674 0004 0200     		.2byte	0x2
 2675 0006 00000000 		.4byte	.Ldebug_info0
 2676 000a 04       		.byte	0x4
 2677 000b 00       		.byte	0
 2678 000c 0000     		.2byte	0
 2679 000e 0000     		.2byte	0
 2680 0010 00000000 		.4byte	.LFB242
 2681 0014 82000000 		.4byte	.LFE242-.LFB242
 2682 0018 00000000 		.4byte	.LFB241
 2683 001c 1E000000 		.4byte	.LFE241-.LFB241
 2684 0020 00000000 		.4byte	0
 2685 0024 00000000 		.4byte	0
 2686              		.section	.debug_ranges,"",%progbits
 2687              	.Ldebug_ranges0:
 2688 0000 02000000 		.4byte	.LBB16
 2689 0004 0A000000 		.4byte	.LBE16
 2690 0008 0E000000 		.4byte	.LBB23
 2691 000c 10000000 		.4byte	.LBE23
 2692 0010 00000000 		.4byte	0
 2693 0014 00000000 		.4byte	0
 2694 0018 02000000 		.4byte	.LBB18
 2695 001c 0A000000 		.4byte	.LBE18
ARM GAS  /tmp/ccjN8g1P.s 			page 71


 2696 0020 0E000000 		.4byte	.LBB21
 2697 0024 10000000 		.4byte	.LBE21
 2698 0028 00000000 		.4byte	0
 2699 002c 00000000 		.4byte	0
 2700 0030 00000000 		.4byte	.LFB242
 2701 0034 82000000 		.4byte	.LFE242
 2702 0038 00000000 		.4byte	.LFB241
 2703 003c 1E000000 		.4byte	.LFE241
 2704 0040 00000000 		.4byte	0
 2705 0044 00000000 		.4byte	0
 2706              		.section	.debug_line,"",%progbits
 2707              	.Ldebug_line0:
 2708 0000 51020000 		.section	.debug_str,"MS",%progbits,1
 2708      0200E101 
 2708      00000201 
 2708      FB0E0D00 
 2708      01010101 
 2709              	.LASF44:
 2710 0000 63685F74 		.ascii	"ch_threads_list\000"
 2710      68726561 
 2710      64735F6C 
 2710      69737400 
 2711              	.LASF45:
 2712 0010 74687265 		.ascii	"threads_queue_t\000"
 2712      6164735F 
 2712      71756575 
 2712      655F7400 
 2713              	.LASF34:
 2714 0020 705F7761 		.ascii	"p_waiting\000"
 2714      6974696E 
 2714      6700
 2715              	.LASF87:
 2716 002a 77746D74 		.ascii	"wtmtxp\000"
 2716      787000
 2717              	.LASF81:
 2718 0031 746D5F63 		.ascii	"tm_calibration_t\000"
 2718      616C6962 
 2718      72617469 
 2718      6F6E5F74 
 2718      00
 2719              	.LASF96:
 2720 0042 63686172 		.ascii	"char\000"
 2720      00
 2721              	.LASF76:
 2722 0047 72656761 		.ascii	"regarm_t\000"
 2722      726D5F74 
 2722      00
 2723              	.LASF26:
 2724 0050 705F7072 		.ascii	"p_prio\000"
 2724      696F00
 2725              	.LASF22:
 2726 0057 73797374 		.ascii	"systime_t\000"
 2726      696D655F 
 2726      7400
 2727              	.LASF94:
 2728 0061 6D5F6F77 		.ascii	"m_owner\000"
 2728      6E657200 
ARM GAS  /tmp/ccjN8g1P.s 			page 72


 2729              	.LASF90:
 2730 0069 735F7175 		.ascii	"s_queue\000"
 2730      65756500 
 2731              	.LASF35:
 2732 0071 705F6D73 		.ascii	"p_msgqueue\000"
 2732      67717565 
 2732      756500
 2733              	.LASF0:
 2734 007c 756E7369 		.ascii	"unsigned int\000"
 2734      676E6564 
 2734      20696E74 
 2734      00
 2735              	.LASF113:
 2736 0089 74657374 		.ascii	"test_emit_token\000"
 2736      5F656D69 
 2736      745F746F 
 2736      6B656E00 
 2737              	.LASF42:
 2738 0099 74687265 		.ascii	"threads_list_t\000"
 2738      6164735F 
 2738      6C697374 
 2738      5F7400
 2739              	.LASF117:
 2740 00a8 63684D73 		.ascii	"chMsgSend\000"
 2740      6753656E 
 2740      6400
 2741              	.LASF84:
 2742 00b2 77746F62 		.ascii	"wtobjp\000"
 2742      6A7000
 2743              	.LASF72:
 2744 00b9 76746C69 		.ascii	"vtlist\000"
 2744      737400
 2745              	.LASF48:
 2746 00c0 63685F72 		.ascii	"ch_ready_list\000"
 2746      65616479 
 2746      5F6C6973 
 2746      7400
 2747              	.LASF74:
 2748 00ce 69646C65 		.ascii	"idle_thread_wa\000"
 2748      5F746872 
 2748      6561645F 
 2748      776100
 2749              	.LASF88:
 2750 00dd 65776D61 		.ascii	"ewmask\000"
 2750      736B00
 2751              	.LASF46:
 2752 00e4 63685F74 		.ascii	"ch_threads_queue\000"
 2752      68726561 
 2752      64735F71 
 2752      75657565 
 2752      00
 2753              	.LASF55:
 2754 00f5 76746675 		.ascii	"vtfunc_t\000"
 2754      6E635F74 
 2754      00
 2755              	.LASF112:
 2756 00fe 63684D73 		.ascii	"chMsgRelease\000"
ARM GAS  /tmp/ccjN8g1P.s 			page 73


 2756      6752656C 
 2756      65617365 
 2756      00
 2757              	.LASF91:
 2758 010b 735F636E 		.ascii	"s_cnt\000"
 2758      7400
 2759              	.LASF67:
 2760 0111 63685F73 		.ascii	"ch_system_debug\000"
 2760      79737465 
 2760      6D5F6465 
 2760      62756700 
 2761              	.LASF9:
 2762 0121 75696E74 		.ascii	"uint32_t\000"
 2762      33325F74 
 2762      00
 2763              	.LASF20:
 2764 012a 6576656E 		.ascii	"eventmask_t\000"
 2764      746D6173 
 2764      6B5F7400 
 2765              	.LASF50:
 2766 0136 725F7072 		.ascii	"r_prio\000"
 2766      696F00
 2767              	.LASF118:
 2768 013d 474E5520 		.ascii	"GNU C 4.7.2\000"
 2768      4320342E 
 2768      372E3200 
 2769              	.LASF62:
 2770 0149 76745F70 		.ascii	"vt_par\000"
 2770      617200
 2771              	.LASF111:
 2772 0150 70617474 		.ascii	"patternmsg\000"
 2772      65726E6D 
 2772      736700
 2773              	.LASF89:
 2774 015b 63685F73 		.ascii	"ch_semaphore\000"
 2774      656D6170 
 2774      686F7265 
 2774      00
 2775              	.LASF18:
 2776 0168 74707269 		.ascii	"tprio_t\000"
 2776      6F5F7400 
 2777              	.LASF57:
 2778 0170 63685F76 		.ascii	"ch_virtual_timer\000"
 2778      69727475 
 2778      616C5F74 
 2778      696D6572 
 2778      00
 2779              	.LASF97:
 2780 0181 7466756E 		.ascii	"tfunc_t\000"
 2780      635F7400 
 2781              	.LASF119:
 2782 0189 2E2E2F2E 		.ascii	"../../../test/rt/testmsg.c\000"
 2782      2E2F2E2E 
 2782      2F746573 
 2782      742F7274 
 2782      2F746573 
 2783              	.LASF13:
ARM GAS  /tmp/ccjN8g1P.s 			page 74


 2784 01a4 6C6F6E67 		.ascii	"long long unsigned int\000"
 2784      206C6F6E 
 2784      6720756E 
 2784      7369676E 
 2784      65642069 
 2785              	.LASF121:
 2786 01bb 63684D73 		.ascii	"chMsgGet\000"
 2786      67476574 
 2786      00
 2787              	.LASF21:
 2788 01c4 636E745F 		.ascii	"cnt_t\000"
 2788      7400
 2789              	.LASF99:
 2790 01ca 74657374 		.ascii	"testcase\000"
 2790      63617365 
 2790      00
 2791              	.LASF28:
 2792 01d3 705F6E65 		.ascii	"p_newer\000"
 2792      77657200 
 2793              	.LASF64:
 2794 01db 63685F76 		.ascii	"ch_virtual_timers_list\000"
 2794      69727475 
 2794      616C5F74 
 2794      696D6572 
 2794      735F6C69 
 2795              	.LASF23:
 2796 01f2 74687265 		.ascii	"thread_t\000"
 2796      61645F74 
 2796      00
 2797              	.LASF2:
 2798 01fb 73697A65 		.ascii	"size_t\000"
 2798      5F7400
 2799              	.LASF82:
 2800 0202 7264796D 		.ascii	"rdymsg\000"
 2800      736700
 2801              	.LASF80:
 2802 0209 6F666673 		.ascii	"offset\000"
 2802      657400
 2803              	.LASF116:
 2804 0210 5F426F6F 		.ascii	"_Bool\000"
 2804      6C00
 2805              	.LASF110:
 2806 0216 74657374 		.ascii	"testmsg1\000"
 2806      6D736731 
 2806      00
 2807              	.LASF92:
 2808 021f 63685F6D 		.ascii	"ch_mutex\000"
 2808      75746578 
 2808      00
 2809              	.LASF30:
 2810 0228 705F6E61 		.ascii	"p_name\000"
 2810      6D6500
 2811              	.LASF60:
 2812 022f 76745F64 		.ascii	"vt_delta\000"
 2812      656C7461 
 2812      00
 2813              	.LASF41:
ARM GAS  /tmp/ccjN8g1P.s 			page 75


 2814 0238 74687265 		.ascii	"thread_reference_t\000"
 2814      61645F72 
 2814      65666572 
 2814      656E6365 
 2814      5F7400
 2815              	.LASF65:
 2816 024b 76745F6C 		.ascii	"vt_lasttime\000"
 2816      61737474 
 2816      696D6500 
 2817              	.LASF16:
 2818 0257 74737461 		.ascii	"tstate_t\000"
 2818      74655F74 
 2818      00
 2819              	.LASF29:
 2820 0260 705F6F6C 		.ascii	"p_older\000"
 2820      64657200 
 2821              	.LASF31:
 2822 0268 705F7374 		.ascii	"p_state\000"
 2822      61746500 
 2823              	.LASF3:
 2824 0270 75696E74 		.ascii	"uint8_t\000"
 2824      385F7400 
 2825              	.LASF40:
 2826 0278 705F6D70 		.ascii	"p_mpool\000"
 2826      6F6F6C00 
 2827              	.LASF38:
 2828 0280 705F6D74 		.ascii	"p_mtxlist\000"
 2828      786C6973 
 2828      7400
 2829              	.LASF43:
 2830 028a 63685F74 		.ascii	"ch_thread\000"
 2830      68726561 
 2830      6400
 2831              	.LASF103:
 2832 0294 65786563 		.ascii	"execute\000"
 2832      75746500 
 2833              	.LASF106:
 2834 029c 6D736731 		.ascii	"msg1_execute\000"
 2834      5F657865 
 2834      63757465 
 2834      00
 2835              	.LASF66:
 2836 02a9 73797374 		.ascii	"system_debug_t\000"
 2836      656D5F64 
 2836      65627567 
 2836      5F7400
 2837              	.LASF11:
 2838 02b8 6C6F6E67 		.ascii	"long long int\000"
 2838      206C6F6E 
 2838      6720696E 
 2838      7400
 2839              	.LASF49:
 2840 02c6 725F7175 		.ascii	"r_queue\000"
 2840      65756500 
 2841              	.LASF52:
 2842 02ce 725F6E65 		.ascii	"r_newer\000"
 2842      77657200 
ARM GAS  /tmp/ccjN8g1P.s 			page 76


 2843              	.LASF19:
 2844 02d6 6D73675F 		.ascii	"msg_t\000"
 2844      7400
 2845              	.LASF122:
 2846 02dc 63684D73 		.ascii	"chMsgWait\000"
 2846      67576169 
 2846      7400
 2847              	.LASF78:
 2848 02e6 636F6E74 		.ascii	"context\000"
 2848      65787400 
 2849              	.LASF102:
 2850 02ee 74656172 		.ascii	"teardown\000"
 2850      646F776E 
 2850      00
 2851              	.LASF32:
 2852 02f7 705F666C 		.ascii	"p_flags\000"
 2852      61677300 
 2853              	.LASF56:
 2854 02ff 76697274 		.ascii	"virtual_timer_t\000"
 2854      75616C5F 
 2854      74696D65 
 2854      725F7400 
 2855              	.LASF53:
 2856 030f 725F6F6C 		.ascii	"r_older\000"
 2856      64657200 
 2857              	.LASF68:
 2858 0317 70616E69 		.ascii	"panic_msg\000"
 2858      635F6D73 
 2858      6700
 2859              	.LASF114:
 2860 0321 63685468 		.ascii	"chThdCreateStatic\000"
 2860      64437265 
 2860      61746553 
 2860      74617469 
 2860      6300
 2861              	.LASF36:
 2862 0333 705F6D73 		.ascii	"p_msg\000"
 2862      6700
 2863              	.LASF15:
 2864 0339 746D6F64 		.ascii	"tmode_t\000"
 2864      655F7400 
 2865              	.LASF73:
 2866 0341 6D61696E 		.ascii	"mainthread\000"
 2866      74687265 
 2866      616400
 2867              	.LASF14:
 2868 034c 7274636E 		.ascii	"rtcnt_t\000"
 2868      745F7400 
 2869              	.LASF39:
 2870 0354 705F7265 		.ascii	"p_realprio\000"
 2870      616C7072 
 2870      696F00
 2871              	.LASF5:
 2872 035f 73686F72 		.ascii	"short int\000"
 2872      7420696E 
 2872      7400
 2873              	.LASF54:
ARM GAS  /tmp/ccjN8g1P.s 			page 77


 2874 0369 725F6375 		.ascii	"r_current\000"
 2874      7272656E 
 2874      7400
 2875              	.LASF37:
 2876 0373 705F6570 		.ascii	"p_epending\000"
 2876      656E6469 
 2876      6E6700
 2877              	.LASF93:
 2878 037e 6D5F7175 		.ascii	"m_queue\000"
 2878      65756500 
 2879              	.LASF8:
 2880 0386 6C6F6E67 		.ascii	"long int\000"
 2880      20696E74 
 2880      00
 2881              	.LASF79:
 2882 038f 706F7274 		.ascii	"port_intctx\000"
 2882      5F696E74 
 2882      63747800 
 2883              	.LASF108:
 2884 039b 49544D5F 		.ascii	"ITM_RxBuffer\000"
 2884      52784275 
 2884      66666572 
 2884      00
 2885              	.LASF105:
 2886 03a8 63685468 		.ascii	"chThdGetPriorityX\000"
 2886      64476574 
 2886      5072696F 
 2886      72697479 
 2886      5800
 2887              	.LASF70:
 2888 03ba 63685F73 		.ascii	"ch_system\000"
 2888      79737465 
 2888      6D00
 2889              	.LASF24:
 2890 03c4 705F6E65 		.ascii	"p_next\000"
 2890      787400
 2891              	.LASF12:
 2892 03cb 75696E74 		.ascii	"uint64_t\000"
 2892      36345F74 
 2892      00
 2893              	.LASF27:
 2894 03d4 705F6374 		.ascii	"p_ctx\000"
 2894      7800
 2895              	.LASF71:
 2896 03da 726C6973 		.ascii	"rlist\000"
 2896      7400
 2897              	.LASF100:
 2898 03e0 6E616D65 		.ascii	"name\000"
 2898      00
 2899              	.LASF25:
 2900 03e5 705F7072 		.ascii	"p_prev\000"
 2900      657600
 2901              	.LASF75:
 2902 03ec 73697A65 		.ascii	"sizetype\000"
 2902      74797065 
 2902      00
 2903              	.LASF17:
ARM GAS  /tmp/ccjN8g1P.s 			page 78


 2904 03f5 74726566 		.ascii	"trefs_t\000"
 2904      735F7400 
 2905              	.LASF10:
 2906 03fd 6C6F6E67 		.ascii	"long unsigned int\000"
 2906      20756E73 
 2906      69676E65 
 2906      6420696E 
 2906      7400
 2907              	.LASF47:
 2908 040f 72656164 		.ascii	"ready_list_t\000"
 2908      795F6C69 
 2908      73745F74 
 2908      00
 2909              	.LASF109:
 2910 041c 74687265 		.ascii	"threads\000"
 2910      61647300 
 2911              	.LASF115:
 2912 0424 5F746573 		.ascii	"_test_assert_sequence\000"
 2912      745F6173 
 2912      73657274 
 2912      5F736571 
 2912      75656E63 
 2913              	.LASF7:
 2914 043a 696E7433 		.ascii	"int32_t\000"
 2914      325F7400 
 2915              	.LASF107:
 2916 0442 74687265 		.ascii	"thread\000"
 2916      616400
 2917              	.LASF86:
 2918 0449 77747365 		.ascii	"wtsemp\000"
 2918      6D7000
 2919              	.LASF98:
 2920 0450 6D757465 		.ascii	"mutex_t\000"
 2920      785F7400 
 2921              	.LASF4:
 2922 0458 756E7369 		.ascii	"unsigned char\000"
 2922      676E6564 
 2922      20636861 
 2922      7200
 2923              	.LASF101:
 2924 0466 73657475 		.ascii	"setup\000"
 2924      7000
 2925              	.LASF63:
 2926 046c 76697274 		.ascii	"virtual_timers_list_t\000"
 2926      75616C5F 
 2926      74696D65 
 2926      72735F6C 
 2926      6973745F 
 2927              	.LASF33:
 2928 0482 705F7265 		.ascii	"p_refs\000"
 2928      667300
 2929              	.LASF58:
 2930 0489 76745F6E 		.ascii	"vt_next\000"
 2930      65787400 
 2931              	.LASF120:
 2932 0491 2F686F6D 		.ascii	"/home/sylvain/Documents/TelecomRobotics/ChibiOS_16."
 2932      652F7379 
ARM GAS  /tmp/ccjN8g1P.s 			page 79


 2932      6C766169 
 2932      6E2F446F 
 2932      63756D65 
 2933 04c4 312E372F 		.ascii	"1.7/demos/STM32/RT-STM32F302R8-NUCLEO\000"
 2933      64656D6F 
 2933      732F5354 
 2933      4D33322F 
 2933      52542D53 
 2934              	.LASF69:
 2935 04ea 63685F73 		.ascii	"ch_system_t\000"
 2935      79737465 
 2935      6D5F7400 
 2936              	.LASF85:
 2937 04f6 77747472 		.ascii	"wttrp\000"
 2937      7000
 2938              	.LASF95:
 2939 04fc 6D5F6E65 		.ascii	"m_next\000"
 2939      787400
 2940              	.LASF1:
 2941 0503 7369676E 		.ascii	"signed char\000"
 2941      65642063 
 2941      68617200 
 2942              	.LASF6:
 2943 050f 73686F72 		.ascii	"short unsigned int\000"
 2943      7420756E 
 2943      7369676E 
 2943      65642069 
 2943      6E7400
 2944              	.LASF51:
 2945 0522 725F6374 		.ascii	"r_ctx\000"
 2945      7800
 2946              	.LASF77:
 2947 0528 73746B61 		.ascii	"stkalign_t\000"
 2947      6C69676E 
 2947      5F7400
 2948              	.LASF104:
 2949 0533 63685468 		.ascii	"chThdGetSelfX\000"
 2949      64476574 
 2949      53656C66 
 2949      5800
 2950              	.LASF61:
 2951 0541 76745F66 		.ascii	"vt_func\000"
 2951      756E6300 
 2952              	.LASF59:
 2953 0549 76745F70 		.ascii	"vt_prev\000"
 2953      72657600 
 2954              	.LASF83:
 2955 0551 65786974 		.ascii	"exitcode\000"
 2955      636F6465 
 2955      00
 2956              		.comm	__gnu_lto_v1,1,1
 2957              		.ident	"GCC: (GNU) 4.7.2"
ARM GAS  /tmp/ccjN8g1P.s 			page 80


DEFINED SYMBOLS
                            *ABS*:00000000 testmsg.c
     /tmp/ccjN8g1P.s:396    .text.msg1_execute:00000000 $t
     /tmp/ccjN8g1P.s:401    .text.msg1_execute:00000000 msg1_execute
     /tmp/ccjN8g1P.s:527    .text.thread:00000000 thread
     /tmp/ccjN8g1P.s:575    .rodata.str1.4:00000000 .LC0
     /tmp/ccjN8g1P.s:522    .text.thread:00000000 $t
     /tmp/ccjN8g1P.s:583    .rodata.patternmsg:00000000 patternmsg
     /tmp/ccjN8g1P.s:568    .rodata.testmsg1:00000000 testmsg1
     /tmp/ccjN8g1P.s:565    .rodata.testmsg1:00000000 $d
     /tmp/ccjN8g1P.s:574    .rodata.str1.4:00000000 $d
     /tmp/ccjN8g1P.s:580    .rodata.patternmsg:00000000 $d
                            *COM*:00000001 __gnu_lto_v1
                     .debug_frame:00000010 $d

UNDEFINED SYMBOLS
ch
wa
chThdCreateStatic
threads
chMsgWait
chMsgRelease
test_emit_token
_test_assert_sequence
chMsgSend
