ARM GAS  /tmp/cc9zij47.s 			page 1


   1              		.syntax unified
   2              		.cpu cortex-m4
   3              		.fpu softvfp
   4              		.eabi_attribute 20, 1
   5              		.eabi_attribute 21, 1
   6              		.eabi_attribute 23, 3
   7              		.eabi_attribute 24, 1
   8              		.eabi_attribute 25, 1
   9              		.eabi_attribute 26, 1
  10              		.eabi_attribute 30, 2
  11              		.eabi_attribute 34, 1
  12              		.eabi_attribute 18, 4
  13              		.thumb
  14              		.file	"testheap.c"
  15              		.text
  16              	.Ltext0:
  17              		.section	.gnu.lto_.jmpfuncs.85edd30e49bc20fd,"",%progbits
  18 0000 789C6362 		.ascii	"x\234cb`d`g\300\016\272\231\031\030d\2014\023\0201I"
  18      60646067 
  18      C00EBA99 
  18      19186481 
  18      34131031 
  19 0015 32A43232 		.ascii	"2\244220\360 \230\334 f\025\303\317\006\216TFF\306L"
  19      30F02098 
  19      DC206615 
  19      C3CF068E 
  19      544646C6 
  20 002a 468663B3 		.ascii	"F\206c\263\2362\202\2641\302\225p\241+\371\243\001R"
  20      9E3282B4 
  20      31C29570 
  20      A12BF9A3 
  20      0152
  21 003c 802AF665 		.ascii	"\200*\366e\305:FL\3217+\266AE!Fq\242+\270\262\202\017"
  21      C53A464C 
  21      D1372BB6 
  21      41452146 
  21      71A22BB8 
  22 0053 621923BA 		.ascii	"b\031#\272\035\363\301\346\201\36511(\300M\340\300\260"
  22      1DF3C1E6 
  22      81F53131 
  22      28C04DE0 
  22      C0B0
  23 0065 783E1FCC 		.ascii	"x>\037\314\271\310\302OP\364\013\240\311\336\221G\225"
  23      B9C8C24F 
  23      50F40BA0 
  23      C9DE9147 
  23      95
  24 0076 8398CD8E 		.ascii	"\203\230\315\216n\366\221\371H\256\203\250aCW\363D\016"
  24      6EF691F9 
  24      48AE83A8 
  24      614357F3 
  24      440E
  25 0088 D3DB0C98 		.ascii	"\323\333\014\230Bg\346\241\273\007b\036+\206\235\363"
  25      4267E6A1 
  25      BB07621E 
  25      2B869DF3 
  26 0098 B0FAE7CB 		.ascii	"\260\372\347\313\\|\376y#\213\220\023\204\233\315\202"
ARM GAS  /tmp/cc9zij47.s 			page 2


  26      5C7CFE79 
  26      238B9013 
  26      849BCD82 
  27 00a8 11DA73E1 		.ascii	"\021\332s\341\376\3010\177\016^\363ep\313=\221\301\346"
  27      FEC1307F 
  27      0E5EF365 
  27      70CB3D91 
  27      C1E6
  28 00ba 2F668C00 		.ascii	"/f\214\000\230\203\323\3567\263\361\331\375D\032O<\342"
  28      9883D3EE 
  28      37B3F1D9 
  28      FD441A4F 
  28      3CE2
  29 00cc 913B321B 		.ascii	"\221;2\0335\355\301\323?\334.\006\206\206\177\377\377"
  29      35EDC1D3 
  29      3FDC2E06 
  29      86867FFF 
  29      FF
  30 00dd F323C52E 		.ascii	"\363#\305.#\206\032\204\237 \321\312\310\300\214\032"
  30      23861A84 
  30      9F20D1CA 
  30      C8C08C1A 
  31 00ed A433206E 		.ascii	"\2443 n\207\21213j3h\2452\2620g22\306\201$N\000\223"
  31      878A3133 
  31      6A3368A5 
  31      32B23067 
  31      3232C681 
  32 0105 3C430727 		.ascii	"<C\007'\302\312\027\300\314'\243\247\247\017A%\251\305"
  32      C2CA17C0 
  32      CC27A3A7 
  32      A70F4125 
  32      A9C5
  33 0117 25FA4525 		.ascii	"%\372E%`:#5\261@/\231\001\000\262\242\226\216"
  33      603A2335 
  33      B1402F99 
  33      0100B2A2 
  33      968E
  34              		.text
  35              		.section	.gnu.lto_.inline.85edd30e49bc20fd,"",%progbits
  36 0000 789C6362 		.ascii	"x\234cb`d\340e\300\016\2663Bh&\006\216\347\214g\201"
  36      6064E065 
  36      C00EB633 
  36      42682606 
  36      8EE78C67 
  37 0015 0A99429A 		.ascii	"\012\231B\232\234\030\330\026\31031\260\360\202\204"
  37      9C18D816 
  37      C83331B0 
  37      F08284
  38 0024 27F8A1D2 		.ascii	"'\370\241\322\014L\334\014\014\214\030\2420.3\017\012"
  38      0C4CDC0C 
  38      0C8C18A2 
  38      302E330F 
  38      0A
  39 0035 17550F8A 		.ascii	"\027U\017\212V\034jP$\2111\007\273\026\312M\307\243"
  39      561C6A50 
  39      24893107 
  39      BB16CA4D 
ARM GAS  /tmp/cc9zij47.s 			page 3


  39      C7A3
  40 0047 837C8D78 		.ascii	"\203|\215x\203\007M\024\252\226\221\013\030=\214\014"
  40      83074D14 
  40      AA96910B 
  40      183D8C0C 
  41 0057 ECFC8C20 		.ascii	"\354\374\214 \036\"j\230A\321\006\000\220\357 \212"
  41      1E226A98 
  41      41D10600 
  41      90EF208A 
  42              		.text
  43              		.section	.gnu.lto_.pureconst.85edd30e49bc20fd,"",%progbits
  44 0000 789C6362 		.ascii	"x\234cb`d`f```e\200\000&\006\011F\011\000\0012\000?"
  44      60646066 
  44      60606065 
  44      80002606 
  44      09460900 
  45              		.text
  46              		.section	.gnu.lto_heap1_execute.85edd30e49bc20fd,"",%progbits
  47 0000 789CCD58 		.ascii	"x\234\315XIlSW\024}\357\017\266\343y\014\231\210C\022"
  47      496C5357 
  47      147DEF0F 
  47      B6E3790C 
  47      99884312 
  48 0014 88438893 		.ascii	"\210C\210\223\020 \255\252\356\333%H]RTEF\200T\024\225"
  48      1020ADAA 
  48      EEDB2548 
  48      5D525445 
  48      46805414 
  49 0029 A86AD9E0 		.ascii	"\250j\331\340\006\026\335TB]Qf:\320\204\316t\202\026"
  49      0616DD54 
  49      425D5166 
  49      3AD084CE 
  49      748216
  50 003c 150A06DA 		.ascii	"\025\012\006\332\310\215PeU,\262@j\324v\341\005\013"
  50      C88D5065 
  50      552CB240 
  50      6AD476E1 
  50      050B
  51 004e 6F2A454D 		.ascii	"o*EM\317\033\376\367\300\377\277!6\252\235\310\307\367"
  51      CF1BFEF7 
  51      C0FFBF21 
  51      36AA9DC8 
  51      C7F7
  52 0060 FD7BEEBB 		.ascii	"\375{\356\273\303\361\177\266\025B\361\367\350\303\203"
  52      C3F17FB6 
  52      1542F1F7 
  52      E8C383
  53 006f C517BB08 		.ascii	"\305\027\273\010y\026\257i\202P\345\370\002!o\364(J"
  53      7916AF69 
  53      8250E5F8 
  53      02216FF4 
  53      284A
  54 0081 F4DA04C9 		.ascii	"\364\332\004\311\246\324B+\311\216\252\322\322\270\245"
  54      A6D4422B 
  54      C98EAAD2 
  54      D2B8A5
  55 0090 494BE796 		.ascii	"IK\347\226.-\027\267\\\322rs\313\255x\337\332\004\313"
ARM GAS  /tmp/cc9zij47.s 			page 4


  55      2E2D17B7 
  55      5CD27273 
  55      CBAD78DF 
  55      DA04CB
  56 00a3 733405CB 		.ascii	"s4\005\313\243\304\037&`y\317?\005+N\275l+\352\225\014"
  56      A3C41F26 
  56      6079CF3F 
  56      052B4EBD 
  56      6C2BEA95 
  57 00b8 1F67F8A4 		.ascii	"\037g\370\244\345\347\226_Z\001n\005\244\025\344VPZ"
  57      E5E7965F 
  57      5A016E05 
  57      A415E456 
  57      505A
  58 00ca 216E85A4 		.ascii	"!n\205\244\025\346VX\211\026F`E\256u\303\212\320\230"
  58      15E65658 
  58      89164660 
  58      45AE75C3 
  58      8AD098
  59 00dd 282A6ABC 		.ascii	"(*j\274\210Q\312^\240!G\024U\323]nO\334\353\363\007"
  59      8851CA5E 
  59      A0214714 
  59      55D35D6E 
  59      4FDCEBF3 
  60 00f2 82A17024 		.ascii	"\202\241p$\032\243G^\340\215\332\334K.d\263o?\2749\323"
  60      1AA3475E 
  60      E08DDADC 
  60      4B2E64B3 
  60      6F3FBC39 
  61 0107 36F36065 		.ascii	"6\363`e%\231a\253{(\231\277\364;m'\031J\211\2070Tj\373"
  61      259961AB 
  61      7B2899BF 
  61      F43B6D27 
  61      194A8987 
  62 011f 6AC3236B 		.ascii	"j\303#k!\025;\236\324V\307o\315<'I*'\345\273\004\253"
  62      21153B9E 
  62      D456C76F 
  62      CD3C2749 
  62      2A27E5BB 
  63 0135 47B2B427 		.ascii	"G\262\264'W\325\232\362+\254o\356\374r\335\315\224\337"
  63      57D59AF2 
  63      2BAC6FEE 
  63      FC72DDCD 
  63      94DF
  64 0147 F18AFC34 		.ascii	"\361\212\3744\205$)\343-\255&\305G\012#O\212\364\177"
  64      852429E3 
  64      2DAD26C5 
  64      470A234F 
  64      8AF47F
  65 015a 0E2BD9DC 		.ascii	"\016+\331\334\371\225\232<\277B\252i\363S\310\000\027"
  65      F9959A3C 
  65      BF42AA69 
  65      F353C800 
  65      17
  66 016b 7B69F653 		.ascii	"{i\366S\272\026\345.\317\006\233\2666\321\373\301\246"
  66      BA16E52E 
  66      CF069BB6 
ARM GAS  /tmp/cc9zij47.s 			page 5


  66      36D1FBC1 
  66      A6
  67 017c CD4F2143 		.ascii	"\315O!C\274\367\213M\226\342\321\254\221\242\256\220"
  67      BCF78B4D 
  67      96E2D1AC 
  67      91A2AE90 
  68 018c 51218F13 		.ascii	"Q!\217\023{W\243\216*\3468g\376\245>6q\007'^\321\377"
  68      7B57A38E 
  68      2AE63867 
  68      FEA53E36 
  68      7107275E 
  69 01a2 9378A392 		.ascii	"\223x\243\222\350R\310\323\234\270|\342\300c3\237\341"
  69      E852C8D3 
  69      9CB87CE2 
  69      C063339F 
  69      E1
  70 01b3 CCFBCEB9 		.ascii	"\314\373\316\271\026O\\T\226\346\\\327\225\033\017V"
  70      164F5C54 
  70      96E65CD7 
  70      951B0F56 
  71 01c3 8E10F21A 		.ascii	"\216\020\362\032%\273\351'\264\227(\300\237\200*\360"
  71      25BBE927 
  71      B49728C0 
  71      9F802AF0 
  72 01d3 3C50035E 		.ascii	"<P\003^\000\352r\335\005|\027\350\006\276\007\364\310"
  72      00EA72DD 
  72      057C17E8 
  72      06BE07F4 
  72      C8
  73 01e4 F516E03C 		.ascii	"\365\026\340<\320\013\314\003}\300\367\201~\340\007"
  73      D00BCC03 
  73      7DC0F781 
  73      7EE007
  74 01f3 C000F022 		.ascii	"\300\000\360\"0(\375C\322?,\375#\300\017\201Q\340,0"
  74      3028FD43 
  74      D23F2CFD 
  74      23C00F81 
  74      51E02C30 
  75 0207 069C03C6 		.ascii	"\006\234\003\306\245\177B\372\267\002/\001\327\001?"
  75      A57F42FA 
  75      B7022F01 
  75      D7013F
  76 0216 02B6013F 		.ascii	"\002\266\001?\006\266K\277\016\340g\300N\340\347\300"
  76      06B64BBF 
  76      0EE067C0 
  76      4EE0E7C0 
  77 0226 6EE017C0 		.ascii	"n\340\027\300$\3602\260\007\370%p\003\360+`/\360k`\237"
  77      24F032B0 
  77      07F82570 
  77      03F02B60 
  77      2FF06B60 
  78 023b E4F7CB7D 		.ascii	"\344\367\313}6\002\277\001n\002~\013\034\000^\001\246"
  78      3602BF01 
  78      6E027E0B 
  78      1C005E01 
  78      A6
  79 024c A4DF20F0 		.ascii	"\244\337 \360*p3\360;\340\020\360{\340\026\3405\340"
ARM GAS  /tmp/cc9zij47.s 			page 6


  79      2A7033F0 
  79      3BE010F0 
  79      7BE016E0 
  79      35E0
  80 025e B0F44B03 		.ascii	"\260\364K\003\177\000\216\000\257\003G\2017\200c\300"
  80      7F008E00 
  80      AF034781 
  80      378063C0 
  81 026e 1F815B81 		.ascii	"\037\201[\2017\201\343\300[\300m\222\277\035\230\003"
  81      3781E3C0 
  81      5BC06D92 
  81      BF1D9803 
  82 027e EE00DE01 		.ascii	"\356\000\336\001N\000\357\002\361\320\311\261l6\254"
  82      4E00EF02 
  82      F1D0C9B1 
  82      6C36AC
  83 028d 8BF8225B 		.ascii	"\213\370\"[\321\303\335t\201?\337\303\363\036\371v\330"
  83      D1C3DD74 
  83      813FDFC3 
  83      F31EF976 
  83      D8
  84 029e C9907DE4 		.ascii	"\311\220}\344\335\005\015\260\027j\236\250\205w\202"
  84      DD050DB0 
  84      176A9EA8 
  84      857782
  85 02ad BBE9AF54 		.ascii	"\273\351\257T\307\245\303\344\357\254'C\335t\017\245"
  85      C7A5C3E4 
  85      EFAC2743 
  85      DD740FA5 
  86 02bd 8292A11E 		.ascii	"\202\222\241\036B\362D\317u\324\370\264\300G\021>LR"
  86      42F244CF 
  86      75D4F8B4 
  86      C047113E 
  86      4C52
  87 02cf 5E7EE5F5 		.ascii	"^~\345\365\014\365Q\261\345}\235\263\375\234\235?)\351"
  87      0CF551B1 
  87      E57D9DB3 
  87      FD9C9D3F 
  87      29E9
  88 02e1 935491FC 		.ascii	"\223T\221\374\000\370j5\237\241\013\032\310\320 !w\270"
  88      00F86A35 
  88      9FA10B1A 
  88      C8D02021 
  88      77B8
  89 02f3 F8184794 		.ascii	"\370\030G\2246\3112\236'G\027\324\302\311\240\021L\305"
  89      36C9329E 
  89      274717D4 
  89      C2C9A011 
  89      4CC5
  90 0305 2A63E93C 		.ascii	"*c\351<N\236\353R\\\321\3446!l\243\225\267Qqc\000-C"
  90      4E9EEB52 
  90      5CD1E436 
  90      216CA395 
  90      B7517163 
  91 031c C384DC26 		.ascii	"\303\204\334&\307\376\244e\002\273\\\375\256\330\305"
  91      C7FEA465 
  91      02BB5CFD 
ARM GAS  /tmp/cc9zij47.s 			page 7


  91      AED8C5
  92 032b 6EB48556 		.ascii	"n\264\205V\364H[<\371jM\375\021\004\326\005\001Idh\224"
  92      F4485B3C 
  92      F96A4DFD 
  92      1104D605 
  92      01496468 
  93 0340 EFBF542E 		.ascii	"\357\277T.Tw.T%\331\177VVBv\305\352\274\330_\324b\271"
  93      54772E54 
  93      25D97F56 
  93      564276C5 
  93      EABCD85F 
  94 0357 581756AD 		.ascii	"X\027V\255\213u\333\025\2530\232E\261n\253bqO\370\331"
  94      8B75DB15 
  94      AB309A45 
  94      B16EAB62 
  94      714FF8D9 
  95 036b A5B25977 		.ascii	"\245\262Yw\332\317Z\256x\351~*F\\5tR1\363\305Sf+<\217"
  95      DACF5AAE 
  95      78E97E2A 
  95      465C3574 
  95      5231F3C5 
  96 0384 B6A232CE 		.ascii	"\266\2422\316\025\335b\370\373\252\373!T\270\324i\204"
  96      15DD62F8 
  96      FBAAFB21 
  96      54B8D469 
  96      84
  97 0395 6CA927E4 		.ascii	"l\251'\344<\017\331\302C\026\315\220\336zB\346yH/\013"
  97      3C0FD9C2 
  97      4316CD90 
  97      DE7A42E6 
  97      79482F0B 
  98 03a9 A9954E39 		.ascii	"\251\225N9\212\305#\305\242-\327\366\271\312\255\305"
  98      8AC523C5 
  98      A22DD7F6 
  98      B9CAADC5 
  99 03b9 70CB7539 		.ascii	"p\313u9\271y\015\351\345O\233J\3619\317\215T\216m\241"
  99      B9790DE9 
  99      E54F9B4A 
  99      F139CF8D 
  99      548E6DA1 
 100 03cd 726C5C72 		.ascii	"rl\\r\246J\374\210$\012\2465\202\013\330\011Ne4\013"
 100      A64AFC88 
 100      240AA635 
 100      820BD809 
 100      4E65340B 
 101 03e1 C105AC04 		.ascii	"\301\005\254\004\207\222J\224\011n\351\264)\225`\375"
 101      87924A94 
 101      096EE9B4 
 101      299560FD 
 102 03f1 52098AB9 		.ascii	"R\011\212\271v\031!C\365K%\304C\226\314\220\341\372"
 102      76192143 
 102      F54B25C4 
 102      4396CC90 
 102      E1FA
 103 0403 A5121612 		.ascii	"\245\022\026\0228\355(\225\260\251\201\365Nn!\303-\357"
 103      38ED2895 
 103      B0A981F5 
ARM GAS  /tmp/cc9zij47.s 			page 8


 103      4E6E21C3 
 103      2DEF
 104 0415 E81634A4 		.ascii	"\350\0264\244R8cJ%\322\030\251D\021\311Z*1;\251h\214"
 104      5238634A 
 104      25D218A9 
 104      4411C95A 
 104      2A313BA9 
 105 042b 66219598 		.ascii	"f!\225\230\225T\\\204\334e\207\225^<cJ%\276\352!D\354"
 105      95545C84 
 105      DC658795 
 105      5E3C634A 
 105      25BEEA21 
 106 0441 A4121773 		.ascii	"\244\022\027s]o\204L\324/\225\204\230\353\031\307\271"
 106      5D6F844C 
 106      D42F9584 
 106      98EB19C7 
 106      B9
 107 0452 C68D49E4 		.ascii	"\306\215I\344\316\232\223hm\314$\326!\222HQ\251\231"
 107      CE9A9368 
 107      6DCC24D6 
 107      21924851 
 107      A999
 108 0464 449BDD24 		.ascii	"D\233\335$8\315b\022mV\223p\023\222`\203\310\2375\007"
 108      38CD6212 
 108      6D569370 
 108      13926083 
 108      C89F3507 
 109 0478 D15EFF7B 		.ascii	"\321^\377{\266]\334\336\313\335\350Xk7n\223\334\037"
 109      B65DDCDE 
 109      CBDDE858 
 109      6B376E93 
 109      DC1F
 110 048a E5123ACA 		.ascii	"\345\022:\312\242,\227\200\263\304\247Vv\246\2631\233"
 110      A22C9780 
 110      B3C4A756 
 110      76A6B331 
 110      9B
 111 049b 7596FB6E 		.ascii	"u\226\373n<v2\211\251t\027;\031\022\352<\231)\226'\325"
 111      3C763289 
 111      A974173B 
 111      1912EA3C 
 111      99299627 
 112 04b0 3DC93E63 		.ascii	"=\311>cU\346\221\264\233\220\213\271[L(Y;\241\337\010"
 112      55E691B4 
 112      9B908BB9 
 112      5B4C2859 
 112      3BA1DF08 
 113 04c4 FFAEABA1 		.ascii	"\377\256\253\241\3428\021\257\210\374N\304\326\334\274"
 113      E23811AF 
 113      88FC4EC4 
 113      D6DCBC
 114 04d3 7E1F21EC 		.ascii	"~\037!\354\234\327Jg\035E\2320\317\251n'\267vS\313\347"
 114      9CD74A67 
 114      1D459A30 
 114      CFA96E27 
 114      B77653CB 
 115 04e8 CCE9F534 		.ascii	"\314\351\3654F\313\033\020\311\372\256\322k\327)7\243"
ARM GAS  /tmp/cc9zij47.s 			page 9


 115      46CB1B10 
 115      C9FAAED2 
 115      6BD72937 
 115      A3
 116 04f9 5974AAD7 		.ascii	"Yt\252\327J\313\330PaBX<gj\271\257~-\367\011-'\215\220"
 116      4ACBD850 
 116      6142583C 
 116      676AB9AF 
 116      7E2DF709 
 117 0511 FDF5DF54 		.ascii	"\375\365\337T\372\371\034\212\347\034\347\325g\014\242"
 117      FAF91C8A 
 117      E71CE7D5 
 117      670CA2
 118 0520 541EC4C6 		.ascii	"T\036\304\306\306\014b\023\"Y\337T\006\354\006\341a"
 118      C60C6213 
 118      2259DF54 
 118      06EC06E1 
 118      61
 119 0531 348B410C 		.ascii	"4\213A\014X\015\"@\010\377 \260\\\036Dj\325]\353\261"
 119      580D2240 
 119      08FF20B0 
 119      5C1E446A 
 119      D55DEBB1 
 120 0545 1B444A1C 		.ascii	"\033DJ\034\235\263\216]K\231gg\312\311\255\337<;g\315"
 120      9DB38E5D 
 120      4B996767 
 120      CAC9ADDF 
 120      3C3B67CD 
 121 0559 E60E36A6 		.ascii	"\346\0166\246\271\233\021\311Z\345Cv\315ma4\213\346"
 121      B99B11C9 
 121      5AE54376 
 121      CD6D6134 
 121      8BE6
 122 056b 0E593517 		.ascii	"\016Y5\027\275\021Ggm\201\253\372X_\223\370\314\363"
 122      BD114767 
 122      6D81ABFA 
 122      585F93F8 
 122      CCF3
 123 057d ECF73463 		.ascii	"\354\3674c\277-\306u\204\337g,\016\257br\240\332\014"
 123      BF2DC675 
 123      84DF672C 
 123      0EAF6272 
 123      A0DA0C
 124 0590 6D98075B 		.ascii	"m\230\007[.w9\335\230.\217 \222\3502\251\351\362\250"
 124      2E7739DD 
 124      982E8F20 
 124      92E832A9 
 124      E9F2A8
 125 05a3 5D97BD8C 		.ascii	"]\227\275\214f\321\345Q\253.\207D\227\265\334\234\243"
 125      66D1E551 
 125      AB2E8744 
 125      97B5DC9C 
 125      A3
 126 05b4 DC864D1D 		.ascii	"\334\206M\035\315\231\025\2165\246\302\255\210d\255"
 126      CD99158E 
 126      35A6C2AD 
 126      8864AD
ARM GAS  /tmp/cc9zij47.s 			page 10


 127 05c3 A371BB0A 		.ascii	"\243q\273\012}\214fQ\341\270U\205aV!S\300\342\240\341"
 127      7D8C6651 
 127      E1B85585 
 127      61562153 
 127      C0E2A0E1 
 128 05d7 B7CD4888 		.ascii	"\267\315H\210-\233\354\355\306\227\301\352\374v\300"
 128      2D9BECED 
 128      C697C1EA 
 128      FC76C0
 129 05e6 1F17AB53 		.ascii	"\037\027\253S\233\260K\315\317\030\026\251MX\245\026"
 129      9BB04BCD 
 129      CF1816A9 
 129      4D58A516 
 130 05f6 11A9DD3C 		.ascii	"\021\251\335<@\0151-\360_Q.g\337\244r\344UW\357\325"
 130      400D312D 
 130      F05F512E 
 130      67DFA472 
 130      E45557EF 
 131 060b 5E1561A2 		.ascii	"^\025a\242\3427\221\372\003\305D\240\005B\251!\006\361"
 131      E23791FA 
 131      03C544A0 
 131      0542A921 
 131      06F1
 132 061d D8C98E7C 		.ascii	"\330\311\216|\\b\267\321\256tzD\374Og\016M\217\2742"
 132      5C62B7D1 
 132      AE747A44 
 132      FC4F670E 
 132      4D8FBC32 
 133 0631 CD715FE6 		.ascii	"\315q_\346\245\251\364$q\357\337;\375\362TzT=\230\036"
 133      A5A9F424 
 133      71EFDF3B 
 133      FDF2547A 
 133      543D981E 
 134 0645 D30E1D4E 		.ascii	"\323\016\035NoU\246\306\224)<\217\323\203\312\241\303"
 134      6F55A6C6 
 134      94293C8F 
 134      D383CAA1 
 134      C3
 135 0656 FF026F3E 		.ascii	"\377\002o>_Z"
 135      5F5A
 136              		.text
 137              		.section	.gnu.lto_heap1_setup.85edd30e49bc20fd,"",%progbits
 138 0000 789C6362 		.ascii	"x\234cb`\004BL \011\304\273\201X\016\210\031\231\031"
 138      6004424C 
 138      2009C4BB 
 138      81580E88 
 138      199919
 139 0013 1899269C 		.ascii	"\030\231&\234c`hT`bd\0041\200Z\352\231\030\353C!:Ou"
 139      63606854 
 139      60626404 
 139      31805AEA 
 139      9918EB43 
 140 002b 3C96BF33 		.ascii	"<\226\2773\203m?\323\201\007\377\353\031\030\230\201"
 140      836D3FD3 
 140      8107FFEB 
 140      19189881 
 141 003b 42AC0C2D 		.ascii	"B\254\014-\015\015\002\014\361P\243\003A4Hc\020#\023"
ARM GAS  /tmp/cc9zij47.s 			page 11


 141      0D0D020C 
 141      F150A303 
 141      41344863 
 141      102313
 142 004e 98C17C86 		.ascii	"\230\301|\206\201\355\312\214u\214\261\214\013\030Y"
 142      81EDCA8C 
 142      758CB18C 
 142      0B1859
 143 005d 8172550C 		.ascii	"\201rU\014?\0338R\201N\211gd\204\350\201\21202f\242"
 143      3F1B3852 
 143      814E8967 
 143      6484E881 
 143      8A303266 
 144 0072 F09918B5 		.ascii	"\360\231\030\265\031\264R\031\231\2313\031\031\343@"
 144      19B45219 
 144      99993319 
 144      19E340
 145 0081 32273881 		.ascii	"2'8\201D\007'\330\311\251\214,\014/x\200\024\320\310"
 145      440727D8 
 145      C9A98C2C 
 145      0C2F7880 
 145      14D0C8
 146 0094 730C8C40 		.ascii	"s\014\214@7\301\314\2079\203\021l;\320\015\0142zz\372"
 146      37C1CC87 
 146      3983116C 
 146      3BD00D0C 
 146      327A7AFA 
 147 00a8 1054925A 		.ascii	"\020T\222Z\\\242_T\002\2463R\023\013\364\222\031\000"
 147      5CA25F54 
 147      02A63352 
 147      130BF492 
 147      1900
 148 00ba 22BF312B 		.ascii	"\"\2771+"
 149              		.text
 150              		.section	.gnu.lto_.cgraph.85edd30e49bc20fd,"",%progbits
 151 0000 789C3D90 		.ascii	"x\234=\220\315JC1\020\205g2\267\355K\224v\347K\271\262"
 151      CD4A4331 
 151      10856732 
 151      B7ED4B94 
 151      76E74BB9 
 152 0015 175A68A1 		.ascii	"\027Zh\241\202/0\205\200\242B\025\273+\342&+\237#{\227"
 152      822F3085 
 152      80A24215 
 152      BB2BE226 
 152      2B9F237B 
 153 002a ED56092E 		.ascii	"\355V\011.\335(\370\013b\346\344\232\273\310\2273?g"
 153      DD28F80B 
 153      62E6E49A 
 153      BBC89733 
 153      3F67
 154 003c 26D71193 		.ascii	"&\327\021\223\020\321\013S\371\334\033+\321\365\003"
 154      10D10B53 
 154      F9DC1B2B 
 154      D1F503
 155 004b A9DE9E1F 		.ascii	"\251\336\236\037\271WV\256\212\277X\035\324j\305\374"
 155      B95756AE 
 155      8ABF581D 
ARM GAS  /tmp/cc9zij47.s 			page 12


 155      D46AC5FC 
 156 005b C12A557C 		.ascii	"\301*U|\2636U|\262\366\252xg\355W\361\303:\370\027B"
 156      B336557C 
 156      B2F6AA78 
 156      67ED57F1 
 156      C33AF817 
 157 0070 7DF28FBF 		.ascii	"}\362\217\277\231B\001\354Q\004\035\205'cC\351\376\300"
 157      994201EC 
 157      51041D85 
 157      276343E9 
 157      FEC0
 158 0082 C2FEF4B9 		.ascii	"\302\376\364\271\261p\002s\371\331\256\224w\364\027"
 158      B1700273 
 158      F9D9AE94 
 158      77F417
 159 0091 9D061BF2 		.ascii	"\235\006\033\362\227\205\241c\004\205\022\230\355\327"
 159      9785A163 
 159      04851298 
 159      EDD7
 160 009f A53EAD87 		.ascii	"\245>\255\207\206p\005$Cn\272\001bA2\010\371\315\320"
 160      86700524 
 160      436EBA01 
 160      62413208 
 160      F9CDD0
 161 00b2 1AE30695 		.ascii	"\032\343\006\225~'\030g\310\323\366\202\245\014y\307"
 161      7E271867 
 161      C8D3F682 
 161      A50C79C7 
 162 00c2 3D72615B 		.ascii	"=ra[&\026\204CK\371\273\262\315\010\306#\370\216a;\206"
 162      26168443 
 162      4BF9BBB2 
 162      CD08C623 
 162      F88E613B 
 163 00d7 EB04A613 		.ascii	"\353\004\246\023x\266hk\341\330\302p\212.\234~\206\354"
 163      78B6686B 
 163      E1D8C270 
 163      8A2E9C7E 
 163      86EC
 164 00e9 0CD9729F 		.ascii	"\014\331r\237\343\005s\334\027\210/\360\230\245E\342"
 164      E30573DC 
 164      17882FF0 
 164      98A545E2 
 165 00f9 12E38FF1 		.ascii	"\022\343\217\361\366\023\341\001~<\375\001\004\363{"
 165      F613E101 
 165      7E3CFD01 
 165      04F37B
 166 0108 26       		.ascii	"&"
 167              		.text
 168              		.section	.gnu.lto_.vars.85edd30e49bc20fd,"",%progbits
 169 0000 789C6362 		.ascii	"x\234cb`d`f``\220d\200\000\226\217\214\014,\365\314"
 169      60646066 
 169      60609064 
 169      8000968F 
 169      8C0C2CF5 
 170 0015 7F181919 		.ascii	"\177\030\031\031\352\031\27622\261\3263|ad\006\222\000"
 170      EA19BE32 
 170      32B1D633 
ARM GAS  /tmp/cc9zij47.s 			page 13


 170      7C616406 
 170      9200
 171 0027 55370611 		.ascii	"U7\006\021"
 172              		.text
 173              		.section	.gnu.lto_.refs.85edd30e49bc20fd,"",%progbits
 174 0000 789C6362 		.ascii	"x\234cb`d`f``\210`\200\000I\006V\222!\023#\220dd`ab"
 174      60646066 
 174      60608860 
 174      80004906 
 174      56922113 
 175 001b 6586400E 		.ascii	"e\206@\016f\026F\026\006d\314\000\000RR\001X"
 175      66164616 
 175      0664CC00 
 175      00525201 
 175      58
 176              		.text
 177              		.section	.gnu.lto_.statics.85edd30e49bc20fd,"",%progbits
 178 0000 789C6362 		.ascii	"x\234cb`d`b\300\016@\342\214\020&\000\000\375\000\011"
 178      60646062 
 178      C00E40E2 
 178      8C102600 
 178      00FD0009 
 179              		.text
 180              		.section	.gnu.lto_.decls.85edd30e49bc20fd,"",%progbits
 181 0000 789CAD5A 		.ascii	"x\234\255Z\177p\024\325\035\177\273\233\373\225\304"
 181      7F7014D5 
 181      1D7FBB9B 
 181      FB95C4
 182 000f 88D832A1 		.ascii	"\210\3302\241\343@\332JK\255& T\261S-\026\247b[u\246"
 182      E340DA4A 
 182      4BAD2620 
 182      54B1532D 
 182      16A7625B 
 183 0025 A533F68F 		.ascii	"\2453\366\217\233\353q\331$\247\311\335\271\267!\301"
 183      9BEB71D9 
 183      24A7C9DD 
 183      B9B721C1 
 184 0035 BF566835 		.ascii	"\277Vh5\255\325\006\230@b\211\004\005\001\345\267`\001"
 184      ADD50698 
 184      40628904 
 184      0501E5B7 
 184      6001
 185 0047 29A418F9 		.ascii	")\244\030\371!\221\237\001$\204\037\023\"\"\023( \210"
 185      21919F01 
 185      24841F13 
 185      22221328 
 185      2088
 186 0059 4034FDBE 		.ascii	"@4\375\276\267\273o\337nv\357n/\354\344\275\335\333"
 186      B7BB6FDF 
 186      6E76EF6E 
 186      2FECE4BD 
 186      DDDB
 187 006b 7DDFCFF7 		.ascii	"}\337\317\367\367\373\225\307#\016\341k\"\334\372\341"
 187      F7FB95C7 
 187      230EE16B 
 187      22DCFAE1 
 188 007b CA1B8FD0 		.ascii	"\312\033\217\320G\036\204\004x\3670\024\217VZ\240,\207"
ARM GAS  /tmp/cc9zij47.s 			page 14


 188      471E8404 
 188      78F73014 
 188      8F565AA0 
 188      2C87
 189 008d 320DDAD5 		.ascii	"2\015\332\325@\301T\323\241\362\303\3755\270\317\206"
 189      40C154D3 
 189      A1F2C3FD 
 189      35B8CF86 
 190 009d D200A519 		.ascii	"\322\000\245\031\312[P\226@Y\016e\025\224\034h\263\036"
 190      CA5B5096 
 190      40590E65 
 190      15941C68 
 190      B31E
 191 00af EEFF86B2 		.ascii	"\356\377\206\262\021\312^\225%\2750\375\235p\237\007"
 191      11CA5E95 
 191      25BD30FD 
 191      9D709F07 
 192 00bf F702B8E7 		.ascii	"\367\002\270\347k<1\335#\032\337N\370\266\002\3121N"
 192      6B3C31DD 
 192      231ADF4E 
 192      F8B602CA 
 192      314E
 193 00d1 956521DC 		.ascii	"\225e!\334\337\200\322\005e)\224\343P\346B9\001e\221"
 193      DF80D205 
 193      652994E3 
 193      50E64239 
 193      016591
 194 00e4 86EFD5B0 		.ascii	"\206\357\325\260\227kr-\321d|K\223\177\275E\016\254"
 194      976B722D 
 194      D1647C4B 
 194      937FBD45 
 194      0EAC
 195 00f6 03A639A9 		.ascii	"\003\2469\251\361\320u\305\262\254ft\346\265\266\253"
 195      F1D075C5 
 195      B2AC6674 
 195      E6B5B6AB 
 196 0106 B4675D37 		.ascii	"\264g]7\366\312C\177W\224\031J\313K\312\344\235\005"
 196      F6CA437F 
 196      5794194A 
 196      CB4BCAE4 
 196      9D05
 197 0118 43D12C05 		.ascii	"C\321,\005\256\242\272\323\320j8\012r\005\001\204\024"
 197      AEA2BAD3 
 197      D06A380A 
 197      72050184 
 197      14
 198 0129 9E3CE6C3 		.ascii	"\236<\346\303c\021\020\214B\213\024\245\036ZqAn!7\024"
 198      6311108C 
 198      428B14A5 
 198      1E5A7141 
 198      6E213714 
 199 013d 80790EDD 		.ascii	"\200y\016\335\203\226)\344\322\320\265\333\020\264e"
 199      839629E4 
 199      D2D0B5DB 
 199      10B465
 200 014c D7AA11EA 		.ascii	"\327\252\021\352s&\330<\232\300\301\317\305\000\033"
 200      7326D83C 
ARM GAS  /tmp/cc9zij47.s 			page 15


 200      9AC0C1CF 
 200      C5001B
 201 015b E41671F7 		.ascii	"\344\026q\367\250\314\024\225\031~\213\264\367}MS\321"
 201      A8CC1495 
 201      197E8BB4 
 201      F77D4D53 
 201      D1
 202 016c C04BF83E 		.ascii	"\300K\370>j\001e\352g*\223\275&\275\206\241\006\014"
 202      6A0165EA 
 202      672A93BD 
 202      26BD86A1 
 202      060C
 203 017e 023F144E 		.ascii	"\002?\024N\016r\217\344Q\001\212(\377\034\002\021\344"
 203      0E728FE4 
 203      51018A28 
 203      FF1C0211 
 203      E4
 204 018f DEE186A9 		.ascii	"\336\341\206\251`\304d(\200\352\014\034\344@\307\332"
 204      60C46428 
 204      80EA0C1C 
 204      E440C7DA 
 205 019f 64391700 		.ascii	"d9\027\000\312\3078M\322\013\3778\266\247\004i\330\236"
 205      CAC7384D 
 205      D20BFF38 
 205      B6A70469 
 205      D89E
 206 01b1 002B2EF9 		.ascii	"\000+.\371\255\266R\201\325\317\372\023\216\362\333"
 206      ADB65281 
 206      D5CFFA13 
 206      8EF2DB
 207 01c0 C194416E 		.ascii	"\301\224An\212\240Q\244\347\276\214\313\003\356\257"
 207      8AA051A4 
 207      E7BE8CCB 
 207      03EEAF
 208 01cf 703AFBEE 		.ascii	"p:\373\356\206\243\237\3606\236V\365t\266\302\032\300"
 208      86A39FF0 
 208      369E56F5 
 208      74B6C21A 
 208      C0
 209 01e0 D145335F 		.ascii	"\321E3_\003\276\361h3\247{m\313\337\326\267\013\366"
 209      03BEF168 
 209      33A77B6D 
 209      CBDFD6B7 
 209      0BF6
 210 01f2 A8FAB359 		.ascii	"\250\372\263Y\023\355\"\216SZf*u\202\367N4\033;\253"
 210      13ED228E 
 210      535A662A 
 210      7582F74E 
 210      341B3BAB 
 211 0206 D56B8A94 		.ascii	"\325k\212\224\211\024\300Ox\356 <\327qw\332D\012~\253"
 211      8914C04F 
 211      78EE203C 
 211      D77177DA 
 211      440A7EAB 
 212 021a 474A7BE3 		.ascii	"GJ{\343\010\233H\341\325HQ\031j.n}I\251\343^\\s\227"
 212      089B48E1 
 212      D5485119 
ARM GAS  /tmp/cc9zij47.s 			page 16


 212      6A2E6E7D 
 212      49A9E35E 
 213 0231 134FD6CC 		.ascii	"\023O\326\314\033\210\223\017R3\337h\376`\207f\216,"
 213      1B88930F 
 213      5233DF68 
 213      FE608766 
 213      8E2C
 214 0243 D03E2068 		.ascii	"\320> h\177\341u\264\257\026]\332\361\013\335\332\001"
 214      7FE175B4 
 214      AF165DDA 
 214      F10BDDDA 
 214      01
 215 0254 4BCC04CC 		.ascii	"K\314\004\3141\023\2401\023\320b\206\\\346,wA\305\243"
 215      3113A031 
 215      13D06286 
 215      5CE62C77 
 215      41C5A3
 216 0267 CF79DDB2 		.ascii	"\317y\335\262[\226\255\271\302\331\213\237\2017A\271"
 216      5B96ADB9 
 216      C2D98B9F 
 216      813741B9 
 217 0277 C95E2DEB 		.ascii	"\311^-\353[&\262\311c\206\302\342\265\332f|+\223\361"
 217      5B26B2C9 
 217      6386C2E2 
 217      B5DA667C 
 217      2B93F1
 218 028a 5D8D058E 		.ascii	"]\215\005\216~TH\306kq\323\342u\316S\014\366\241m\310"
 218      7E5448C6 
 218      6B71D3E2 
 218      75CE530C 
 218      F6A16DC8 
 219 029e 7CC8844C 		.ascii	"|\310\204LO\3430\347\220\031\330\271\250\266rf\270\035"
 219      4FE330E7 
 219      9019D8B9 
 219      A8B67266 
 219      B81D
 220 02b0 D245C740 		.ascii	"\322E\307@\347\211q1\267\336\306s\\\266\231\242J\021"
 220      E7897131 
 220      B7DEC673 
 220      5CB699A2 
 220      4A11
 221 02c2 E45A48B6 		.ascii	"\344ZH\266_\246\230W\012\263@\244\262]#8\330\350}\215"
 221      5FA69857 
 221      0AB340A4 
 221      B25D2338 
 221      D8E87D8D 
 222 02d6 23062B9A 		.ascii	"#\006+\232\332\015^\247\220mMg\\\251[d\021\356[\032"
 222      DA0D5EA7 
 222      906D4D67 
 222      5CA95B64 
 222      11EE5B1A 
 223 02ea 95ED4DC3 		.ascii	"\225\355M\303\262\210I\012\244\010zg\325\361\372\231"
 223      B288490A 
 223      A4087A67 
 223      D5F1FA99 
 224 02fa 34D1ED77 		.ascii	"4\321\355wT\323\024\335El\304\301\020\250\223\017A\346"
 224      54D314DD 
ARM GAS  /tmp/cc9zij47.s 			page 17


 224      456CC4C1 
 224      10A8930F 
 224      41E6
 225 030c 3CDF4786 		.ascii	"<\337G\206\313\227\005=\317\277]wT\313\323\014\200x"
 225      CB97053D 
 225      CFBF5D77 
 225      54CBD30C 
 225      8078
 226 031e B48A101E 		.ascii	"\264\212\020\036\264M\225\203L\252\264\317\363Z\325"
 226      B44D9583 
 226      4CAAB4CF 
 226      F35AD5
 227 032d 46FAE0E8 		.ascii	"F\372\340\350,\267s\367t\204\210\275\201\212\335\275"
 227      2CB773F7 
 227      748488BD 
 227      818ADDBD 
 228 033d 79FFF627 		.ascii	"y\377\366'Lr\247Jo\210yB\331i+w'#\367\215\255'w\027"
 228      4C72A74A 
 228      6F887942 
 228      D9692B77 
 228      2723F78D 
 229 0355 DA48EE98 		.ascii	"\332H\356\230yvj\264\344P\356\217Y\3648I\364X\220c\350"
 229      79766AB4 
 229      E450EE8F 
 229      59F43849 
 229      F4589063 
 230 036a D17F4870 		.ascii	"\321\177Hp\266\277\005\211GK\011e\267\255\036\335&="
 230      B6BF0589 
 230      474B0965 
 230      B7AD1EDD 
 230      263D
 231 037c 1AF6D8E9 		.ascii	"\032\366\330\3511\324\224 'H\356\256\245\230]\033\006"
 231      31D49420 
 231      2748EEAE 
 231      A5985D1B 
 231      06
 232 038d DF1FA898 		.ascii	"\337\037\250\230\033)f\357\204,R\216At=\3719G\262\276"
 232      1B2966EF 
 232      842C528E 
 232      41743DF9 
 232      3947B2BE 
 233 03a1 D53071FB 		.ascii	"\3250q\373\254\356O}*\256k\260\363\004\354\233\034c"
 233      ACEE4F7D 
 233      2AAE6BB0 
 233      F304EC9B 
 233      1C63
 234 03b3 58DCBF9D 		.ascii	"X\334\277\235N\245|\226a\321g\036\340|t\200\363\031"
 234      4EA57C96 
 234      61D1671E 
 234      E07C7480 
 234      F319
 235 03c5 5329D704 		.ascii	"S)\327\004<z\311\243\333\362\306\326\005{\036Jm\316"
 235      3C7AC9A3 
 235      DBF2C6D6 
 235      057B1E4A 
 235      6DCE
 236 03d7 54DDC54C 		.ascii	"T\335\305Lf0L1B\361\350U\302\361\262m\224]f\243\254"
ARM GAS  /tmp/cc9zij47.s 			page 18


 236      66304C31 
 236      42F1E855 
 236      C2F1B26D 
 236      945D66A3 
 237 03ec F9BD8FED 		.ascii	"\371\275\217\355\242\214s\225-\306\374\373n\302\275"
 237      A28C7395 
 237      2DC6FCFB 
 237      6EC2BD
 238 03fb 8170BF66 		.ascii	"\201p\277f\313\375\032\303\375\355\303k,s\014\315\311"
 238      CBFD1AC3 
 238      FDEDC36B 
 238      2C730CCD 
 238      C9
 239 040c CEA3E4C3 		.ascii	"\316\243\344\303\337\315\300\3477I\004\357\366\030\023"
 239      DFCDC0E7 
 239      374904EF 
 239      F61813
 240 041b AB7FED18 		.ascii	"\253\177\355\030\251\273\354\221<\226\025\371m\232\207"
 240      A9BBEC91 
 240      3C9615F9 
 240      6D9A87
 241 042a 7650E1DF 		.ascii	"vP\341\337><\353\235\327=\203M'U\230#\024\265\3757\203"
 241      3E3CEB9D 
 241      D73D834D 
 241      27559823 
 241      14B5FD37 
 242 043f 4B271DB1 		.ascii	"K'\035\261\223\"v\244At\216(3\342q\212\330\345\012\321"
 242      932276A4 
 242      41748E28 
 242      33E2718A 
 242      D8E50AD1 
 243 0453 59C65314 		.ascii	"Y\306S\024\261'\015\342\220\014e<M\021{]!:\313x\206"
 243      B1270DE2 
 243      900C653C 
 243      4D117B5D 
 243      213ACB78 
 244 0468 225E4983 		.ascii	"\"^I\203X\230\241\214\347(b\237+Dg\031/P\304\266\337"
 244      5898A18C 
 244      E728629F 
 244      2B446719 
 244      2F50C4B6 
 245 047d A6462CB2 		.ascii	"\246F,\262\223q@LYg\227_\261\263\313K\264\357\270\321"
 245      9371404C 
 245      5967975F 
 245      B1B3CB4B 
 245      B4EFB8D1 
 246 0491 BCFEE392 		.ascii	"\274\376\343\222\301L\006\2572\035\337\032w\035\237"
 246      C14C06AF 
 246      321DDF1A 
 246      771D9F
 247 04a0 9D31D491 		.ascii	"\2351\324\221\351&\005\355\330\230n\264K\037V*\346L"
 247      E92605ED 
 247      D8986EB4 
 247      4B1F562A 
 247      E64C
 248 04b2 2F1D41D3 		.ascii	"/\035A\323H\231.\254L\375\2256Z\235Z\334Z\330\310t\230"
 248      48992EAC 
ARM GAS  /tmp/cc9zij47.s 			page 19


 248      4CFD9536 
 248      5A9D5ADC 
 248      5AD8C874 
 249 04c7 7E8A867B 		.ascii	"~\212\206{?\243w\244\315\225\302B\247\326A\256\221\037"
 249      3FA377A4 
 249      CD95C242 
 249      A7D641AE 
 249      911F
 250 04d9 0575131F 		.ascii	"\005u\023\037\240\222h\317\364Q]\202\275\342\305\355"
 250      A09268CF 
 250      F4515D82 
 250      BDE2C5ED 
 251 04e9 EDFAD7F4 		.ascii	"\355\372\327\364\324\316\2412\227gB\245\236\232\255"
 251      D4CEA132 
 251      976742A5 
 251      9E9AAD
 252 04f8 E3E759E7 		.ascii	"\343\347Y\347\316\305\031J\241\227Q=\215\245\264>\276"
 252      CEC5194A 
 252      A197513D 
 252      8DA5B43E 
 252      BE
 253 0509 99C7E3FA 		.ascii	"\231\307\343\372<\2571IXs\362a\025\3265V\013\301j\361"
 253      3CAF3149 
 253      5873F261 
 253      15D63556 
 253      0BC16AF1 
 254 051d 1A7384F5 		.ascii	"\032s\204\365\337\360\272\2518\313\034\2013\017\371"
 254      DFF0BAA9 
 254      38CB1C81 
 254      330FF9
 255 052c 1C351EA7 		.ascii	"\0345\036\247\331\316]k\230\021z\215$\271i$\211Y\334"
 255      D9CE5D6B 
 255      98117A8D 
 255      24B96924 
 255      8959DC
 256 053f 0C7A8CEC 		.ascii	"\014z\214\354\354\270\230\350\276\232\261\343,\335\216"
 256      ECB898E8 
 256      BE9AB1E3 
 256      2CDD8E
 257 054e AA61DCAA 		.ascii	"\252a\334\252\263\201Qg\316^W\352\214\036\274:\357\020"
 257      B3815167 
 257      CE5E57EA 
 257      8C1EBC3A 
 257      EF10
 258 0560 755A1975 		.ascii	"uZ\031u\366\017N\235\235\214:\315\356\324\031\303\250"
 258      F60F4E9D 
 258      9D8C3ACD 
 258      EED419C3 
 258      A8
 259 0571 E36A7761 		.ascii	"\343jwa\025o\267\273\200\337\3523\247\216\255v\033\031"
 259      156FB7BB 
 259      80DFEA33 
 259      A78EAD76 
 259      1B19
 260 0583 3E8615B1 		.ascii	">\206\025\261\234\342b\242\274\226Xn/\233P\346Y\267"
 260      9CE262A2 
 260      BC96586E 
ARM GAS  /tmp/cc9zij47.s 			page 20


 260      2F9B50E6 
 260      59B7
 261 0595 1BB0F504 		.ascii	"\033\260\365\004\354\020\223Q[\267\337\247[\335k\361"
 261      EC109351 
 261      5BB7DFA7 
 261      5BDD6BF1 
 262 05a5 82D7EC05 		.ascii	"\202\327\354\005\374\031s\373\232l&\031\333J\3727\374"
 262      FC1973FB 
 262      9A6C2619 
 262      DB4AFA37 
 262      FC
 263 05b6 C3876E05 		.ascii	"\303\207n\005\004Ly\210\204\330\262\020\254\007\322"
 263      044C7988 
 263      84D8B210 
 263      AC07D2
 264 05c5 74FDC8E4 		.ascii	"t\375\310\344]4\300\273\272\015{(h\333\023\203\235="
 264      5D34C0BB 
 264      BA0D7B28 
 264      68DB1383 
 264      9D3D
 265 05d7 3E8247A7 		.ascii	">\202G\247\363\024\260o\327`\327w\246\361\3112\271\306"
 265      F314B06F 
 265      D760D777 
 265      A6F1C932 
 265      B9C6
 266 05e9 6BDBF4BE 		.ascii	"k\333\364\276\335\312c\231\256\030\201\262\271i\373"
 266      DDCA6399 
 266      AE1881B2 
 266      B969FB
 267 05f8 BDBA234E 		.ascii	"\275\272#Np\226\351\365\011\363>\257s\320oa\007\226"
 267      7096E9F5 
 267      09F33EAF 
 267      73D06F61 
 267      0796
 268 060a 977D865F 		.ascii	"\227}\206_\216\037H3\266\270R\331n\001\363g\012\225"
 268      8E1F4833 
 268      B6B852D9 
 268      6E01F367 
 268      0A95
 269 061c 4FB8BF4A 		.ascii	"O\270\277J\270\177\304\333\255_\360[=\013\317]\235u"
 269      B87FC4DB 
 269      AD5FF05B 
 269      3D0BCF5D 
 269      9D75
 270 062e 6C341A78 		.ascii	"l4\032x\351\033\212\012q\241\272\363\261\211b\366\276"
 270      E91B8A0A 
 270      71A1BAF3 
 270      B18962F6 
 270      BE
 271 063f 5FA033B6 		.ascii	"_\2403\266\3370J\027g\256\263q7\011\313m>&\265O\353"
 271      DF304A17 
 271      67AEB371 
 271      3709CB6D 
 271      3E26B54F 
 272 0654 A9ADE6AA 		.ascii	"\251\255\346\252\311e\331&\323N\252\342\271\253\227"
 272      C965D926 
 272      D34EAAE2 
ARM GAS  /tmp/cc9zij47.s 			page 21


 272      B9AB97
 273 0663 8E65B3CC 		.ascii	"\216e\263\314\265\250>0H\332\330 \331\303\004\3117\267"
 273      B5A83E30 
 273      48DAD820 
 273      D9C304C9 
 273      37B7
 274 0675 3448D4AD 		.ascii	"4H\324\2550g1\366\263b\034\242b\364\375np2\270\336\334"
 274      306731F6 
 274      B3621CA2 
 274      62F4FD6E 
 274      7032B8DE 
 275 068a E8208EED 		.ascii	"\350 \216\355b\034{\251\333p\354y\353\324%\263\335\212"
 275      621C7BA9 
 275      DB70EC79 
 275      EBD425B3 
 275      DD8A
 276 069c B38C59B7 		.ascii	"\263\214Y\267\036\314\246O\244\246\371\237O\037<\333"
 276      1ECCA64F 
 276      A4A6F99F 
 276      4F1F3CDB 
 277 06ac 9FCA62DD 		.ascii	"\237\312b\335\342n\327\2035L'\217s\356K\3030\233\337"
 277      E26ED783 
 277      354C278F 
 277      73EE4BC3 
 277      309BDF
 278 06bf DB3E5905 		.ascii	"\333>Y\005\315h\377d\206\037S\036\267\355\001\216\363"
 278      CD68FF64 
 278      861F531E 
 278      B7ED018E 
 278      F3
 279 06d0 EC2EDD7E 		.ascii	"\354.\335~\333\335Fn\300\032#\310\235\341x\015\263}"
 279      DBDD466E 
 279      C01A23C8 
 279      9DE1780D 
 279      B37D
 280 06e2 6556BDF8 		.ascii	"eV\275\370\300\213\025\021\272oX\030\200|\247\240\373"
 280      C08B1511 
 280      BA6F5818 
 280      807CA7A0 
 280      FB
 281 06f3 A11E98ED 		.ascii	"\241\036\230\355\327=peO\272\275s\263\017\212L>`\273"
 281      D73D7065 
 281      4FBABD73 
 281      B30F8A4C 
 281      3E60BB
 282 0706 B2F914B3 		.ascii	"\262\371\024\263\347\351\324=\331\3504^\325G\314%\024"
 282      E7E9D43D 
 282      D9E8345E 
 282      D547CC25 
 282      14
 283 0717 B1ED99D4 		.ascii	"\261\355\231\3242\216qD\324\215\255\346\304\012CoW\210"
 283      328E7144 
 283      D48DADE6 
 283      C40A436F 
 283      5788
 284 0729 453688FB 		.ascii	"E6\210\373\311\200\267\201\"\366\036M\347\276\011i\245"
 284      C980B781 
ARM GAS  /tmp/cc9zij47.s 			page 22


 284      22F61E4D 
 284      E7BE0969 
 284      A5
 285 073a 54F738B7 		.ascii	"T\3678\267Q\314\366\316t\336\231\220VN2W\370\3040\345"
 285      51CCF6CE 
 285      74DE9990 
 285      564E3257 
 285      F8C430E5 
 286 074e B174624E 		.ascii	"\261tbN\3144\312\214\355\352 \327\303\215BC\203\334"
 286      CC34CA8C 
 286      EDEA20D7 
 286      C38D4243 
 286      83DC
 287 0760 6710E241 		.ascii	"g\020\342A\356sR\177A\352K\244\236\305\343z\016\251"
 287      EE73527F 
 287      41EA4BA4 
 287      9EC5E37A 
 287      0EA9
 288 0772 1B483D9F 		.ascii	"\033H=\237\324\213H\275\214\324+I}\224\324\335\244\356"
 288      D48B48BD 
 288      8CD42B49 
 288      7D94D4DD 
 288      A4EE
 289 0784 21F51952 		.ascii	"!\365\031R\237%\3659R\367\032\261\354\334\033[\246\030"
 289      9F25F539 
 289      52F71AB1 
 289      ECDC1B5B 
 289      A618
 290 0796 7AA6E1FF 		.ascii	"z\246\341\377\012\264e\263}a\223\273g)b\273+\304\"g"
 290      0AB465B3 
 290      7D6193BB 
 290      672962BB 
 290      2BC42267 
 291 07aa 9B763236 		.ascii	"\233v26\355\002\233\362\220\314\304\202\027\330\374"
 291      ED029BF2 
 291      90CCC482 
 291      17D8FC
 292 07b9 3DE4D7FF 		.ascii	"=\344\327\377]\363\355\272\253\237\320\377\212\273\235"
 292      5DF3EDBA 
 292      AB9FD0FF 
 292      8ABB9D
 293 07c8 3898773B 		.ascii	"8\230w;\216S\320\236"
 293      8E53D09E 
 294 07d0 2305A9D5 		.ascii	"#\005\251\325I\267wh\0316\367\245\0346\277d\207\315"
 294      49B77768 
 294      1936F7A5 
 294      1C36BF64 
 294      87CD
 295 07e2 CFA81057 		.ascii	"\317\250\020W|ndHa\322\203\214I\017\201I\205 w\230\230"
 295      7C6E6448 
 295      61D2838C 
 295      490F8149 
 295      85207798 
 296 07f7 F42209A6 		.ascii	"\364\"\011\246\313\254a{\375\364\270\301.\346\270\201"
 296      CBAC617B 
 296      FDF4B8C1 
 296      2EE6B881 
ARM GAS  /tmp/cc9zij47.s 			page 23


 297 0807 E5FF65EC 		.ascii	"\345\377e\354sF\231\262\230\021a\211*\302R\"\302{\244"
 297      734699B2 
 297      98116189 
 297      2AC25222 
 297      C27BA4
 298 081a DECB6510 		.ascii	"\336\313e\020\317-\306\034\332d\336;P=\031\271\3600"
 298      CF2DC61C 
 298      DA64DE3B 
 298      503D19B9 
 298      F030
 299 082c F4BCBA9A 		.ascii	"\364\274\272\232\325AZ\313(\312\331|\015\346\032\177"
 299      D5415ACB 
 299      28CAD97C 
 299      0DE61A7F 
 300 083c 0779324D 		.ascii	"\007y2M\027I\033g\326_3\373B\371\001\366\351\363\374"
 300      17491B67 
 300      D65F33FB 
 300      42F901F6 
 300      E9F3FC
 301 084f B4727F65 		.ascii	"\264r\177e\270\227\216\032\205^U\020\036]\006\203k\353"
 301      B8978E1A 
 301      855E5510 
 301      1E5D0683 
 301      6BEB
 302 0861 5FF3F11D 		.ascii	"_\363\361\035\253\354<\272N|s\323v\025|\223Y\005o\352"
 302      ABEC3CBA 
 302      4E7C73D3 
 302      76157C93 
 302      59056FEA 
 303 0875 B8DC5D6B 		.ascii	"\270\334]k\343\006c\376]'xm\217\014\331\331\253\337"
 303      E30663FE 
 303      5D27786D 
 303      8F0CD9D9 
 303      ABDF
 304 0887 76B4EF67 		.ascii	"v\264\357gF\373\036\333\343\003\036\226\033\353\243"
 304      46FB1EDB 
 304      E3031E96 
 304      1BEBA3
 305 0896 C602F58C 		.ascii	"\306\002\365\214\007e\372\035\312t'\2571\235!\270w\322"
 305      0765FA1D 
 305      CA7427AF 
 305      319D21B8 
 305      77D2
 306 08a8 4CC1C949 		.ascii	"L\301\311I\372b\204G\013\002\234\246Ro\3430'\0012Yp"
 306      FA628447 
 306      0B029CA6 
 306      526FE330 
 306      27013259 
 307 08bd 10AD5439 		.ascii	"\020\255T9y\364&E5\016\0118\201j*f\200\272\230\242\366"
 307      79F42645 
 307      350E0938 
 307      816A2A66 
 307      80BA98A2 
 308 08d2 A545ADF7 		.ascii	"\245E\255\367d\212\272\224\242\266\015O\207\252\315"
 308      648ABA94 
 308      A2B60D4F 
 308      87AACD
ARM GAS  /tmp/cc9zij47.s 			page 24


 309 08e1 9933407D 		.ascii	"\2313@}\227\242\266\247Em\311\265C\245.Z\031\320\243"
 309      97A2B6A7 
 309      456DC9B5 
 309      43A52E5A 
 309      19D0A3
 310 08f4 BC63B853 		.ascii	"\274c\270S\\\246\364P\220\273n\364h]M\261\254@F\242"
 310      5CA6F450 
 310      90BB6EF4 
 310      685D4DB1 
 310      AC4046A2 
 311 0908 3794D68B 		.ascii	"7\224\326\213\270/\207\365\235\317r\306\315\361\277"
 311      B82F87F5 
 311      9DCF72C6 
 311      CDF1BF
 312 0917 6D98F93F 		.ascii	"m\230\371?\205a\332\223~\264\214Gk\002\364X\302\221"
 312      8561DA93 
 312      7EB48C47 
 312      6B02F458 
 312      C291
 313 0929 B5A73FD5 		.ascii	"\265\247?\325\217\234\241\037\241\305\030\267uF!\001"
 313      8F9CA11F 
 313      A1C518B7 
 313      75462101 
 314 0939 C544AF09 		.ascii	"\305D\257\011#M\006\011r\365\002\317\2760K\246\362\203"
 314      234D0609 
 314      72F502CF 
 314      BE304BA6 
 314      F283
 315 094b C50EE5D0 		.ascii	"\305\016\345\320V\230\002}\366\000\3649\003\321O\325"
 315      5698027D 
 315      F600F439 
 315      03D14FD5 
 316 095b D7CF6C19 		.ascii	"\327\317l\031\250\267\037\275L6\035\377\252\274\310"
 316      A8B71FBD 
 316      4C361DFF 
 316      AABCC8
 317 096a 3D6F18CC 		.ascii	"=o\030\314i\327>\310\315\023\374x\335\024p\336o\307"
 317      69D73EC8 
 317      CD13FC78 
 317      DD1470DE 
 317      6FC7
 318 097c 2D74E36B 		.ascii	"-t\343k\317\3641\365v\273`:HH\016\365\361\364\207\012"
 318      CFF431F5 
 318      76BB603A 
 318      48480EF5 
 318      F1F4870A 
 319 0990 C59CEDE3 		.ascii	"\305\234\355\343\321\005j\237M\035\007.\324\011f9\346"
 319      D1056A9F 
 319      4D1D072E 
 319      D4096639 
 319      E6
 320 09a1 676C04F5 		.ascii	"gl\004\365\360\215\263`oX\005#\307\210\264_\226YAj\244"
 320      F08DB360 
 320      6F580523 
 320      C788B45F 
 320      9659416A 
 321 09b6 85421E2B 		.ascii	"\205B\036+\"\243\313M\252\313\226\246\017:L\226\015"
ARM GAS  /tmp/cc9zij47.s 			page 25


 321      22A3CB4D 
 321      AACB96A6 
 321      0F3A4C96 
 321      0D
 322 09c7 726FBA50 		.ascii	"ro\272P%e\034/\262j\002\363h\316$G].\215\271f\323\221"
 322      25651C2F 
 322      B26A02F3 
 322      68CE2447 
 322      5D2E8DB9 
 323 09de D120F7B6 		.ascii	"\321 \367\266\013)R\236\030]\232\312\236\252\011-\326"
 323      0B29529E 
 323      185D9ACA 
 323      9EAA092D 
 323      D6
 324 09ef 9943A5EA 		.ascii	"\231C\245\352\233_f\226\352\335[\346\346\0256I\276\200"
 324      9B5F6696 
 324      EADD5BE6 
 324      E6153649 
 324      BE80
 325 0a01 32EE6E68 		.ascii	"2\356nh\330\361=3\353\225\267\312-\253\355\014\"\260"
 325      D8F13D33 
 325      EB95B7CA 
 325      2DABED0C 
 325      22B0
 326 0a13 4E62BED9 		.ascii	"Nb\276\331\230g5\225r\313\027\033\333,\301\263\316,"
 326      98673595 
 326      72CB171B 
 326      DB2CC1B3 
 326      CE2C
 327 0a25 E50FD042 		.ascii	"\345\017\320B\245u\037\351\351\025\245\257\277_\320"
 327      A5751FE9 
 327      E915A5AF 
 327      BF5FD0
 328 0a34 4F25FF37 		.ascii	"O%\3777\327\350\317.w\026\323Y\242\371\3041F|\337@\304"
 328      D7E8CF2E 
 328      7716D359 
 328      A2F9C431 
 328      467CDF40 
 329 0a49 68A0B3D2 		.ascii	"h\240\263\322b\240\341^\236G\273s\215\334\234\375\376"
 329      62A0E15E 
 329      9E47BB73 
 329      8DDC9CFD 
 329      FE
 330 0a5a 469F5387 		.ascii	"F\237S\207\215\3616\230\361V\267\342%\270r\252\277\177"
 330      8DF13698 
 330      F156B7E2 
 330      25B872AA 
 330      BF7F
 331 0a6c A43EC568 		.ascii	"\244>\305h\305F\244\231\326j\354m\302\250\305\245<\003"
 331      C546A499 
 331      D66AEC6D 
 331      C2A8C5A5 
 331      3C03
 332 0a7e B60FE4C8 		.ascii	"\266\017\344\310\340\260X\220\373\217\200\227=[\004"
 332      E0B05890 
 332      FB8F8097 
 332      3D5B04
ARM GAS  /tmp/cc9zij47.s 			page 26


 333 0a8d BB89117E 		.ascii	"\273\211\021~K\317U\332\036\026\3131-=\346\222U\364"
 333      4BCF55DA 
 333      1E16CB31 
 333      2D3DE692 
 333      55F4
 334 0a9f 5162024C 		.ascii	"Qb\002L\333s-\315\264_\2752^z\340\341\3019\232>\024"
 334      DB732DCD 
 334      B45FBD32 
 334      5E7AE0E1 
 334      C1399A3E 
 335 0ab4 98A5C709 		.ascii	"\230\245\307\011*D\357\021o\026\3139\223^\030\231G="
 335      2A44EF11 
 335      6F16CB39 
 335      935E1899 
 335      473D
 336 0ac6 14D2DD6A 		.ascii	"\024\322\335jf\240Z:\342y\212\3307\210\365\221\276."
 336      66A05A3A 
 336      E2798AD8 
 336      3788F591 
 336      BE2E
 337 0ad8 CE0972AD 		.ascii	"\316\011r\255\002^\201l#\365G\244\336!\244]\215X\214"
 337      025E816C 
 337      23F547A4 
 337      DE21A45D 
 337      8D588C
 338 0aeb BC5948B5 		.ascii	"\274YH\265\276\333%\2306\377\031\330\211\026aM1\254"
 338      BEDB2598 
 338      36FF19D8 
 338      8916614D 
 338      31AC
 339 0afd 123A350D 		.ascii	"\022:5\015r\037g1G\336\3558Gf{\002\243\035>\254\300"
 339      721F6731 
 339      47DEED38 
 339      47667B02 
 339      A31D3EAC 
 340 0b12 E4FA8195 		.ascii	"\344\372\201\225G\003\316\002\265k\2719\016\255U\352"
 340      4703CE02 
 340      B56BB939 
 340      0EAD55EA 
 341 0b22 2606B94D 		.ascii	"&\006\271Mxjhx\364\005t])T\225\342p\356^\334GsW\265"
 341      786A6878 
 341      F405745D 
 341      295495E2 
 341      70EE5EDC 
 342 0b3a 208F5ECC 		.ascii	" \217^\314\323y]Yf\354\322X\362\017\263\332\007\254"
 342      D3795D59 
 342      66ECD258 
 342      F20FB3DA 
 342      07AC
 343 0b4c 46A057F2 		.ascii	"F\240W\362\232\025\277\211%\206\321|J\330\245Z(6\261"
 343      9A15BF89 
 343      2586D17C 
 343      4AD8A55A 
 343      2836B1
 344 0b5f 0B45A3E7 		.ascii	"\013E\243\347\032\255\2618\224\205y\017;\232\367\307"
 344      1AADB138 
 344      9485790F 
ARM GAS  /tmp/cc9zij47.s 			page 27


 344      3B9AF7C7 
 345 0b6f 69022AC8 		.ascii	"i\002*\310u\030Q\302\215@\315\240Z\343DM\212\276e\005"
 345      751851C2 
 345      8D40CDA0 
 345      5AE3444D 
 345      8ABE6505 
 346 0b83 A4C9364D 		.ascii	"\244\3116M-\277\232\014\234:\237k\273\207|\304\261;"
 346      2DBF9A0C 
 346      9C3A9F6B 
 346      BB877CC4 
 346      B13B
 347 0b95 DC486935 		.ascii	"\334Hi5\214\315\255\361\334\262C\335\016\352\371)#\214"
 347      8CCDADF1 
 347      DCB243DD 
 347      0EEAF929 
 347      238C
 348 0ba7 6A5F1AA6 		.ascii	"j_\032\246\226\340^\221\262\007\351\024\354W\345\352"
 348      96E05E91 
 348      B207E914 
 348      EC57E5EA 
 349 0bb7 54C899EE 		.ascii	"T\310\231\356\230#\335\322\224t]\216tsS\322\035w\244"
 349      9823DDD2 
 349      94745D8E 
 349      747353D2 
 349      1D77A4
 350 0bca 5B9492EE 		.ascii	"[\224\222\356\204`\332E\263\320\256NI{\222I\374\333"
 350      8460DA45 
 350      B3D0AE4E 
 350      497B9249 
 350      FCDB
 351 0bdc AAC4AAB8 		.ascii	"\252\304\252\2704=T!\206\023!\331\373\370S\177,\232"
 351      343D5421 
 351      861321D9 
 351      FBF8537F 
 351      2C9A
 352 0bee 848A8A8B 		.ascii	"\204\212\212\213K\324\277x\262D\222K\242\261Heu\251"
 352      4BD4BF78 
 352      B244924B 
 352      A2B14865 
 352      75A9
 353 0c00 5812A9C0 		.ascii	"X\022\251\300\315\212+P\036C\345MF_\020C\362/K\252\223"
 353      CD8A2B50 
 353      1E43E54D 
 353      465F1043 
 353      F22F4BAA 
 354 0c15 5249653C 		.ascii	"RIe<\022\256,\231\032\215a\342\312\350\324\222\362H"
 354      12AE2C99 
 354      1A8D61E2 
 354      CAE8D492 
 354      F248
 355 0c27 A4242C55 		.ascii	"\244$,U\335\027\213\307\304\373\304\360\324h\311\370"
 355      DD178BC7 
 355      C4FBC4F0 
 355      D468C9F8 
 356 0c37 E2078BEF 		.ascii	"\342\007\213\357\247\220I\271\264T,\003\310|\200,\027"
 356      A79049B9 
 356      B4542C03 
ARM GAS  /tmp/cc9zij47.s 			page 28


 356      C87C802C 
 356      17
 357 0c48 E5B2EA58 		.ascii	"\345\262\352X$$\377\320Q\000h\025\211K\"\020\344V\204"
 357      2424FFD0 
 357      51006815 
 357      894B2210 
 357      E45684
 358 0c5b 12527C5A 		.ascii	"\022R|Z\264T\224\362\210\364P\301snR~.\\\031-\217\205"
 358      B45494F2 
 358      88F450C1 
 358      736E527E 
 358      2E5C192D 
 359 0c71 E4511694 		.ascii	"\344Q\026\224D\\\222\223%\217\376\376\311IO\326\002"
 359      445C9293 
 359      258FFEFE 
 359      C9494FD6 
 359      02
 360 0c82 9486E3AF 		.ascii	"\224\206\343\257\216\306\344\007\306\207\344?\271\323"
 360      8EC6E407 
 360      C687E43F 
 360      B9D3
 361 0c90 8082C39F 		.ascii	"\200\202\303\237\371;\243\033@\003\013\017\021('&\326"
 361      F93BA31B 
 361      40030B0F 
 361      11282726 
 361      D6
 362 0ca1 CA395854 		.ascii	"\3129XT\256:\007\033\215\253\360V\204\312$Q\364UU\313"
 362      AE3A071B 
 362      8DABF056 
 362      84CA2451 
 362      F45555CB 
 363 0cb5 626D481E 		.ascii	"bmH\036\351\254\266\\\213E\215T\204H\323\333\345\012"
 363      E9ACB65C 
 363      8B458D54 
 363      8448D3DB 
 363      E50A
 364 0cc7 09B44D86 		.ascii	"\011\264M\206\236\257\026\253\301\370w;\022&\247'\345"
 364      9EAF16AB 
 364      C1F8773B 
 364      1226A727 
 364      E5
 365 0cd8 E9093109 		.ascii	"\351\0111\011\324C\200\332D\347\354\346d\244\242\024"
 365      D44380DA 
 365      44E7ECE6 
 365      64A4A214 
 366 0ce8 F3539B87 		.ascii	"\363S\233\207\344\000%\365&BX\015\270%$q\232ONH\321"
 366      E40025F5 
 366      2642580D 
 366      B8252471 
 366      9A4F4E48 
 367 0cfd 78481E9F 		.ascii	"xH\036\237\322\322\361\252D\264R\224\222%\217O\232\004"
 367      D2D2F1AA 
 367      44B45294 
 367      92258F4F 
 367      9A04
 368 0d0f E0BA3CC4 		.ascii	"\340\272<\304\360\343\356\017\251`\321\270/\022\217"
 368      F0E3EE0F 
ARM GAS  /tmp/cc9zij47.s 			page 29


 368      A960D1B8 
 368      2F128F
 369 0d1e 816E721E 		.ascii	"\201nr\036\246\016\301\267\210\\\373\223\364.\014M{"
 369      A60EC1B7 
 369      885CFB93 
 369      F42E0C4D 
 369      7B
 370 0d2f B00AA349 		.ascii	"\260\012\243Ib9\270!$\363\322x^\372\031/=\300K\017\362"
 370      6239B821 
 370      24F3D278 
 370      5EFA192F 
 370      3DC04B0F 
 371 0d44 D2045E7A 		.ascii	"\322\004^zH\220\306\216\2012\226\257\224\3406\316\223"
 371      4890C68E 
 371      813296AF 
 371      94E036CE 
 371      93
 372 0d55 0801B20F 		.ascii	"\010\001\262\017+R#Jp\217WB\334\344D*\302\022\326.\\"
 372      2B52234A 
 372      708F5742 
 372      DCE4442A 
 372      C212D62E 
 373 0d6a 25FAE5A4 		.ascii	"%\372\345\244\034\226\301\256>,\342\004\270'B\344\215"
 373      1C96C1AE 
 373      3E2CE204 
 373      B82742E4 
 373      8D
 374 0d7b 4FAE8A97 		.ascii	"O\256\212\227\212\344wYe\270<\351\223%\261,I4\300\017"
 374      8AE47759 
 374      65B83CE9 
 374      9325B12C 
 374      4934C00F 
 375 0d8f 9EAA6439 		.ascii	"\236\252d9|\324\325\222J\247\303\013\277X\033\225#@"
 375      7CD4D592 
 375      4AA7C30B 
 375      BF581B95 
 375      2340
 376 0da1 E6AD91E3 		.ascii	"\346\255\221\343S\237M\014\325\214\012\004\242$\306"
 376      539F4D0C 
 376      D58C0A04 
 376      A224C6
 377 0db0 2200E7A9 		.ascii	"\"\000\347\251\221e)\221\017FN\212U\341D\005h\345\034"
 377      91652991 
 377      0F464E8A 
 377      55E14405 
 377      68E51C
 378 0dc3 0AD004D4 		.ascii	"\012\320\004\324\365i>\364Db2\000$Cp\007\006\3601\001"
 378      F5693EF4 
 378      44623200 
 378      24437007 
 378      06F03101 
 379 0dd7 37089744 		.ascii	"7\010\227D\2368M\214\311U\341\344s \212X\203\037\204"
 379      9E384D8C 
 379      C955E1E4 
 379      73208A58 
 379      831F84
 380 0dea 44A8BA40 		.ascii	"D\250\272@\017\201\312h\022(og\202\002\277\011$B5\341"
ARM GAS  /tmp/cc9zij47.s 			page 30


 380      0F81CA68 
 380      12286F67 
 380      8202BF09 
 380      244235E1 
 381 0dfe A81C8D95 		.ascii	"\250\034\215\225\347&B \275\312\204<\302\0131!\306 "
 381      E7264220 
 381      BDCA843C 
 381      C20B3121 
 381      C620
 382 0e10 A6CBA115 		.ascii	"\246\313\241\025\260\300\355s\261\346\341J\342?x\231"
 382      B0C0ED73 
 382      B1E6E14A 
 382      E23F7899 
 383 0e20 88C72B7D 		.ascii	"\210\307+}U\252hp\217\327\304D\311[EB\306S\201i\274"
 383      55AA6870 
 383      8FD7C444 
 383      C95B4542 
 383      C6538169 
 384 0e35 53ABCB40 		.ascii	"S\253\313@\357|Y\004\356\352s\262\220\352\212\337bm"
 384      EF7C5904 
 384      EEEA73B2 
 384      90EA8ADF 
 384      626D
 385 0e47 F11D94E4 		.ascii	"\361\035\224\344\247\214\341\247\214\345\247\334\317"
 385      A78CE1A7 
 385      8CE5A7DC 
 385      CF
 386 0e54 4F19C74F 		.ascii	"O\031\307O\031\317\327\204o\303\35136$\326\212\021\310"
 386      19CFD784 
 386      6FC3E933 
 386      3624D68A 
 386      11C8
 387 0e66 83BB6C09 		.ascii	"\203\273l\011I\037\025Ayj\323\244(W'<\241_\201`\371"
 387      491F1541 
 387      796AD3A4 
 387      2857273C 
 387      A15F8160 
 388 0e7b 21C2359C 		.ascii	"!\3025\234L\212\222\014\326\236\014\015\376\000n\255"
 388      4C8A920C 
 388      D69E0C0D 
 388      FE006EAD 
 389 0e8b 4EE6AA3F 		.ascii	"N\346\252?~\015\271\230\247>>Z\011\035\001d\314$\360"
 389      7E0DB998 
 389      A73E3E5A 
 389      091D0164 
 389      CC24F0
 390 0e9e C5E3A2AC 		.ascii	"\305\343\242\2546{f\210\372\361\351\251\317\212\021"
 390      367B6688 
 390      FAF1E9A9 
 390      CF8A11
 391 0ead F9895854 		.ascii	"\371\211XT\016\020D\314)\007?\371q\025\011'\305\034"
 391      0E1044CC 
 391      29073FF9 
 391      71150927 
 391      C51C
 392 0ebf 1C461EC2 		.ascii	"\034F\036\302\033\336\205\245R\260\204O\223:/\021\226"
 392      1BDE85A5 
ARM GAS  /tmp/cc9zij47.s 			page 31


 392      52B0844F 
 392      933A2F11 
 392      96
 393 0ed0 65518A61 		.ascii	"eQ\212a\252\200.\360\330;\212\245xiX\016\027\3237\243"
 393      AA802EF0 
 393      D83B8AA5 
 393      7869580E 
 393      17D337A3 
 394 0ee4 31AB7B8B 		.ascii	"1\253{\213\302X\222\260\034\215\307\212\302\261\322"
 394      C25892B0 
 394      1C8DC78A 
 394      C2B1D2
 395 0ef3 A232295C 		.ascii	"\2422)\\^\005\216U\337\340\306\350\377L6\264\215"
 395      5E058E55 
 395      DFE0C6E8 
 395      FF4C36B4 
 395      8D
 396              		.text
 397              		.section	.gnu.lto_.symtab.85edd30e49bc20fd,"",%progbits
 398 0000 5F746573 		.ascii	"_test_assert\000\000\002\000\000\000\000\000\000\000"
 398      745F6173 
 398      73657274 
 398      00000200 
 398      00000000 
 399 0016 00009501 		.ascii	"\000\000\225\001\000\000chHeapStatus\000\000\002\000"
 399      00006368 
 399      48656170 
 399      53746174 
 399      75730000 
 400 002c 00000000 		.ascii	"\000\000\000\000\000\000\000\000\235\001\000\000chH"
 400      00000000 
 400      9D010000 
 400      636848
 401 003b 65617046 		.ascii	"eapFree\000\000\002\000\000\000\000\000\000\000\000"
 401      72656500 
 401      00020000 
 401      00000000 
 401      0000
 402 004d 00A30100 		.ascii	"\000\243\001\000\000chHeapAlloc\000\000\002\000\000"
 402      00636848 
 402      65617041 
 402      6C6C6F63 
 402      00000200 
 403 0062 00000000 		.ascii	"\000\000\000\000\000\000\000\247\001\000\000chCoreG"
 403      000000A7 
 403      01000063 
 403      68436F72 
 403      6547
 404 0074 65745374 		.ascii	"etStatusX\000\000\002\000\000\000\000\000\000\000\000"
 404      61747573 
 404      58000002 
 404      00000000 
 404      00000000 
 405 0088 00AC0100 		.ascii	"\000\254\001\000\000chHeapObjectInit\000\000\002\000"
 405      00636848 
 405      6561704F 
 405      626A6563 
ARM GAS  /tmp/cc9zij47.s 			page 32


 405      74496E69 
 406 00a1 00000000 		.ascii	"\000\000\000\000\000\000\000\000\257\001\000\000pat"
 406      00000000 
 406      AF010000 
 406      706174
 407 00b0 7465726E 		.ascii	"ternheap\000\000\000\000\000\000\000\000\000\000\000"
 407      68656170 
 407      00000000 
 407      00000000 
 407      000000
 408 00c3 00B90100 		.ascii	"\000\271\001\000\000testheap1\000\000\000\000\000\000"
 408      00746573 
 408      74686561 
 408      70310000 
 408      00000000 
 409 00d7 00000000 		.ascii	"\000\000\000\000\000\000\317\001\000\000test\000\000"
 409      0000CF01 
 409      00007465 
 409      73740000 
 410 00e7 02000000 		.ascii	"\002\000\000\000\000\000\000\000\000\000\267\001\000"
 410      00000000 
 410      0000B701 
 410      00
 411 00f4 00       		.ascii	"\000"
 412              		.text
 413              		.section	.gnu.lto_.opts,"",%progbits
 414 0000 272D6D63 		.ascii	"'-mcpu=cortex-m4''-mno-thumb-interwork''-mthumb''-g"
 414      70753D63 
 414      6F727465 
 414      782D6D34 
 414      27272D6D 
 415 0033 67646227 		.ascii	"gdb''-O2''-fomit-frame-pointer''-falign-functions=1"
 415      272D4F32 
 415      27272D66 
 415      6F6D6974 
 415      2D667261 
 416 0066 3627272D 		.ascii	"6''-ffunction-sections''-fdata-sections''-fno-commo"
 416      6666756E 
 416      6374696F 
 416      6E2D7365 
 416      6374696F 
 417 0099 6E27272D 		.ascii	"n''-flto'\000"
 417      666C746F 
 417      2700
 418              		.text
 419              		.cfi_sections	.debug_frame
 420              		.section	.text.heap1_execute,"ax",%progbits
 421              		.align	2
 422              		.p2align 4,,15
 423              		.thumb
 424              		.thumb_func
 425              		.type	heap1_execute, %function
 426              	heap1_execute:
 427              	.LFB242:
 428              		.file 1 "../../../test/rt/testheap.c"
 429              		.loc 1 69 0
 430              		.cfi_startproc
ARM GAS  /tmp/cc9zij47.s 			page 33


 431              		@ args = 0, pretend = 0, frame = 8
 432              		@ frame_needed = 0, uses_anonymous_args = 0
 433 0000 70B5     		push	{r4, r5, r6, lr}
 434              	.LCFI0:
 435              		.cfi_def_cfa_offset 16
 436              		.cfi_offset 4, -16
 437              		.cfi_offset 5, -12
 438              		.cfi_offset 6, -8
 439              		.cfi_offset 14, -4
 440 0002 82B0     		sub	sp, sp, #8
 441              	.LCFI1:
 442              		.cfi_def_cfa_offset 24
 443              		.loc 1 74 0
 444 0004 FFF7FEFF 		bl	chCoreGetStatusX
 445              	.LVL0:
 446              		.loc 1 80 0
 447 0008 01A9     		add	r1, sp, #4
 448 000a 0020     		movs	r0, #0
 449 000c FFF7FEFF 		bl	chHeapStatus
 450              	.LVL1:
 451              		.loc 1 81 0
 452 0010 1021     		movs	r1, #16
 453 0012 0020     		movs	r0, #0
 454 0014 FFF7FEFF 		bl	chHeapAlloc
 455              	.LVL2:
 456              		.loc 1 82 0
 457 0018 011C     		adds	r1, r0, #0
 458 001a 18BF     		it	ne
 459 001c 0121     		movne	r1, #1
 460 001e 0446     		mov	r4, r0
 461 0020 0120     		movs	r0, #1
 462              	.LVL3:
 463 0022 FFF7FEFF 		bl	_test_assert
 464              	.LVL4:
 465 0026 0546     		mov	r5, r0
 466 0028 08B1     		cbz	r0, .L7
 467              	.LVL5:
 468              	.L1:
 469              		.loc 1 140 0
 470 002a 02B0     		add	sp, sp, #8
 471 002c 70BD     		pop	{r4, r5, r6, pc}
 472              	.LVL6:
 473              	.L7:
 474              		.loc 1 83 0
 475 002e 2046     		mov	r0, r4
 476 0030 FFF7FEFF 		bl	chHeapFree
 477              	.LVL7:
 478              		.loc 1 84 0
 479 0034 6FF0FF01 		mvn	r1, #255
 480 0038 2846     		mov	r0, r5
 481 003a FFF7FEFF 		bl	chHeapAlloc
 482              	.LVL8:
 483              		.loc 1 85 0
 484 003e D0F10101 		rsbs	r1, r0, #1
 485 0042 38BF     		it	cc
 486 0044 0021     		movcc	r1, #0
 487 0046 0220     		movs	r0, #2
ARM GAS  /tmp/cc9zij47.s 			page 34


 488              	.LVL9:
 489 0048 FFF7FEFF 		bl	_test_assert
 490              	.LVL10:
 491 004c 0028     		cmp	r0, #0
 492 004e ECD1     		bne	.L1
 493              		.loc 1 88 0
 494 0050 01A9     		add	r1, sp, #4
 495 0052 7C48     		ldr	r0, .L8
 496 0054 FFF7FEFF 		bl	chHeapStatus
 497              	.LVL11:
 498              		.loc 1 91 0
 499 0058 1021     		movs	r1, #16
 500 005a 7A48     		ldr	r0, .L8
 501 005c FFF7FEFF 		bl	chHeapAlloc
 502              	.LVL12:
 503              		.loc 1 92 0
 504 0060 1021     		movs	r1, #16
 505              		.loc 1 91 0
 506 0062 0546     		mov	r5, r0
 507              	.LVL13:
 508              		.loc 1 92 0
 509 0064 7748     		ldr	r0, .L8
 510              	.LVL14:
 511 0066 FFF7FEFF 		bl	chHeapAlloc
 512              	.LVL15:
 513              		.loc 1 93 0
 514 006a 1021     		movs	r1, #16
 515              		.loc 1 92 0
 516 006c 0446     		mov	r4, r0
 517              	.LVL16:
 518              		.loc 1 93 0
 519 006e 7548     		ldr	r0, .L8
 520              	.LVL17:
 521 0070 FFF7FEFF 		bl	chHeapAlloc
 522              	.LVL18:
 523 0074 0646     		mov	r6, r0
 524              	.LVL19:
 525              		.loc 1 94 0
 526 0076 2846     		mov	r0, r5
 527              	.LVL20:
 528 0078 FFF7FEFF 		bl	chHeapFree
 529              	.LVL21:
 530              		.loc 1 95 0
 531 007c 2046     		mov	r0, r4
 532 007e FFF7FEFF 		bl	chHeapFree
 533              	.LVL22:
 534              		.loc 1 96 0
 535 0082 3046     		mov	r0, r6
 536 0084 FFF7FEFF 		bl	chHeapFree
 537              	.LVL23:
 538              		.loc 1 97 0
 539 0088 6946     		mov	r1, sp
 540 008a 6E48     		ldr	r0, .L8
 541 008c FFF7FEFF 		bl	chHeapStatus
 542              	.LVL24:
 543 0090 B0F1010E 		subs	lr, r0, #1
 544 0094 DEF10001 		rsbs	r1, lr, #0
ARM GAS  /tmp/cc9zij47.s 			page 35


 545 0098 51EB0E01 		adcs	r1, r1, lr
 546 009c 0320     		movs	r0, #3
 547 009e FFF7FEFF 		bl	_test_assert
 548              	.LVL25:
 549 00a2 0028     		cmp	r0, #0
 550 00a4 C1D1     		bne	.L1
 551              		.loc 1 100 0
 552 00a6 1021     		movs	r1, #16
 553 00a8 6648     		ldr	r0, .L8
 554 00aa FFF7FEFF 		bl	chHeapAlloc
 555              	.LVL26:
 556              		.loc 1 101 0
 557 00ae 1021     		movs	r1, #16
 558              		.loc 1 100 0
 559 00b0 0446     		mov	r4, r0
 560              	.LVL27:
 561              		.loc 1 101 0
 562 00b2 6448     		ldr	r0, .L8
 563              	.LVL28:
 564 00b4 FFF7FEFF 		bl	chHeapAlloc
 565              	.LVL29:
 566              		.loc 1 102 0
 567 00b8 1021     		movs	r1, #16
 568              		.loc 1 101 0
 569 00ba 0546     		mov	r5, r0
 570              	.LVL30:
 571              		.loc 1 102 0
 572 00bc 6148     		ldr	r0, .L8
 573              	.LVL31:
 574 00be FFF7FEFF 		bl	chHeapAlloc
 575              	.LVL32:
 576              		.loc 1 103 0
 577 00c2 FFF7FEFF 		bl	chHeapFree
 578              	.LVL33:
 579              		.loc 1 104 0
 580 00c6 2846     		mov	r0, r5
 581 00c8 FFF7FEFF 		bl	chHeapFree
 582              	.LVL34:
 583              		.loc 1 105 0
 584 00cc 2046     		mov	r0, r4
 585 00ce FFF7FEFF 		bl	chHeapFree
 586              	.LVL35:
 587              		.loc 1 106 0
 588 00d2 6946     		mov	r1, sp
 589 00d4 5B48     		ldr	r0, .L8
 590 00d6 FFF7FEFF 		bl	chHeapStatus
 591              	.LVL36:
 592 00da 0138     		subs	r0, r0, #1
 593 00dc 4142     		rsbs	r1, r0, #0
 594 00de 4141     		adcs	r1, r1, r0
 595 00e0 0420     		movs	r0, #4
 596 00e2 FFF7FEFF 		bl	_test_assert
 597              	.LVL37:
 598 00e6 0028     		cmp	r0, #0
 599 00e8 9FD1     		bne	.L1
 600              		.loc 1 109 0
 601 00ea 1121     		movs	r1, #17
ARM GAS  /tmp/cc9zij47.s 			page 36


 602 00ec 5548     		ldr	r0, .L8
 603 00ee FFF7FEFF 		bl	chHeapAlloc
 604              	.LVL38:
 605              		.loc 1 110 0
 606 00f2 1021     		movs	r1, #16
 607              		.loc 1 109 0
 608 00f4 0446     		mov	r4, r0
 609              	.LVL39:
 610              		.loc 1 110 0
 611 00f6 5348     		ldr	r0, .L8
 612              	.LVL40:
 613 00f8 FFF7FEFF 		bl	chHeapAlloc
 614              	.LVL41:
 615 00fc 0546     		mov	r5, r0
 616              	.LVL42:
 617              		.loc 1 111 0
 618 00fe 2046     		mov	r0, r4
 619              	.LVL43:
 620 0100 FFF7FEFF 		bl	chHeapFree
 621              	.LVL44:
 622              		.loc 1 112 0
 623 0104 6946     		mov	r1, sp
 624 0106 4F48     		ldr	r0, .L8
 625 0108 FFF7FEFF 		bl	chHeapStatus
 626              	.LVL45:
 627 010c 821E     		subs	r2, r0, #2
 628 010e 5142     		rsbs	r1, r2, #0
 629 0110 5141     		adcs	r1, r1, r2
 630 0112 0520     		movs	r0, #5
 631 0114 FFF7FEFF 		bl	_test_assert
 632              	.LVL46:
 633 0118 0028     		cmp	r0, #0
 634 011a 86D1     		bne	.L1
 635              		.loc 1 113 0
 636 011c 1021     		movs	r1, #16
 637 011e 4948     		ldr	r0, .L8
 638 0120 FFF7FEFF 		bl	chHeapAlloc
 639              	.LVL47:
 640              		.loc 1 116 0
 641 0124 6946     		mov	r1, sp
 642              		.loc 1 113 0
 643 0126 0446     		mov	r4, r0
 644              	.LVL48:
 645              		.loc 1 116 0
 646 0128 4648     		ldr	r0, .L8
 647              	.LVL49:
 648 012a FFF7FEFF 		bl	chHeapStatus
 649              	.LVL50:
 650 012e 0128     		cmp	r0, #1
 651 0130 08BF     		it	eq
 652 0132 0146     		moveq	r1, r0
 653 0134 06D0     		beq	.L3
 654              		.loc 1 116 0 is_stmt 0 discriminator 2
 655 0136 6946     		mov	r1, sp
 656 0138 4248     		ldr	r0, .L8
 657 013a FFF7FEFF 		bl	chHeapStatus
 658              	.LVL51:
ARM GAS  /tmp/cc9zij47.s 			page 37


 659 013e 831E     		subs	r3, r0, #2
 660 0140 5942     		rsbs	r1, r3, #0
 661 0142 5941     		adcs	r1, r1, r3
 662              	.L3:
 663              		.loc 1 116 0 discriminator 4
 664 0144 0620     		movs	r0, #6
 665 0146 FFF7FEFF 		bl	_test_assert
 666              	.LVL52:
 667 014a 0028     		cmp	r0, #0
 668 014c 7FF46DAF 		bne	.L1
 669              		.loc 1 118 0 is_stmt 1
 670 0150 2846     		mov	r0, r5
 671 0152 FFF7FEFF 		bl	chHeapFree
 672              	.LVL53:
 673              		.loc 1 119 0
 674 0156 2046     		mov	r0, r4
 675 0158 FFF7FEFF 		bl	chHeapFree
 676              	.LVL54:
 677              		.loc 1 120 0
 678 015c 6946     		mov	r1, sp
 679 015e 3948     		ldr	r0, .L8
 680 0160 FFF7FEFF 		bl	chHeapStatus
 681              	.LVL55:
 682 0164 B0F1010C 		subs	ip, r0, #1
 683 0168 DCF10001 		rsbs	r1, ip, #0
 684 016c 51EB0C01 		adcs	r1, r1, ip
 685 0170 0720     		movs	r0, #7
 686 0172 FFF7FEFF 		bl	_test_assert
 687              	.LVL56:
 688 0176 0028     		cmp	r0, #0
 689 0178 7FF457AF 		bne	.L1
 690              		.loc 1 123 0
 691 017c 1021     		movs	r1, #16
 692 017e 3148     		ldr	r0, .L8
 693 0180 FFF7FEFF 		bl	chHeapAlloc
 694              	.LVL57:
 695              		.loc 1 124 0
 696 0184 1021     		movs	r1, #16
 697              		.loc 1 123 0
 698 0186 0546     		mov	r5, r0
 699              	.LVL58:
 700              		.loc 1 124 0
 701 0188 2E48     		ldr	r0, .L8
 702              	.LVL59:
 703 018a FFF7FEFF 		bl	chHeapAlloc
 704              	.LVL60:
 705 018e 0446     		mov	r4, r0
 706              	.LVL61:
 707              		.loc 1 125 0
 708 0190 2846     		mov	r0, r5
 709              	.LVL62:
 710 0192 FFF7FEFF 		bl	chHeapFree
 711              	.LVL63:
 712              		.loc 1 126 0
 713 0196 6946     		mov	r1, sp
 714 0198 2A48     		ldr	r0, .L8
 715 019a FFF7FEFF 		bl	chHeapStatus
ARM GAS  /tmp/cc9zij47.s 			page 38


 716              	.LVL64:
 717 019e B0F1020E 		subs	lr, r0, #2
 718 01a2 DEF10001 		rsbs	r1, lr, #0
 719 01a6 51EB0E01 		adcs	r1, r1, lr
 720 01aa 0820     		movs	r0, #8
 721 01ac FFF7FEFF 		bl	_test_assert
 722              	.LVL65:
 723 01b0 0028     		cmp	r0, #0
 724 01b2 7FF43AAF 		bne	.L1
 725              		.loc 1 127 0
 726 01b6 2021     		movs	r1, #32
 727 01b8 2248     		ldr	r0, .L8
 728 01ba FFF7FEFF 		bl	chHeapAlloc
 729              	.LVL66:
 730              		.loc 1 128 0
 731 01be FFF7FEFF 		bl	chHeapFree
 732              	.LVL67:
 733              		.loc 1 129 0
 734 01c2 2046     		mov	r0, r4
 735 01c4 FFF7FEFF 		bl	chHeapFree
 736              	.LVL68:
 737              		.loc 1 130 0
 738 01c8 6946     		mov	r1, sp
 739 01ca 1E48     		ldr	r0, .L8
 740 01cc FFF7FEFF 		bl	chHeapStatus
 741              	.LVL69:
 742 01d0 0138     		subs	r0, r0, #1
 743 01d2 4142     		rsbs	r1, r0, #0
 744 01d4 4141     		adcs	r1, r1, r0
 745 01d6 0920     		movs	r0, #9
 746 01d8 FFF7FEFF 		bl	_test_assert
 747              	.LVL70:
 748 01dc 0028     		cmp	r0, #0
 749 01de 7FF424AF 		bne	.L1
 750              		.loc 1 133 0
 751 01e2 6946     		mov	r1, sp
 752 01e4 1748     		ldr	r0, .L8
 753 01e6 FFF7FEFF 		bl	chHeapStatus
 754              	.LVL71:
 755              		.loc 1 134 0
 756 01ea 0099     		ldr	r1, [sp, #0]
 757 01ec 1548     		ldr	r0, .L8
 758 01ee FFF7FEFF 		bl	chHeapAlloc
 759              	.LVL72:
 760              		.loc 1 135 0
 761 01f2 6946     		mov	r1, sp
 762              		.loc 1 134 0
 763 01f4 0446     		mov	r4, r0
 764              	.LVL73:
 765              		.loc 1 135 0
 766 01f6 1348     		ldr	r0, .L8
 767              	.LVL74:
 768 01f8 FFF7FEFF 		bl	chHeapStatus
 769              	.LVL75:
 770 01fc D0F10101 		rsbs	r1, r0, #1
 771 0200 38BF     		it	cc
 772 0202 0021     		movcc	r1, #0
ARM GAS  /tmp/cc9zij47.s 			page 39


 773 0204 0A20     		movs	r0, #10
 774 0206 FFF7FEFF 		bl	_test_assert
 775              	.LVL76:
 776 020a 0028     		cmp	r0, #0
 777 020c 7FF40DAF 		bne	.L1
 778              		.loc 1 136 0
 779 0210 2046     		mov	r0, r4
 780 0212 FFF7FEFF 		bl	chHeapFree
 781              	.LVL77:
 782              		.loc 1 138 0
 783 0216 6946     		mov	r1, sp
 784 0218 0A48     		ldr	r0, .L8
 785 021a FFF7FEFF 		bl	chHeapStatus
 786              	.LVL78:
 787 021e 421E     		subs	r2, r0, #1
 788 0220 5142     		rsbs	r1, r2, #0
 789 0222 5141     		adcs	r1, r1, r2
 790 0224 0B20     		movs	r0, #11
 791 0226 FFF7FEFF 		bl	_test_assert
 792              	.LVL79:
 793 022a 0028     		cmp	r0, #0
 794 022c 7FF4FDAE 		bne	.L1
 795              	.LVL80:
 796              		.loc 1 139 0
 797 0230 9DE80A00 		ldmia	sp, {r1, r3}
 798 0234 0C20     		movs	r0, #12
 799 0236 CB1A     		subs	r3, r1, r3
 800              	.LVL81:
 801 0238 5942     		rsbs	r1, r3, #0
 802              	.LVL82:
 803 023a 5941     		adcs	r1, r1, r3
 804 023c FFF7FEFF 		bl	_test_assert
 805              	.LVL83:
 806 0240 F3E6     		b	.L1
 807              	.L9:
 808 0242 00BF     		.align	2
 809              	.L8:
 810 0244 00000000 		.word	.LANCHOR0
 811              		.cfi_endproc
 812              	.LFE242:
 813              		.size	heap1_execute, .-heap1_execute
 814 0248 AFF30080 		.section	.text.heap1_setup,"ax",%progbits
 814      AFF30080 
 815              		.align	2
 816              		.p2align 4,,15
 817              		.thumb
 818              		.thumb_func
 819              		.type	heap1_setup, %function
 820              	heap1_setup:
 821              	.LFB241:
 822              		.loc 1 64 0
 823              		.cfi_startproc
 824              		@ args = 0, pretend = 0, frame = 0
 825              		@ frame_needed = 0, uses_anonymous_args = 0
 826              		@ link register save eliminated.
 827              		.loc 1 66 0
 828 0000 40F20000 		movw	r0, #:lower16:.LANCHOR0
ARM GAS  /tmp/cc9zij47.s 			page 40


 829 0004 40F20001 		movw	r1, #:lower16:test
 830 0008 C0F20000 		movt	r0, #:upper16:.LANCHOR0
 831 000c C0F20001 		movt	r1, #:upper16:test
 832 0010 4FF4CD62 		mov	r2, #1640
 833              		.loc 1 67 0
 834              		.loc 1 66 0
 835 0014 FFF7FEBF 		b	chHeapObjectInit
 836              	.LVL84:
 837              		.cfi_endproc
 838              	.LFE241:
 839              		.size	heap1_setup, .-heap1_setup
 840              		.global	patternheap
 841              		.global	testheap1
 842 0018 AFF30080 		.section	.rodata.patternheap,"a",%progbits
 842      AFF30080 
 843              		.align	2
 844              		.type	patternheap, %object
 845              		.size	patternheap, 8
 846              	patternheap:
 847 0000 00000000 		.word	testheap1
 848 0004 00000000 		.word	0
 849              		.section	.rodata.str1.4,"aMS",%progbits,1
 850              		.align	2
 851              	.LC0:
 852 0000 48656170 		.ascii	"Heap, allocation and fragmentation test\000"
 852      2C20616C 
 852      6C6F6361 
 852      74696F6E 
 852      20616E64 
 853              		.section	.rodata.testheap1,"a",%progbits
 854              		.align	2
 855              		.type	testheap1, %object
 856              		.size	testheap1, 16
 857              	testheap1:
 858 0000 00000000 		.word	.LC0
 859 0004 00000000 		.word	heap1_setup
 860 0008 00000000 		.word	0
 861 000c 00000000 		.word	heap1_execute
 862              		.section	.bss.test_heap,"aw",%nobits
 863              		.align	3
 864              		.set	.LANCHOR0,. + 0
 865              		.type	test_heap, %object
 866              		.size	test_heap, 32
 867              	test_heap:
 868 0000 00000000 		.space	32
 868      00000000 
 868      00000000 
 868      00000000 
 868      00000000 
 869              		.text
 870              	.Letext0:
 871              		.file 2 "/usr/local/bin/../lib/gcc/arm-none-eabi/4.7.2/include/stddef.h"
 872              		.file 3 "/usr/local/bin/../lib/gcc/arm-none-eabi/4.7.2/../../../../arm-none-eabi/include/stdint.h"
 873              		.file 4 "../../../os/rt/ports/ARMCMx/compilers/GCC/chtypes.h"
 874              		.file 5 "../../../os/rt/include/chsystypes.h"
 875              		.file 6 "../../../os/rt/include/chschd.h"
 876              		.file 7 "../../../os/rt/ports/ARMCMx/chcore.h"
ARM GAS  /tmp/cc9zij47.s 			page 41


 877              		.file 8 "../../../os/rt/ports/ARMCMx/chcore_v7m.h"
 878              		.file 9 "../../../os/rt/include/chtm.h"
 879              		.file 10 "../../../os/rt/include/chsem.h"
 880              		.file 11 "../../../os/rt/include/chmtx.h"
 881              		.file 12 "../../../os/rt/include/chmemcore.h"
 882              		.file 13 "../../../os/rt/include/chheap.h"
 883              		.file 14 "../../../test/rt/test.h"
 884              		.file 15 "../../../os/ext/CMSIS/include/core_cm4.h"